
Assignment01.elf:     file format elf32-littlenios2
Assignment01.elf
architecture: nios2, flags 0x00000112:
EXEC_P, HAS_SYMS, D_PAGED
start address 0x00000248

Program Header:
    LOAD off    0x00001020 vaddr 0x00000020 paddr 0x00000020 align 2**12
         filesz 0x00015de0 memsz 0x00015de0 flags r-x
    LOAD off    0x00017000 vaddr 0x01000000 paddr 0x01000000 align 2**12
         filesz 0x00000000 memsz 0x00000000 flags r-x
    LOAD off    0x00017000 vaddr 0x08000000 paddr 0x08000000 align 2**12
         filesz 0x00002500 memsz 0x0007fa24 flags rw-

Sections:
Idx Name          Size      VMA       LMA       File off  Algn
  0 .entry        00000000  01000000  01000000  00017000  2**5
                  CONTENTS, ALLOC, LOAD, READONLY, CODE
  1 .exceptions   00000228  00000020  00000020  00001020  2**2
                  CONTENTS, ALLOC, LOAD, READONLY, CODE
  2 .text         00015bb8  00000248  00000248  00001248  2**2
                  CONTENTS, ALLOC, LOAD, READONLY, CODE
  3 .rodata       000006f4  08000000  08000000  00017000  2**2
                  CONTENTS, ALLOC, LOAD, READONLY, DATA
  4 .rwdata       00001e0c  080006f4  080006f4  000176f4  2**2
                  CONTENTS, ALLOC, LOAD, DATA, SMALL_DATA
  5 .bss          0007d794  08002500  08002500  00019500  2**2
                  ALLOC, SMALL_DATA
  6 .comment      00000023  00000000  00000000  00019500  2**0
                  CONTENTS, READONLY
  7 .debug_aranges 00000e88  00000000  00000000  00019528  2**3
                  CONTENTS, READONLY, DEBUGGING
  8 .debug_pubnames 000023f1  00000000  00000000  0001a3b0  2**0
                  CONTENTS, READONLY, DEBUGGING
  9 .debug_info   0002edb1  00000000  00000000  0001c7a1  2**0
                  CONTENTS, READONLY, DEBUGGING
 10 .debug_abbrev 000095ce  00000000  00000000  0004b552  2**0
                  CONTENTS, READONLY, DEBUGGING
 11 .debug_line   0001a877  00000000  00000000  00054b20  2**0
                  CONTENTS, READONLY, DEBUGGING
 12 .debug_frame  00002e54  00000000  00000000  0006f398  2**2
                  CONTENTS, READONLY, DEBUGGING
 13 .debug_str    00002a99  00000000  00000000  000721ec  2**0
                  CONTENTS, READONLY, DEBUGGING
 14 .debug_loc    0000ddad  00000000  00000000  00074c85  2**0
                  CONTENTS, READONLY, DEBUGGING
 15 .debug_alt_sim_info 00000050  00000000  00000000  00082a34  2**2
                  CONTENTS, READONLY, DEBUGGING
 16 .debug_ranges 00000950  00000000  00000000  00082a88  2**3
                  CONTENTS, READONLY, DEBUGGING
 17 .thread_model 00000003  00000000  00000000  000888c3  2**0
                  CONTENTS, READONLY
 18 .cpu          00000005  00000000  00000000  000888c6  2**0
                  CONTENTS, READONLY
 19 .qsys         00000001  00000000  00000000  000888cb  2**0
                  CONTENTS, READONLY
 20 .simulation_enabled 00000001  00000000  00000000  000888cc  2**0
                  CONTENTS, READONLY
 21 .sysid_hash   00000004  00000000  00000000  000888cd  2**0
                  CONTENTS, READONLY
 22 .sysid_base   00000004  00000000  00000000  000888d1  2**0
                  CONTENTS, READONLY
 23 .sysid_time   00000004  00000000  00000000  000888d5  2**0
                  CONTENTS, READONLY
 24 .stderr_dev   00000009  00000000  00000000  000888d9  2**0
                  CONTENTS, READONLY
 25 .stdin_dev    00000009  00000000  00000000  000888e2  2**0
                  CONTENTS, READONLY
 26 .stdout_dev   00000009  00000000  00000000  000888eb  2**0
                  CONTENTS, READONLY
 27 .sopc_system_name 00000005  00000000  00000000  000888f4  2**0
                  CONTENTS, READONLY
 28 .sopcinfo     000adc75  00000000  00000000  000888f9  2**0
                  CONTENTS, READONLY
SYMBOL TABLE:
01000000 l    d  .entry	00000000 .entry
00000020 l    d  .exceptions	00000000 .exceptions
00000248 l    d  .text	00000000 .text
08000000 l    d  .rodata	00000000 .rodata
080006f4 l    d  .rwdata	00000000 .rwdata
08002500 l    d  .bss	00000000 .bss
00000000 l    d  .comment	00000000 .comment
00000000 l    d  .debug_aranges	00000000 .debug_aranges
00000000 l    d  .debug_pubnames	00000000 .debug_pubnames
00000000 l    d  .debug_info	00000000 .debug_info
00000000 l    d  .debug_abbrev	00000000 .debug_abbrev
00000000 l    d  .debug_line	00000000 .debug_line
00000000 l    d  .debug_frame	00000000 .debug_frame
00000000 l    d  .debug_str	00000000 .debug_str
00000000 l    d  .debug_loc	00000000 .debug_loc
00000000 l    d  .debug_alt_sim_info	00000000 .debug_alt_sim_info
00000000 l    d  .debug_ranges	00000000 .debug_ranges
0000028c l       .text	00000000 alt_after_alt_main
00000020 l       .exceptions	00000000 save_context
0000009c l       .exceptions	00000000 save_sp_to_pxCurrentTCB
000000ac l       .exceptions	00000000 hw_irq_test
00000150 l       .exceptions	00000000 soft_exceptions
000000c0 l       .exceptions	00000000 hw_irq_handler
000000d4 l       .exceptions	00000000 restore_context
0000016c l       .exceptions	00000000 call_scheduler
00000000 l    df *ABS*	00000000 alt_irq_handler.c
00000000 l    df *ABS*	00000000 croutine.c
08002504 l     O .bss	00000004 uxTopCoRoutineReadyPriority
08002508 l     O .bss	00000004 xCoRoutineTickCount
0800250c l     O .bss	00000004 xLastTickCount
08002510 l     O .bss	00000004 xPassedTicks
00000780 l     F .text	0000009c prvInitialiseCoRoutineLists
080025a0 l     O .bss	00000028 pxReadyCoRoutineLists
08002518 l     O .bss	00000004 pxOverflowDelayedCoRoutineList
08002514 l     O .bss	00000004 pxDelayedCoRoutineList
00000470 l     F .text	000000d4 prvCheckPendingReadyList
080025f0 l     O .bss	00000014 xPendingReadyCoRoutineList
00000544 l     F .text	00000150 prvCheckDelayedList
080025c8 l     O .bss	00000014 xDelayedCoRoutineList1
080025dc l     O .bss	00000014 xDelayedCoRoutineList2
00000000 l    df *ABS*	00000000 event_groups.c
00000f44 l     F .text	00000078 prvTestWaitCondition
00000000 l    df *ABS*	00000000 heap.c
080024a0 l     O .rwdata	00000002 heapSTRUCT_SIZE
080024a4 l     O .rwdata	00000004 xTotalHeapSize
0800251c l     O .bss	00000004 pxEnd
080024a8 l     O .rwdata	00000004 xFreeBytesRemaining
0000120c l     F .text	000000c0 prvHeapInit
08002520 l     O .bss	00000008 xStart
000012cc l     F .text	00000138 prvInsertBlockIntoFreeList
08002604 l     O .bss	0007d000 xHeap
00000000 l    df *ABS*	00000000 list.c
00000000 l    df *ABS*	00000000 port.c
000016cc l     F .text	00000028 prvReadGp
00001830 l     F .text	00000098 prvSetupTimerInterrupt
00000000 l    df *ABS*	00000000 queue.c
0000270c l     F .text	00000194 prvCopyDataToQueue
00002ac4 l     F .text	00000058 prvIsQueueFull
0000293c l     F .text	000000f0 prvUnlockQueue
000028a0 l     F .text	0000009c prvCopyDataFromQueue
00002a2c l     F .text	00000054 prvIsQueueEmpty
00000000 l    df *ABS*	00000000 tasks.c
0800252c l     O .bss	00000004 uxTasksDeleted
08002530 l     O .bss	00000004 uxCurrentNumberOfTasks
08002534 l     O .bss	00000004 xTickCount
08002538 l     O .bss	00000004 uxTopReadyPriority
0800253c l     O .bss	00000004 xSchedulerRunning
08002540 l     O .bss	00000004 uxPendedTicks
08002544 l     O .bss	00000004 xYieldPending
08002548 l     O .bss	00000004 xNumOfOverflows
0800254c l     O .bss	00000004 uxTaskNumber
080024ac l     O .rwdata	00000004 xNextTaskUnblockTime
08002550 l     O .bss	00000004 uxSchedulerSuspended
00003c10 l     F .text	000000d8 prvAllocateTCBAndStack
00003910 l     F .text	0000013c prvInitialiseTCBVariables
00003a4c l     F .text	000000a8 prvInitialiseTaskLists
0807f604 l     O .bss	000000f0 pxReadyTasksLists
0807f730 l     O .bss	00000014 xTasksWaitingTermination
00003dfc l     F .text	00000070 prvResetNextTaskUnblockTime
00003b98 l     F .text	00000078 prvAddCurrentTaskToDelayedList
000038f4 l     F .text	0000001c prvIdleTask
0807f71c l     O .bss	00000014 xPendingReadyList
08002554 l     O .bss	00000004 pxDelayedTaskList
08002558 l     O .bss	00000004 pxOverflowDelayedTaskList
0800003c l     O .rodata	00000014 ucExpectedStackBytes.2768
00003af4 l     F .text	000000a4 prvCheckTasksWaitingTermination
0807f6f4 l     O .bss	00000014 xDelayedTaskList1
0807f708 l     O .bss	00000014 xDelayedTaskList2
00003dc0 l     F .text	0000003c prvDeleteTCB
00003ce8 l     F .text	00000068 prvTaskCheckFreeStackSpace
00000000 l    df *ABS*	00000000 timers.c
0800255c l     O .bss	00000004 xTimerQueue
00005044 l     F .text	0000007c prvCheckForValidListAndQueue
00004b50 l     F .text	00000034 prvTimerTask
00004aa4 l     F .text	000000ac prvProcessExpiredTimer
08002564 l     O .bss	00000004 pxCurrentTimerList
00004ce8 l     F .text	000000cc prvInsertTimerInActiveList
00004c24 l     F .text	00000060 prvGetNextExpireTime
00004b84 l     F .text	000000a0 prvProcessTimerOrBlockTask
00004db4 l     F .text	0000018c prvProcessReceivedCommands
00004c84 l     F .text	00000064 prvSampleTimeNow
08002560 l     O .bss	00000004 xLastTime.2546
00004f40 l     F .text	00000104 prvSwitchTimerLists
08002568 l     O .bss	00000004 pxOverflowTimerList
0807f744 l     O .bss	00000014 xActiveTimerList1
0807f758 l     O .bss	00000014 xActiveTimerList2
00000000 l    df *ABS*	00000000 freertos_test.c
000051bc l     F .text	0000002c prvFirstRegTestTask
000051e8 l     F .text	0000002c prvSecondRegTestTask
00000000 l    df *ABS*	00000000 memcmp.c
00000000 l    df *ABS*	00000000 memcpy.c
00000000 l    df *ABS*	00000000 memset.c
00000000 l    df *ABS*	00000000 printf.c
00000000 l    df *ABS*	00000000 puts.c
00000000 l    df *ABS*	00000000 strlen.c
00000000 l    df *ABS*	00000000 vfprintf.c
00005560 l     F .text	00000058 __sprint_r
080000ec l     O .rodata	00000010 blanks.3452
080000dc l     O .rodata	00000010 zeroes.3453
00000000 l    df *ABS*	00000000 wsetup.c
00000000 l    df *ABS*	00000000 dtoa.c
000075c4 l     F .text	00000218 quorem
00000000 l    df *ABS*	00000000 fflush.c
00000000 l    df *ABS*	00000000 findfp.c
00008fc0 l     F .text	00000058 std
000090cc l     F .text	00000008 __fp_lock
000090d4 l     F .text	00000008 __fp_unlock
00000000 l    df *ABS*	00000000 mallocr.c
00000000 l    df *ABS*	00000000 fvwrite.c
00000000 l    df *ABS*	00000000 fwalk.c
00000000 l    df *ABS*	00000000 impure.c
080006f4 l     O .rwdata	00000400 impure_data
00000000 l    df *ABS*	00000000 locale.c
080024bc l     O .rwdata	00000004 charset
08000120 l     O .rodata	00000030 lconv
00000000 l    df *ABS*	00000000 makebuf.c
00000000 l    df *ABS*	00000000 mallocr.c
00000000 l    df *ABS*	00000000 memchr.c
00000000 l    df *ABS*	00000000 memmove.c
00000000 l    df *ABS*	00000000 mprec.c
08000268 l     O .rodata	0000000c p05.2458
00000000 l    df *ABS*	00000000 mallocr.c
00000000 l    df *ABS*	00000000 s_isinfd.c
00000000 l    df *ABS*	00000000 s_isnand.c
00000000 l    df *ABS*	00000000 sbrkr.c
00000000 l    df *ABS*	00000000 stdio.c
00000000 l    df *ABS*	00000000 strcmp.c
00000000 l    df *ABS*	00000000 writer.c
00000000 l    df *ABS*	00000000 mallocr.c
00000000 l    df *ABS*	00000000 closer.c
00000000 l    df *ABS*	00000000 fclose.c
00000000 l    df *ABS*	00000000 fstatr.c
00000000 l    df *ABS*	00000000 int_errno.c
00000000 l    df *ABS*	00000000 isattyr.c
00000000 l    df *ABS*	00000000 lseekr.c
00000000 l    df *ABS*	00000000 readr.c
00000000 l    df *ABS*	00000000 libgcc2.c
00000000 l    df *ABS*	00000000 libgcc2.c
00000000 l    df *ABS*	00000000 dp-bit.c
0000d128 l     F .text	00000410 _fpadd_parts
00000000 l    df *ABS*	00000000 dp-bit.c
00000000 l    df *ABS*	00000000 dp-bit.c
00000000 l    df *ABS*	00000000 dp-bit.c
00000000 l    df *ABS*	00000000 dp-bit.c
00000000 l    df *ABS*	00000000 dp-bit.c
00000000 l    df *ABS*	00000000 dp-bit.c
00000000 l    df *ABS*	00000000 dp-bit.c
00000000 l    df *ABS*	00000000 dp-bit.c
00000000 l    df *ABS*	00000000 dp-bit.c
00000000 l    df *ABS*	00000000 dp-bit.c
00000000 l    df *ABS*	00000000 dp-bit.c
00000000 l    df *ABS*	00000000 lib2-divmod.c
0000e254 l     F .text	0000007c udivmodsi4
00000000 l    df *ABS*	00000000 libgcc2.c
00000000 l    df *ABS*	00000000 libgcc2.c
00000000 l    df *ABS*	00000000 libgcc2.c
00000000 l    df *ABS*	00000000 dp-bit.c
00000000 l    df *ABS*	00000000 dp-bit.c
00000000 l    df *ABS*	00000000 dp-bit.c
00000000 l    df *ABS*	00000000 alt_close.c
0000eac8 l     F .text	00000060 alt_get_errno
00000000 l    df *ABS*	00000000 alt_dev.c
0000eb28 l     F .text	0000002c alt_dev_null_write
00000000 l    df *ABS*	00000000 alt_errno.c
00000000 l    df *ABS*	00000000 alt_fstat.c
0000ec28 l     F .text	00000060 alt_get_errno
00000000 l    df *ABS*	00000000 alt_irq_vars.c
00000000 l    df *ABS*	00000000 alt_isatty.c
0000ed48 l     F .text	00000060 alt_get_errno
00000000 l    df *ABS*	00000000 alt_lseek.c
0000ee98 l     F .text	00000060 alt_get_errno
00000000 l    df *ABS*	00000000 alt_main.c
00000000 l    df *ABS*	00000000 alt_malloc_lock.c
00000000 l    df *ABS*	00000000 alt_read.c
0000f0c4 l     F .text	00000060 alt_get_errno
00000000 l    df *ABS*	00000000 alt_release_fd.c
00000000 l    df *ABS*	00000000 alt_sbrk.c
080024e4 l     O .rwdata	00000004 heap_end
00000000 l    df *ABS*	00000000 alt_write.c
0000f360 l     F .text	00000060 alt_get_errno
00000000 l    df *ABS*	00000000 alt_sys_init.c
080010b0 l     O .rwdata	000000d8 flash_controller
08001188 l     O .rwdata	00001060 jtag_uart
080021e8 l     O .rwdata	00000120 character_lcd
08002308 l     O .rwdata	000000c4 uart
080023cc l     O .rwdata	00000038 ps2
08002404 l     O .rwdata	00000048 video_character_buffer_with_dma
0800244c l     O .rwdata	00000054 video_pixel_buffer_dma
0000f760 l     F .text	00000038 alt_dev_reg
00000000 l    df *ABS*	00000000 altera_avalon_cfi_flash.c
0000f834 l     F .text	00000038 alt_flash_device_register
00000000 l    df *ABS*	00000000 altera_avalon_cfi_flash_table.c
00010634 l     F .text	0000007c alt_read_16bit_query_entry
00000000 l    df *ABS*	00000000 altera_avalon_jtag_uart_fd.c
00000000 l    df *ABS*	00000000 altera_avalon_jtag_uart_init.c
00011718 l     F .text	0000022c altera_avalon_jtag_uart_irq
00011944 l     F .text	000000b0 altera_avalon_jtag_uart_timeout
00000000 l    df *ABS*	00000000 altera_avalon_jtag_uart_ioctl.c
00000000 l    df *ABS*	00000000 altera_avalon_jtag_uart_read.c
00000000 l    df *ABS*	00000000 altera_avalon_jtag_uart_write.c
00000000 l    df *ABS*	00000000 altera_avalon_lcd_16207.c
080024e8 l     O .rwdata	00000004 colstart
00011fc0 l     F .text	000000b8 lcd_write_command
00012078 l     F .text	000000d4 lcd_write_data
0001214c l     F .text	000000c4 lcd_clear_screen
00012210 l     F .text	000001ec lcd_repaint_screen
000123fc l     F .text	000000c8 lcd_scroll_up
000124c4 l     F .text	000002d0 lcd_handle_escape
00012c98 l     F .text	000000cc alt_lcd_16207_timeout
00000000 l    df *ABS*	00000000 altera_avalon_lcd_16207_fd.c
00000000 l    df *ABS*	00000000 altera_avalon_timer_sc.c
00012ef8 l     F .text	00000074 alt_avalon_timer_sc_irq
00000000 l    df *ABS*	00000000 altera_avalon_uart_fd.c
00000000 l    df *ABS*	00000000 altera_avalon_uart_init.c
000131ac l     F .text	000000a0 altera_avalon_uart_irq
0001324c l     F .text	000000e0 altera_avalon_uart_rxirq
0001332c l     F .text	0000015c altera_avalon_uart_txirq
00000000 l    df *ABS*	00000000 altera_avalon_uart_read.c
00013718 l     F .text	00000060 alt_get_errno
00000000 l    df *ABS*	00000000 altera_avalon_uart_write.c
00013940 l     F .text	00000060 alt_get_errno
00000000 l    df *ABS*	00000000 altera_up_avalon_ps2.c
00000000 l    df *ABS*	00000000 altera_up_avalon_video_character_buffer_with_dma.c
00000000 l    df *ABS*	00000000 alt_alarm_start.c
00000000 l    df *ABS*	00000000 alt_dcache_flush.c
00000000 l    df *ABS*	00000000 alt_dev_llist_insert.c
00014624 l     F .text	00000060 alt_get_errno
00000000 l    df *ABS*	00000000 alt_do_ctors.c
00000000 l    df *ABS*	00000000 alt_do_dtors.c
00000000 l    df *ABS*	00000000 alt_find_dev.c
00000000 l    df *ABS*	00000000 alt_flash_dev.c
00000000 l    df *ABS*	00000000 alt_io_redirect.c
000148b0 l     F .text	000000c4 alt_open_fd
00000000 l    df *ABS*	00000000 alt_open.c
000149ec l     F .text	000000dc alt_file_locked
00014c50 l     F .text	00000060 alt_get_errno
00000000 l    df *ABS*	00000000 alt_tick.c
00000000 l    df *ABS*	00000000 alt_usleep.c
00000000 l    df *ABS*	00000000 altera_nios2_qsys_irq.c
00000000 l    df *ABS*	00000000 altera_avalon_cfi_flash_amd.c
00015248 l     F .text	000000bc alt_write_word_amd
00015124 l     F .text	00000124 alt_wait_for_command_to_complete_amd
00000000 l    df *ABS*	00000000 altera_avalon_cfi_flash_intel.c
000154fc l     F .text	0000018c alt_unlock_block_intel
00015688 l     F .text	000000dc alt_write_word_intel
00000000 l    df *ABS*	00000000 alt_busy_sleep.c
00000000 l    df *ABS*	00000000 alt_find_file.c
00000000 l    df *ABS*	00000000 alt_get_fd.c
00000000 l    df *ABS*	00000000 atexit.c
00000000 l    df *ABS*	00000000 ctype_.c
08000574 l     O .rodata	00000180 _ctype_b
00000000 l    df *ABS*	00000000 exit.c
00000000 l    df *ABS*	00000000 __atexit.c
00000000 l    df *ABS*	00000000 __call_atexit.c
00015be8 l     F .text	00000004 register_fini
00000000 l    df *ABS*	00000000 alt_exit.c
00015d9c l     F .text	00000040 alt_sim_halt
0000ac44 g     F .text	00000094 _mprec_log10
0000ad30 g     F .text	00000088 __any_on
0000c43c g     F .text	00000070 _isatty_r
08000240 g     O .rodata	00000028 __mprec_tinytens
0000eef8 g     F .text	0000006c alt_main
00005438 g     F .text	000000a0 _puts_r
000100f4 g     F .text	00000048 alt_read_query_entry_32bit
00013bec g     F .text	00000058 alt_up_ps2_disable_read_interrupt
0807f794 g     O .bss	00000100 alt_irq
0000c4ac g     F .text	00000078 _lseek_r
000000c4 g       .exceptions	00000000 restore_sp_from_pxCurrentTCB
00003548 g     F .text	00000074 vTaskPlaceOnUnorderedEventList
000011d0 g     F .text	00000020 xPortGetFreeHeapSize
0000f86c g     F .text	000002c0 alt_flash_cfi_write
00000c9c g     F .text	0000003c xEventGroupGetBitsFromISR
0000dc48 g     F .text	00000088 __eqdf2
0807fa24 g       *ABS*	00000000 __alt_heap_start
000048fc g     F .text	000000b0 xTimerCreate
000053c0 g     F .text	00000044 printf
0000bf08 g     F .text	00000068 __sseek
00009028 g     F .text	000000a4 __sinit
00014234 g     F .text	00000114 alt_up_char_buffer_string
00013a04 g     F .text	00000034 read_CE_bit
00002b64 g     F .text	00000094 vQueueWaitForMessageRestricted
00009d00 g     F .text	00000084 _setlocale_r
00009128 g     F .text	00000068 __sfmoreglue
0000ef84 g     F .text	00000020 __malloc_unlock
00013d98 g     F .text	000000b0 alt_up_ps2_read_data_byte_timeout
00014164 g     F .text	000000d0 alt_up_char_buffer_draw
000008f0 g     F .text	00000184 xEventGroupSync
0000a758 g     F .text	000000e0 memmove
0000081c g     F .text	00000080 xCoRoutineRemoveFromEventList
00004114 g     F .text	00000054 vTaskEnterCritical
00009118 g     F .text	00000010 _cleanup
000020c0 g     F .text	000000e8 xQueueGenericSendFromISR
0000adb8 g     F .text	000000bc _Balloc
0000dd58 g     F .text	00000088 __gtdf2
00000000  w      *UND*	00000000 __errno
00010280 g     F .text	00000048 alt_write_flash_command_32bit_device_16bit_mode
01000000 g     F .entry	00000000 __reset
00001d78 g     F .text	00000094 xQueueGiveMutexRecursive
08002528 g     O .bss	00000004 pxCurrentTCB
0000c3c8 g     F .text	00000074 _fstat_r
0000fd88 g     F .text	000002e8 alt_flash_program_block
08002584 g     O .bss	00000004 errno
08002590 g     O .bss	00000004 alt_argv
00004434 g     F .text	00000188 xTaskNotify
0800a4a0 g       *ABS*	00000000 _gp
00014e54 g     F .text	00000030 usleep
00000a74 g     F .text	000001c0 xEventGroupWaitBits
08000f30 g     O .rwdata	00000180 alt_fd_list
000017dc g     F .text	00000038 xPortStartScheduler
00002fac g     F .text	00000044 vTaskEndScheduler
0001474c g     F .text	00000094 alt_find_dev
00005288 g     F .text	000000a0 memcpy
000034e8 g     F .text	00000060 vTaskPlaceOnEventList
00002bf8 g     F .text	000001c8 xTaskGenericCreate
00014348 g     F .text	0000005c alt_up_char_buffer_clear
0000910c g     F .text	0000000c _cleanup_r
0000def0 g     F .text	000000f8 __floatsidf
00014974 g     F .text	00000078 alt_io_redirect
0000de68 g     F .text	00000088 __ltdf2
00002590 g     F .text	00000080 xQueuePeekFromISR
00015e00 g       *ABS*	00000000 __DTOR_END__
000054d8 g     F .text	00000014 puts
00001150 g     F .text	00000080 vPortFree
00000290 g     F .text	00000140 xCoRoutineCreate
0000ab94 g     F .text	000000b0 __ratio
01000000 g       *ABS*	00000000 __alt_mem_flash_controller
00011b5c g     F .text	00000224 altera_avalon_jtag_uart_read
00000000  w      *UND*	00000000 malloc
00005404 g     F .text	00000034 _printf_r
0000e390 g     F .text	00000008 __udivsi3
0000ec88 g     F .text	000000c0 isatty
08000150 g     O .rodata	000000c8 __mprec_tens
00003d50 g     F .text	00000070 uxTaskGetStackHighWaterMark
00009cdc g     F .text	00000008 __locale_charset
0000149c g     F .text	00000088 vListInsertEnd
08002578 g     O .bss	00000004 __malloc_top_pad
0000089c g     F .text	00000054 xEventGroupCreate
080024b8 g     O .rwdata	00000004 __mb_cur_max
00009ce4 g     F .text	0000000c _localeconv_r
0000b4b0 g     F .text	0000003c __i2b
000096c0 g     F .text	0000049c __sfvwrite_r
0000be90 g     F .text	00000070 _sbrk_r
00015304 g     F .text	00000084 alt_program_intel
00000ed4 g     F .text	00000038 vEventGroupSetBitsCallback
0000c524 g     F .text	00000078 _read_r
00001474 g     F .text	00000028 vListInitialiseItem
000144f8 g     F .text	00000078 alt_dcache_flush
08000af4 g     O .rwdata	0000000c __lc_ctype
080024d8 g     O .rwdata	00000004 alt_max_fd
00010070 g     F .text	00000040 alt_read_query_entry_8bit
000018c8 g     F .text	0000004c vPortSysTickHandler
0000e7cc g     F .text	00000138 __unpack_d
0000c2a4 g     F .text	00000110 _fclose_r
00013a38 g     F .text	00000034 read_num_bytes_available
00015388 g     F .text	00000174 alt_erase_block_intel
00008f8c g     F .text	00000034 fflush
0800257c g     O .bss	00000004 __malloc_max_sbrked_mem
00001914 g     F .text	000001b0 alt_irq_register
000139a0 g     F .text	00000034 read_RI_bit
0000d5b8 g     F .text	00000074 __adddf3
0000aa74 g     F .text	00000120 __b2d
0000cb78 g     F .text	000005b0 __umoddi3
0000eda8 g     F .text	000000f0 lseek
080024b4 g     O .rwdata	00000004 _global_impure_ptr
00000cd8 g     F .text	0000018c xEventGroupSetBits
0000b82c g     F .text	000005f4 _realloc_r
0807fa24 g       *ABS*	00000000 __bss_end
00014d48 g     F .text	0000010c alt_tick
0000c59c g     F .text	000005dc __udivdi3
08000218 g     O .rodata	00000028 __mprec_bigtens
0000b70c g     F .text	00000120 __s2b
0000e0c0 g     F .text	00000194 __floatunsidf
0000a994 g     F .text	00000060 __mcmp
00000fbc g     F .text	00000194 pvPortMalloc
000130ec g     F .text	000000c0 altera_avalon_uart_init
00013aa0 g     F .text	0000002c read_data_byte
080024fc g     O .rwdata	00000004 __ctype_ptr
000090f4 g     F .text	00000018 __fp_lock_all
000026d4 g     F .text	00000038 vQueueDelete
00001814 g     F .text	0000001c vPortEndScheduler
00001404 g     F .text	00000070 vListInitialise
00014cb0 g     F .text	00000098 alt_alarm_stop
000139d4 g     F .text	00000030 read_RE_bit
08002588 g     O .bss	00000004 alt_irq_active
0000017c g     F .exceptions	000000cc alt_irq_handler
08000f08 g     O .rwdata	00000028 alt_dev_null
00003168 g     F .text	00000028 xTaskGetTickCount
00001f10 g     F .text	000001b0 xQueueGenericSend
00010588 g     F .text	000000ac alt_set_flash_algorithm_func
00013c44 g     F .text	00000078 alt_up_ps2_write_data_byte
0000a860 g     F .text	00000070 __hi0bits
0000dfe8 g     F .text	000000d8 __fixdfsi
00004018 g     F .text	000000fc xTaskPriorityDisinherit
0001013c g     F .text	0000003c alt_write_flash_command_8bit_device_8bit_mode
00000000 g       *ABS*	00000000 __alt_mem_onchip_memory
080024d0 g     O .rwdata	00000008 alt_dev_list
0000f240 g     F .text	00000120 write
0000361c g     F .text	000000e8 xTaskRemoveFromEventList
0000eb54 g     F .text	000000d4 fstat
00000c34 g     F .text	00000068 xEventGroupClearBits
0001143c g     F .text	000000dc alt_check_primary_table
0000b5ec g     F .text	00000120 __pow5mult
0800256c g     O .bss	00000004 __nlocale_changed
0000e398 g     F .text	00000008 __umodsi3
0000fbbc g     F .text	00000068 alt_flash_cfi_read
00010310 g     F .text	00000034 alt_write_native_8bit
0807fa24 g       *ABS*	00000000 end
00013fb8 g     F .text	000000a8 alt_up_ps2_write_fd
00010178 g     F .text	0000007c alt_write_flash_command_16bit_device_8bit_mode
00012794 g     F .text	00000504 altera_avalon_lcd_16207_write
00002dc0 g     F .text	000000d8 vTaskDelete
000140a0 g     F .text	00000084 alt_up_char_buffer_init
00013778 g     F .text	000001c8 altera_avalon_uart_write
000106b0 g     F .text	000005e0 alt_read_cfi_table
00011660 g     F .text	000000b8 altera_avalon_jtag_uart_init
00004214 g     F .text	0000003c pvTaskIncrementMutexHeldCount
00015dfc g       *ABS*	00000000 __CTOR_LIST__
10000000 g       *ABS*	00000000 __alt_stack_pointer
00012f6c g     F .text	00000088 alt_avalon_timer_sc_init
0001304c g     F .text	00000058 altera_avalon_uart_write_fd
0000e438 g     F .text	00000080 __clzsi2
000130a4 g     F .text	00000048 altera_avalon_uart_close_fd
00011d80 g     F .text	00000240 altera_avalon_jtag_uart_write
0000f798 g     F .text	0000009c alt_flash_cfi_init
00009018 g     F .text	00000004 __sfp_lock_acquire
0000a674 g     F .text	000000e4 memchr
000055b8 g     F .text	00001eac ___vfprintf_internal_r
0000380c g     F .text	000000c4 xTaskCheckForTimeOut
00000694 g     F .text	000000ec vCoRoutineSchedule
000093ac g     F .text	00000314 _free_r
08002500 g     O .bss	00000004 pxCurrentCoRoutine
00015bec g     F .text	000001b0 __call_exitprocs
08002570 g     O .bss	00000004 __mlocale_changed
00004250 g     F .text	000000d8 ulTaskNotifyTake
080024c4 g     O .rwdata	00000004 __malloc_sbrk_base
00000248 g     F .text	00000048 _start
08002598 g     O .bss	00000004 _alt_tick_rate
00002ff0 g     F .text	00000028 vTaskSuspendAll
00003190 g     F .text	0000002c xTaskGetTickCountFromISR
0000b17c g     F .text	0000014c __lshift
0800259c g     O .bss	00000004 _alt_nticks
0000efa4 g     F .text	00000120 read
0000f3f4 g     F .text	0000036c alt_sys_init
000015f8 g     F .text	00000098 uxListRemove
00015ab4 g     F .text	00000134 __register_exitproc
00013ec4 g     F .text	00000058 alt_up_ps2_clear_fifo
000100b0 g     F .text	00000044 alt_read_query_entry_16bit
0000b2c8 g     F .text	000001e8 __multiply
000119f4 g     F .text	00000074 altera_avalon_jtag_uart_close
00003ee8 g     F .text	00000130 vTaskPriorityInherit
0807f76c g     O .bss	00000028 __malloc_current_mallinfo
000103a8 g     F .text	000001e0 alt_set_flash_width_func
0000ae74 g     F .text	0000017c __d2b
000033b8 g     F .text	00000130 vTaskSwitchContext
000045bc g     F .text	000001c0 xTaskNotifyFromISR
00011518 g     F .text	00000058 altera_avalon_jtag_uart_read_fd
000159b0 g     F .text	000000b8 alt_get_fd
000035bc g     F .text	00000060 vTaskPlaceOnEventListRestricted
00015764 g     F .text	0000012c alt_busy_sleep
0000e904 g     F .text	000000c8 __fpcmp_parts_d
0000c234 g     F .text	00000070 _close_r
00004328 g     F .text	0000010c xTaskNotifyWait
00014f0c g     F .text	00000218 alt_erase_block_amd
00005214 g     F .text	00000074 memcmp
000115c8 g     F .text	00000048 altera_avalon_jtag_uart_close_fd
0807fa24 g       *ABS*	00000000 __alt_stack_base
00011610 g     F .text	00000050 altera_avalon_jtag_uart_ioctl_fd
000049ac g     F .text	000000c8 xTimerGenericCommand
00007488 g     F .text	0000013c __swsetup_r
00010c90 g     F .text	000007ac alt_read_cfi_width
00001690 g     F .text	0000003c vApplicationStackOverflowHook
0000d9f0 g     F .text	00000258 __divdf3
00009190 g     F .text	000000f0 __sfp
0000acd8 g     F .text	00000058 __copybits
000031bc g     F .text	00000020 uxTaskGetNumberOfTasks
00000000         *UND*	00000000 save_context
08000b00 g     O .rwdata	00000408 __malloc_av_
00009024 g     F .text	00000004 __sinit_lock_release
0000d62c g     F .text	000003c4 __muldf3
0000bfec g     F .text	00000060 __sread
00015890 g     F .text	00000120 alt_find_file
00014570 g     F .text	000000b4 alt_dev_llist_insert
0000ef64 g     F .text	00000020 __malloc_lock
0000f184 g     F .text	000000bc sbrk
00001e0c g     F .text	000000a8 xQueueTakeMutexRecursive
00008d90 g     F .text	000001fc _fflush_r
00000e64 g     F .text	00000070 vEventGroupDelete
0000c180 g     F .text	000000b4 _calloc_r
080024ec g     O .rwdata	00000008 alt_flash_dev_list
0001023c g     F .text	00000044 alt_write_flash_command_16bit_device_16bit_mode
08002500 g       *ABS*	00000000 __bss_start
00005328 g     F .text	00000098 memset
0000513c g     F .text	00000080 main
08002594 g     O .bss	00000004 alt_envp
08002580 g     O .bss	00000004 __malloc_max_total_mem
00014124 g     F .text	00000040 alt_up_char_buffer_open_dev
00011570 g     F .text	00000058 altera_avalon_jtag_uart_write_fd
00001524 g     F .text	000000d4 vListInsert
00012d64 g     F .text	0000013c altera_avalon_lcd_16207_init
0000bf00 g     F .text	00000008 __sclose
10000000 g       *ABS*	00000000 __alt_heap_limit
0000c3b4 g     F .text	00000014 fclose
0000488c g     F .text	00000070 xTimerCreateTimerTask
00013e48 g     F .text	0000007c alt_up_ps2_read_data_byte
0807f894 g     O .bss	00000190 _atexit0
000077dc g     F .text	000015b4 _dtoa_r
00009f34 g     F .text	00000740 _malloc_r
00004a74 g     F .text	00000030 pcTimerGetTimerName
080024dc g     O .rwdata	00000004 alt_errno
000102c8 g     F .text	00000048 alt_write_flash_command_32bit_device_32bit_mode
00009c24 g     F .text	000000b8 _fwalk
000024ac g     F .text	000000e4 xQueueReceiveFromISR
0000fc24 g     F .text	00000164 alt_write_value_to_flash
00003e6c g     F .text	00000028 xTaskGetCurrentTaskHandle
00014060 g     F .text	00000040 alt_up_ps2_open_dev
00010344 g     F .text	00000034 alt_write_native_16bit
0000e2d0 g     F .text	00000060 __divsi3
08000274 g     O .rodata	00000014 __thenan_df
00001bd8 g     F .text	000000dc xQueueGenericCreate
00009280 g     F .text	0000012c _malloc_trim_r
00013b98 g     F .text	00000054 alt_up_ps2_enable_read_interrupt
00015e00 g       *ABS*	00000000 __CTOR_END__
0000c04c g     F .text	000000bc strcmp
00001eb4 g     F .text	0000005c xQueueCreateCountingSemaphore
00015e00 g       *ABS*	00000000 __DTOR_LIST__
0000dcd0 g     F .text	00000088 __nedf2
0000f3c0 g     F .text	00000034 alt_irq_init
00003704 g     F .text	000000d0 xTaskRemoveFromUnorderedEventList
0000f124 g     F .text	00000060 alt_release_fd
00003018 g     F .text	00000150 xTaskResumeAll
00002650 g     F .text	00000054 uxQueueSpacesAvailable
00013a6c g     F .text	00000034 read_data_valid
08000288 g     O .rodata	00000100 __clz_tab
00002f10 g     F .text	0000009c vTaskStartScheduler
08002574 g     O .bss	00000004 _PathLocale
00013d2c g     F .text	0000006c alt_up_ps2_write_data_byte_with_ack
00015a68 g     F .text	00000014 atexit
0000c108 g     F .text	00000078 _write_r
00009d84 g     F .text	0000001c setlocale
00002b1c g     F .text	00000048 xQueueIsQueueFullFromISR
0000510c g     F .text	00000030 pvTimerGetTimerID
000003d0 g     F .text	000000a0 vCoRoutineAddToDelayedList
080024b0 g     O .rwdata	00000004 _impure_ptr
0800258c g     O .bss	00000004 alt_argc
000146e8 g     F .text	00000064 _do_dtors
0000a9f4 g     F .text	00000080 __ulp
0000be20 g     F .text	00000040 __isinfd
000090dc g     F .text	00000018 __fp_unlock_all
000038d0 g     F .text	00000024 vTaskMissedYield
00012ea0 g     F .text	00000058 altera_avalon_lcd_16207_write_fd
080024c8 g     O .rwdata	00000008 alt_fs_list
000101f4 g     F .text	00000048 alt_write_flash_command_32bit_device_8bit_mode
00002610 g     F .text	00000040 uxQueueMessagesWaiting
00002280 g     F .text	0000022c xQueueGenericReceive
000031dc g     F .text	000001dc xTaskIncrementTick
00009cf0 g     F .text	00000010 localeconv
00001ac4 g     F .text	00000114 xQueueGenericReset
08002500 g       *ABS*	00000000 _edata
00012ff4 g     F .text	00000058 altera_avalon_uart_read_fd
0807fa24 g       *ABS*	00000000 _end
000147e0 g     F .text	0000007c alt_flash_open_dev
00011a68 g     F .text	000000f4 altera_avalon_jtag_uart_ioctl
000011f0 g     F .text	0000001c vPortInitialiseBlocks
000050c0 g     F .text	0000004c xTimerIsTimerActive
0000bf70 g     F .text	0000007c __swrite
080024c0 g     O .rwdata	00000004 __malloc_trim_threshold
00014e84 g     F .text	00000020 altera_nios2_qsys_irq_init
00015a7c g     F .text	00000038 exit
00009b5c g     F .text	000000c8 _fwalk_reent
00013acc g     F .text	000000cc alt_up_ps2_init
0000aff0 g     F .text	0000018c __mdiff
0001485c g     F .text	00000054 alt_flash_close_dev
0000e330 g     F .text	00000060 __modsi3
00002e98 g     F .text	00000078 vTaskDelay
10000000 g       *ABS*	00000000 __alt_data_end
0000901c g     F .text	00000004 __sfp_lock_release
08000000 g       *ABS*	00000000 __alt_mem_sdram
00003e94 g     F .text	00000054 xTaskGetSchedulerState
08000470 g     O .rodata	00000101 _ctype_
00013488 g     F .text	00000060 altera_avalon_uart_close
00015ddc g     F .text	00000020 _exit
0000be60 g     F .text	00000030 __isnand
000143a4 g     F .text	00000154 alt_alarm_start
0000e3a0 g     F .text	00000098 __muldi3
00009da0 g     F .text	00000194 __smakebuf_r
00010378 g     F .text	00000030 alt_write_native_32bit
00013cbc g     F .text	00000070 alt_up_ps2_wait_for_ack
00004168 g     F .text	00000068 vTaskExitCritical
000054ec g     F .text	00000074 strlen
000016f4 g     F .text	000000e8 pxPortInitialiseStack
00014ac8 g     F .text	00000188 open
0000dde0 g     F .text	00000088 __gedf2
0000fb2c g     F .text	00000090 alt_flash_cfi_get_info
000037d4 g     F .text	00000038 vTaskSetTimeOutState
080024e0 g     O .rwdata	00000004 alt_priority_mask
00007464 g     F .text	00000024 __vfprintf_internal
000134e8 g     F .text	00000230 altera_avalon_uart_read
000026a4 g     F .text	00000030 uxQueueMessagesWaitingFromISR
00002a80 g     F .text	00000044 xQueueIsQueueEmptyFromISR
00013f1c g     F .text	0000009c alt_up_ps2_read_fd
0000d538 g     F .text	00000080 __subdf3
0000a8d0 g     F .text	000000c4 __lo0bits
080024f4 g     O .rwdata	00000008 alt_alarm_list
00014684 g     F .text	00000064 _do_ctors
000041d0 g     F .text	00000044 uxTaskResetEventItemValue
00001cb4 g     F .text	000000c4 xQueueCreateMutex
0000e9cc g     F .text	000000fc close
00014ea4 g     F .text	00000068 alt_program_amd
0000477c g     F .text	00000110 vTaskNotifyGiveFromISR
0000e4b8 g     F .text	00000314 __pack_d
00000f0c g     F .text	00000038 vEventGroupClearBitsCallback
000021a8 g     F .text	000000d8 xQueueGiveFromISR
00000000  w      *UND*	00000000 free
00009020 g     F .text	00000004 __sinit_lock_acquire
0000b4ec g     F .text	00000100 __multadd
0000a838 g     F .text	00000028 _Bfree



Disassembly of section .exceptions:

00000020 <save_context>:
  20:	ef7fff04 	addi	ea,ea,-4
  24:	deffe304 	addi	sp,sp,-116
  28:	dfc00015 	stw	ra,0(sp)
  2c:	d8400215 	stw	at,8(sp)
  30:	d8800315 	stw	r2,12(sp)
  34:	d8c00415 	stw	r3,16(sp)
  38:	d9000515 	stw	r4,20(sp)
  3c:	d9400615 	stw	r5,24(sp)
  40:	d9800715 	stw	r6,28(sp)
  44:	d9c00815 	stw	r7,32(sp)
  48:	da000915 	stw	r8,36(sp)
  4c:	da400a15 	stw	r9,40(sp)
  50:	da800b15 	stw	r10,44(sp)
  54:	dac00c15 	stw	r11,48(sp)
  58:	db000d15 	stw	r12,52(sp)
  5c:	db400e15 	stw	r13,56(sp)
  60:	db800f15 	stw	r14,60(sp)
  64:	dbc01015 	stw	r15,64(sp)
  68:	000b307a 	rdctl	r5,estatus
  6c:	d9401115 	stw	r5,68(sp)
  70:	df401215 	stw	ea,72(sp)
  74:	dc001315 	stw	r16,76(sp)
  78:	dc401415 	stw	r17,80(sp)
  7c:	dc801515 	stw	r18,84(sp)
  80:	dcc01615 	stw	r19,88(sp)
  84:	dd001715 	stw	r20,92(sp)
  88:	dd401815 	stw	r21,96(sp)
  8c:	dd801915 	stw	r22,100(sp)
  90:	ddc01a15 	stw	r23,104(sp)
  94:	de801b15 	stw	gp,108(sp)
  98:	df001c15 	stw	fp,112(sp)

0000009c <save_sp_to_pxCurrentTCB>:
  9c:	06020034 	movhi	et,2048
  a0:	c6094a04 	addi	et,et,9512
  a4:	c6000017 	ldw	et,0(et)
  a8:	c6c00015 	stw	sp,0(et)

000000ac <hw_irq_test>:
  ac:	0009313a 	rdctl	r4,ipending
  b0:	000b307a 	rdctl	r5,estatus
  b4:	2880004c 	andi	r2,r5,1
  b8:	10002526 	beq	r2,zero,150 <soft_exceptions>
  bc:	20002426 	beq	r4,zero,150 <soft_exceptions>

000000c0 <hw_irq_handler>:
  c0:	000017c0 	call	17c <alt_irq_handler>

000000c4 <restore_sp_from_pxCurrentTCB>:
  c4:	06020034 	movhi	et,2048
  c8:	c6094a04 	addi	et,et,9512
  cc:	c6000017 	ldw	et,0(et)
  d0:	c6c00017 	ldw	sp,0(et)

000000d4 <restore_context>:
  d4:	dfc00017 	ldw	ra,0(sp)
  d8:	d8400217 	ldw	at,8(sp)
  dc:	d8800317 	ldw	r2,12(sp)
  e0:	d8c00417 	ldw	r3,16(sp)
  e4:	d9000517 	ldw	r4,20(sp)
  e8:	d9400617 	ldw	r5,24(sp)
  ec:	d9800717 	ldw	r6,28(sp)
  f0:	d9c00817 	ldw	r7,32(sp)
  f4:	da000917 	ldw	r8,36(sp)
  f8:	da400a17 	ldw	r9,40(sp)
  fc:	da800b17 	ldw	r10,44(sp)
 100:	dac00c17 	ldw	r11,48(sp)
 104:	db000d17 	ldw	r12,52(sp)
 108:	db400e17 	ldw	r13,56(sp)
 10c:	db800f17 	ldw	r14,60(sp)
 110:	dbc01017 	ldw	r15,64(sp)
 114:	de001117 	ldw	et,68(sp)
 118:	c001707a 	wrctl	estatus,et
 11c:	df401217 	ldw	ea,72(sp)
 120:	dc001317 	ldw	r16,76(sp)
 124:	dc401417 	ldw	r17,80(sp)
 128:	dc801517 	ldw	r18,84(sp)
 12c:	dcc01617 	ldw	r19,88(sp)
 130:	dd001717 	ldw	r20,92(sp)
 134:	dd401817 	ldw	r21,96(sp)
 138:	dd801917 	ldw	r22,100(sp)
 13c:	ddc01a17 	ldw	r23,104(sp)
 140:	de801b17 	ldw	gp,108(sp)
 144:	df001c17 	ldw	fp,112(sp)
 148:	dec01d04 	addi	sp,sp,116
 14c:	ef80083a 	eret

00000150 <soft_exceptions>:
 150:	ee000017 	ldw	et,0(ea)
 154:	00400ef4 	movhi	at,59
 158:	085a0e94 	ori	at,at,26682
 15c:	c070c03a 	cmpne	et,et,at
 160:	c0000226 	beq	et,zero,16c <call_scheduler>
 164:	003da03a 	break	0
 168:	003fda06 	br	d4 <restore_context>

0000016c <call_scheduler>:
 16c:	ef400104 	addi	ea,ea,4
 170:	df401215 	stw	ea,72(sp)
 174:	00033b80 	call	33b8 <vTaskSwitchContext>
 178:	003fd206 	br	c4 <restore_sp_from_pxCurrentTCB>

0000017c <alt_irq_handler>:
 17c:	defff904 	addi	sp,sp,-28
 180:	dfc00615 	stw	ra,24(sp)
 184:	df000515 	stw	fp,20(sp)
 188:	df000504 	addi	fp,sp,20
 18c:	0005313a 	rdctl	r2,ipending
 190:	e0bffc15 	stw	r2,-16(fp)
 194:	e0bffc17 	ldw	r2,-16(fp)
 198:	e0bfff15 	stw	r2,-4(fp)
 19c:	e03ffd15 	stw	zero,-12(fp)
 1a0:	00800044 	movi	r2,1
 1a4:	e0bffe15 	stw	r2,-8(fp)
 1a8:	e0ffff17 	ldw	r3,-4(fp)
 1ac:	e0bffe17 	ldw	r2,-8(fp)
 1b0:	1884703a 	and	r2,r3,r2
 1b4:	1005003a 	cmpeq	r2,r2,zero
 1b8:	1000171e 	bne	r2,zero,218 <alt_irq_handler+0x9c>
 1bc:	e0bffd17 	ldw	r2,-12(fp)
 1c0:	00c20234 	movhi	r3,2056
 1c4:	18fde504 	addi	r3,r3,-2156
 1c8:	100490fa 	slli	r2,r2,3
 1cc:	10c5883a 	add	r2,r2,r3
 1d0:	11800017 	ldw	r6,0(r2)
 1d4:	e0bffd17 	ldw	r2,-12(fp)
 1d8:	00c20234 	movhi	r3,2056
 1dc:	18fde504 	addi	r3,r3,-2156
 1e0:	100490fa 	slli	r2,r2,3
 1e4:	10c5883a 	add	r2,r2,r3
 1e8:	10800104 	addi	r2,r2,4
 1ec:	11000017 	ldw	r4,0(r2)
 1f0:	e17ffd17 	ldw	r5,-12(fp)
 1f4:	303ee83a 	callr	r6
 1f8:	0005313a 	rdctl	r2,ipending
 1fc:	e0bffb15 	stw	r2,-20(fp)
 200:	e0bffb17 	ldw	r2,-20(fp)
 204:	e0bfff15 	stw	r2,-4(fp)
 208:	e0bfff17 	ldw	r2,-4(fp)
 20c:	1004c03a 	cmpne	r2,r2,zero
 210:	103fe21e 	bne	r2,zero,19c <alt_irq_handler+0x20>
 214:	00000706 	br	234 <alt_irq_handler+0xb8>
 218:	e0bffe17 	ldw	r2,-8(fp)
 21c:	1085883a 	add	r2,r2,r2
 220:	e0bffe15 	stw	r2,-8(fp)
 224:	e0bffd17 	ldw	r2,-12(fp)
 228:	10800044 	addi	r2,r2,1
 22c:	e0bffd15 	stw	r2,-12(fp)
 230:	003fdd06 	br	1a8 <alt_irq_handler+0x2c>
 234:	e037883a 	mov	sp,fp
 238:	dfc00117 	ldw	ra,4(sp)
 23c:	df000017 	ldw	fp,0(sp)
 240:	dec00204 	addi	sp,sp,8
 244:	f800283a 	ret

Disassembly of section .text:

00000248 <_start>:
     248:	00820014 	movui	r2,2048
     24c:	10000033 	initd	0(r2)
     250:	10bff804 	addi	r2,r2,-32
     254:	00bffd16 	blt	zero,r2,24c <_start+0x4>
     258:	06c40034 	movhi	sp,4096
     25c:	dec00014 	ori	sp,sp,0
     260:	06820034 	movhi	gp,2048
     264:	d6a92814 	ori	gp,gp,42144
     268:	00820034 	movhi	r2,2048
     26c:	10894014 	ori	r2,r2,9472
     270:	00c201f4 	movhi	r3,2055
     274:	18fe8914 	ori	r3,r3,64036
     278:	10c00326 	beq	r2,r3,288 <_start+0x40>
     27c:	10000015 	stw	zero,0(r2)
     280:	10800104 	addi	r2,r2,4
     284:	10fffd36 	bltu	r2,r3,27c <_start+0x34>
     288:	000eef80 	call	eef8 <alt_main>

0000028c <alt_after_alt_main>:
     28c:	003fff06 	br	28c <alt_after_alt_main>

00000290 <xCoRoutineCreate>:
     290:	defff904 	addi	sp,sp,-28
     294:	dfc00615 	stw	ra,24(sp)
     298:	df000515 	stw	fp,20(sp)
     29c:	df000504 	addi	fp,sp,20
     2a0:	e13ffd15 	stw	r4,-12(fp)
     2a4:	e17ffe15 	stw	r5,-8(fp)
     2a8:	e1bfff15 	stw	r6,-4(fp)
     2ac:	01000e04 	movi	r4,56
     2b0:	0000fbc0 	call	fbc <pvPortMalloc>
     2b4:	e0bffb15 	stw	r2,-20(fp)
     2b8:	e0bffb17 	ldw	r2,-20(fp)
     2bc:	1005003a 	cmpeq	r2,r2,zero
     2c0:	10003b1e 	bne	r2,zero,3b0 <xCoRoutineCreate+0x120>
     2c4:	d0a01817 	ldw	r2,-32672(gp)
     2c8:	1004c03a 	cmpne	r2,r2,zero
     2cc:	1000031e 	bne	r2,zero,2dc <xCoRoutineCreate+0x4c>
     2d0:	e0bffb17 	ldw	r2,-20(fp)
     2d4:	d0a01815 	stw	r2,-32672(gp)
     2d8:	00007800 	call	780 <prvInitialiseCoRoutineLists>
     2dc:	e0bffe17 	ldw	r2,-8(fp)
     2e0:	108000b0 	cmpltui	r2,r2,2
     2e4:	1000021e 	bne	r2,zero,2f0 <xCoRoutineCreate+0x60>
     2e8:	00800044 	movi	r2,1
     2ec:	e0bffe15 	stw	r2,-8(fp)
     2f0:	e0bffb17 	ldw	r2,-20(fp)
     2f4:	10000d0d 	sth	zero,52(r2)
     2f8:	e0fffb17 	ldw	r3,-20(fp)
     2fc:	e0bffe17 	ldw	r2,-8(fp)
     300:	18800b15 	stw	r2,44(r3)
     304:	e0fffb17 	ldw	r3,-20(fp)
     308:	e0bfff17 	ldw	r2,-4(fp)
     30c:	18800c15 	stw	r2,48(r3)
     310:	e0fffb17 	ldw	r3,-20(fp)
     314:	e0bffd17 	ldw	r2,-12(fp)
     318:	18800015 	stw	r2,0(r3)
     31c:	e0bffb17 	ldw	r2,-20(fp)
     320:	11000104 	addi	r4,r2,4
     324:	00014740 	call	1474 <vListInitialiseItem>
     328:	e0bffb17 	ldw	r2,-20(fp)
     32c:	11000604 	addi	r4,r2,24
     330:	00014740 	call	1474 <vListInitialiseItem>
     334:	e0fffb17 	ldw	r3,-20(fp)
     338:	e0bffb17 	ldw	r2,-20(fp)
     33c:	18800415 	stw	r2,16(r3)
     340:	e0fffb17 	ldw	r3,-20(fp)
     344:	e0bffb17 	ldw	r2,-20(fp)
     348:	18800915 	stw	r2,36(r3)
     34c:	00c00084 	movi	r3,2
     350:	e0bffe17 	ldw	r2,-8(fp)
     354:	1887c83a 	sub	r3,r3,r2
     358:	e0bffb17 	ldw	r2,-20(fp)
     35c:	10c00615 	stw	r3,24(r2)
     360:	e0bffb17 	ldw	r2,-20(fp)
     364:	10c00b17 	ldw	r3,44(r2)
     368:	d0a01917 	ldw	r2,-32668(gp)
     36c:	10c0032e 	bgeu	r2,r3,37c <xCoRoutineCreate+0xec>
     370:	e0bffb17 	ldw	r2,-20(fp)
     374:	10800b17 	ldw	r2,44(r2)
     378:	d0a01915 	stw	r2,-32668(gp)
     37c:	e0bffb17 	ldw	r2,-20(fp)
     380:	10800b17 	ldw	r2,44(r2)
     384:	10800524 	muli	r2,r2,20
     388:	1007883a 	mov	r3,r2
     38c:	00820034 	movhi	r2,2048
     390:	10896804 	addi	r2,r2,9632
     394:	1889883a 	add	r4,r3,r2
     398:	e0bffb17 	ldw	r2,-20(fp)
     39c:	11400104 	addi	r5,r2,4
     3a0:	000149c0 	call	149c <vListInsertEnd>
     3a4:	00800044 	movi	r2,1
     3a8:	e0bffc15 	stw	r2,-16(fp)
     3ac:	00000206 	br	3b8 <xCoRoutineCreate+0x128>
     3b0:	00bfffc4 	movi	r2,-1
     3b4:	e0bffc15 	stw	r2,-16(fp)
     3b8:	e0bffc17 	ldw	r2,-16(fp)
     3bc:	e037883a 	mov	sp,fp
     3c0:	dfc00117 	ldw	ra,4(sp)
     3c4:	df000017 	ldw	fp,0(sp)
     3c8:	dec00204 	addi	sp,sp,8
     3cc:	f800283a 	ret

000003d0 <vCoRoutineAddToDelayedList>:
     3d0:	defffb04 	addi	sp,sp,-20
     3d4:	dfc00415 	stw	ra,16(sp)
     3d8:	df000315 	stw	fp,12(sp)
     3dc:	df000304 	addi	fp,sp,12
     3e0:	e13ffe15 	stw	r4,-8(fp)
     3e4:	e17fff15 	stw	r5,-4(fp)
     3e8:	d0e01a17 	ldw	r3,-32664(gp)
     3ec:	e0bffe17 	ldw	r2,-8(fp)
     3f0:	1885883a 	add	r2,r3,r2
     3f4:	e0bffd15 	stw	r2,-12(fp)
     3f8:	d0a01817 	ldw	r2,-32672(gp)
     3fc:	11000104 	addi	r4,r2,4
     400:	00015f80 	call	15f8 <uxListRemove>
     404:	d0e01817 	ldw	r3,-32672(gp)
     408:	e0bffd17 	ldw	r2,-12(fp)
     40c:	18800115 	stw	r2,4(r3)
     410:	d0e01a17 	ldw	r3,-32664(gp)
     414:	e0bffd17 	ldw	r2,-12(fp)
     418:	10c0052e 	bgeu	r2,r3,430 <vCoRoutineAddToDelayedList+0x60>
     41c:	d1201e17 	ldw	r4,-32648(gp)
     420:	d0a01817 	ldw	r2,-32672(gp)
     424:	11400104 	addi	r5,r2,4
     428:	00015240 	call	1524 <vListInsert>
     42c:	00000406 	br	440 <vCoRoutineAddToDelayedList+0x70>
     430:	d1201d17 	ldw	r4,-32652(gp)
     434:	d0a01817 	ldw	r2,-32672(gp)
     438:	11400104 	addi	r5,r2,4
     43c:	00015240 	call	1524 <vListInsert>
     440:	e0bfff17 	ldw	r2,-4(fp)
     444:	1005003a 	cmpeq	r2,r2,zero
     448:	1000041e 	bne	r2,zero,45c <vCoRoutineAddToDelayedList+0x8c>
     44c:	d0a01817 	ldw	r2,-32672(gp)
     450:	11400604 	addi	r5,r2,24
     454:	e13fff17 	ldw	r4,-4(fp)
     458:	00015240 	call	1524 <vListInsert>
     45c:	e037883a 	mov	sp,fp
     460:	dfc00117 	ldw	ra,4(sp)
     464:	df000017 	ldw	fp,0(sp)
     468:	dec00204 	addi	sp,sp,8
     46c:	f800283a 	ret

00000470 <prvCheckPendingReadyList>:
     470:	defffb04 	addi	sp,sp,-20
     474:	dfc00415 	stw	ra,16(sp)
     478:	df000315 	stw	fp,12(sp)
     47c:	df000304 	addi	fp,sp,12
     480:	00002606 	br	51c <prvCheckPendingReadyList+0xac>
     484:	0005303a 	rdctl	r2,status
     488:	e0bffe15 	stw	r2,-8(fp)
     48c:	e0fffe17 	ldw	r3,-8(fp)
     490:	00bfff84 	movi	r2,-2
     494:	1884703a 	and	r2,r3,r2
     498:	1001703a 	wrctl	status,r2
     49c:	00820034 	movhi	r2,2048
     4a0:	10897c04 	addi	r2,r2,9712
     4a4:	10800317 	ldw	r2,12(r2)
     4a8:	10800317 	ldw	r2,12(r2)
     4ac:	e0bfff15 	stw	r2,-4(fp)
     4b0:	e0bfff17 	ldw	r2,-4(fp)
     4b4:	11000604 	addi	r4,r2,24
     4b8:	00015f80 	call	15f8 <uxListRemove>
     4bc:	00800044 	movi	r2,1
     4c0:	e0bffd15 	stw	r2,-12(fp)
     4c4:	e0bffd17 	ldw	r2,-12(fp)
     4c8:	1001703a 	wrctl	status,r2
     4cc:	e0bfff17 	ldw	r2,-4(fp)
     4d0:	11000104 	addi	r4,r2,4
     4d4:	00015f80 	call	15f8 <uxListRemove>
     4d8:	e0bfff17 	ldw	r2,-4(fp)
     4dc:	10c00b17 	ldw	r3,44(r2)
     4e0:	d0a01917 	ldw	r2,-32668(gp)
     4e4:	10c0032e 	bgeu	r2,r3,4f4 <prvCheckPendingReadyList+0x84>
     4e8:	e0bfff17 	ldw	r2,-4(fp)
     4ec:	10800b17 	ldw	r2,44(r2)
     4f0:	d0a01915 	stw	r2,-32668(gp)
     4f4:	e0bfff17 	ldw	r2,-4(fp)
     4f8:	10800b17 	ldw	r2,44(r2)
     4fc:	10800524 	muli	r2,r2,20
     500:	1007883a 	mov	r3,r2
     504:	00820034 	movhi	r2,2048
     508:	10896804 	addi	r2,r2,9632
     50c:	1889883a 	add	r4,r3,r2
     510:	e0bfff17 	ldw	r2,-4(fp)
     514:	11400104 	addi	r5,r2,4
     518:	000149c0 	call	149c <vListInsertEnd>
     51c:	00820034 	movhi	r2,2048
     520:	10897c04 	addi	r2,r2,9712
     524:	10800017 	ldw	r2,0(r2)
     528:	1004c03a 	cmpne	r2,r2,zero
     52c:	103fd51e 	bne	r2,zero,484 <prvCheckPendingReadyList+0x14>
     530:	e037883a 	mov	sp,fp
     534:	dfc00117 	ldw	ra,4(sp)
     538:	df000017 	ldw	fp,0(sp)
     53c:	dec00204 	addi	sp,sp,8
     540:	f800283a 	ret

00000544 <prvCheckDelayedList>:
     544:	defffa04 	addi	sp,sp,-24
     548:	dfc00515 	stw	ra,20(sp)
     54c:	df000415 	stw	fp,16(sp)
     550:	df000404 	addi	fp,sp,16
     554:	00031680 	call	3168 <xTaskGetTickCount>
     558:	d0e01b17 	ldw	r3,-32660(gp)
     55c:	10c5c83a 	sub	r2,r2,r3
     560:	d0a01c15 	stw	r2,-32656(gp)
     564:	00004106 	br	66c <prvCheckDelayedList+0x128>
     568:	d0a01a17 	ldw	r2,-32664(gp)
     56c:	10800044 	addi	r2,r2,1
     570:	d0a01a15 	stw	r2,-32664(gp)
     574:	d0a01c17 	ldw	r2,-32656(gp)
     578:	10bfffc4 	addi	r2,r2,-1
     57c:	d0a01c15 	stw	r2,-32656(gp)
     580:	d0a01a17 	ldw	r2,-32664(gp)
     584:	1004c03a 	cmpne	r2,r2,zero
     588:	1000341e 	bne	r2,zero,65c <prvCheckDelayedList+0x118>
     58c:	d0a01d17 	ldw	r2,-32652(gp)
     590:	e0bffe15 	stw	r2,-8(fp)
     594:	d0a01e17 	ldw	r2,-32648(gp)
     598:	d0a01d15 	stw	r2,-32652(gp)
     59c:	e0bffe17 	ldw	r2,-8(fp)
     5a0:	d0a01e15 	stw	r2,-32648(gp)
     5a4:	00002d06 	br	65c <prvCheckDelayedList+0x118>
     5a8:	d0a01d17 	ldw	r2,-32652(gp)
     5ac:	10800317 	ldw	r2,12(r2)
     5b0:	10800317 	ldw	r2,12(r2)
     5b4:	e0bfff15 	stw	r2,-4(fp)
     5b8:	e0bfff17 	ldw	r2,-4(fp)
     5bc:	10c00117 	ldw	r3,4(r2)
     5c0:	d0a01a17 	ldw	r2,-32664(gp)
     5c4:	10c02936 	bltu	r2,r3,66c <prvCheckDelayedList+0x128>
     5c8:	0005303a 	rdctl	r2,status
     5cc:	e0bffd15 	stw	r2,-12(fp)
     5d0:	e0fffd17 	ldw	r3,-12(fp)
     5d4:	00bfff84 	movi	r2,-2
     5d8:	1884703a 	and	r2,r3,r2
     5dc:	1001703a 	wrctl	status,r2
     5e0:	e0bfff17 	ldw	r2,-4(fp)
     5e4:	11000104 	addi	r4,r2,4
     5e8:	00015f80 	call	15f8 <uxListRemove>
     5ec:	e0bfff17 	ldw	r2,-4(fp)
     5f0:	10800a17 	ldw	r2,40(r2)
     5f4:	1005003a 	cmpeq	r2,r2,zero
     5f8:	1000031e 	bne	r2,zero,608 <prvCheckDelayedList+0xc4>
     5fc:	e0bfff17 	ldw	r2,-4(fp)
     600:	11000604 	addi	r4,r2,24
     604:	00015f80 	call	15f8 <uxListRemove>
     608:	00800044 	movi	r2,1
     60c:	e0bffc15 	stw	r2,-16(fp)
     610:	e0bffc17 	ldw	r2,-16(fp)
     614:	1001703a 	wrctl	status,r2
     618:	e0bfff17 	ldw	r2,-4(fp)
     61c:	10c00b17 	ldw	r3,44(r2)
     620:	d0a01917 	ldw	r2,-32668(gp)
     624:	10c0032e 	bgeu	r2,r3,634 <prvCheckDelayedList+0xf0>
     628:	e0bfff17 	ldw	r2,-4(fp)
     62c:	10800b17 	ldw	r2,44(r2)
     630:	d0a01915 	stw	r2,-32668(gp)
     634:	e0bfff17 	ldw	r2,-4(fp)
     638:	10800b17 	ldw	r2,44(r2)
     63c:	10800524 	muli	r2,r2,20
     640:	1007883a 	mov	r3,r2
     644:	00820034 	movhi	r2,2048
     648:	10896804 	addi	r2,r2,9632
     64c:	1889883a 	add	r4,r3,r2
     650:	e0bfff17 	ldw	r2,-4(fp)
     654:	11400104 	addi	r5,r2,4
     658:	000149c0 	call	149c <vListInsertEnd>
     65c:	d0a01d17 	ldw	r2,-32652(gp)
     660:	10800017 	ldw	r2,0(r2)
     664:	1004c03a 	cmpne	r2,r2,zero
     668:	103fcf1e 	bne	r2,zero,5a8 <prvCheckDelayedList+0x64>
     66c:	d0a01c17 	ldw	r2,-32656(gp)
     670:	1004c03a 	cmpne	r2,r2,zero
     674:	103fbc1e 	bne	r2,zero,568 <prvCheckDelayedList+0x24>
     678:	d0a01a17 	ldw	r2,-32664(gp)
     67c:	d0a01b15 	stw	r2,-32660(gp)
     680:	e037883a 	mov	sp,fp
     684:	dfc00117 	ldw	ra,4(sp)
     688:	df000017 	ldw	fp,0(sp)
     68c:	dec00204 	addi	sp,sp,8
     690:	f800283a 	ret

00000694 <vCoRoutineSchedule>:
     694:	defffd04 	addi	sp,sp,-12
     698:	dfc00215 	stw	ra,8(sp)
     69c:	df000115 	stw	fp,4(sp)
     6a0:	df000104 	addi	fp,sp,4
     6a4:	00004700 	call	470 <prvCheckPendingReadyList>
     6a8:	00005440 	call	544 <prvCheckDelayedList>
     6ac:	00000606 	br	6c8 <vCoRoutineSchedule+0x34>
     6b0:	d0a01917 	ldw	r2,-32668(gp)
     6b4:	1005003a 	cmpeq	r2,r2,zero
     6b8:	10002c1e 	bne	r2,zero,76c <vCoRoutineSchedule+0xd8>
     6bc:	d0a01917 	ldw	r2,-32668(gp)
     6c0:	10bfffc4 	addi	r2,r2,-1
     6c4:	d0a01915 	stw	r2,-32668(gp)
     6c8:	d0a01917 	ldw	r2,-32668(gp)
     6cc:	10800524 	muli	r2,r2,20
     6d0:	1007883a 	mov	r3,r2
     6d4:	00820034 	movhi	r2,2048
     6d8:	10896804 	addi	r2,r2,9632
     6dc:	1885883a 	add	r2,r3,r2
     6e0:	10800017 	ldw	r2,0(r2)
     6e4:	1005003a 	cmpeq	r2,r2,zero
     6e8:	103ff11e 	bne	r2,zero,6b0 <vCoRoutineSchedule+0x1c>
     6ec:	d0a01917 	ldw	r2,-32668(gp)
     6f0:	10800524 	muli	r2,r2,20
     6f4:	1007883a 	mov	r3,r2
     6f8:	00820034 	movhi	r2,2048
     6fc:	10896804 	addi	r2,r2,9632
     700:	1885883a 	add	r2,r3,r2
     704:	e0bfff15 	stw	r2,-4(fp)
     708:	e0bfff17 	ldw	r2,-4(fp)
     70c:	10800117 	ldw	r2,4(r2)
     710:	10c00117 	ldw	r3,4(r2)
     714:	e0bfff17 	ldw	r2,-4(fp)
     718:	10c00115 	stw	r3,4(r2)
     71c:	e0bfff17 	ldw	r2,-4(fp)
     720:	10c00117 	ldw	r3,4(r2)
     724:	e0bfff17 	ldw	r2,-4(fp)
     728:	10800204 	addi	r2,r2,8
     72c:	1880051e 	bne	r3,r2,744 <vCoRoutineSchedule+0xb0>
     730:	e0bfff17 	ldw	r2,-4(fp)
     734:	10800117 	ldw	r2,4(r2)
     738:	10c00117 	ldw	r3,4(r2)
     73c:	e0bfff17 	ldw	r2,-4(fp)
     740:	10c00115 	stw	r3,4(r2)
     744:	e0bfff17 	ldw	r2,-4(fp)
     748:	10800117 	ldw	r2,4(r2)
     74c:	10800317 	ldw	r2,12(r2)
     750:	d0a01815 	stw	r2,-32672(gp)
     754:	d0a01817 	ldw	r2,-32672(gp)
     758:	10c00017 	ldw	r3,0(r2)
     75c:	d1201817 	ldw	r4,-32672(gp)
     760:	d0a01817 	ldw	r2,-32672(gp)
     764:	11400c17 	ldw	r5,48(r2)
     768:	183ee83a 	callr	r3
     76c:	e037883a 	mov	sp,fp
     770:	dfc00117 	ldw	ra,4(sp)
     774:	df000017 	ldw	fp,0(sp)
     778:	dec00204 	addi	sp,sp,8
     77c:	f800283a 	ret

00000780 <prvInitialiseCoRoutineLists>:
     780:	defffd04 	addi	sp,sp,-12
     784:	dfc00215 	stw	ra,8(sp)
     788:	df000115 	stw	fp,4(sp)
     78c:	df000104 	addi	fp,sp,4
     790:	e03fff15 	stw	zero,-4(fp)
     794:	00000a06 	br	7c0 <prvInitialiseCoRoutineLists+0x40>
     798:	e0bfff17 	ldw	r2,-4(fp)
     79c:	10800524 	muli	r2,r2,20
     7a0:	1007883a 	mov	r3,r2
     7a4:	00820034 	movhi	r2,2048
     7a8:	10896804 	addi	r2,r2,9632
     7ac:	1889883a 	add	r4,r3,r2
     7b0:	00014040 	call	1404 <vListInitialise>
     7b4:	e0bfff17 	ldw	r2,-4(fp)
     7b8:	10800044 	addi	r2,r2,1
     7bc:	e0bfff15 	stw	r2,-4(fp)
     7c0:	e0bfff17 	ldw	r2,-4(fp)
     7c4:	108000b0 	cmpltui	r2,r2,2
     7c8:	103ff31e 	bne	r2,zero,798 <prvInitialiseCoRoutineLists+0x18>
     7cc:	01020034 	movhi	r4,2048
     7d0:	21097204 	addi	r4,r4,9672
     7d4:	00014040 	call	1404 <vListInitialise>
     7d8:	01020034 	movhi	r4,2048
     7dc:	21097704 	addi	r4,r4,9692
     7e0:	00014040 	call	1404 <vListInitialise>
     7e4:	01020034 	movhi	r4,2048
     7e8:	21097c04 	addi	r4,r4,9712
     7ec:	00014040 	call	1404 <vListInitialise>
     7f0:	00820034 	movhi	r2,2048
     7f4:	10897204 	addi	r2,r2,9672
     7f8:	d0a01d15 	stw	r2,-32652(gp)
     7fc:	00820034 	movhi	r2,2048
     800:	10897704 	addi	r2,r2,9692
     804:	d0a01e15 	stw	r2,-32648(gp)
     808:	e037883a 	mov	sp,fp
     80c:	dfc00117 	ldw	ra,4(sp)
     810:	df000017 	ldw	fp,0(sp)
     814:	dec00204 	addi	sp,sp,8
     818:	f800283a 	ret

0000081c <xCoRoutineRemoveFromEventList>:
     81c:	defffb04 	addi	sp,sp,-20
     820:	dfc00415 	stw	ra,16(sp)
     824:	df000315 	stw	fp,12(sp)
     828:	df000304 	addi	fp,sp,12
     82c:	e13fff15 	stw	r4,-4(fp)
     830:	e0bfff17 	ldw	r2,-4(fp)
     834:	10800317 	ldw	r2,12(r2)
     838:	10800317 	ldw	r2,12(r2)
     83c:	e0bffe15 	stw	r2,-8(fp)
     840:	e0bffe17 	ldw	r2,-8(fp)
     844:	11000604 	addi	r4,r2,24
     848:	00015f80 	call	15f8 <uxListRemove>
     84c:	e0bffe17 	ldw	r2,-8(fp)
     850:	11400604 	addi	r5,r2,24
     854:	01020034 	movhi	r4,2048
     858:	21097c04 	addi	r4,r4,9712
     85c:	000149c0 	call	149c <vListInsertEnd>
     860:	e0bffe17 	ldw	r2,-8(fp)
     864:	10c00b17 	ldw	r3,44(r2)
     868:	d0a01817 	ldw	r2,-32672(gp)
     86c:	10800b17 	ldw	r2,44(r2)
     870:	18800336 	bltu	r3,r2,880 <xCoRoutineRemoveFromEventList+0x64>
     874:	00800044 	movi	r2,1
     878:	e0bffd15 	stw	r2,-12(fp)
     87c:	00000106 	br	884 <xCoRoutineRemoveFromEventList+0x68>
     880:	e03ffd15 	stw	zero,-12(fp)
     884:	e0bffd17 	ldw	r2,-12(fp)
     888:	e037883a 	mov	sp,fp
     88c:	dfc00117 	ldw	ra,4(sp)
     890:	df000017 	ldw	fp,0(sp)
     894:	dec00204 	addi	sp,sp,8
     898:	f800283a 	ret

0000089c <xEventGroupCreate>:
     89c:	defffd04 	addi	sp,sp,-12
     8a0:	dfc00215 	stw	ra,8(sp)
     8a4:	df000115 	stw	fp,4(sp)
     8a8:	df000104 	addi	fp,sp,4
     8ac:	01000604 	movi	r4,24
     8b0:	0000fbc0 	call	fbc <pvPortMalloc>
     8b4:	e0bfff15 	stw	r2,-4(fp)
     8b8:	e0bfff17 	ldw	r2,-4(fp)
     8bc:	1005003a 	cmpeq	r2,r2,zero
     8c0:	1000051e 	bne	r2,zero,8d8 <xEventGroupCreate+0x3c>
     8c4:	e0bfff17 	ldw	r2,-4(fp)
     8c8:	10000015 	stw	zero,0(r2)
     8cc:	e0bfff17 	ldw	r2,-4(fp)
     8d0:	11000104 	addi	r4,r2,4
     8d4:	00014040 	call	1404 <vListInitialise>
     8d8:	e0bfff17 	ldw	r2,-4(fp)
     8dc:	e037883a 	mov	sp,fp
     8e0:	dfc00117 	ldw	ra,4(sp)
     8e4:	df000017 	ldw	fp,0(sp)
     8e8:	dec00204 	addi	sp,sp,8
     8ec:	f800283a 	ret

000008f0 <xEventGroupSync>:
     8f0:	defff504 	addi	sp,sp,-44
     8f4:	dfc00a15 	stw	ra,40(sp)
     8f8:	df000915 	stw	fp,36(sp)
     8fc:	df000904 	addi	fp,sp,36
     900:	e13ffc15 	stw	r4,-16(fp)
     904:	e17ffd15 	stw	r5,-12(fp)
     908:	e1bffe15 	stw	r6,-8(fp)
     90c:	e1ffff15 	stw	r7,-4(fp)
     910:	e0bffc17 	ldw	r2,-16(fp)
     914:	e0bff915 	stw	r2,-28(fp)
     918:	e03ff715 	stw	zero,-36(fp)
     91c:	0002ff00 	call	2ff0 <vTaskSuspendAll>
     920:	e0bff917 	ldw	r2,-28(fp)
     924:	10800017 	ldw	r2,0(r2)
     928:	e0bffb15 	stw	r2,-20(fp)
     92c:	e13ffc17 	ldw	r4,-16(fp)
     930:	e17ffd17 	ldw	r5,-12(fp)
     934:	0000cd80 	call	cd8 <xEventGroupSetBits>
     938:	e0fffb17 	ldw	r3,-20(fp)
     93c:	e0bffd17 	ldw	r2,-12(fp)
     940:	1886b03a 	or	r3,r3,r2
     944:	e0bffe17 	ldw	r2,-8(fp)
     948:	1886703a 	and	r3,r3,r2
     94c:	e0bffe17 	ldw	r2,-8(fp)
     950:	18800d1e 	bne	r3,r2,988 <xEventGroupSync+0x98>
     954:	e0fffb17 	ldw	r3,-20(fp)
     958:	e0bffd17 	ldw	r2,-12(fp)
     95c:	1884b03a 	or	r2,r3,r2
     960:	e0bffa15 	stw	r2,-24(fp)
     964:	e0bff917 	ldw	r2,-28(fp)
     968:	10c00017 	ldw	r3,0(r2)
     96c:	e0bffe17 	ldw	r2,-8(fp)
     970:	0084303a 	nor	r2,zero,r2
     974:	1886703a 	and	r3,r3,r2
     978:	e0bff917 	ldw	r2,-28(fp)
     97c:	10c00015 	stw	r3,0(r2)
     980:	e03fff15 	stw	zero,-4(fp)
     984:	00000e06 	br	9c0 <xEventGroupSync+0xd0>
     988:	e0bfff17 	ldw	r2,-4(fp)
     98c:	1005003a 	cmpeq	r2,r2,zero
     990:	1000081e 	bne	r2,zero,9b4 <xEventGroupSync+0xc4>
     994:	e0bff917 	ldw	r2,-28(fp)
     998:	11000104 	addi	r4,r2,4
     99c:	e0bffe17 	ldw	r2,-8(fp)
     9a0:	11414034 	orhi	r5,r2,1280
     9a4:	e1bfff17 	ldw	r6,-4(fp)
     9a8:	00035480 	call	3548 <vTaskPlaceOnUnorderedEventList>
     9ac:	e03ffa15 	stw	zero,-24(fp)
     9b0:	00000306 	br	9c0 <xEventGroupSync+0xd0>
     9b4:	e0bff917 	ldw	r2,-28(fp)
     9b8:	10800017 	ldw	r2,0(r2)
     9bc:	e0bffa15 	stw	r2,-24(fp)
     9c0:	00030180 	call	3018 <xTaskResumeAll>
     9c4:	e0bff815 	stw	r2,-32(fp)
     9c8:	e0bfff17 	ldw	r2,-4(fp)
     9cc:	1005003a 	cmpeq	r2,r2,zero
     9d0:	1000221e 	bne	r2,zero,a5c <xEventGroupSync+0x16c>
     9d4:	e0bff817 	ldw	r2,-32(fp)
     9d8:	1004c03a 	cmpne	r2,r2,zero
     9dc:	1000011e 	bne	r2,zero,9e4 <xEventGroupSync+0xf4>
     9e0:	003b683a 	trap	0
     9e4:	00041d00 	call	41d0 <uxTaskResetEventItemValue>
     9e8:	e0bffa15 	stw	r2,-24(fp)
     9ec:	e0bffa17 	ldw	r2,-24(fp)
     9f0:	1080802c 	andhi	r2,r2,512
     9f4:	1004c03a 	cmpne	r2,r2,zero
     9f8:	1000131e 	bne	r2,zero,a48 <xEventGroupSync+0x158>
     9fc:	00041140 	call	4114 <vTaskEnterCritical>
     a00:	e0bff917 	ldw	r2,-28(fp)
     a04:	10800017 	ldw	r2,0(r2)
     a08:	e0bffa15 	stw	r2,-24(fp)
     a0c:	e0fffa17 	ldw	r3,-24(fp)
     a10:	e0bffe17 	ldw	r2,-8(fp)
     a14:	1886703a 	and	r3,r3,r2
     a18:	e0bffe17 	ldw	r2,-8(fp)
     a1c:	1880071e 	bne	r3,r2,a3c <xEventGroupSync+0x14c>
     a20:	e0bff917 	ldw	r2,-28(fp)
     a24:	10c00017 	ldw	r3,0(r2)
     a28:	e0bffe17 	ldw	r2,-8(fp)
     a2c:	0084303a 	nor	r2,zero,r2
     a30:	1886703a 	and	r3,r3,r2
     a34:	e0bff917 	ldw	r2,-28(fp)
     a38:	10c00015 	stw	r3,0(r2)
     a3c:	00041680 	call	4168 <vTaskExitCritical>
     a40:	00800044 	movi	r2,1
     a44:	e0bff715 	stw	r2,-36(fp)
     a48:	e0bffa17 	ldw	r2,-24(fp)
     a4c:	00c04034 	movhi	r3,256
     a50:	18ffffc4 	addi	r3,r3,-1
     a54:	10c4703a 	and	r2,r2,r3
     a58:	e0bffa15 	stw	r2,-24(fp)
     a5c:	e0bffa17 	ldw	r2,-24(fp)
     a60:	e037883a 	mov	sp,fp
     a64:	dfc00117 	ldw	ra,4(sp)
     a68:	df000017 	ldw	fp,0(sp)
     a6c:	dec00204 	addi	sp,sp,8
     a70:	f800283a 	ret

00000a74 <xEventGroupWaitBits>:
     a74:	defff304 	addi	sp,sp,-52
     a78:	dfc00c15 	stw	ra,48(sp)
     a7c:	df000b15 	stw	fp,44(sp)
     a80:	df000b04 	addi	fp,sp,44
     a84:	e13ffc15 	stw	r4,-16(fp)
     a88:	e17ffd15 	stw	r5,-12(fp)
     a8c:	e1bffe15 	stw	r6,-8(fp)
     a90:	e1ffff15 	stw	r7,-4(fp)
     a94:	e0bffc17 	ldw	r2,-16(fp)
     a98:	e0bffb15 	stw	r2,-20(fp)
     a9c:	e03ff915 	stw	zero,-28(fp)
     aa0:	e03ff615 	stw	zero,-40(fp)
     aa4:	0002ff00 	call	2ff0 <vTaskSuspendAll>
     aa8:	e0bffb17 	ldw	r2,-20(fp)
     aac:	10800017 	ldw	r2,0(r2)
     ab0:	e0bff515 	stw	r2,-44(fp)
     ab4:	e13ff517 	ldw	r4,-44(fp)
     ab8:	e17ffd17 	ldw	r5,-12(fp)
     abc:	e1bfff17 	ldw	r6,-4(fp)
     ac0:	0000f440 	call	f44 <prvTestWaitCondition>
     ac4:	e0bff815 	stw	r2,-32(fp)
     ac8:	e0bff817 	ldw	r2,-32(fp)
     acc:	1005003a 	cmpeq	r2,r2,zero
     ad0:	10000e1e 	bne	r2,zero,b0c <xEventGroupWaitBits+0x98>
     ad4:	e0bff517 	ldw	r2,-44(fp)
     ad8:	e0bffa15 	stw	r2,-24(fp)
     adc:	e0000215 	stw	zero,8(fp)
     ae0:	e0bffe17 	ldw	r2,-8(fp)
     ae4:	1005003a 	cmpeq	r2,r2,zero
     ae8:	1000221e 	bne	r2,zero,b74 <xEventGroupWaitBits+0x100>
     aec:	e0bffb17 	ldw	r2,-20(fp)
     af0:	10c00017 	ldw	r3,0(r2)
     af4:	e0bffd17 	ldw	r2,-12(fp)
     af8:	0084303a 	nor	r2,zero,r2
     afc:	1886703a 	and	r3,r3,r2
     b00:	e0bffb17 	ldw	r2,-20(fp)
     b04:	10c00015 	stw	r3,0(r2)
     b08:	00001a06 	br	b74 <xEventGroupWaitBits+0x100>
     b0c:	e0800217 	ldw	r2,8(fp)
     b10:	1004c03a 	cmpne	r2,r2,zero
     b14:	1000031e 	bne	r2,zero,b24 <xEventGroupWaitBits+0xb0>
     b18:	e0bff517 	ldw	r2,-44(fp)
     b1c:	e0bffa15 	stw	r2,-24(fp)
     b20:	00001406 	br	b74 <xEventGroupWaitBits+0x100>
     b24:	e0bffe17 	ldw	r2,-8(fp)
     b28:	1005003a 	cmpeq	r2,r2,zero
     b2c:	1000031e 	bne	r2,zero,b3c <xEventGroupWaitBits+0xc8>
     b30:	e0bff917 	ldw	r2,-28(fp)
     b34:	10804034 	orhi	r2,r2,256
     b38:	e0bff915 	stw	r2,-28(fp)
     b3c:	e0bfff17 	ldw	r2,-4(fp)
     b40:	1005003a 	cmpeq	r2,r2,zero
     b44:	1000031e 	bne	r2,zero,b54 <xEventGroupWaitBits+0xe0>
     b48:	e0bff917 	ldw	r2,-28(fp)
     b4c:	10810034 	orhi	r2,r2,1024
     b50:	e0bff915 	stw	r2,-28(fp)
     b54:	e0bffb17 	ldw	r2,-20(fp)
     b58:	11000104 	addi	r4,r2,4
     b5c:	e0fffd17 	ldw	r3,-12(fp)
     b60:	e0bff917 	ldw	r2,-28(fp)
     b64:	188ab03a 	or	r5,r3,r2
     b68:	e1800217 	ldw	r6,8(fp)
     b6c:	00035480 	call	3548 <vTaskPlaceOnUnorderedEventList>
     b70:	e03ffa15 	stw	zero,-24(fp)
     b74:	00030180 	call	3018 <xTaskResumeAll>
     b78:	e0bff715 	stw	r2,-36(fp)
     b7c:	e0800217 	ldw	r2,8(fp)
     b80:	1005003a 	cmpeq	r2,r2,zero
     b84:	1000251e 	bne	r2,zero,c1c <xEventGroupWaitBits+0x1a8>
     b88:	e0bff717 	ldw	r2,-36(fp)
     b8c:	1004c03a 	cmpne	r2,r2,zero
     b90:	1000011e 	bne	r2,zero,b98 <xEventGroupWaitBits+0x124>
     b94:	003b683a 	trap	0
     b98:	00041d00 	call	41d0 <uxTaskResetEventItemValue>
     b9c:	e0bffa15 	stw	r2,-24(fp)
     ba0:	e0bffa17 	ldw	r2,-24(fp)
     ba4:	1080802c 	andhi	r2,r2,512
     ba8:	1004c03a 	cmpne	r2,r2,zero
     bac:	1000161e 	bne	r2,zero,c08 <xEventGroupWaitBits+0x194>
     bb0:	00041140 	call	4114 <vTaskEnterCritical>
     bb4:	e0bffb17 	ldw	r2,-20(fp)
     bb8:	10800017 	ldw	r2,0(r2)
     bbc:	e0bffa15 	stw	r2,-24(fp)
     bc0:	e13ffa17 	ldw	r4,-24(fp)
     bc4:	e17ffd17 	ldw	r5,-12(fp)
     bc8:	e1bfff17 	ldw	r6,-4(fp)
     bcc:	0000f440 	call	f44 <prvTestWaitCondition>
     bd0:	1005003a 	cmpeq	r2,r2,zero
     bd4:	10000a1e 	bne	r2,zero,c00 <xEventGroupWaitBits+0x18c>
     bd8:	e0bffe17 	ldw	r2,-8(fp)
     bdc:	1005003a 	cmpeq	r2,r2,zero
     be0:	1000071e 	bne	r2,zero,c00 <xEventGroupWaitBits+0x18c>
     be4:	e0bffb17 	ldw	r2,-20(fp)
     be8:	10c00017 	ldw	r3,0(r2)
     bec:	e0bffd17 	ldw	r2,-12(fp)
     bf0:	0084303a 	nor	r2,zero,r2
     bf4:	1886703a 	and	r3,r3,r2
     bf8:	e0bffb17 	ldw	r2,-20(fp)
     bfc:	10c00015 	stw	r3,0(r2)
     c00:	00041680 	call	4168 <vTaskExitCritical>
     c04:	e03ff615 	stw	zero,-40(fp)
     c08:	e0bffa17 	ldw	r2,-24(fp)
     c0c:	00c04034 	movhi	r3,256
     c10:	18ffffc4 	addi	r3,r3,-1
     c14:	10c4703a 	and	r2,r2,r3
     c18:	e0bffa15 	stw	r2,-24(fp)
     c1c:	e0bffa17 	ldw	r2,-24(fp)
     c20:	e037883a 	mov	sp,fp
     c24:	dfc00117 	ldw	ra,4(sp)
     c28:	df000017 	ldw	fp,0(sp)
     c2c:	dec00204 	addi	sp,sp,8
     c30:	f800283a 	ret

00000c34 <xEventGroupClearBits>:
     c34:	defffa04 	addi	sp,sp,-24
     c38:	dfc00515 	stw	ra,20(sp)
     c3c:	df000415 	stw	fp,16(sp)
     c40:	df000404 	addi	fp,sp,16
     c44:	e13ffe15 	stw	r4,-8(fp)
     c48:	e17fff15 	stw	r5,-4(fp)
     c4c:	e0bffe17 	ldw	r2,-8(fp)
     c50:	e0bffd15 	stw	r2,-12(fp)
     c54:	00041140 	call	4114 <vTaskEnterCritical>
     c58:	e0bffd17 	ldw	r2,-12(fp)
     c5c:	10800017 	ldw	r2,0(r2)
     c60:	e0bffc15 	stw	r2,-16(fp)
     c64:	e0bffd17 	ldw	r2,-12(fp)
     c68:	10c00017 	ldw	r3,0(r2)
     c6c:	e0bfff17 	ldw	r2,-4(fp)
     c70:	0084303a 	nor	r2,zero,r2
     c74:	1886703a 	and	r3,r3,r2
     c78:	e0bffd17 	ldw	r2,-12(fp)
     c7c:	10c00015 	stw	r3,0(r2)
     c80:	00041680 	call	4168 <vTaskExitCritical>
     c84:	e0bffc17 	ldw	r2,-16(fp)
     c88:	e037883a 	mov	sp,fp
     c8c:	dfc00117 	ldw	ra,4(sp)
     c90:	df000017 	ldw	fp,0(sp)
     c94:	dec00204 	addi	sp,sp,8
     c98:	f800283a 	ret

00000c9c <xEventGroupGetBitsFromISR>:
     c9c:	defffb04 	addi	sp,sp,-20
     ca0:	df000415 	stw	fp,16(sp)
     ca4:	df000404 	addi	fp,sp,16
     ca8:	e13fff15 	stw	r4,-4(fp)
     cac:	e0bfff17 	ldw	r2,-4(fp)
     cb0:	e0bffd15 	stw	r2,-12(fp)
     cb4:	e03ffe15 	stw	zero,-8(fp)
     cb8:	e0bffd17 	ldw	r2,-12(fp)
     cbc:	10800017 	ldw	r2,0(r2)
     cc0:	e0bffc15 	stw	r2,-16(fp)
     cc4:	e0bffc17 	ldw	r2,-16(fp)
     cc8:	e037883a 	mov	sp,fp
     ccc:	df000017 	ldw	fp,0(sp)
     cd0:	dec00104 	addi	sp,sp,4
     cd4:	f800283a 	ret

00000cd8 <xEventGroupSetBits>:
     cd8:	defff304 	addi	sp,sp,-52
     cdc:	dfc00c15 	stw	ra,48(sp)
     ce0:	df000b15 	stw	fp,44(sp)
     ce4:	df000b04 	addi	fp,sp,44
     ce8:	e13ffe15 	stw	r4,-8(fp)
     cec:	e17fff15 	stw	r5,-4(fp)
     cf0:	e03ff915 	stw	zero,-28(fp)
     cf4:	e0bffe17 	ldw	r2,-8(fp)
     cf8:	e0bff615 	stw	r2,-40(fp)
     cfc:	e03ff515 	stw	zero,-44(fp)
     d00:	e0bff617 	ldw	r2,-40(fp)
     d04:	10800104 	addi	r2,r2,4
     d08:	e0bffa15 	stw	r2,-24(fp)
     d0c:	e0bffa17 	ldw	r2,-24(fp)
     d10:	10800204 	addi	r2,r2,8
     d14:	e0bffb15 	stw	r2,-20(fp)
     d18:	0002ff00 	call	2ff0 <vTaskSuspendAll>
     d1c:	e0bffa17 	ldw	r2,-24(fp)
     d20:	10800317 	ldw	r2,12(r2)
     d24:	e0bffd15 	stw	r2,-12(fp)
     d28:	e0bff617 	ldw	r2,-40(fp)
     d2c:	10c00017 	ldw	r3,0(r2)
     d30:	e0bfff17 	ldw	r2,-4(fp)
     d34:	1886b03a 	or	r3,r3,r2
     d38:	e0bff617 	ldw	r2,-40(fp)
     d3c:	10c00015 	stw	r3,0(r2)
     d40:	00003606 	br	e1c <xEventGroupSetBits+0x144>
     d44:	e0bffd17 	ldw	r2,-12(fp)
     d48:	10800117 	ldw	r2,4(r2)
     d4c:	e0bffc15 	stw	r2,-16(fp)
     d50:	e0bffd17 	ldw	r2,-12(fp)
     d54:	10800017 	ldw	r2,0(r2)
     d58:	e0bff815 	stw	r2,-32(fp)
     d5c:	e03ff515 	stw	zero,-44(fp)
     d60:	e0bff817 	ldw	r2,-32(fp)
     d64:	10bfc02c 	andhi	r2,r2,65280
     d68:	e0bff715 	stw	r2,-36(fp)
     d6c:	e0fff817 	ldw	r3,-32(fp)
     d70:	00804034 	movhi	r2,256
     d74:	10bfffc4 	addi	r2,r2,-1
     d78:	1884703a 	and	r2,r3,r2
     d7c:	e0bff815 	stw	r2,-32(fp)
     d80:	e0bff717 	ldw	r2,-36(fp)
     d84:	1081002c 	andhi	r2,r2,1024
     d88:	1004c03a 	cmpne	r2,r2,zero
     d8c:	1000091e 	bne	r2,zero,db4 <xEventGroupSetBits+0xdc>
     d90:	e0bff617 	ldw	r2,-40(fp)
     d94:	10c00017 	ldw	r3,0(r2)
     d98:	e0bff817 	ldw	r2,-32(fp)
     d9c:	1884703a 	and	r2,r3,r2
     da0:	1005003a 	cmpeq	r2,r2,zero
     da4:	10000b1e 	bne	r2,zero,dd4 <xEventGroupSetBits+0xfc>
     da8:	00800044 	movi	r2,1
     dac:	e0bff515 	stw	r2,-44(fp)
     db0:	00000806 	br	dd4 <xEventGroupSetBits+0xfc>
     db4:	e0bff617 	ldw	r2,-40(fp)
     db8:	10c00017 	ldw	r3,0(r2)
     dbc:	e0bff817 	ldw	r2,-32(fp)
     dc0:	1886703a 	and	r3,r3,r2
     dc4:	e0bff817 	ldw	r2,-32(fp)
     dc8:	1880021e 	bne	r3,r2,dd4 <xEventGroupSetBits+0xfc>
     dcc:	00800044 	movi	r2,1
     dd0:	e0bff515 	stw	r2,-44(fp)
     dd4:	e0bff517 	ldw	r2,-44(fp)
     dd8:	1005003a 	cmpeq	r2,r2,zero
     ddc:	10000d1e 	bne	r2,zero,e14 <xEventGroupSetBits+0x13c>
     de0:	e0bff717 	ldw	r2,-36(fp)
     de4:	1080402c 	andhi	r2,r2,256
     de8:	1005003a 	cmpeq	r2,r2,zero
     dec:	1000041e 	bne	r2,zero,e00 <xEventGroupSetBits+0x128>
     df0:	e0bff917 	ldw	r2,-28(fp)
     df4:	e0fff817 	ldw	r3,-32(fp)
     df8:	10c4b03a 	or	r2,r2,r3
     dfc:	e0bff915 	stw	r2,-28(fp)
     e00:	e0bff617 	ldw	r2,-40(fp)
     e04:	10800017 	ldw	r2,0(r2)
     e08:	11408034 	orhi	r5,r2,512
     e0c:	e13ffd17 	ldw	r4,-12(fp)
     e10:	00037040 	call	3704 <xTaskRemoveFromUnorderedEventList>
     e14:	e0bffc17 	ldw	r2,-16(fp)
     e18:	e0bffd15 	stw	r2,-12(fp)
     e1c:	e0fffd17 	ldw	r3,-12(fp)
     e20:	e0bffb17 	ldw	r2,-20(fp)
     e24:	18bfc71e 	bne	r3,r2,d44 <xEventGroupSetBits+0x6c>
     e28:	e0bff617 	ldw	r2,-40(fp)
     e2c:	10c00017 	ldw	r3,0(r2)
     e30:	e0bff917 	ldw	r2,-28(fp)
     e34:	0084303a 	nor	r2,zero,r2
     e38:	1886703a 	and	r3,r3,r2
     e3c:	e0bff617 	ldw	r2,-40(fp)
     e40:	10c00015 	stw	r3,0(r2)
     e44:	00030180 	call	3018 <xTaskResumeAll>
     e48:	e0bff617 	ldw	r2,-40(fp)
     e4c:	10800017 	ldw	r2,0(r2)
     e50:	e037883a 	mov	sp,fp
     e54:	dfc00117 	ldw	ra,4(sp)
     e58:	df000017 	ldw	fp,0(sp)
     e5c:	dec00204 	addi	sp,sp,8
     e60:	f800283a 	ret

00000e64 <vEventGroupDelete>:
     e64:	defffb04 	addi	sp,sp,-20
     e68:	dfc00415 	stw	ra,16(sp)
     e6c:	df000315 	stw	fp,12(sp)
     e70:	df000304 	addi	fp,sp,12
     e74:	e13fff15 	stw	r4,-4(fp)
     e78:	e0bfff17 	ldw	r2,-4(fp)
     e7c:	e0bffe15 	stw	r2,-8(fp)
     e80:	e0bffe17 	ldw	r2,-8(fp)
     e84:	10800104 	addi	r2,r2,4
     e88:	e0bffd15 	stw	r2,-12(fp)
     e8c:	0002ff00 	call	2ff0 <vTaskSuspendAll>
     e90:	00000406 	br	ea4 <vEventGroupDelete+0x40>
     e94:	e0bffd17 	ldw	r2,-12(fp)
     e98:	11000317 	ldw	r4,12(r2)
     e9c:	01408034 	movhi	r5,512
     ea0:	00037040 	call	3704 <xTaskRemoveFromUnorderedEventList>
     ea4:	e0bffd17 	ldw	r2,-12(fp)
     ea8:	10800017 	ldw	r2,0(r2)
     eac:	1004c03a 	cmpne	r2,r2,zero
     eb0:	103ff81e 	bne	r2,zero,e94 <vEventGroupDelete+0x30>
     eb4:	e13ffe17 	ldw	r4,-8(fp)
     eb8:	00011500 	call	1150 <vPortFree>
     ebc:	00030180 	call	3018 <xTaskResumeAll>
     ec0:	e037883a 	mov	sp,fp
     ec4:	dfc00117 	ldw	ra,4(sp)
     ec8:	df000017 	ldw	fp,0(sp)
     ecc:	dec00204 	addi	sp,sp,8
     ed0:	f800283a 	ret

00000ed4 <vEventGroupSetBitsCallback>:
     ed4:	defffc04 	addi	sp,sp,-16
     ed8:	dfc00315 	stw	ra,12(sp)
     edc:	df000215 	stw	fp,8(sp)
     ee0:	df000204 	addi	fp,sp,8
     ee4:	e13ffe15 	stw	r4,-8(fp)
     ee8:	e17fff15 	stw	r5,-4(fp)
     eec:	e13ffe17 	ldw	r4,-8(fp)
     ef0:	e17fff17 	ldw	r5,-4(fp)
     ef4:	0000cd80 	call	cd8 <xEventGroupSetBits>
     ef8:	e037883a 	mov	sp,fp
     efc:	dfc00117 	ldw	ra,4(sp)
     f00:	df000017 	ldw	fp,0(sp)
     f04:	dec00204 	addi	sp,sp,8
     f08:	f800283a 	ret

00000f0c <vEventGroupClearBitsCallback>:
     f0c:	defffc04 	addi	sp,sp,-16
     f10:	dfc00315 	stw	ra,12(sp)
     f14:	df000215 	stw	fp,8(sp)
     f18:	df000204 	addi	fp,sp,8
     f1c:	e13ffe15 	stw	r4,-8(fp)
     f20:	e17fff15 	stw	r5,-4(fp)
     f24:	e13ffe17 	ldw	r4,-8(fp)
     f28:	e17fff17 	ldw	r5,-4(fp)
     f2c:	0000c340 	call	c34 <xEventGroupClearBits>
     f30:	e037883a 	mov	sp,fp
     f34:	dfc00117 	ldw	ra,4(sp)
     f38:	df000017 	ldw	fp,0(sp)
     f3c:	dec00204 	addi	sp,sp,8
     f40:	f800283a 	ret

00000f44 <prvTestWaitCondition>:
     f44:	defffb04 	addi	sp,sp,-20
     f48:	df000415 	stw	fp,16(sp)
     f4c:	df000404 	addi	fp,sp,16
     f50:	e13ffd15 	stw	r4,-12(fp)
     f54:	e17ffe15 	stw	r5,-8(fp)
     f58:	e1bfff15 	stw	r6,-4(fp)
     f5c:	e03ffc15 	stw	zero,-16(fp)
     f60:	e0bfff17 	ldw	r2,-4(fp)
     f64:	1004c03a 	cmpne	r2,r2,zero
     f68:	1000081e 	bne	r2,zero,f8c <prvTestWaitCondition+0x48>
     f6c:	e0fffd17 	ldw	r3,-12(fp)
     f70:	e0bffe17 	ldw	r2,-8(fp)
     f74:	1884703a 	and	r2,r3,r2
     f78:	1005003a 	cmpeq	r2,r2,zero
     f7c:	10000a1e 	bne	r2,zero,fa8 <prvTestWaitCondition+0x64>
     f80:	00800044 	movi	r2,1
     f84:	e0bffc15 	stw	r2,-16(fp)
     f88:	00000706 	br	fa8 <prvTestWaitCondition+0x64>
     f8c:	e0fffd17 	ldw	r3,-12(fp)
     f90:	e0bffe17 	ldw	r2,-8(fp)
     f94:	1886703a 	and	r3,r3,r2
     f98:	e0bffe17 	ldw	r2,-8(fp)
     f9c:	1880021e 	bne	r3,r2,fa8 <prvTestWaitCondition+0x64>
     fa0:	00800044 	movi	r2,1
     fa4:	e0bffc15 	stw	r2,-16(fp)
     fa8:	e0bffc17 	ldw	r2,-16(fp)
     fac:	e037883a 	mov	sp,fp
     fb0:	df000017 	ldw	fp,0(sp)
     fb4:	dec00104 	addi	sp,sp,4
     fb8:	f800283a 	ret

00000fbc <pvPortMalloc>:
     fbc:	defff904 	addi	sp,sp,-28
     fc0:	dfc00615 	stw	ra,24(sp)
     fc4:	df000515 	stw	fp,20(sp)
     fc8:	df000504 	addi	fp,sp,20
     fcc:	e13fff15 	stw	r4,-4(fp)
     fd0:	e03ffb15 	stw	zero,-20(fp)
     fd4:	0002ff00 	call	2ff0 <vTaskSuspendAll>
     fd8:	d0a01f17 	ldw	r2,-32644(gp)
     fdc:	1004c03a 	cmpne	r2,r2,zero
     fe0:	1000011e 	bne	r2,zero,fe8 <pvPortMalloc+0x2c>
     fe4:	000120c0 	call	120c <prvHeapInit>
     fe8:	e0bfff17 	ldw	r2,-4(fp)
     fec:	1005003a 	cmpeq	r2,r2,zero
     ff0:	10000e1e 	bne	r2,zero,102c <pvPortMalloc+0x70>
     ff4:	d0a0000b 	ldhu	r2,-32768(gp)
     ff8:	10ffffcc 	andi	r3,r2,65535
     ffc:	e0bfff17 	ldw	r2,-4(fp)
    1000:	10c5883a 	add	r2,r2,r3
    1004:	e0bfff15 	stw	r2,-4(fp)
    1008:	e0bfff17 	ldw	r2,-4(fp)
    100c:	108000cc 	andi	r2,r2,3
    1010:	1005003a 	cmpeq	r2,r2,zero
    1014:	1000051e 	bne	r2,zero,102c <pvPortMalloc+0x70>
    1018:	e0ffff17 	ldw	r3,-4(fp)
    101c:	00bfff04 	movi	r2,-4
    1020:	1884703a 	and	r2,r3,r2
    1024:	10800104 	addi	r2,r2,4
    1028:	e0bfff15 	stw	r2,-4(fp)
    102c:	e0bfff17 	ldw	r2,-4(fp)
    1030:	1005003a 	cmpeq	r2,r2,zero
    1034:	10003f1e 	bne	r2,zero,1134 <pvPortMalloc+0x178>
    1038:	d0e00117 	ldw	r3,-32764(gp)
    103c:	e0bfff17 	ldw	r2,-4(fp)
    1040:	10c03c2e 	bgeu	r2,r3,1134 <pvPortMalloc+0x178>
    1044:	d0a02004 	addi	r2,gp,-32640
    1048:	e0bffd15 	stw	r2,-12(fp)
    104c:	d0a02017 	ldw	r2,-32640(gp)
    1050:	e0bffe15 	stw	r2,-8(fp)
    1054:	00000506 	br	106c <pvPortMalloc+0xb0>
    1058:	e0bffe17 	ldw	r2,-8(fp)
    105c:	e0bffd15 	stw	r2,-12(fp)
    1060:	e0bffe17 	ldw	r2,-8(fp)
    1064:	10800017 	ldw	r2,0(r2)
    1068:	e0bffe15 	stw	r2,-8(fp)
    106c:	e0bffe17 	ldw	r2,-8(fp)
    1070:	10c00117 	ldw	r3,4(r2)
    1074:	e0bfff17 	ldw	r2,-4(fp)
    1078:	1880042e 	bgeu	r3,r2,108c <pvPortMalloc+0xd0>
    107c:	e0bffe17 	ldw	r2,-8(fp)
    1080:	10800017 	ldw	r2,0(r2)
    1084:	1004c03a 	cmpne	r2,r2,zero
    1088:	103ff31e 	bne	r2,zero,1058 <pvPortMalloc+0x9c>
    108c:	d0e01f17 	ldw	r3,-32644(gp)
    1090:	e0bffe17 	ldw	r2,-8(fp)
    1094:	10c02726 	beq	r2,r3,1134 <pvPortMalloc+0x178>
    1098:	e0bffd17 	ldw	r2,-12(fp)
    109c:	10800017 	ldw	r2,0(r2)
    10a0:	1007883a 	mov	r3,r2
    10a4:	d0a0000b 	ldhu	r2,-32768(gp)
    10a8:	10bfffcc 	andi	r2,r2,65535
    10ac:	1885883a 	add	r2,r3,r2
    10b0:	e0bffb15 	stw	r2,-20(fp)
    10b4:	e0bffe17 	ldw	r2,-8(fp)
    10b8:	10c00017 	ldw	r3,0(r2)
    10bc:	e0bffd17 	ldw	r2,-12(fp)
    10c0:	10c00015 	stw	r3,0(r2)
    10c4:	e0bffe17 	ldw	r2,-8(fp)
    10c8:	10c00117 	ldw	r3,4(r2)
    10cc:	e0bfff17 	ldw	r2,-4(fp)
    10d0:	1887c83a 	sub	r3,r3,r2
    10d4:	d0a0000b 	ldhu	r2,-32768(gp)
    10d8:	10bfffcc 	andi	r2,r2,65535
    10dc:	1085883a 	add	r2,r2,r2
    10e0:	10c00f2e 	bgeu	r2,r3,1120 <pvPortMalloc+0x164>
    10e4:	e0fffe17 	ldw	r3,-8(fp)
    10e8:	e0bfff17 	ldw	r2,-4(fp)
    10ec:	1885883a 	add	r2,r3,r2
    10f0:	e0bffc15 	stw	r2,-16(fp)
    10f4:	e0bffe17 	ldw	r2,-8(fp)
    10f8:	10c00117 	ldw	r3,4(r2)
    10fc:	e0bfff17 	ldw	r2,-4(fp)
    1100:	1887c83a 	sub	r3,r3,r2
    1104:	e0bffc17 	ldw	r2,-16(fp)
    1108:	10c00115 	stw	r3,4(r2)
    110c:	e0fffe17 	ldw	r3,-8(fp)
    1110:	e0bfff17 	ldw	r2,-4(fp)
    1114:	18800115 	stw	r2,4(r3)
    1118:	e13ffc17 	ldw	r4,-16(fp)
    111c:	00012cc0 	call	12cc <prvInsertBlockIntoFreeList>
    1120:	d0e00217 	ldw	r3,-32760(gp)
    1124:	e0bffe17 	ldw	r2,-8(fp)
    1128:	10800117 	ldw	r2,4(r2)
    112c:	1885c83a 	sub	r2,r3,r2
    1130:	d0a00215 	stw	r2,-32760(gp)
    1134:	00030180 	call	3018 <xTaskResumeAll>
    1138:	e0bffb17 	ldw	r2,-20(fp)
    113c:	e037883a 	mov	sp,fp
    1140:	dfc00117 	ldw	ra,4(sp)
    1144:	df000017 	ldw	fp,0(sp)
    1148:	dec00204 	addi	sp,sp,8
    114c:	f800283a 	ret

00001150 <vPortFree>:
    1150:	defffb04 	addi	sp,sp,-20
    1154:	dfc00415 	stw	ra,16(sp)
    1158:	df000315 	stw	fp,12(sp)
    115c:	df000304 	addi	fp,sp,12
    1160:	e13fff15 	stw	r4,-4(fp)
    1164:	e0bfff17 	ldw	r2,-4(fp)
    1168:	e0bffe15 	stw	r2,-8(fp)
    116c:	e0bfff17 	ldw	r2,-4(fp)
    1170:	1005003a 	cmpeq	r2,r2,zero
    1174:	1000111e 	bne	r2,zero,11bc <vPortFree+0x6c>
    1178:	d0a0000b 	ldhu	r2,-32768(gp)
    117c:	10bfffcc 	andi	r2,r2,65535
    1180:	1007883a 	mov	r3,r2
    1184:	e0bffe17 	ldw	r2,-8(fp)
    1188:	10c5c83a 	sub	r2,r2,r3
    118c:	e0bffe15 	stw	r2,-8(fp)
    1190:	e0bffe17 	ldw	r2,-8(fp)
    1194:	e0bffd15 	stw	r2,-12(fp)
    1198:	0002ff00 	call	2ff0 <vTaskSuspendAll>
    119c:	e0bffd17 	ldw	r2,-12(fp)
    11a0:	10c00117 	ldw	r3,4(r2)
    11a4:	d0a00217 	ldw	r2,-32760(gp)
    11a8:	1885883a 	add	r2,r3,r2
    11ac:	d0a00215 	stw	r2,-32760(gp)
    11b0:	e13ffd17 	ldw	r4,-12(fp)
    11b4:	00012cc0 	call	12cc <prvInsertBlockIntoFreeList>
    11b8:	00030180 	call	3018 <xTaskResumeAll>
    11bc:	e037883a 	mov	sp,fp
    11c0:	dfc00117 	ldw	ra,4(sp)
    11c4:	df000017 	ldw	fp,0(sp)
    11c8:	dec00204 	addi	sp,sp,8
    11cc:	f800283a 	ret

000011d0 <xPortGetFreeHeapSize>:
    11d0:	deffff04 	addi	sp,sp,-4
    11d4:	df000015 	stw	fp,0(sp)
    11d8:	d839883a 	mov	fp,sp
    11dc:	d0a00217 	ldw	r2,-32760(gp)
    11e0:	e037883a 	mov	sp,fp
    11e4:	df000017 	ldw	fp,0(sp)
    11e8:	dec00104 	addi	sp,sp,4
    11ec:	f800283a 	ret

000011f0 <vPortInitialiseBlocks>:
    11f0:	deffff04 	addi	sp,sp,-4
    11f4:	df000015 	stw	fp,0(sp)
    11f8:	d839883a 	mov	fp,sp
    11fc:	e037883a 	mov	sp,fp
    1200:	df000017 	ldw	fp,0(sp)
    1204:	dec00104 	addi	sp,sp,4
    1208:	f800283a 	ret

0000120c <prvHeapInit>:
    120c:	defffd04 	addi	sp,sp,-12
    1210:	df000215 	stw	fp,8(sp)
    1214:	df000204 	addi	fp,sp,8
    1218:	00820034 	movhi	r2,2048
    121c:	10898104 	addi	r2,r2,9732
    1220:	d0a02015 	stw	r2,-32640(gp)
    1224:	00820034 	movhi	r2,2048
    1228:	10894904 	addi	r2,r2,9508
    122c:	10000015 	stw	zero,0(r2)
    1230:	d0a00117 	ldw	r2,-32764(gp)
    1234:	1007883a 	mov	r3,r2
    1238:	00820034 	movhi	r2,2048
    123c:	10898104 	addi	r2,r2,9732
    1240:	1885883a 	add	r2,r3,r2
    1244:	e0bffe15 	stw	r2,-8(fp)
    1248:	d0a0000b 	ldhu	r2,-32768(gp)
    124c:	10bfffcc 	andi	r2,r2,65535
    1250:	1007883a 	mov	r3,r2
    1254:	e0bffe17 	ldw	r2,-8(fp)
    1258:	10c5c83a 	sub	r2,r2,r3
    125c:	e0bffe15 	stw	r2,-8(fp)
    1260:	e0bffe17 	ldw	r2,-8(fp)
    1264:	d0a01f15 	stw	r2,-32644(gp)
    1268:	d0a01f17 	ldw	r2,-32644(gp)
    126c:	10000115 	stw	zero,4(r2)
    1270:	d0a01f17 	ldw	r2,-32644(gp)
    1274:	10000015 	stw	zero,0(r2)
    1278:	00820034 	movhi	r2,2048
    127c:	10898104 	addi	r2,r2,9732
    1280:	e0bfff15 	stw	r2,-4(fp)
    1284:	d0e00117 	ldw	r3,-32764(gp)
    1288:	d0a0000b 	ldhu	r2,-32768(gp)
    128c:	10bfffcc 	andi	r2,r2,65535
    1290:	1887c83a 	sub	r3,r3,r2
    1294:	e0bfff17 	ldw	r2,-4(fp)
    1298:	10c00115 	stw	r3,4(r2)
    129c:	d0e01f17 	ldw	r3,-32644(gp)
    12a0:	e0bfff17 	ldw	r2,-4(fp)
    12a4:	10c00015 	stw	r3,0(r2)
    12a8:	d0e00217 	ldw	r3,-32760(gp)
    12ac:	d0a0000b 	ldhu	r2,-32768(gp)
    12b0:	10bfffcc 	andi	r2,r2,65535
    12b4:	1885c83a 	sub	r2,r3,r2
    12b8:	d0a00215 	stw	r2,-32760(gp)
    12bc:	e037883a 	mov	sp,fp
    12c0:	df000017 	ldw	fp,0(sp)
    12c4:	dec00104 	addi	sp,sp,4
    12c8:	f800283a 	ret

000012cc <prvInsertBlockIntoFreeList>:
    12cc:	defffc04 	addi	sp,sp,-16
    12d0:	df000315 	stw	fp,12(sp)
    12d4:	df000304 	addi	fp,sp,12
    12d8:	e13fff15 	stw	r4,-4(fp)
    12dc:	d0a02004 	addi	r2,gp,-32640
    12e0:	e0bffe15 	stw	r2,-8(fp)
    12e4:	00000306 	br	12f4 <prvInsertBlockIntoFreeList+0x28>
    12e8:	e0bffe17 	ldw	r2,-8(fp)
    12ec:	10800017 	ldw	r2,0(r2)
    12f0:	e0bffe15 	stw	r2,-8(fp)
    12f4:	e0bffe17 	ldw	r2,-8(fp)
    12f8:	10c00017 	ldw	r3,0(r2)
    12fc:	e0bfff17 	ldw	r2,-4(fp)
    1300:	18bff936 	bltu	r3,r2,12e8 <prvInsertBlockIntoFreeList+0x1c>
    1304:	e0bffe17 	ldw	r2,-8(fp)
    1308:	e0bffd15 	stw	r2,-12(fp)
    130c:	e0bffe17 	ldw	r2,-8(fp)
    1310:	10800117 	ldw	r2,4(r2)
    1314:	1007883a 	mov	r3,r2
    1318:	e0bffd17 	ldw	r2,-12(fp)
    131c:	1887883a 	add	r3,r3,r2
    1320:	e0bfff17 	ldw	r2,-4(fp)
    1324:	1880091e 	bne	r3,r2,134c <prvInsertBlockIntoFreeList+0x80>
    1328:	e0bffe17 	ldw	r2,-8(fp)
    132c:	10c00117 	ldw	r3,4(r2)
    1330:	e0bfff17 	ldw	r2,-4(fp)
    1334:	10800117 	ldw	r2,4(r2)
    1338:	1887883a 	add	r3,r3,r2
    133c:	e0bffe17 	ldw	r2,-8(fp)
    1340:	10c00115 	stw	r3,4(r2)
    1344:	e0bffe17 	ldw	r2,-8(fp)
    1348:	e0bfff15 	stw	r2,-4(fp)
    134c:	e0bfff17 	ldw	r2,-4(fp)
    1350:	e0bffd15 	stw	r2,-12(fp)
    1354:	e0bfff17 	ldw	r2,-4(fp)
    1358:	10800117 	ldw	r2,4(r2)
    135c:	1007883a 	mov	r3,r2
    1360:	e0bffd17 	ldw	r2,-12(fp)
    1364:	1887883a 	add	r3,r3,r2
    1368:	e0bffe17 	ldw	r2,-8(fp)
    136c:	10800017 	ldw	r2,0(r2)
    1370:	1880161e 	bne	r3,r2,13cc <prvInsertBlockIntoFreeList+0x100>
    1374:	e0bffe17 	ldw	r2,-8(fp)
    1378:	10c00017 	ldw	r3,0(r2)
    137c:	d0a01f17 	ldw	r2,-32644(gp)
    1380:	18800e26 	beq	r3,r2,13bc <prvInsertBlockIntoFreeList+0xf0>
    1384:	e0bfff17 	ldw	r2,-4(fp)
    1388:	10c00117 	ldw	r3,4(r2)
    138c:	e0bffe17 	ldw	r2,-8(fp)
    1390:	10800017 	ldw	r2,0(r2)
    1394:	10800117 	ldw	r2,4(r2)
    1398:	1887883a 	add	r3,r3,r2
    139c:	e0bfff17 	ldw	r2,-4(fp)
    13a0:	10c00115 	stw	r3,4(r2)
    13a4:	e0bffe17 	ldw	r2,-8(fp)
    13a8:	10800017 	ldw	r2,0(r2)
    13ac:	10c00017 	ldw	r3,0(r2)
    13b0:	e0bfff17 	ldw	r2,-4(fp)
    13b4:	10c00015 	stw	r3,0(r2)
    13b8:	00000806 	br	13dc <prvInsertBlockIntoFreeList+0x110>
    13bc:	d0e01f17 	ldw	r3,-32644(gp)
    13c0:	e0bfff17 	ldw	r2,-4(fp)
    13c4:	10c00015 	stw	r3,0(r2)
    13c8:	00000406 	br	13dc <prvInsertBlockIntoFreeList+0x110>
    13cc:	e0bffe17 	ldw	r2,-8(fp)
    13d0:	10c00017 	ldw	r3,0(r2)
    13d4:	e0bfff17 	ldw	r2,-4(fp)
    13d8:	10c00015 	stw	r3,0(r2)
    13dc:	e0fffe17 	ldw	r3,-8(fp)
    13e0:	e0bfff17 	ldw	r2,-4(fp)
    13e4:	18800326 	beq	r3,r2,13f4 <prvInsertBlockIntoFreeList+0x128>
    13e8:	e0fffe17 	ldw	r3,-8(fp)
    13ec:	e0bfff17 	ldw	r2,-4(fp)
    13f0:	18800015 	stw	r2,0(r3)
    13f4:	e037883a 	mov	sp,fp
    13f8:	df000017 	ldw	fp,0(sp)
    13fc:	dec00104 	addi	sp,sp,4
    1400:	f800283a 	ret

00001404 <vListInitialise>:
    1404:	defffe04 	addi	sp,sp,-8
    1408:	df000115 	stw	fp,4(sp)
    140c:	df000104 	addi	fp,sp,4
    1410:	e13fff15 	stw	r4,-4(fp)
    1414:	e0bfff17 	ldw	r2,-4(fp)
    1418:	10800204 	addi	r2,r2,8
    141c:	1007883a 	mov	r3,r2
    1420:	e0bfff17 	ldw	r2,-4(fp)
    1424:	10c00115 	stw	r3,4(r2)
    1428:	e0ffff17 	ldw	r3,-4(fp)
    142c:	00bfffc4 	movi	r2,-1
    1430:	18800215 	stw	r2,8(r3)
    1434:	e0bfff17 	ldw	r2,-4(fp)
    1438:	10800204 	addi	r2,r2,8
    143c:	1007883a 	mov	r3,r2
    1440:	e0bfff17 	ldw	r2,-4(fp)
    1444:	10c00315 	stw	r3,12(r2)
    1448:	e0bfff17 	ldw	r2,-4(fp)
    144c:	10800204 	addi	r2,r2,8
    1450:	1007883a 	mov	r3,r2
    1454:	e0bfff17 	ldw	r2,-4(fp)
    1458:	10c00415 	stw	r3,16(r2)
    145c:	e0bfff17 	ldw	r2,-4(fp)
    1460:	10000015 	stw	zero,0(r2)
    1464:	e037883a 	mov	sp,fp
    1468:	df000017 	ldw	fp,0(sp)
    146c:	dec00104 	addi	sp,sp,4
    1470:	f800283a 	ret

00001474 <vListInitialiseItem>:
    1474:	defffe04 	addi	sp,sp,-8
    1478:	df000115 	stw	fp,4(sp)
    147c:	df000104 	addi	fp,sp,4
    1480:	e13fff15 	stw	r4,-4(fp)
    1484:	e0bfff17 	ldw	r2,-4(fp)
    1488:	10000415 	stw	zero,16(r2)
    148c:	e037883a 	mov	sp,fp
    1490:	df000017 	ldw	fp,0(sp)
    1494:	dec00104 	addi	sp,sp,4
    1498:	f800283a 	ret

0000149c <vListInsertEnd>:
    149c:	defffc04 	addi	sp,sp,-16
    14a0:	df000315 	stw	fp,12(sp)
    14a4:	df000304 	addi	fp,sp,12
    14a8:	e13ffe15 	stw	r4,-8(fp)
    14ac:	e17fff15 	stw	r5,-4(fp)
    14b0:	e0bffe17 	ldw	r2,-8(fp)
    14b4:	10800117 	ldw	r2,4(r2)
    14b8:	e0bffd15 	stw	r2,-12(fp)
    14bc:	e0ffff17 	ldw	r3,-4(fp)
    14c0:	e0bffd17 	ldw	r2,-12(fp)
    14c4:	18800115 	stw	r2,4(r3)
    14c8:	e0bffd17 	ldw	r2,-12(fp)
    14cc:	10c00217 	ldw	r3,8(r2)
    14d0:	e0bfff17 	ldw	r2,-4(fp)
    14d4:	10c00215 	stw	r3,8(r2)
    14d8:	e0bffd17 	ldw	r2,-12(fp)
    14dc:	10c00217 	ldw	r3,8(r2)
    14e0:	e0bfff17 	ldw	r2,-4(fp)
    14e4:	18800115 	stw	r2,4(r3)
    14e8:	e0fffd17 	ldw	r3,-12(fp)
    14ec:	e0bfff17 	ldw	r2,-4(fp)
    14f0:	18800215 	stw	r2,8(r3)
    14f4:	e0ffff17 	ldw	r3,-4(fp)
    14f8:	e0bffe17 	ldw	r2,-8(fp)
    14fc:	18800415 	stw	r2,16(r3)
    1500:	e0bffe17 	ldw	r2,-8(fp)
    1504:	10800017 	ldw	r2,0(r2)
    1508:	10c00044 	addi	r3,r2,1
    150c:	e0bffe17 	ldw	r2,-8(fp)
    1510:	10c00015 	stw	r3,0(r2)
    1514:	e037883a 	mov	sp,fp
    1518:	df000017 	ldw	fp,0(sp)
    151c:	dec00104 	addi	sp,sp,4
    1520:	f800283a 	ret

00001524 <vListInsert>:
    1524:	defffb04 	addi	sp,sp,-20
    1528:	df000415 	stw	fp,16(sp)
    152c:	df000404 	addi	fp,sp,16
    1530:	e13ffe15 	stw	r4,-8(fp)
    1534:	e17fff15 	stw	r5,-4(fp)
    1538:	e0bfff17 	ldw	r2,-4(fp)
    153c:	10800017 	ldw	r2,0(r2)
    1540:	e0bffc15 	stw	r2,-16(fp)
    1544:	e0bffc17 	ldw	r2,-16(fp)
    1548:	10bfffd8 	cmpnei	r2,r2,-1
    154c:	1000041e 	bne	r2,zero,1560 <vListInsert+0x3c>
    1550:	e0bffe17 	ldw	r2,-8(fp)
    1554:	10800417 	ldw	r2,16(r2)
    1558:	e0bffd15 	stw	r2,-12(fp)
    155c:	00000c06 	br	1590 <vListInsert+0x6c>
    1560:	e0bffe17 	ldw	r2,-8(fp)
    1564:	10800204 	addi	r2,r2,8
    1568:	e0bffd15 	stw	r2,-12(fp)
    156c:	00000306 	br	157c <vListInsert+0x58>
    1570:	e0bffd17 	ldw	r2,-12(fp)
    1574:	10800117 	ldw	r2,4(r2)
    1578:	e0bffd15 	stw	r2,-12(fp)
    157c:	e0bffd17 	ldw	r2,-12(fp)
    1580:	10800117 	ldw	r2,4(r2)
    1584:	10c00017 	ldw	r3,0(r2)
    1588:	e0bffc17 	ldw	r2,-16(fp)
    158c:	10fff82e 	bgeu	r2,r3,1570 <vListInsert+0x4c>
    1590:	e0bffd17 	ldw	r2,-12(fp)
    1594:	10c00117 	ldw	r3,4(r2)
    1598:	e0bfff17 	ldw	r2,-4(fp)
    159c:	10c00115 	stw	r3,4(r2)
    15a0:	e0bfff17 	ldw	r2,-4(fp)
    15a4:	10c00117 	ldw	r3,4(r2)
    15a8:	e0bfff17 	ldw	r2,-4(fp)
    15ac:	18800215 	stw	r2,8(r3)
    15b0:	e0ffff17 	ldw	r3,-4(fp)
    15b4:	e0bffd17 	ldw	r2,-12(fp)
    15b8:	18800215 	stw	r2,8(r3)
    15bc:	e0fffd17 	ldw	r3,-12(fp)
    15c0:	e0bfff17 	ldw	r2,-4(fp)
    15c4:	18800115 	stw	r2,4(r3)
    15c8:	e0ffff17 	ldw	r3,-4(fp)
    15cc:	e0bffe17 	ldw	r2,-8(fp)
    15d0:	18800415 	stw	r2,16(r3)
    15d4:	e0bffe17 	ldw	r2,-8(fp)
    15d8:	10800017 	ldw	r2,0(r2)
    15dc:	10c00044 	addi	r3,r2,1
    15e0:	e0bffe17 	ldw	r2,-8(fp)
    15e4:	10c00015 	stw	r3,0(r2)
    15e8:	e037883a 	mov	sp,fp
    15ec:	df000017 	ldw	fp,0(sp)
    15f0:	dec00104 	addi	sp,sp,4
    15f4:	f800283a 	ret

000015f8 <uxListRemove>:
    15f8:	defffd04 	addi	sp,sp,-12
    15fc:	df000215 	stw	fp,8(sp)
    1600:	df000204 	addi	fp,sp,8
    1604:	e13fff15 	stw	r4,-4(fp)
    1608:	e0bfff17 	ldw	r2,-4(fp)
    160c:	10800417 	ldw	r2,16(r2)
    1610:	e0bffe15 	stw	r2,-8(fp)
    1614:	e0bfff17 	ldw	r2,-4(fp)
    1618:	10c00117 	ldw	r3,4(r2)
    161c:	e0bfff17 	ldw	r2,-4(fp)
    1620:	10800217 	ldw	r2,8(r2)
    1624:	18800215 	stw	r2,8(r3)
    1628:	e0bfff17 	ldw	r2,-4(fp)
    162c:	10c00217 	ldw	r3,8(r2)
    1630:	e0bfff17 	ldw	r2,-4(fp)
    1634:	10800117 	ldw	r2,4(r2)
    1638:	18800115 	stw	r2,4(r3)
    163c:	e0bffe17 	ldw	r2,-8(fp)
    1640:	10c00117 	ldw	r3,4(r2)
    1644:	e0bfff17 	ldw	r2,-4(fp)
    1648:	1880041e 	bne	r3,r2,165c <uxListRemove+0x64>
    164c:	e0bfff17 	ldw	r2,-4(fp)
    1650:	10c00217 	ldw	r3,8(r2)
    1654:	e0bffe17 	ldw	r2,-8(fp)
    1658:	10c00115 	stw	r3,4(r2)
    165c:	e0bfff17 	ldw	r2,-4(fp)
    1660:	10000415 	stw	zero,16(r2)
    1664:	e0bffe17 	ldw	r2,-8(fp)
    1668:	10800017 	ldw	r2,0(r2)
    166c:	10ffffc4 	addi	r3,r2,-1
    1670:	e0bffe17 	ldw	r2,-8(fp)
    1674:	10c00015 	stw	r3,0(r2)
    1678:	e0bffe17 	ldw	r2,-8(fp)
    167c:	10800017 	ldw	r2,0(r2)
    1680:	e037883a 	mov	sp,fp
    1684:	df000017 	ldw	fp,0(sp)
    1688:	dec00104 	addi	sp,sp,4
    168c:	f800283a 	ret

00001690 <vApplicationStackOverflowHook>:
    1690:	defffc04 	addi	sp,sp,-16
    1694:	dfc00315 	stw	ra,12(sp)
    1698:	df000215 	stw	fp,8(sp)
    169c:	df000204 	addi	fp,sp,8
    16a0:	e13ffe15 	stw	r4,-8(fp)
    16a4:	e17fff15 	stw	r5,-4(fp)
    16a8:	01020034 	movhi	r4,2048
    16ac:	21000004 	addi	r4,r4,0
    16b0:	e17fff17 	ldw	r5,-4(fp)
    16b4:	00053c00 	call	53c0 <printf>
    16b8:	e037883a 	mov	sp,fp
    16bc:	dfc00117 	ldw	ra,4(sp)
    16c0:	df000017 	ldw	fp,0(sp)
    16c4:	dec00204 	addi	sp,sp,8
    16c8:	f800283a 	ret

000016cc <prvReadGp>:
    16cc:	defffe04 	addi	sp,sp,-8
    16d0:	df000115 	stw	fp,4(sp)
    16d4:	df000104 	addi	fp,sp,4
    16d8:	e13fff15 	stw	r4,-4(fp)
    16dc:	e0bfff17 	ldw	r2,-4(fp)
    16e0:	16800015 	stw	gp,0(r2)
    16e4:	e037883a 	mov	sp,fp
    16e8:	df000017 	ldw	fp,0(sp)
    16ec:	dec00104 	addi	sp,sp,4
    16f0:	f800283a 	ret

000016f4 <pxPortInitialiseStack>:
    16f4:	defff904 	addi	sp,sp,-28
    16f8:	dfc00615 	stw	ra,24(sp)
    16fc:	df000515 	stw	fp,20(sp)
    1700:	df000504 	addi	fp,sp,20
    1704:	e13ffd15 	stw	r4,-12(fp)
    1708:	e17ffe15 	stw	r5,-8(fp)
    170c:	e1bfff15 	stw	r6,-4(fp)
    1710:	e0bffd17 	ldw	r2,-12(fp)
    1714:	10bfff04 	addi	r2,r2,-4
    1718:	e0bffb15 	stw	r2,-20(fp)
    171c:	e13ffc04 	addi	r4,fp,-16
    1720:	00016cc0 	call	16cc <prvReadGp>
    1724:	e0fffd17 	ldw	r3,-12(fp)
    1728:	00b7abb4 	movhi	r2,57006
    172c:	10afbbc4 	addi	r2,r2,-16657
    1730:	18800015 	stw	r2,0(r3)
    1734:	e0bffd17 	ldw	r2,-12(fp)
    1738:	10bfff04 	addi	r2,r2,-4
    173c:	e0bffd15 	stw	r2,-12(fp)
    1740:	e0bffb17 	ldw	r2,-20(fp)
    1744:	1007883a 	mov	r3,r2
    1748:	e0bffd17 	ldw	r2,-12(fp)
    174c:	10c00015 	stw	r3,0(r2)
    1750:	e0bffd17 	ldw	r2,-12(fp)
    1754:	10bfff04 	addi	r2,r2,-4
    1758:	e0bffd15 	stw	r2,-12(fp)
    175c:	e0fffc17 	ldw	r3,-16(fp)
    1760:	e0bffd17 	ldw	r2,-12(fp)
    1764:	10c00015 	stw	r3,0(r2)
    1768:	e0bffd17 	ldw	r2,-12(fp)
    176c:	10bff704 	addi	r2,r2,-36
    1770:	e0bffd15 	stw	r2,-12(fp)
    1774:	e0bffe17 	ldw	r2,-8(fp)
    1778:	1007883a 	mov	r3,r2
    177c:	e0bffd17 	ldw	r2,-12(fp)
    1780:	10c00015 	stw	r3,0(r2)
    1784:	e0bffd17 	ldw	r2,-12(fp)
    1788:	10bfff04 	addi	r2,r2,-4
    178c:	e0bffd15 	stw	r2,-12(fp)
    1790:	e0fffd17 	ldw	r3,-12(fp)
    1794:	00800044 	movi	r2,1
    1798:	18800015 	stw	r2,0(r3)
    179c:	e0bffd17 	ldw	r2,-12(fp)
    17a0:	10bff404 	addi	r2,r2,-48
    17a4:	e0bffd15 	stw	r2,-12(fp)
    17a8:	e0bfff17 	ldw	r2,-4(fp)
    17ac:	1007883a 	mov	r3,r2
    17b0:	e0bffd17 	ldw	r2,-12(fp)
    17b4:	10c00015 	stw	r3,0(r2)
    17b8:	e0bffd17 	ldw	r2,-12(fp)
    17bc:	10bffb04 	addi	r2,r2,-20
    17c0:	e0bffd15 	stw	r2,-12(fp)
    17c4:	e0bffd17 	ldw	r2,-12(fp)
    17c8:	e037883a 	mov	sp,fp
    17cc:	dfc00117 	ldw	ra,4(sp)
    17d0:	df000017 	ldw	fp,0(sp)
    17d4:	dec00204 	addi	sp,sp,8
    17d8:	f800283a 	ret

000017dc <xPortStartScheduler>:
    17dc:	defffe04 	addi	sp,sp,-8
    17e0:	dfc00115 	stw	ra,4(sp)
    17e4:	df000015 	stw	fp,0(sp)
    17e8:	d839883a 	mov	fp,sp
    17ec:	00018300 	call	1830 <prvSetupTimerInterrupt>
    17f0:	00800034 	movhi	r2,0
    17f4:	10803104 	addi	r2,r2,196
    17f8:	1000683a 	jmp	r2
    17fc:	0005883a 	mov	r2,zero
    1800:	e037883a 	mov	sp,fp
    1804:	dfc00117 	ldw	ra,4(sp)
    1808:	df000017 	ldw	fp,0(sp)
    180c:	dec00204 	addi	sp,sp,8
    1810:	f800283a 	ret

00001814 <vPortEndScheduler>:
    1814:	deffff04 	addi	sp,sp,-4
    1818:	df000015 	stw	fp,0(sp)
    181c:	d839883a 	mov	fp,sp
    1820:	e037883a 	mov	sp,fp
    1824:	df000017 	ldw	fp,0(sp)
    1828:	dec00104 	addi	sp,sp,4
    182c:	f800283a 	ret

00001830 <prvSetupTimerInterrupt>:
    1830:	defffe04 	addi	sp,sp,-8
    1834:	dfc00115 	stw	ra,4(sp)
    1838:	df000015 	stw	fp,0(sp)
    183c:	d839883a 	mov	fp,sp
    1840:	0009883a 	mov	r4,zero
    1844:	000b883a 	mov	r5,zero
    1848:	01800034 	movhi	r6,0
    184c:	31863204 	addi	r6,r6,6344
    1850:	00019140 	call	1914 <alt_irq_register>
    1854:	10bffa98 	cmpnei	r2,r2,-22
    1858:	1000021e 	bne	r2,zero,1864 <prvSetupTimerInterrupt+0x34>
    185c:	003da03a 	break	0
    1860:	00001006 	br	18a4 <prvSetupTimerInterrupt+0x74>
    1864:	00c00134 	movhi	r3,4
    1868:	18cc1104 	addi	r3,r3,12356
    186c:	00800204 	movi	r2,8
    1870:	18800035 	stwio	r2,0(r3)
    1874:	00c00134 	movhi	r3,4
    1878:	18cc1204 	addi	r3,r3,12360
    187c:	00a1a814 	movui	r2,34464
    1880:	18800035 	stwio	r2,0(r3)
    1884:	00c00134 	movhi	r3,4
    1888:	18cc1304 	addi	r3,r3,12364
    188c:	00800044 	movi	r2,1
    1890:	18800035 	stwio	r2,0(r3)
    1894:	00c00134 	movhi	r3,4
    1898:	18cc1104 	addi	r3,r3,12356
    189c:	008001c4 	movi	r2,7
    18a0:	18800035 	stwio	r2,0(r3)
    18a4:	00c00134 	movhi	r3,4
    18a8:	18cc1004 	addi	r3,r3,12352
    18ac:	00bfff84 	movi	r2,-2
    18b0:	18800035 	stwio	r2,0(r3)
    18b4:	e037883a 	mov	sp,fp
    18b8:	dfc00117 	ldw	ra,4(sp)
    18bc:	df000017 	ldw	fp,0(sp)
    18c0:	dec00204 	addi	sp,sp,8
    18c4:	f800283a 	ret

000018c8 <vPortSysTickHandler>:
    18c8:	defffc04 	addi	sp,sp,-16
    18cc:	dfc00315 	stw	ra,12(sp)
    18d0:	df000215 	stw	fp,8(sp)
    18d4:	df000204 	addi	fp,sp,8
    18d8:	e13ffe15 	stw	r4,-8(fp)
    18dc:	e17fff15 	stw	r5,-4(fp)
    18e0:	00031dc0 	call	31dc <xTaskIncrementTick>
    18e4:	1005003a 	cmpeq	r2,r2,zero
    18e8:	1000011e 	bne	r2,zero,18f0 <vPortSysTickHandler+0x28>
    18ec:	00033b80 	call	33b8 <vTaskSwitchContext>
    18f0:	00c00134 	movhi	r3,4
    18f4:	18cc1004 	addi	r3,r3,12352
    18f8:	00bfff84 	movi	r2,-2
    18fc:	18800035 	stwio	r2,0(r3)
    1900:	e037883a 	mov	sp,fp
    1904:	dfc00117 	ldw	ra,4(sp)
    1908:	df000017 	ldw	fp,0(sp)
    190c:	dec00204 	addi	sp,sp,8
    1910:	f800283a 	ret

00001914 <alt_irq_register>:
    1914:	defff004 	addi	sp,sp,-64
    1918:	df000f15 	stw	fp,60(sp)
    191c:	df000f04 	addi	fp,sp,60
    1920:	e13ffc15 	stw	r4,-16(fp)
    1924:	e17ffd15 	stw	r5,-12(fp)
    1928:	e1bffe15 	stw	r6,-8(fp)
    192c:	00bffa84 	movi	r2,-22
    1930:	e0bffb15 	stw	r2,-20(fp)
    1934:	e0bffc17 	ldw	r2,-16(fp)
    1938:	10800828 	cmpgeui	r2,r2,32
    193c:	10005c1e 	bne	r2,zero,1ab0 <alt_irq_register+0x19c>
    1940:	0005303a 	rdctl	r2,status
    1944:	e0bff915 	stw	r2,-28(fp)
    1948:	e0fff917 	ldw	r3,-28(fp)
    194c:	00bfff84 	movi	r2,-2
    1950:	1884703a 	and	r2,r3,r2
    1954:	1001703a 	wrctl	status,r2
    1958:	e0bff917 	ldw	r2,-28(fp)
    195c:	e0bffa15 	stw	r2,-24(fp)
    1960:	e0bffc17 	ldw	r2,-16(fp)
    1964:	00c20234 	movhi	r3,2056
    1968:	18fde504 	addi	r3,r3,-2156
    196c:	100490fa 	slli	r2,r2,3
    1970:	10c7883a 	add	r3,r2,r3
    1974:	e0bffe17 	ldw	r2,-8(fp)
    1978:	18800015 	stw	r2,0(r3)
    197c:	e0bffc17 	ldw	r2,-16(fp)
    1980:	00c20234 	movhi	r3,2056
    1984:	18fde504 	addi	r3,r3,-2156
    1988:	100490fa 	slli	r2,r2,3
    198c:	10c5883a 	add	r2,r2,r3
    1990:	10c00104 	addi	r3,r2,4
    1994:	e0bffd17 	ldw	r2,-12(fp)
    1998:	18800015 	stw	r2,0(r3)
    199c:	e0bffe17 	ldw	r2,-8(fp)
    19a0:	1005003a 	cmpeq	r2,r2,zero
    19a4:	1000201e 	bne	r2,zero,1a28 <alt_irq_register+0x114>
    19a8:	e0bffc17 	ldw	r2,-16(fp)
    19ac:	e0bff715 	stw	r2,-36(fp)
    19b0:	0005303a 	rdctl	r2,status
    19b4:	e0bff615 	stw	r2,-40(fp)
    19b8:	e0fff617 	ldw	r3,-40(fp)
    19bc:	00bfff84 	movi	r2,-2
    19c0:	1884703a 	and	r2,r3,r2
    19c4:	1001703a 	wrctl	status,r2
    19c8:	e0bff617 	ldw	r2,-40(fp)
    19cc:	e0bff815 	stw	r2,-32(fp)
    19d0:	e0fff717 	ldw	r3,-36(fp)
    19d4:	00800044 	movi	r2,1
    19d8:	10c4983a 	sll	r2,r2,r3
    19dc:	1007883a 	mov	r3,r2
    19e0:	00820034 	movhi	r2,2048
    19e4:	10896204 	addi	r2,r2,9608
    19e8:	10800017 	ldw	r2,0(r2)
    19ec:	1886b03a 	or	r3,r3,r2
    19f0:	00820034 	movhi	r2,2048
    19f4:	10896204 	addi	r2,r2,9608
    19f8:	10c00015 	stw	r3,0(r2)
    19fc:	00820034 	movhi	r2,2048
    1a00:	10896204 	addi	r2,r2,9608
    1a04:	10800017 	ldw	r2,0(r2)
    1a08:	100170fa 	wrctl	ienable,r2
    1a0c:	e0bff817 	ldw	r2,-32(fp)
    1a10:	e0bff515 	stw	r2,-44(fp)
    1a14:	e0bff517 	ldw	r2,-44(fp)
    1a18:	1001703a 	wrctl	status,r2
    1a1c:	0005883a 	mov	r2,zero
    1a20:	e0bfff15 	stw	r2,-4(fp)
    1a24:	00002006 	br	1aa8 <alt_irq_register+0x194>
    1a28:	e0bffc17 	ldw	r2,-16(fp)
    1a2c:	e0bff315 	stw	r2,-52(fp)
    1a30:	0005303a 	rdctl	r2,status
    1a34:	e0bff215 	stw	r2,-56(fp)
    1a38:	e0fff217 	ldw	r3,-56(fp)
    1a3c:	00bfff84 	movi	r2,-2
    1a40:	1884703a 	and	r2,r3,r2
    1a44:	1001703a 	wrctl	status,r2
    1a48:	e0bff217 	ldw	r2,-56(fp)
    1a4c:	e0bff415 	stw	r2,-48(fp)
    1a50:	e0fff317 	ldw	r3,-52(fp)
    1a54:	00800044 	movi	r2,1
    1a58:	10c4983a 	sll	r2,r2,r3
    1a5c:	0084303a 	nor	r2,zero,r2
    1a60:	1007883a 	mov	r3,r2
    1a64:	00820034 	movhi	r2,2048
    1a68:	10896204 	addi	r2,r2,9608
    1a6c:	10800017 	ldw	r2,0(r2)
    1a70:	1886703a 	and	r3,r3,r2
    1a74:	00820034 	movhi	r2,2048
    1a78:	10896204 	addi	r2,r2,9608
    1a7c:	10c00015 	stw	r3,0(r2)
    1a80:	00820034 	movhi	r2,2048
    1a84:	10896204 	addi	r2,r2,9608
    1a88:	10800017 	ldw	r2,0(r2)
    1a8c:	100170fa 	wrctl	ienable,r2
    1a90:	e0bff417 	ldw	r2,-48(fp)
    1a94:	e0bff115 	stw	r2,-60(fp)
    1a98:	e0bff117 	ldw	r2,-60(fp)
    1a9c:	1001703a 	wrctl	status,r2
    1aa0:	0005883a 	mov	r2,zero
    1aa4:	e0bfff15 	stw	r2,-4(fp)
    1aa8:	e0bfff17 	ldw	r2,-4(fp)
    1aac:	e0bffb15 	stw	r2,-20(fp)
    1ab0:	e0bffb17 	ldw	r2,-20(fp)
    1ab4:	e037883a 	mov	sp,fp
    1ab8:	df000017 	ldw	fp,0(sp)
    1abc:	dec00104 	addi	sp,sp,4
    1ac0:	f800283a 	ret

00001ac4 <xQueueGenericReset>:
    1ac4:	defffb04 	addi	sp,sp,-20
    1ac8:	dfc00415 	stw	ra,16(sp)
    1acc:	df000315 	stw	fp,12(sp)
    1ad0:	df000304 	addi	fp,sp,12
    1ad4:	e13ffe15 	stw	r4,-8(fp)
    1ad8:	e17fff15 	stw	r5,-4(fp)
    1adc:	e0bffe17 	ldw	r2,-8(fp)
    1ae0:	e0bffd15 	stw	r2,-12(fp)
    1ae4:	00041140 	call	4114 <vTaskEnterCritical>
    1ae8:	e0bffd17 	ldw	r2,-12(fp)
    1aec:	11000017 	ldw	r4,0(r2)
    1af0:	e0bffd17 	ldw	r2,-12(fp)
    1af4:	10c00f17 	ldw	r3,60(r2)
    1af8:	e0bffd17 	ldw	r2,-12(fp)
    1afc:	10801017 	ldw	r2,64(r2)
    1b00:	1885383a 	mul	r2,r3,r2
    1b04:	2087883a 	add	r3,r4,r2
    1b08:	e0bffd17 	ldw	r2,-12(fp)
    1b0c:	10c00115 	stw	r3,4(r2)
    1b10:	e0bffd17 	ldw	r2,-12(fp)
    1b14:	10000e15 	stw	zero,56(r2)
    1b18:	e0bffd17 	ldw	r2,-12(fp)
    1b1c:	10c00017 	ldw	r3,0(r2)
    1b20:	e0bffd17 	ldw	r2,-12(fp)
    1b24:	10c00215 	stw	r3,8(r2)
    1b28:	e0bffd17 	ldw	r2,-12(fp)
    1b2c:	11000017 	ldw	r4,0(r2)
    1b30:	e0bffd17 	ldw	r2,-12(fp)
    1b34:	10800f17 	ldw	r2,60(r2)
    1b38:	10ffffc4 	addi	r3,r2,-1
    1b3c:	e0bffd17 	ldw	r2,-12(fp)
    1b40:	10801017 	ldw	r2,64(r2)
    1b44:	1885383a 	mul	r2,r3,r2
    1b48:	2087883a 	add	r3,r4,r2
    1b4c:	e0bffd17 	ldw	r2,-12(fp)
    1b50:	10c00315 	stw	r3,12(r2)
    1b54:	e0fffd17 	ldw	r3,-12(fp)
    1b58:	00bfffc4 	movi	r2,-1
    1b5c:	18801115 	stw	r2,68(r3)
    1b60:	e0fffd17 	ldw	r3,-12(fp)
    1b64:	00bfffc4 	movi	r2,-1
    1b68:	18801215 	stw	r2,72(r3)
    1b6c:	e0bfff17 	ldw	r2,-4(fp)
    1b70:	1004c03a 	cmpne	r2,r2,zero
    1b74:	10000b1e 	bne	r2,zero,1ba4 <xQueueGenericReset+0xe0>
    1b78:	e0bffd17 	ldw	r2,-12(fp)
    1b7c:	10800417 	ldw	r2,16(r2)
    1b80:	1005003a 	cmpeq	r2,r2,zero
    1b84:	10000d1e 	bne	r2,zero,1bbc <xQueueGenericReset+0xf8>
    1b88:	e0bffd17 	ldw	r2,-12(fp)
    1b8c:	11000404 	addi	r4,r2,16
    1b90:	000361c0 	call	361c <xTaskRemoveFromEventList>
    1b94:	10800058 	cmpnei	r2,r2,1
    1b98:	1000081e 	bne	r2,zero,1bbc <xQueueGenericReset+0xf8>
    1b9c:	003b683a 	trap	0
    1ba0:	00000606 	br	1bbc <xQueueGenericReset+0xf8>
    1ba4:	e0bffd17 	ldw	r2,-12(fp)
    1ba8:	11000404 	addi	r4,r2,16
    1bac:	00014040 	call	1404 <vListInitialise>
    1bb0:	e0bffd17 	ldw	r2,-12(fp)
    1bb4:	11000904 	addi	r4,r2,36
    1bb8:	00014040 	call	1404 <vListInitialise>
    1bbc:	00041680 	call	4168 <vTaskExitCritical>
    1bc0:	00800044 	movi	r2,1
    1bc4:	e037883a 	mov	sp,fp
    1bc8:	dfc00117 	ldw	ra,4(sp)
    1bcc:	df000017 	ldw	fp,0(sp)
    1bd0:	dec00204 	addi	sp,sp,8
    1bd4:	f800283a 	ret

00001bd8 <xQueueGenericCreate>:
    1bd8:	defff704 	addi	sp,sp,-36
    1bdc:	dfc00815 	stw	ra,32(sp)
    1be0:	df000715 	stw	fp,28(sp)
    1be4:	df000704 	addi	fp,sp,28
    1be8:	e13ffd15 	stw	r4,-12(fp)
    1bec:	e17ffe15 	stw	r5,-8(fp)
    1bf0:	e1bfff05 	stb	r6,-4(fp)
    1bf4:	e03ffa15 	stw	zero,-24(fp)
    1bf8:	e0bffe17 	ldw	r2,-8(fp)
    1bfc:	1004c03a 	cmpne	r2,r2,zero
    1c00:	1000021e 	bne	r2,zero,1c0c <xQueueGenericCreate+0x34>
    1c04:	e03ffb15 	stw	zero,-20(fp)
    1c08:	00000506 	br	1c20 <xQueueGenericCreate+0x48>
    1c0c:	e0fffd17 	ldw	r3,-12(fp)
    1c10:	e0bffe17 	ldw	r2,-8(fp)
    1c14:	1885383a 	mul	r2,r3,r2
    1c18:	10800044 	addi	r2,r2,1
    1c1c:	e0bffb15 	stw	r2,-20(fp)
    1c20:	e0bffb17 	ldw	r2,-20(fp)
    1c24:	11001304 	addi	r4,r2,76
    1c28:	0000fbc0 	call	fbc <pvPortMalloc>
    1c2c:	e0bff915 	stw	r2,-28(fp)
    1c30:	e0bff917 	ldw	r2,-28(fp)
    1c34:	1005003a 	cmpeq	r2,r2,zero
    1c38:	1000181e 	bne	r2,zero,1c9c <xQueueGenericCreate+0xc4>
    1c3c:	e0bff917 	ldw	r2,-28(fp)
    1c40:	e0bffc15 	stw	r2,-16(fp)
    1c44:	e0bffe17 	ldw	r2,-8(fp)
    1c48:	1004c03a 	cmpne	r2,r2,zero
    1c4c:	1000041e 	bne	r2,zero,1c60 <xQueueGenericCreate+0x88>
    1c50:	e0fffc17 	ldw	r3,-16(fp)
    1c54:	e0bffc17 	ldw	r2,-16(fp)
    1c58:	10c00015 	stw	r3,0(r2)
    1c5c:	00000406 	br	1c70 <xQueueGenericCreate+0x98>
    1c60:	e0bff917 	ldw	r2,-28(fp)
    1c64:	10c01304 	addi	r3,r2,76
    1c68:	e0bffc17 	ldw	r2,-16(fp)
    1c6c:	10c00015 	stw	r3,0(r2)
    1c70:	e0fffc17 	ldw	r3,-16(fp)
    1c74:	e0bffd17 	ldw	r2,-12(fp)
    1c78:	18800f15 	stw	r2,60(r3)
    1c7c:	e0fffc17 	ldw	r3,-16(fp)
    1c80:	e0bffe17 	ldw	r2,-8(fp)
    1c84:	18801015 	stw	r2,64(r3)
    1c88:	e13ffc17 	ldw	r4,-16(fp)
    1c8c:	01400044 	movi	r5,1
    1c90:	0001ac40 	call	1ac4 <xQueueGenericReset>
    1c94:	e0bffc17 	ldw	r2,-16(fp)
    1c98:	e0bffa15 	stw	r2,-24(fp)
    1c9c:	e0bffa17 	ldw	r2,-24(fp)
    1ca0:	e037883a 	mov	sp,fp
    1ca4:	dfc00117 	ldw	ra,4(sp)
    1ca8:	df000017 	ldw	fp,0(sp)
    1cac:	dec00204 	addi	sp,sp,8
    1cb0:	f800283a 	ret

00001cb4 <xQueueCreateMutex>:
    1cb4:	defffc04 	addi	sp,sp,-16
    1cb8:	dfc00315 	stw	ra,12(sp)
    1cbc:	df000215 	stw	fp,8(sp)
    1cc0:	df000204 	addi	fp,sp,8
    1cc4:	e13fff05 	stb	r4,-4(fp)
    1cc8:	01001304 	movi	r4,76
    1ccc:	0000fbc0 	call	fbc <pvPortMalloc>
    1cd0:	e0bffe15 	stw	r2,-8(fp)
    1cd4:	e0bffe17 	ldw	r2,-8(fp)
    1cd8:	1005003a 	cmpeq	r2,r2,zero
    1cdc:	1000201e 	bne	r2,zero,1d60 <xQueueCreateMutex+0xac>
    1ce0:	e0bffe17 	ldw	r2,-8(fp)
    1ce4:	10000115 	stw	zero,4(r2)
    1ce8:	e0bffe17 	ldw	r2,-8(fp)
    1cec:	10000015 	stw	zero,0(r2)
    1cf0:	e0bffe17 	ldw	r2,-8(fp)
    1cf4:	10000215 	stw	zero,8(r2)
    1cf8:	e0bffe17 	ldw	r2,-8(fp)
    1cfc:	10000315 	stw	zero,12(r2)
    1d00:	e0bffe17 	ldw	r2,-8(fp)
    1d04:	10000e15 	stw	zero,56(r2)
    1d08:	e0fffe17 	ldw	r3,-8(fp)
    1d0c:	00800044 	movi	r2,1
    1d10:	18800f15 	stw	r2,60(r3)
    1d14:	e0bffe17 	ldw	r2,-8(fp)
    1d18:	10001015 	stw	zero,64(r2)
    1d1c:	e0fffe17 	ldw	r3,-8(fp)
    1d20:	00bfffc4 	movi	r2,-1
    1d24:	18801115 	stw	r2,68(r3)
    1d28:	e0fffe17 	ldw	r3,-8(fp)
    1d2c:	00bfffc4 	movi	r2,-1
    1d30:	18801215 	stw	r2,72(r3)
    1d34:	e0bffe17 	ldw	r2,-8(fp)
    1d38:	11000404 	addi	r4,r2,16
    1d3c:	00014040 	call	1404 <vListInitialise>
    1d40:	e0bffe17 	ldw	r2,-8(fp)
    1d44:	11000904 	addi	r4,r2,36
    1d48:	00014040 	call	1404 <vListInitialise>
    1d4c:	e13ffe17 	ldw	r4,-8(fp)
    1d50:	000b883a 	mov	r5,zero
    1d54:	000d883a 	mov	r6,zero
    1d58:	000f883a 	mov	r7,zero
    1d5c:	0001f100 	call	1f10 <xQueueGenericSend>
    1d60:	e0bffe17 	ldw	r2,-8(fp)
    1d64:	e037883a 	mov	sp,fp
    1d68:	dfc00117 	ldw	ra,4(sp)
    1d6c:	df000017 	ldw	fp,0(sp)
    1d70:	dec00204 	addi	sp,sp,8
    1d74:	f800283a 	ret

00001d78 <xQueueGiveMutexRecursive>:
    1d78:	defffa04 	addi	sp,sp,-24
    1d7c:	dfc00515 	stw	ra,20(sp)
    1d80:	df000415 	stw	fp,16(sp)
    1d84:	dc000315 	stw	r16,12(sp)
    1d88:	df000304 	addi	fp,sp,12
    1d8c:	e13fff15 	stw	r4,-4(fp)
    1d90:	e0bfff17 	ldw	r2,-4(fp)
    1d94:	e0bffd15 	stw	r2,-12(fp)
    1d98:	e0bffd17 	ldw	r2,-12(fp)
    1d9c:	14000117 	ldw	r16,4(r2)
    1da0:	0003e6c0 	call	3e6c <xTaskGetCurrentTaskHandle>
    1da4:	8080111e 	bne	r16,r2,1dec <xQueueGiveMutexRecursive+0x74>
    1da8:	e0bffd17 	ldw	r2,-12(fp)
    1dac:	10800317 	ldw	r2,12(r2)
    1db0:	10ffffc4 	addi	r3,r2,-1
    1db4:	e0bffd17 	ldw	r2,-12(fp)
    1db8:	10c00315 	stw	r3,12(r2)
    1dbc:	e0bffd17 	ldw	r2,-12(fp)
    1dc0:	10800317 	ldw	r2,12(r2)
    1dc4:	1004c03a 	cmpne	r2,r2,zero
    1dc8:	1000051e 	bne	r2,zero,1de0 <xQueueGiveMutexRecursive+0x68>
    1dcc:	e13ffd17 	ldw	r4,-12(fp)
    1dd0:	000b883a 	mov	r5,zero
    1dd4:	000d883a 	mov	r6,zero
    1dd8:	000f883a 	mov	r7,zero
    1ddc:	0001f100 	call	1f10 <xQueueGenericSend>
    1de0:	00800044 	movi	r2,1
    1de4:	e0bffe15 	stw	r2,-8(fp)
    1de8:	00000106 	br	1df0 <xQueueGiveMutexRecursive+0x78>
    1dec:	e03ffe15 	stw	zero,-8(fp)
    1df0:	e0bffe17 	ldw	r2,-8(fp)
    1df4:	e037883a 	mov	sp,fp
    1df8:	dfc00217 	ldw	ra,8(sp)
    1dfc:	df000117 	ldw	fp,4(sp)
    1e00:	dc000017 	ldw	r16,0(sp)
    1e04:	dec00304 	addi	sp,sp,12
    1e08:	f800283a 	ret

00001e0c <xQueueTakeMutexRecursive>:
    1e0c:	defff904 	addi	sp,sp,-28
    1e10:	dfc00615 	stw	ra,24(sp)
    1e14:	df000515 	stw	fp,20(sp)
    1e18:	dc000415 	stw	r16,16(sp)
    1e1c:	df000404 	addi	fp,sp,16
    1e20:	e13ffe15 	stw	r4,-8(fp)
    1e24:	e17fff15 	stw	r5,-4(fp)
    1e28:	e0bffe17 	ldw	r2,-8(fp)
    1e2c:	e0bffc15 	stw	r2,-16(fp)
    1e30:	e0bffc17 	ldw	r2,-16(fp)
    1e34:	14000117 	ldw	r16,4(r2)
    1e38:	0003e6c0 	call	3e6c <xTaskGetCurrentTaskHandle>
    1e3c:	8080081e 	bne	r16,r2,1e60 <xQueueTakeMutexRecursive+0x54>
    1e40:	e0bffc17 	ldw	r2,-16(fp)
    1e44:	10800317 	ldw	r2,12(r2)
    1e48:	10c00044 	addi	r3,r2,1
    1e4c:	e0bffc17 	ldw	r2,-16(fp)
    1e50:	10c00315 	stw	r3,12(r2)
    1e54:	00800044 	movi	r2,1
    1e58:	e0bffd15 	stw	r2,-12(fp)
    1e5c:	00000e06 	br	1e98 <xQueueTakeMutexRecursive+0x8c>
    1e60:	e13ffc17 	ldw	r4,-16(fp)
    1e64:	000b883a 	mov	r5,zero
    1e68:	e1bfff17 	ldw	r6,-4(fp)
    1e6c:	000f883a 	mov	r7,zero
    1e70:	00022800 	call	2280 <xQueueGenericReceive>
    1e74:	e0bffd15 	stw	r2,-12(fp)
    1e78:	e0bffd17 	ldw	r2,-12(fp)
    1e7c:	10800058 	cmpnei	r2,r2,1
    1e80:	1000051e 	bne	r2,zero,1e98 <xQueueTakeMutexRecursive+0x8c>
    1e84:	e0bffc17 	ldw	r2,-16(fp)
    1e88:	10800317 	ldw	r2,12(r2)
    1e8c:	10c00044 	addi	r3,r2,1
    1e90:	e0bffc17 	ldw	r2,-16(fp)
    1e94:	10c00315 	stw	r3,12(r2)
    1e98:	e0bffd17 	ldw	r2,-12(fp)
    1e9c:	e037883a 	mov	sp,fp
    1ea0:	dfc00217 	ldw	ra,8(sp)
    1ea4:	df000117 	ldw	fp,4(sp)
    1ea8:	dc000017 	ldw	r16,0(sp)
    1eac:	dec00304 	addi	sp,sp,12
    1eb0:	f800283a 	ret

00001eb4 <xQueueCreateCountingSemaphore>:
    1eb4:	defffb04 	addi	sp,sp,-20
    1eb8:	dfc00415 	stw	ra,16(sp)
    1ebc:	df000315 	stw	fp,12(sp)
    1ec0:	df000304 	addi	fp,sp,12
    1ec4:	e13ffe15 	stw	r4,-8(fp)
    1ec8:	e17fff15 	stw	r5,-4(fp)
    1ecc:	e13ffe17 	ldw	r4,-8(fp)
    1ed0:	000b883a 	mov	r5,zero
    1ed4:	01800084 	movi	r6,2
    1ed8:	0001bd80 	call	1bd8 <xQueueGenericCreate>
    1edc:	e0bffd15 	stw	r2,-12(fp)
    1ee0:	e0bffd17 	ldw	r2,-12(fp)
    1ee4:	1005003a 	cmpeq	r2,r2,zero
    1ee8:	1000031e 	bne	r2,zero,1ef8 <xQueueCreateCountingSemaphore+0x44>
    1eec:	e0fffd17 	ldw	r3,-12(fp)
    1ef0:	e0bfff17 	ldw	r2,-4(fp)
    1ef4:	18800e15 	stw	r2,56(r3)
    1ef8:	e0bffd17 	ldw	r2,-12(fp)
    1efc:	e037883a 	mov	sp,fp
    1f00:	dfc00117 	ldw	ra,4(sp)
    1f04:	df000017 	ldw	fp,0(sp)
    1f08:	dec00204 	addi	sp,sp,8
    1f0c:	f800283a 	ret

00001f10 <xQueueGenericSend>:
    1f10:	defff404 	addi	sp,sp,-48
    1f14:	dfc00b15 	stw	ra,44(sp)
    1f18:	df000a15 	stw	fp,40(sp)
    1f1c:	df000a04 	addi	fp,sp,40
    1f20:	e13ffb15 	stw	r4,-20(fp)
    1f24:	e17ffc15 	stw	r5,-16(fp)
    1f28:	e1bffd15 	stw	r6,-12(fp)
    1f2c:	e1fffe15 	stw	r7,-8(fp)
    1f30:	e03ff815 	stw	zero,-32(fp)
    1f34:	e0bffb17 	ldw	r2,-20(fp)
    1f38:	e0bff615 	stw	r2,-40(fp)
    1f3c:	00000006 	br	1f40 <xQueueGenericSend+0x30>
    1f40:	00041140 	call	4114 <vTaskEnterCritical>
    1f44:	e0bff617 	ldw	r2,-40(fp)
    1f48:	10c00e17 	ldw	r3,56(r2)
    1f4c:	e0bff617 	ldw	r2,-40(fp)
    1f50:	10800f17 	ldw	r2,60(r2)
    1f54:	18800336 	bltu	r3,r2,1f64 <xQueueGenericSend+0x54>
    1f58:	e0bffe17 	ldw	r2,-8(fp)
    1f5c:	10800098 	cmpnei	r2,r2,2
    1f60:	1000181e 	bne	r2,zero,1fc4 <xQueueGenericSend+0xb4>
    1f64:	e13ff617 	ldw	r4,-40(fp)
    1f68:	e17ffc17 	ldw	r5,-16(fp)
    1f6c:	e1bffe17 	ldw	r6,-8(fp)
    1f70:	000270c0 	call	270c <prvCopyDataToQueue>
    1f74:	e0bff715 	stw	r2,-36(fp)
    1f78:	e0bff617 	ldw	r2,-40(fp)
    1f7c:	10800917 	ldw	r2,36(r2)
    1f80:	1005003a 	cmpeq	r2,r2,zero
    1f84:	1000071e 	bne	r2,zero,1fa4 <xQueueGenericSend+0x94>
    1f88:	e0bff617 	ldw	r2,-40(fp)
    1f8c:	11000904 	addi	r4,r2,36
    1f90:	000361c0 	call	361c <xTaskRemoveFromEventList>
    1f94:	10800058 	cmpnei	r2,r2,1
    1f98:	1000061e 	bne	r2,zero,1fb4 <xQueueGenericSend+0xa4>
    1f9c:	003b683a 	trap	0
    1fa0:	00000406 	br	1fb4 <xQueueGenericSend+0xa4>
    1fa4:	e0bff717 	ldw	r2,-36(fp)
    1fa8:	1005003a 	cmpeq	r2,r2,zero
    1fac:	1000011e 	bne	r2,zero,1fb4 <xQueueGenericSend+0xa4>
    1fb0:	003b683a 	trap	0
    1fb4:	00041680 	call	4168 <vTaskExitCritical>
    1fb8:	00800044 	movi	r2,1
    1fbc:	e0bfff15 	stw	r2,-4(fp)
    1fc0:	00003906 	br	20a8 <xQueueGenericSend+0x198>
    1fc4:	e0bffd17 	ldw	r2,-12(fp)
    1fc8:	1004c03a 	cmpne	r2,r2,zero
    1fcc:	1000031e 	bne	r2,zero,1fdc <xQueueGenericSend+0xcc>
    1fd0:	00041680 	call	4168 <vTaskExitCritical>
    1fd4:	e03fff15 	stw	zero,-4(fp)
    1fd8:	00003306 	br	20a8 <xQueueGenericSend+0x198>
    1fdc:	e0bff817 	ldw	r2,-32(fp)
    1fe0:	1004c03a 	cmpne	r2,r2,zero
    1fe4:	1000041e 	bne	r2,zero,1ff8 <xQueueGenericSend+0xe8>
    1fe8:	e13ff904 	addi	r4,fp,-28
    1fec:	00037d40 	call	37d4 <vTaskSetTimeOutState>
    1ff0:	00800044 	movi	r2,1
    1ff4:	e0bff815 	stw	r2,-32(fp)
    1ff8:	00041680 	call	4168 <vTaskExitCritical>
    1ffc:	0002ff00 	call	2ff0 <vTaskSuspendAll>
    2000:	00041140 	call	4114 <vTaskEnterCritical>
    2004:	e0bff617 	ldw	r2,-40(fp)
    2008:	10801117 	ldw	r2,68(r2)
    200c:	10bfffd8 	cmpnei	r2,r2,-1
    2010:	1000021e 	bne	r2,zero,201c <xQueueGenericSend+0x10c>
    2014:	e0bff617 	ldw	r2,-40(fp)
    2018:	10001115 	stw	zero,68(r2)
    201c:	e0bff617 	ldw	r2,-40(fp)
    2020:	10801217 	ldw	r2,72(r2)
    2024:	10bfffd8 	cmpnei	r2,r2,-1
    2028:	1000021e 	bne	r2,zero,2034 <xQueueGenericSend+0x124>
    202c:	e0bff617 	ldw	r2,-40(fp)
    2030:	10001215 	stw	zero,72(r2)
    2034:	00041680 	call	4168 <vTaskExitCritical>
    2038:	e13ff904 	addi	r4,fp,-28
    203c:	e17ffd04 	addi	r5,fp,-12
    2040:	000380c0 	call	380c <xTaskCheckForTimeOut>
    2044:	1004c03a 	cmpne	r2,r2,zero
    2048:	1000131e 	bne	r2,zero,2098 <xQueueGenericSend+0x188>
    204c:	e13ff617 	ldw	r4,-40(fp)
    2050:	0002ac40 	call	2ac4 <prvIsQueueFull>
    2054:	1005003a 	cmpeq	r2,r2,zero
    2058:	10000b1e 	bne	r2,zero,2088 <xQueueGenericSend+0x178>
    205c:	e0bff617 	ldw	r2,-40(fp)
    2060:	11000404 	addi	r4,r2,16
    2064:	e17ffd17 	ldw	r5,-12(fp)
    2068:	00034e80 	call	34e8 <vTaskPlaceOnEventList>
    206c:	e13ff617 	ldw	r4,-40(fp)
    2070:	000293c0 	call	293c <prvUnlockQueue>
    2074:	00030180 	call	3018 <xTaskResumeAll>
    2078:	1004c03a 	cmpne	r2,r2,zero
    207c:	103fb01e 	bne	r2,zero,1f40 <xQueueGenericSend+0x30>
    2080:	003b683a 	trap	0
    2084:	003fae06 	br	1f40 <xQueueGenericSend+0x30>
    2088:	e13ff617 	ldw	r4,-40(fp)
    208c:	000293c0 	call	293c <prvUnlockQueue>
    2090:	00030180 	call	3018 <xTaskResumeAll>
    2094:	003faa06 	br	1f40 <xQueueGenericSend+0x30>
    2098:	e13ff617 	ldw	r4,-40(fp)
    209c:	000293c0 	call	293c <prvUnlockQueue>
    20a0:	00030180 	call	3018 <xTaskResumeAll>
    20a4:	e03fff15 	stw	zero,-4(fp)
    20a8:	e0bfff17 	ldw	r2,-4(fp)
    20ac:	e037883a 	mov	sp,fp
    20b0:	dfc00117 	ldw	ra,4(sp)
    20b4:	df000017 	ldw	fp,0(sp)
    20b8:	dec00204 	addi	sp,sp,8
    20bc:	f800283a 	ret

000020c0 <xQueueGenericSendFromISR>:
    20c0:	defff704 	addi	sp,sp,-36
    20c4:	dfc00815 	stw	ra,32(sp)
    20c8:	df000715 	stw	fp,28(sp)
    20cc:	df000704 	addi	fp,sp,28
    20d0:	e13ffc15 	stw	r4,-16(fp)
    20d4:	e17ffd15 	stw	r5,-12(fp)
    20d8:	e1bffe15 	stw	r6,-8(fp)
    20dc:	e1ffff15 	stw	r7,-4(fp)
    20e0:	e0bffc17 	ldw	r2,-16(fp)
    20e4:	e0bff915 	stw	r2,-28(fp)
    20e8:	e03ffa15 	stw	zero,-24(fp)
    20ec:	e0bff917 	ldw	r2,-28(fp)
    20f0:	10c00e17 	ldw	r3,56(r2)
    20f4:	e0bff917 	ldw	r2,-28(fp)
    20f8:	10800f17 	ldw	r2,60(r2)
    20fc:	18800336 	bltu	r3,r2,210c <xQueueGenericSendFromISR+0x4c>
    2100:	e0bfff17 	ldw	r2,-4(fp)
    2104:	10800098 	cmpnei	r2,r2,2
    2108:	1000201e 	bne	r2,zero,218c <xQueueGenericSendFromISR+0xcc>
    210c:	e13ff917 	ldw	r4,-28(fp)
    2110:	e17ffd17 	ldw	r5,-12(fp)
    2114:	e1bfff17 	ldw	r6,-4(fp)
    2118:	000270c0 	call	270c <prvCopyDataToQueue>
    211c:	e0bff917 	ldw	r2,-28(fp)
    2120:	10801217 	ldw	r2,72(r2)
    2124:	10bfffd8 	cmpnei	r2,r2,-1
    2128:	1000101e 	bne	r2,zero,216c <xQueueGenericSendFromISR+0xac>
    212c:	e0bff917 	ldw	r2,-28(fp)
    2130:	10800917 	ldw	r2,36(r2)
    2134:	1005003a 	cmpeq	r2,r2,zero
    2138:	1000111e 	bne	r2,zero,2180 <xQueueGenericSendFromISR+0xc0>
    213c:	e0bff917 	ldw	r2,-28(fp)
    2140:	11000904 	addi	r4,r2,36
    2144:	000361c0 	call	361c <xTaskRemoveFromEventList>
    2148:	1005003a 	cmpeq	r2,r2,zero
    214c:	10000c1e 	bne	r2,zero,2180 <xQueueGenericSendFromISR+0xc0>
    2150:	e0bffe17 	ldw	r2,-8(fp)
    2154:	1005003a 	cmpeq	r2,r2,zero
    2158:	1000091e 	bne	r2,zero,2180 <xQueueGenericSendFromISR+0xc0>
    215c:	e0fffe17 	ldw	r3,-8(fp)
    2160:	00800044 	movi	r2,1
    2164:	18800015 	stw	r2,0(r3)
    2168:	00000506 	br	2180 <xQueueGenericSendFromISR+0xc0>
    216c:	e0bff917 	ldw	r2,-28(fp)
    2170:	10801217 	ldw	r2,72(r2)
    2174:	10c00044 	addi	r3,r2,1
    2178:	e0bff917 	ldw	r2,-28(fp)
    217c:	10c01215 	stw	r3,72(r2)
    2180:	00800044 	movi	r2,1
    2184:	e0bffb15 	stw	r2,-20(fp)
    2188:	00000106 	br	2190 <xQueueGenericSendFromISR+0xd0>
    218c:	e03ffb15 	stw	zero,-20(fp)
    2190:	e0bffb17 	ldw	r2,-20(fp)
    2194:	e037883a 	mov	sp,fp
    2198:	dfc00117 	ldw	ra,4(sp)
    219c:	df000017 	ldw	fp,0(sp)
    21a0:	dec00204 	addi	sp,sp,8
    21a4:	f800283a 	ret

000021a8 <xQueueGiveFromISR>:
    21a8:	defff904 	addi	sp,sp,-28
    21ac:	dfc00615 	stw	ra,24(sp)
    21b0:	df000515 	stw	fp,20(sp)
    21b4:	df000504 	addi	fp,sp,20
    21b8:	e13ffe15 	stw	r4,-8(fp)
    21bc:	e17fff15 	stw	r5,-4(fp)
    21c0:	e0bffe17 	ldw	r2,-8(fp)
    21c4:	e0bffb15 	stw	r2,-20(fp)
    21c8:	e03ffc15 	stw	zero,-16(fp)
    21cc:	e0bffb17 	ldw	r2,-20(fp)
    21d0:	10c00e17 	ldw	r3,56(r2)
    21d4:	e0bffb17 	ldw	r2,-20(fp)
    21d8:	10800f17 	ldw	r2,60(r2)
    21dc:	1880212e 	bgeu	r3,r2,2264 <xQueueGiveFromISR+0xbc>
    21e0:	e0bffb17 	ldw	r2,-20(fp)
    21e4:	10800e17 	ldw	r2,56(r2)
    21e8:	10c00044 	addi	r3,r2,1
    21ec:	e0bffb17 	ldw	r2,-20(fp)
    21f0:	10c00e15 	stw	r3,56(r2)
    21f4:	e0bffb17 	ldw	r2,-20(fp)
    21f8:	10801217 	ldw	r2,72(r2)
    21fc:	10bfffd8 	cmpnei	r2,r2,-1
    2200:	1000101e 	bne	r2,zero,2244 <xQueueGiveFromISR+0x9c>
    2204:	e0bffb17 	ldw	r2,-20(fp)
    2208:	10800917 	ldw	r2,36(r2)
    220c:	1005003a 	cmpeq	r2,r2,zero
    2210:	1000111e 	bne	r2,zero,2258 <xQueueGiveFromISR+0xb0>
    2214:	e0bffb17 	ldw	r2,-20(fp)
    2218:	11000904 	addi	r4,r2,36
    221c:	000361c0 	call	361c <xTaskRemoveFromEventList>
    2220:	1005003a 	cmpeq	r2,r2,zero
    2224:	10000c1e 	bne	r2,zero,2258 <xQueueGiveFromISR+0xb0>
    2228:	e0bfff17 	ldw	r2,-4(fp)
    222c:	1005003a 	cmpeq	r2,r2,zero
    2230:	1000091e 	bne	r2,zero,2258 <xQueueGiveFromISR+0xb0>
    2234:	e0ffff17 	ldw	r3,-4(fp)
    2238:	00800044 	movi	r2,1
    223c:	18800015 	stw	r2,0(r3)
    2240:	00000506 	br	2258 <xQueueGiveFromISR+0xb0>
    2244:	e0bffb17 	ldw	r2,-20(fp)
    2248:	10801217 	ldw	r2,72(r2)
    224c:	10c00044 	addi	r3,r2,1
    2250:	e0bffb17 	ldw	r2,-20(fp)
    2254:	10c01215 	stw	r3,72(r2)
    2258:	00800044 	movi	r2,1
    225c:	e0bffd15 	stw	r2,-12(fp)
    2260:	00000106 	br	2268 <xQueueGiveFromISR+0xc0>
    2264:	e03ffd15 	stw	zero,-12(fp)
    2268:	e0bffd17 	ldw	r2,-12(fp)
    226c:	e037883a 	mov	sp,fp
    2270:	dfc00117 	ldw	ra,4(sp)
    2274:	df000017 	ldw	fp,0(sp)
    2278:	dec00204 	addi	sp,sp,8
    227c:	f800283a 	ret

00002280 <xQueueGenericReceive>:
    2280:	defff404 	addi	sp,sp,-48
    2284:	dfc00b15 	stw	ra,44(sp)
    2288:	df000a15 	stw	fp,40(sp)
    228c:	df000a04 	addi	fp,sp,40
    2290:	e13ffb15 	stw	r4,-20(fp)
    2294:	e17ffc15 	stw	r5,-16(fp)
    2298:	e1bffd15 	stw	r6,-12(fp)
    229c:	e1fffe15 	stw	r7,-8(fp)
    22a0:	e03ff815 	stw	zero,-32(fp)
    22a4:	e0bffb17 	ldw	r2,-20(fp)
    22a8:	e0bff615 	stw	r2,-40(fp)
    22ac:	00000006 	br	22b0 <xQueueGenericReceive+0x30>
    22b0:	00041140 	call	4114 <vTaskEnterCritical>
    22b4:	e0bff617 	ldw	r2,-40(fp)
    22b8:	10800e17 	ldw	r2,56(r2)
    22bc:	1005003a 	cmpeq	r2,r2,zero
    22c0:	1000321e 	bne	r2,zero,238c <xQueueGenericReceive+0x10c>
    22c4:	e0bff617 	ldw	r2,-40(fp)
    22c8:	10800317 	ldw	r2,12(r2)
    22cc:	e0bff715 	stw	r2,-36(fp)
    22d0:	e13ff617 	ldw	r4,-40(fp)
    22d4:	e17ffc17 	ldw	r5,-16(fp)
    22d8:	00028a00 	call	28a0 <prvCopyDataFromQueue>
    22dc:	e0bffe17 	ldw	r2,-8(fp)
    22e0:	1004c03a 	cmpne	r2,r2,zero
    22e4:	1000181e 	bne	r2,zero,2348 <xQueueGenericReceive+0xc8>
    22e8:	e0bff617 	ldw	r2,-40(fp)
    22ec:	10800e17 	ldw	r2,56(r2)
    22f0:	10ffffc4 	addi	r3,r2,-1
    22f4:	e0bff617 	ldw	r2,-40(fp)
    22f8:	10c00e15 	stw	r3,56(r2)
    22fc:	e0bff617 	ldw	r2,-40(fp)
    2300:	10800017 	ldw	r2,0(r2)
    2304:	1004c03a 	cmpne	r2,r2,zero
    2308:	1000041e 	bne	r2,zero,231c <xQueueGenericReceive+0x9c>
    230c:	00042140 	call	4214 <pvTaskIncrementMutexHeldCount>
    2310:	1007883a 	mov	r3,r2
    2314:	e0bff617 	ldw	r2,-40(fp)
    2318:	10c00115 	stw	r3,4(r2)
    231c:	e0bff617 	ldw	r2,-40(fp)
    2320:	10800417 	ldw	r2,16(r2)
    2324:	1005003a 	cmpeq	r2,r2,zero
    2328:	1000141e 	bne	r2,zero,237c <xQueueGenericReceive+0xfc>
    232c:	e0bff617 	ldw	r2,-40(fp)
    2330:	11000404 	addi	r4,r2,16
    2334:	000361c0 	call	361c <xTaskRemoveFromEventList>
    2338:	10800058 	cmpnei	r2,r2,1
    233c:	10000f1e 	bne	r2,zero,237c <xQueueGenericReceive+0xfc>
    2340:	003b683a 	trap	0
    2344:	00000d06 	br	237c <xQueueGenericReceive+0xfc>
    2348:	e0fff617 	ldw	r3,-40(fp)
    234c:	e0bff717 	ldw	r2,-36(fp)
    2350:	18800315 	stw	r2,12(r3)
    2354:	e0bff617 	ldw	r2,-40(fp)
    2358:	10800917 	ldw	r2,36(r2)
    235c:	1005003a 	cmpeq	r2,r2,zero
    2360:	1000061e 	bne	r2,zero,237c <xQueueGenericReceive+0xfc>
    2364:	e0bff617 	ldw	r2,-40(fp)
    2368:	11000904 	addi	r4,r2,36
    236c:	000361c0 	call	361c <xTaskRemoveFromEventList>
    2370:	1005003a 	cmpeq	r2,r2,zero
    2374:	1000011e 	bne	r2,zero,237c <xQueueGenericReceive+0xfc>
    2378:	003b683a 	trap	0
    237c:	00041680 	call	4168 <vTaskExitCritical>
    2380:	00800044 	movi	r2,1
    2384:	e0bfff15 	stw	r2,-4(fp)
    2388:	00004206 	br	2494 <xQueueGenericReceive+0x214>
    238c:	e0bffd17 	ldw	r2,-12(fp)
    2390:	1004c03a 	cmpne	r2,r2,zero
    2394:	1000031e 	bne	r2,zero,23a4 <xQueueGenericReceive+0x124>
    2398:	00041680 	call	4168 <vTaskExitCritical>
    239c:	e03fff15 	stw	zero,-4(fp)
    23a0:	00003c06 	br	2494 <xQueueGenericReceive+0x214>
    23a4:	e0bff817 	ldw	r2,-32(fp)
    23a8:	1004c03a 	cmpne	r2,r2,zero
    23ac:	1000041e 	bne	r2,zero,23c0 <xQueueGenericReceive+0x140>
    23b0:	e13ff904 	addi	r4,fp,-28
    23b4:	00037d40 	call	37d4 <vTaskSetTimeOutState>
    23b8:	00800044 	movi	r2,1
    23bc:	e0bff815 	stw	r2,-32(fp)
    23c0:	00041680 	call	4168 <vTaskExitCritical>
    23c4:	0002ff00 	call	2ff0 <vTaskSuspendAll>
    23c8:	00041140 	call	4114 <vTaskEnterCritical>
    23cc:	e0bff617 	ldw	r2,-40(fp)
    23d0:	10801117 	ldw	r2,68(r2)
    23d4:	10bfffd8 	cmpnei	r2,r2,-1
    23d8:	1000021e 	bne	r2,zero,23e4 <xQueueGenericReceive+0x164>
    23dc:	e0bff617 	ldw	r2,-40(fp)
    23e0:	10001115 	stw	zero,68(r2)
    23e4:	e0bff617 	ldw	r2,-40(fp)
    23e8:	10801217 	ldw	r2,72(r2)
    23ec:	10bfffd8 	cmpnei	r2,r2,-1
    23f0:	1000021e 	bne	r2,zero,23fc <xQueueGenericReceive+0x17c>
    23f4:	e0bff617 	ldw	r2,-40(fp)
    23f8:	10001215 	stw	zero,72(r2)
    23fc:	00041680 	call	4168 <vTaskExitCritical>
    2400:	e13ff904 	addi	r4,fp,-28
    2404:	e17ffd04 	addi	r5,fp,-12
    2408:	000380c0 	call	380c <xTaskCheckForTimeOut>
    240c:	1004c03a 	cmpne	r2,r2,zero
    2410:	10001c1e 	bne	r2,zero,2484 <xQueueGenericReceive+0x204>
    2414:	e13ff617 	ldw	r4,-40(fp)
    2418:	0002a2c0 	call	2a2c <prvIsQueueEmpty>
    241c:	1005003a 	cmpeq	r2,r2,zero
    2420:	1000141e 	bne	r2,zero,2474 <xQueueGenericReceive+0x1f4>
    2424:	e0bff617 	ldw	r2,-40(fp)
    2428:	10800017 	ldw	r2,0(r2)
    242c:	1004c03a 	cmpne	r2,r2,zero
    2430:	1000051e 	bne	r2,zero,2448 <xQueueGenericReceive+0x1c8>
    2434:	00041140 	call	4114 <vTaskEnterCritical>
    2438:	e0bff617 	ldw	r2,-40(fp)
    243c:	11000117 	ldw	r4,4(r2)
    2440:	0003ee80 	call	3ee8 <vTaskPriorityInherit>
    2444:	00041680 	call	4168 <vTaskExitCritical>
    2448:	e0bff617 	ldw	r2,-40(fp)
    244c:	11000904 	addi	r4,r2,36
    2450:	e17ffd17 	ldw	r5,-12(fp)
    2454:	00034e80 	call	34e8 <vTaskPlaceOnEventList>
    2458:	e13ff617 	ldw	r4,-40(fp)
    245c:	000293c0 	call	293c <prvUnlockQueue>
    2460:	00030180 	call	3018 <xTaskResumeAll>
    2464:	1004c03a 	cmpne	r2,r2,zero
    2468:	103f911e 	bne	r2,zero,22b0 <xQueueGenericReceive+0x30>
    246c:	003b683a 	trap	0
    2470:	003f8f06 	br	22b0 <xQueueGenericReceive+0x30>
    2474:	e13ff617 	ldw	r4,-40(fp)
    2478:	000293c0 	call	293c <prvUnlockQueue>
    247c:	00030180 	call	3018 <xTaskResumeAll>
    2480:	003f8b06 	br	22b0 <xQueueGenericReceive+0x30>
    2484:	e13ff617 	ldw	r4,-40(fp)
    2488:	000293c0 	call	293c <prvUnlockQueue>
    248c:	00030180 	call	3018 <xTaskResumeAll>
    2490:	e03fff15 	stw	zero,-4(fp)
    2494:	e0bfff17 	ldw	r2,-4(fp)
    2498:	e037883a 	mov	sp,fp
    249c:	dfc00117 	ldw	ra,4(sp)
    24a0:	df000017 	ldw	fp,0(sp)
    24a4:	dec00204 	addi	sp,sp,8
    24a8:	f800283a 	ret

000024ac <xQueueReceiveFromISR>:
    24ac:	defff804 	addi	sp,sp,-32
    24b0:	dfc00715 	stw	ra,28(sp)
    24b4:	df000615 	stw	fp,24(sp)
    24b8:	df000604 	addi	fp,sp,24
    24bc:	e13ffd15 	stw	r4,-12(fp)
    24c0:	e17ffe15 	stw	r5,-8(fp)
    24c4:	e1bfff15 	stw	r6,-4(fp)
    24c8:	e0bffd17 	ldw	r2,-12(fp)
    24cc:	e0bffa15 	stw	r2,-24(fp)
    24d0:	e03ffb15 	stw	zero,-20(fp)
    24d4:	e0bffa17 	ldw	r2,-24(fp)
    24d8:	10800e17 	ldw	r2,56(r2)
    24dc:	1005003a 	cmpeq	r2,r2,zero
    24e0:	1000241e 	bne	r2,zero,2574 <xQueueReceiveFromISR+0xc8>
    24e4:	e13ffa17 	ldw	r4,-24(fp)
    24e8:	e17ffe17 	ldw	r5,-8(fp)
    24ec:	00028a00 	call	28a0 <prvCopyDataFromQueue>
    24f0:	e0bffa17 	ldw	r2,-24(fp)
    24f4:	10800e17 	ldw	r2,56(r2)
    24f8:	10ffffc4 	addi	r3,r2,-1
    24fc:	e0bffa17 	ldw	r2,-24(fp)
    2500:	10c00e15 	stw	r3,56(r2)
    2504:	e0bffa17 	ldw	r2,-24(fp)
    2508:	10801117 	ldw	r2,68(r2)
    250c:	10bfffd8 	cmpnei	r2,r2,-1
    2510:	1000101e 	bne	r2,zero,2554 <xQueueReceiveFromISR+0xa8>
    2514:	e0bffa17 	ldw	r2,-24(fp)
    2518:	10800417 	ldw	r2,16(r2)
    251c:	1005003a 	cmpeq	r2,r2,zero
    2520:	1000111e 	bne	r2,zero,2568 <xQueueReceiveFromISR+0xbc>
    2524:	e0bffa17 	ldw	r2,-24(fp)
    2528:	11000404 	addi	r4,r2,16
    252c:	000361c0 	call	361c <xTaskRemoveFromEventList>
    2530:	1005003a 	cmpeq	r2,r2,zero
    2534:	10000c1e 	bne	r2,zero,2568 <xQueueReceiveFromISR+0xbc>
    2538:	e0bfff17 	ldw	r2,-4(fp)
    253c:	1005003a 	cmpeq	r2,r2,zero
    2540:	1000091e 	bne	r2,zero,2568 <xQueueReceiveFromISR+0xbc>
    2544:	e0ffff17 	ldw	r3,-4(fp)
    2548:	00800044 	movi	r2,1
    254c:	18800015 	stw	r2,0(r3)
    2550:	00000506 	br	2568 <xQueueReceiveFromISR+0xbc>
    2554:	e0bffa17 	ldw	r2,-24(fp)
    2558:	10801117 	ldw	r2,68(r2)
    255c:	10c00044 	addi	r3,r2,1
    2560:	e0bffa17 	ldw	r2,-24(fp)
    2564:	10c01115 	stw	r3,68(r2)
    2568:	00800044 	movi	r2,1
    256c:	e0bffc15 	stw	r2,-16(fp)
    2570:	00000106 	br	2578 <xQueueReceiveFromISR+0xcc>
    2574:	e03ffc15 	stw	zero,-16(fp)
    2578:	e0bffc17 	ldw	r2,-16(fp)
    257c:	e037883a 	mov	sp,fp
    2580:	dfc00117 	ldw	ra,4(sp)
    2584:	df000017 	ldw	fp,0(sp)
    2588:	dec00204 	addi	sp,sp,8
    258c:	f800283a 	ret

00002590 <xQueuePeekFromISR>:
    2590:	defff804 	addi	sp,sp,-32
    2594:	dfc00715 	stw	ra,28(sp)
    2598:	df000615 	stw	fp,24(sp)
    259c:	df000604 	addi	fp,sp,24
    25a0:	e13ffe15 	stw	r4,-8(fp)
    25a4:	e17fff15 	stw	r5,-4(fp)
    25a8:	e0bffe17 	ldw	r2,-8(fp)
    25ac:	e0bffa15 	stw	r2,-24(fp)
    25b0:	e03ffc15 	stw	zero,-16(fp)
    25b4:	e0bffa17 	ldw	r2,-24(fp)
    25b8:	10800e17 	ldw	r2,56(r2)
    25bc:	1005003a 	cmpeq	r2,r2,zero
    25c0:	10000c1e 	bne	r2,zero,25f4 <xQueuePeekFromISR+0x64>
    25c4:	e0bffa17 	ldw	r2,-24(fp)
    25c8:	10800317 	ldw	r2,12(r2)
    25cc:	e0bffb15 	stw	r2,-20(fp)
    25d0:	e13ffa17 	ldw	r4,-24(fp)
    25d4:	e17fff17 	ldw	r5,-4(fp)
    25d8:	00028a00 	call	28a0 <prvCopyDataFromQueue>
    25dc:	e0fffa17 	ldw	r3,-24(fp)
    25e0:	e0bffb17 	ldw	r2,-20(fp)
    25e4:	18800315 	stw	r2,12(r3)
    25e8:	00800044 	movi	r2,1
    25ec:	e0bffd15 	stw	r2,-12(fp)
    25f0:	00000106 	br	25f8 <xQueuePeekFromISR+0x68>
    25f4:	e03ffd15 	stw	zero,-12(fp)
    25f8:	e0bffd17 	ldw	r2,-12(fp)
    25fc:	e037883a 	mov	sp,fp
    2600:	dfc00117 	ldw	ra,4(sp)
    2604:	df000017 	ldw	fp,0(sp)
    2608:	dec00204 	addi	sp,sp,8
    260c:	f800283a 	ret

00002610 <uxQueueMessagesWaiting>:
    2610:	defffc04 	addi	sp,sp,-16
    2614:	dfc00315 	stw	ra,12(sp)
    2618:	df000215 	stw	fp,8(sp)
    261c:	df000204 	addi	fp,sp,8
    2620:	e13fff15 	stw	r4,-4(fp)
    2624:	00041140 	call	4114 <vTaskEnterCritical>
    2628:	e0bfff17 	ldw	r2,-4(fp)
    262c:	10800e17 	ldw	r2,56(r2)
    2630:	e0bffe15 	stw	r2,-8(fp)
    2634:	00041680 	call	4168 <vTaskExitCritical>
    2638:	e0bffe17 	ldw	r2,-8(fp)
    263c:	e037883a 	mov	sp,fp
    2640:	dfc00117 	ldw	ra,4(sp)
    2644:	df000017 	ldw	fp,0(sp)
    2648:	dec00204 	addi	sp,sp,8
    264c:	f800283a 	ret

00002650 <uxQueueSpacesAvailable>:
    2650:	defffb04 	addi	sp,sp,-20
    2654:	dfc00415 	stw	ra,16(sp)
    2658:	df000315 	stw	fp,12(sp)
    265c:	df000304 	addi	fp,sp,12
    2660:	e13fff15 	stw	r4,-4(fp)
    2664:	e0bfff17 	ldw	r2,-4(fp)
    2668:	e0bffd15 	stw	r2,-12(fp)
    266c:	00041140 	call	4114 <vTaskEnterCritical>
    2670:	e0bffd17 	ldw	r2,-12(fp)
    2674:	10c00f17 	ldw	r3,60(r2)
    2678:	e0bffd17 	ldw	r2,-12(fp)
    267c:	10800e17 	ldw	r2,56(r2)
    2680:	1885c83a 	sub	r2,r3,r2
    2684:	e0bffe15 	stw	r2,-8(fp)
    2688:	00041680 	call	4168 <vTaskExitCritical>
    268c:	e0bffe17 	ldw	r2,-8(fp)
    2690:	e037883a 	mov	sp,fp
    2694:	dfc00117 	ldw	ra,4(sp)
    2698:	df000017 	ldw	fp,0(sp)
    269c:	dec00204 	addi	sp,sp,8
    26a0:	f800283a 	ret

000026a4 <uxQueueMessagesWaitingFromISR>:
    26a4:	defffd04 	addi	sp,sp,-12
    26a8:	df000215 	stw	fp,8(sp)
    26ac:	df000204 	addi	fp,sp,8
    26b0:	e13fff15 	stw	r4,-4(fp)
    26b4:	e0bfff17 	ldw	r2,-4(fp)
    26b8:	10800e17 	ldw	r2,56(r2)
    26bc:	e0bffe15 	stw	r2,-8(fp)
    26c0:	e0bffe17 	ldw	r2,-8(fp)
    26c4:	e037883a 	mov	sp,fp
    26c8:	df000017 	ldw	fp,0(sp)
    26cc:	dec00104 	addi	sp,sp,4
    26d0:	f800283a 	ret

000026d4 <vQueueDelete>:
    26d4:	defffc04 	addi	sp,sp,-16
    26d8:	dfc00315 	stw	ra,12(sp)
    26dc:	df000215 	stw	fp,8(sp)
    26e0:	df000204 	addi	fp,sp,8
    26e4:	e13fff15 	stw	r4,-4(fp)
    26e8:	e0bfff17 	ldw	r2,-4(fp)
    26ec:	e0bffe15 	stw	r2,-8(fp)
    26f0:	e13ffe17 	ldw	r4,-8(fp)
    26f4:	00011500 	call	1150 <vPortFree>
    26f8:	e037883a 	mov	sp,fp
    26fc:	dfc00117 	ldw	ra,4(sp)
    2700:	df000017 	ldw	fp,0(sp)
    2704:	dec00204 	addi	sp,sp,8
    2708:	f800283a 	ret

0000270c <prvCopyDataToQueue>:
    270c:	defffa04 	addi	sp,sp,-24
    2710:	dfc00515 	stw	ra,20(sp)
    2714:	df000415 	stw	fp,16(sp)
    2718:	df000404 	addi	fp,sp,16
    271c:	e13ffd15 	stw	r4,-12(fp)
    2720:	e17ffe15 	stw	r5,-8(fp)
    2724:	e1bfff15 	stw	r6,-4(fp)
    2728:	e03ffc15 	stw	zero,-16(fp)
    272c:	e0bffd17 	ldw	r2,-12(fp)
    2730:	10801017 	ldw	r2,64(r2)
    2734:	1004c03a 	cmpne	r2,r2,zero
    2738:	10000b1e 	bne	r2,zero,2768 <prvCopyDataToQueue+0x5c>
    273c:	e0bffd17 	ldw	r2,-12(fp)
    2740:	10800017 	ldw	r2,0(r2)
    2744:	1004c03a 	cmpne	r2,r2,zero
    2748:	10004a1e 	bne	r2,zero,2874 <prvCopyDataToQueue+0x168>
    274c:	e0bffd17 	ldw	r2,-12(fp)
    2750:	11000117 	ldw	r4,4(r2)
    2754:	00040180 	call	4018 <xTaskPriorityDisinherit>
    2758:	e0bffc15 	stw	r2,-16(fp)
    275c:	e0bffd17 	ldw	r2,-12(fp)
    2760:	10000115 	stw	zero,4(r2)
    2764:	00004306 	br	2874 <prvCopyDataToQueue+0x168>
    2768:	e0bfff17 	ldw	r2,-4(fp)
    276c:	1004c03a 	cmpne	r2,r2,zero
    2770:	1000191e 	bne	r2,zero,27d8 <prvCopyDataToQueue+0xcc>
    2774:	e0bffd17 	ldw	r2,-12(fp)
    2778:	10c00217 	ldw	r3,8(r2)
    277c:	e0bffd17 	ldw	r2,-12(fp)
    2780:	11801017 	ldw	r6,64(r2)
    2784:	e0bffe17 	ldw	r2,-8(fp)
    2788:	1809883a 	mov	r4,r3
    278c:	100b883a 	mov	r5,r2
    2790:	00052880 	call	5288 <memcpy>
    2794:	e0bffd17 	ldw	r2,-12(fp)
    2798:	10c00217 	ldw	r3,8(r2)
    279c:	e0bffd17 	ldw	r2,-12(fp)
    27a0:	10801017 	ldw	r2,64(r2)
    27a4:	1887883a 	add	r3,r3,r2
    27a8:	e0bffd17 	ldw	r2,-12(fp)
    27ac:	10c00215 	stw	r3,8(r2)
    27b0:	e0bffd17 	ldw	r2,-12(fp)
    27b4:	10c00217 	ldw	r3,8(r2)
    27b8:	e0bffd17 	ldw	r2,-12(fp)
    27bc:	10800117 	ldw	r2,4(r2)
    27c0:	18802c36 	bltu	r3,r2,2874 <prvCopyDataToQueue+0x168>
    27c4:	e0bffd17 	ldw	r2,-12(fp)
    27c8:	10c00017 	ldw	r3,0(r2)
    27cc:	e0bffd17 	ldw	r2,-12(fp)
    27d0:	10c00215 	stw	r3,8(r2)
    27d4:	00002706 	br	2874 <prvCopyDataToQueue+0x168>
    27d8:	e0bffd17 	ldw	r2,-12(fp)
    27dc:	10c00317 	ldw	r3,12(r2)
    27e0:	e0bffd17 	ldw	r2,-12(fp)
    27e4:	11801017 	ldw	r6,64(r2)
    27e8:	e0bffe17 	ldw	r2,-8(fp)
    27ec:	1809883a 	mov	r4,r3
    27f0:	100b883a 	mov	r5,r2
    27f4:	00052880 	call	5288 <memcpy>
    27f8:	e0bffd17 	ldw	r2,-12(fp)
    27fc:	10c00317 	ldw	r3,12(r2)
    2800:	e0bffd17 	ldw	r2,-12(fp)
    2804:	10801017 	ldw	r2,64(r2)
    2808:	1887c83a 	sub	r3,r3,r2
    280c:	e0bffd17 	ldw	r2,-12(fp)
    2810:	10c00315 	stw	r3,12(r2)
    2814:	e0bffd17 	ldw	r2,-12(fp)
    2818:	10c00317 	ldw	r3,12(r2)
    281c:	e0bffd17 	ldw	r2,-12(fp)
    2820:	10800017 	ldw	r2,0(r2)
    2824:	1880072e 	bgeu	r3,r2,2844 <prvCopyDataToQueue+0x138>
    2828:	e0bffd17 	ldw	r2,-12(fp)
    282c:	10c00117 	ldw	r3,4(r2)
    2830:	e0bffd17 	ldw	r2,-12(fp)
    2834:	10801017 	ldw	r2,64(r2)
    2838:	1887c83a 	sub	r3,r3,r2
    283c:	e0bffd17 	ldw	r2,-12(fp)
    2840:	10c00315 	stw	r3,12(r2)
    2844:	e0bfff17 	ldw	r2,-4(fp)
    2848:	10800098 	cmpnei	r2,r2,2
    284c:	1000091e 	bne	r2,zero,2874 <prvCopyDataToQueue+0x168>
    2850:	e0bffd17 	ldw	r2,-12(fp)
    2854:	10800e17 	ldw	r2,56(r2)
    2858:	1005003a 	cmpeq	r2,r2,zero
    285c:	1000051e 	bne	r2,zero,2874 <prvCopyDataToQueue+0x168>
    2860:	e0bffd17 	ldw	r2,-12(fp)
    2864:	10800e17 	ldw	r2,56(r2)
    2868:	10ffffc4 	addi	r3,r2,-1
    286c:	e0bffd17 	ldw	r2,-12(fp)
    2870:	10c00e15 	stw	r3,56(r2)
    2874:	e0bffd17 	ldw	r2,-12(fp)
    2878:	10800e17 	ldw	r2,56(r2)
    287c:	10c00044 	addi	r3,r2,1
    2880:	e0bffd17 	ldw	r2,-12(fp)
    2884:	10c00e15 	stw	r3,56(r2)
    2888:	e0bffc17 	ldw	r2,-16(fp)
    288c:	e037883a 	mov	sp,fp
    2890:	dfc00117 	ldw	ra,4(sp)
    2894:	df000017 	ldw	fp,0(sp)
    2898:	dec00204 	addi	sp,sp,8
    289c:	f800283a 	ret

000028a0 <prvCopyDataFromQueue>:
    28a0:	defffc04 	addi	sp,sp,-16
    28a4:	dfc00315 	stw	ra,12(sp)
    28a8:	df000215 	stw	fp,8(sp)
    28ac:	df000204 	addi	fp,sp,8
    28b0:	e13ffe15 	stw	r4,-8(fp)
    28b4:	e17fff15 	stw	r5,-4(fp)
    28b8:	e0bffe17 	ldw	r2,-8(fp)
    28bc:	10801017 	ldw	r2,64(r2)
    28c0:	1005003a 	cmpeq	r2,r2,zero
    28c4:	1000181e 	bne	r2,zero,2928 <prvCopyDataFromQueue+0x88>
    28c8:	e0bffe17 	ldw	r2,-8(fp)
    28cc:	10c00317 	ldw	r3,12(r2)
    28d0:	e0bffe17 	ldw	r2,-8(fp)
    28d4:	10801017 	ldw	r2,64(r2)
    28d8:	1887883a 	add	r3,r3,r2
    28dc:	e0bffe17 	ldw	r2,-8(fp)
    28e0:	10c00315 	stw	r3,12(r2)
    28e4:	e0bffe17 	ldw	r2,-8(fp)
    28e8:	10c00317 	ldw	r3,12(r2)
    28ec:	e0bffe17 	ldw	r2,-8(fp)
    28f0:	10800117 	ldw	r2,4(r2)
    28f4:	18800436 	bltu	r3,r2,2908 <prvCopyDataFromQueue+0x68>
    28f8:	e0bffe17 	ldw	r2,-8(fp)
    28fc:	10c00017 	ldw	r3,0(r2)
    2900:	e0bffe17 	ldw	r2,-8(fp)
    2904:	10c00315 	stw	r3,12(r2)
    2908:	e0bffe17 	ldw	r2,-8(fp)
    290c:	10c00317 	ldw	r3,12(r2)
    2910:	e0bffe17 	ldw	r2,-8(fp)
    2914:	11801017 	ldw	r6,64(r2)
    2918:	e0bfff17 	ldw	r2,-4(fp)
    291c:	1009883a 	mov	r4,r2
    2920:	180b883a 	mov	r5,r3
    2924:	00052880 	call	5288 <memcpy>
    2928:	e037883a 	mov	sp,fp
    292c:	dfc00117 	ldw	ra,4(sp)
    2930:	df000017 	ldw	fp,0(sp)
    2934:	dec00204 	addi	sp,sp,8
    2938:	f800283a 	ret

0000293c <prvUnlockQueue>:
    293c:	defffd04 	addi	sp,sp,-12
    2940:	dfc00215 	stw	ra,8(sp)
    2944:	df000115 	stw	fp,4(sp)
    2948:	df000104 	addi	fp,sp,4
    294c:	e13fff15 	stw	r4,-4(fp)
    2950:	00041140 	call	4114 <vTaskEnterCritical>
    2954:	00000f06 	br	2994 <prvUnlockQueue+0x58>
    2958:	e0bfff17 	ldw	r2,-4(fp)
    295c:	10800917 	ldw	r2,36(r2)
    2960:	1005003a 	cmpeq	r2,r2,zero
    2964:	10000f1e 	bne	r2,zero,29a4 <prvUnlockQueue+0x68>
    2968:	e0bfff17 	ldw	r2,-4(fp)
    296c:	11000904 	addi	r4,r2,36
    2970:	000361c0 	call	361c <xTaskRemoveFromEventList>
    2974:	1005003a 	cmpeq	r2,r2,zero
    2978:	1000011e 	bne	r2,zero,2980 <prvUnlockQueue+0x44>
    297c:	00038d00 	call	38d0 <vTaskMissedYield>
    2980:	e0bfff17 	ldw	r2,-4(fp)
    2984:	10801217 	ldw	r2,72(r2)
    2988:	10ffffc4 	addi	r3,r2,-1
    298c:	e0bfff17 	ldw	r2,-4(fp)
    2990:	10c01215 	stw	r3,72(r2)
    2994:	e0bfff17 	ldw	r2,-4(fp)
    2998:	10801217 	ldw	r2,72(r2)
    299c:	10800048 	cmpgei	r2,r2,1
    29a0:	103fed1e 	bne	r2,zero,2958 <prvUnlockQueue+0x1c>
    29a4:	e0ffff17 	ldw	r3,-4(fp)
    29a8:	00bfffc4 	movi	r2,-1
    29ac:	18801215 	stw	r2,72(r3)
    29b0:	00041680 	call	4168 <vTaskExitCritical>
    29b4:	00041140 	call	4114 <vTaskEnterCritical>
    29b8:	00000f06 	br	29f8 <prvUnlockQueue+0xbc>
    29bc:	e0bfff17 	ldw	r2,-4(fp)
    29c0:	10800417 	ldw	r2,16(r2)
    29c4:	1005003a 	cmpeq	r2,r2,zero
    29c8:	10000f1e 	bne	r2,zero,2a08 <prvUnlockQueue+0xcc>
    29cc:	e0bfff17 	ldw	r2,-4(fp)
    29d0:	11000404 	addi	r4,r2,16
    29d4:	000361c0 	call	361c <xTaskRemoveFromEventList>
    29d8:	1005003a 	cmpeq	r2,r2,zero
    29dc:	1000011e 	bne	r2,zero,29e4 <prvUnlockQueue+0xa8>
    29e0:	00038d00 	call	38d0 <vTaskMissedYield>
    29e4:	e0bfff17 	ldw	r2,-4(fp)
    29e8:	10801117 	ldw	r2,68(r2)
    29ec:	10ffffc4 	addi	r3,r2,-1
    29f0:	e0bfff17 	ldw	r2,-4(fp)
    29f4:	10c01115 	stw	r3,68(r2)
    29f8:	e0bfff17 	ldw	r2,-4(fp)
    29fc:	10801117 	ldw	r2,68(r2)
    2a00:	10800048 	cmpgei	r2,r2,1
    2a04:	103fed1e 	bne	r2,zero,29bc <prvUnlockQueue+0x80>
    2a08:	e0ffff17 	ldw	r3,-4(fp)
    2a0c:	00bfffc4 	movi	r2,-1
    2a10:	18801115 	stw	r2,68(r3)
    2a14:	00041680 	call	4168 <vTaskExitCritical>
    2a18:	e037883a 	mov	sp,fp
    2a1c:	dfc00117 	ldw	ra,4(sp)
    2a20:	df000017 	ldw	fp,0(sp)
    2a24:	dec00204 	addi	sp,sp,8
    2a28:	f800283a 	ret

00002a2c <prvIsQueueEmpty>:
    2a2c:	defffc04 	addi	sp,sp,-16
    2a30:	dfc00315 	stw	ra,12(sp)
    2a34:	df000215 	stw	fp,8(sp)
    2a38:	df000204 	addi	fp,sp,8
    2a3c:	e13fff15 	stw	r4,-4(fp)
    2a40:	00041140 	call	4114 <vTaskEnterCritical>
    2a44:	e0bfff17 	ldw	r2,-4(fp)
    2a48:	10800e17 	ldw	r2,56(r2)
    2a4c:	1004c03a 	cmpne	r2,r2,zero
    2a50:	1000031e 	bne	r2,zero,2a60 <prvIsQueueEmpty+0x34>
    2a54:	00800044 	movi	r2,1
    2a58:	e0bffe15 	stw	r2,-8(fp)
    2a5c:	00000106 	br	2a64 <prvIsQueueEmpty+0x38>
    2a60:	e03ffe15 	stw	zero,-8(fp)
    2a64:	00041680 	call	4168 <vTaskExitCritical>
    2a68:	e0bffe17 	ldw	r2,-8(fp)
    2a6c:	e037883a 	mov	sp,fp
    2a70:	dfc00117 	ldw	ra,4(sp)
    2a74:	df000017 	ldw	fp,0(sp)
    2a78:	dec00204 	addi	sp,sp,8
    2a7c:	f800283a 	ret

00002a80 <xQueueIsQueueEmptyFromISR>:
    2a80:	defffd04 	addi	sp,sp,-12
    2a84:	df000215 	stw	fp,8(sp)
    2a88:	df000204 	addi	fp,sp,8
    2a8c:	e13fff15 	stw	r4,-4(fp)
    2a90:	e0bfff17 	ldw	r2,-4(fp)
    2a94:	10800e17 	ldw	r2,56(r2)
    2a98:	1004c03a 	cmpne	r2,r2,zero
    2a9c:	1000031e 	bne	r2,zero,2aac <xQueueIsQueueEmptyFromISR+0x2c>
    2aa0:	00800044 	movi	r2,1
    2aa4:	e0bffe15 	stw	r2,-8(fp)
    2aa8:	00000106 	br	2ab0 <xQueueIsQueueEmptyFromISR+0x30>
    2aac:	e03ffe15 	stw	zero,-8(fp)
    2ab0:	e0bffe17 	ldw	r2,-8(fp)
    2ab4:	e037883a 	mov	sp,fp
    2ab8:	df000017 	ldw	fp,0(sp)
    2abc:	dec00104 	addi	sp,sp,4
    2ac0:	f800283a 	ret

00002ac4 <prvIsQueueFull>:
    2ac4:	defffc04 	addi	sp,sp,-16
    2ac8:	dfc00315 	stw	ra,12(sp)
    2acc:	df000215 	stw	fp,8(sp)
    2ad0:	df000204 	addi	fp,sp,8
    2ad4:	e13fff15 	stw	r4,-4(fp)
    2ad8:	00041140 	call	4114 <vTaskEnterCritical>
    2adc:	e0bfff17 	ldw	r2,-4(fp)
    2ae0:	10c00e17 	ldw	r3,56(r2)
    2ae4:	e0bfff17 	ldw	r2,-4(fp)
    2ae8:	10800f17 	ldw	r2,60(r2)
    2aec:	1880031e 	bne	r3,r2,2afc <prvIsQueueFull+0x38>
    2af0:	00800044 	movi	r2,1
    2af4:	e0bffe15 	stw	r2,-8(fp)
    2af8:	00000106 	br	2b00 <prvIsQueueFull+0x3c>
    2afc:	e03ffe15 	stw	zero,-8(fp)
    2b00:	00041680 	call	4168 <vTaskExitCritical>
    2b04:	e0bffe17 	ldw	r2,-8(fp)
    2b08:	e037883a 	mov	sp,fp
    2b0c:	dfc00117 	ldw	ra,4(sp)
    2b10:	df000017 	ldw	fp,0(sp)
    2b14:	dec00204 	addi	sp,sp,8
    2b18:	f800283a 	ret

00002b1c <xQueueIsQueueFullFromISR>:
    2b1c:	defffd04 	addi	sp,sp,-12
    2b20:	df000215 	stw	fp,8(sp)
    2b24:	df000204 	addi	fp,sp,8
    2b28:	e13fff15 	stw	r4,-4(fp)
    2b2c:	e0bfff17 	ldw	r2,-4(fp)
    2b30:	10c00e17 	ldw	r3,56(r2)
    2b34:	e0bfff17 	ldw	r2,-4(fp)
    2b38:	10800f17 	ldw	r2,60(r2)
    2b3c:	1880031e 	bne	r3,r2,2b4c <xQueueIsQueueFullFromISR+0x30>
    2b40:	00800044 	movi	r2,1
    2b44:	e0bffe15 	stw	r2,-8(fp)
    2b48:	00000106 	br	2b50 <xQueueIsQueueFullFromISR+0x34>
    2b4c:	e03ffe15 	stw	zero,-8(fp)
    2b50:	e0bffe17 	ldw	r2,-8(fp)
    2b54:	e037883a 	mov	sp,fp
    2b58:	df000017 	ldw	fp,0(sp)
    2b5c:	dec00104 	addi	sp,sp,4
    2b60:	f800283a 	ret

00002b64 <vQueueWaitForMessageRestricted>:
    2b64:	defffb04 	addi	sp,sp,-20
    2b68:	dfc00415 	stw	ra,16(sp)
    2b6c:	df000315 	stw	fp,12(sp)
    2b70:	df000304 	addi	fp,sp,12
    2b74:	e13ffe15 	stw	r4,-8(fp)
    2b78:	e17fff15 	stw	r5,-4(fp)
    2b7c:	e0bffe17 	ldw	r2,-8(fp)
    2b80:	e0bffd15 	stw	r2,-12(fp)
    2b84:	00041140 	call	4114 <vTaskEnterCritical>
    2b88:	e0bffd17 	ldw	r2,-12(fp)
    2b8c:	10801117 	ldw	r2,68(r2)
    2b90:	10bfffd8 	cmpnei	r2,r2,-1
    2b94:	1000021e 	bne	r2,zero,2ba0 <vQueueWaitForMessageRestricted+0x3c>
    2b98:	e0bffd17 	ldw	r2,-12(fp)
    2b9c:	10001115 	stw	zero,68(r2)
    2ba0:	e0bffd17 	ldw	r2,-12(fp)
    2ba4:	10801217 	ldw	r2,72(r2)
    2ba8:	10bfffd8 	cmpnei	r2,r2,-1
    2bac:	1000021e 	bne	r2,zero,2bb8 <vQueueWaitForMessageRestricted+0x54>
    2bb0:	e0bffd17 	ldw	r2,-12(fp)
    2bb4:	10001215 	stw	zero,72(r2)
    2bb8:	00041680 	call	4168 <vTaskExitCritical>
    2bbc:	e0bffd17 	ldw	r2,-12(fp)
    2bc0:	10800e17 	ldw	r2,56(r2)
    2bc4:	1004c03a 	cmpne	r2,r2,zero
    2bc8:	1000041e 	bne	r2,zero,2bdc <vQueueWaitForMessageRestricted+0x78>
    2bcc:	e0bffd17 	ldw	r2,-12(fp)
    2bd0:	11000904 	addi	r4,r2,36
    2bd4:	e17fff17 	ldw	r5,-4(fp)
    2bd8:	00035bc0 	call	35bc <vTaskPlaceOnEventListRestricted>
    2bdc:	e13ffd17 	ldw	r4,-12(fp)
    2be0:	000293c0 	call	293c <prvUnlockQueue>
    2be4:	e037883a 	mov	sp,fp
    2be8:	dfc00117 	ldw	ra,4(sp)
    2bec:	df000017 	ldw	fp,0(sp)
    2bf0:	dec00204 	addi	sp,sp,8
    2bf4:	f800283a 	ret

00002bf8 <xTaskGenericCreate>:
    2bf8:	defff604 	addi	sp,sp,-40
    2bfc:	dfc00915 	stw	ra,36(sp)
    2c00:	df000815 	stw	fp,32(sp)
    2c04:	df000804 	addi	fp,sp,32
    2c08:	e13ffc15 	stw	r4,-16(fp)
    2c0c:	e17ffd15 	stw	r5,-12(fp)
    2c10:	e1ffff15 	stw	r7,-4(fp)
    2c14:	e1bffe0d 	sth	r6,-8(fp)
    2c18:	e13ffe0b 	ldhu	r4,-8(fp)
    2c1c:	e1400417 	ldw	r5,16(fp)
    2c20:	0003c100 	call	3c10 <prvAllocateTCBAndStack>
    2c24:	e0bffa15 	stw	r2,-24(fp)
    2c28:	e0bffa17 	ldw	r2,-24(fp)
    2c2c:	1005003a 	cmpeq	r2,r2,zero
    2c30:	1000501e 	bne	r2,zero,2d74 <xTaskGenericCreate+0x17c>
    2c34:	e0bffa17 	ldw	r2,-24(fp)
    2c38:	10c00c17 	ldw	r3,48(r2)
    2c3c:	e0bffe0b 	ldhu	r2,-8(fp)
    2c40:	1085883a 	add	r2,r2,r2
    2c44:	1085883a 	add	r2,r2,r2
    2c48:	1885883a 	add	r2,r3,r2
    2c4c:	10bfff04 	addi	r2,r2,-4
    2c50:	e0bff915 	stw	r2,-28(fp)
    2c54:	e0bff917 	ldw	r2,-28(fp)
    2c58:	1007883a 	mov	r3,r2
    2c5c:	00bfff04 	movi	r2,-4
    2c60:	1884703a 	and	r2,r3,r2
    2c64:	e0bff915 	stw	r2,-28(fp)
    2c68:	e0bffe0b 	ldhu	r2,-8(fp)
    2c6c:	d8800015 	stw	r2,0(sp)
    2c70:	e13ffa17 	ldw	r4,-24(fp)
    2c74:	e17ffd17 	ldw	r5,-12(fp)
    2c78:	e1800217 	ldw	r6,8(fp)
    2c7c:	e1c00517 	ldw	r7,20(fp)
    2c80:	00039100 	call	3910 <prvInitialiseTCBVariables>
    2c84:	e13ff917 	ldw	r4,-28(fp)
    2c88:	e17ffc17 	ldw	r5,-16(fp)
    2c8c:	e1bfff17 	ldw	r6,-4(fp)
    2c90:	00016f40 	call	16f4 <pxPortInitialiseStack>
    2c94:	1007883a 	mov	r3,r2
    2c98:	e0bffa17 	ldw	r2,-24(fp)
    2c9c:	10c00015 	stw	r3,0(r2)
    2ca0:	e0800317 	ldw	r2,12(fp)
    2ca4:	1005003a 	cmpeq	r2,r2,zero
    2ca8:	1000031e 	bne	r2,zero,2cb8 <xTaskGenericCreate+0xc0>
    2cac:	e0c00317 	ldw	r3,12(fp)
    2cb0:	e0bffa17 	ldw	r2,-24(fp)
    2cb4:	18800015 	stw	r2,0(r3)
    2cb8:	00041140 	call	4114 <vTaskEnterCritical>
    2cbc:	d0a02417 	ldw	r2,-32624(gp)
    2cc0:	10800044 	addi	r2,r2,1
    2cc4:	d0a02415 	stw	r2,-32624(gp)
    2cc8:	d0a02217 	ldw	r2,-32632(gp)
    2ccc:	1004c03a 	cmpne	r2,r2,zero
    2cd0:	1000071e 	bne	r2,zero,2cf0 <xTaskGenericCreate+0xf8>
    2cd4:	e0bffa17 	ldw	r2,-24(fp)
    2cd8:	d0a02215 	stw	r2,-32632(gp)
    2cdc:	d0a02417 	ldw	r2,-32624(gp)
    2ce0:	10800058 	cmpnei	r2,r2,1
    2ce4:	10000b1e 	bne	r2,zero,2d14 <xTaskGenericCreate+0x11c>
    2ce8:	0003a4c0 	call	3a4c <prvInitialiseTaskLists>
    2cec:	00000906 	br	2d14 <xTaskGenericCreate+0x11c>
    2cf0:	d0a02717 	ldw	r2,-32612(gp)
    2cf4:	1004c03a 	cmpne	r2,r2,zero
    2cf8:	1000061e 	bne	r2,zero,2d14 <xTaskGenericCreate+0x11c>
    2cfc:	d0a02217 	ldw	r2,-32632(gp)
    2d00:	10c00b17 	ldw	r3,44(r2)
    2d04:	e0800217 	ldw	r2,8(fp)
    2d08:	10c00236 	bltu	r2,r3,2d14 <xTaskGenericCreate+0x11c>
    2d0c:	e0bffa17 	ldw	r2,-24(fp)
    2d10:	d0a02215 	stw	r2,-32632(gp)
    2d14:	d0a02b17 	ldw	r2,-32596(gp)
    2d18:	10800044 	addi	r2,r2,1
    2d1c:	d0a02b15 	stw	r2,-32596(gp)
    2d20:	e0bffa17 	ldw	r2,-24(fp)
    2d24:	10c00b17 	ldw	r3,44(r2)
    2d28:	d0a02617 	ldw	r2,-32616(gp)
    2d2c:	10c0032e 	bgeu	r2,r3,2d3c <xTaskGenericCreate+0x144>
    2d30:	e0bffa17 	ldw	r2,-24(fp)
    2d34:	10800b17 	ldw	r2,44(r2)
    2d38:	d0a02615 	stw	r2,-32616(gp)
    2d3c:	e0bffa17 	ldw	r2,-24(fp)
    2d40:	10800b17 	ldw	r2,44(r2)
    2d44:	10800524 	muli	r2,r2,20
    2d48:	1007883a 	mov	r3,r2
    2d4c:	00820234 	movhi	r2,2056
    2d50:	10bd8104 	addi	r2,r2,-2556
    2d54:	1889883a 	add	r4,r3,r2
    2d58:	e0bffa17 	ldw	r2,-24(fp)
    2d5c:	11400104 	addi	r5,r2,4
    2d60:	000149c0 	call	149c <vListInsertEnd>
    2d64:	00800044 	movi	r2,1
    2d68:	e0bffb15 	stw	r2,-20(fp)
    2d6c:	00041680 	call	4168 <vTaskExitCritical>
    2d70:	00000206 	br	2d7c <xTaskGenericCreate+0x184>
    2d74:	00bfffc4 	movi	r2,-1
    2d78:	e0bffb15 	stw	r2,-20(fp)
    2d7c:	e0bffb17 	ldw	r2,-20(fp)
    2d80:	10800058 	cmpnei	r2,r2,1
    2d84:	1000081e 	bne	r2,zero,2da8 <xTaskGenericCreate+0x1b0>
    2d88:	d0a02717 	ldw	r2,-32612(gp)
    2d8c:	1005003a 	cmpeq	r2,r2,zero
    2d90:	1000051e 	bne	r2,zero,2da8 <xTaskGenericCreate+0x1b0>
    2d94:	d0a02217 	ldw	r2,-32632(gp)
    2d98:	10c00b17 	ldw	r3,44(r2)
    2d9c:	e0800217 	ldw	r2,8(fp)
    2da0:	1880012e 	bgeu	r3,r2,2da8 <xTaskGenericCreate+0x1b0>
    2da4:	003b683a 	trap	0
    2da8:	e0bffb17 	ldw	r2,-20(fp)
    2dac:	e037883a 	mov	sp,fp
    2db0:	dfc00117 	ldw	ra,4(sp)
    2db4:	df000017 	ldw	fp,0(sp)
    2db8:	dec00204 	addi	sp,sp,8
    2dbc:	f800283a 	ret

00002dc0 <vTaskDelete>:
    2dc0:	defffb04 	addi	sp,sp,-20
    2dc4:	dfc00415 	stw	ra,16(sp)
    2dc8:	df000315 	stw	fp,12(sp)
    2dcc:	df000304 	addi	fp,sp,12
    2dd0:	e13ffe15 	stw	r4,-8(fp)
    2dd4:	00041140 	call	4114 <vTaskEnterCritical>
    2dd8:	e0bffe17 	ldw	r2,-8(fp)
    2ddc:	1004c03a 	cmpne	r2,r2,zero
    2de0:	1000031e 	bne	r2,zero,2df0 <vTaskDelete+0x30>
    2de4:	d0a02217 	ldw	r2,-32632(gp)
    2de8:	e0bfff15 	stw	r2,-4(fp)
    2dec:	00000206 	br	2df8 <vTaskDelete+0x38>
    2df0:	e0bffe17 	ldw	r2,-8(fp)
    2df4:	e0bfff15 	stw	r2,-4(fp)
    2df8:	e0bfff17 	ldw	r2,-4(fp)
    2dfc:	e0bffd15 	stw	r2,-12(fp)
    2e00:	e0bffd17 	ldw	r2,-12(fp)
    2e04:	11000104 	addi	r4,r2,4
    2e08:	00015f80 	call	15f8 <uxListRemove>
    2e0c:	e0bffd17 	ldw	r2,-12(fp)
    2e10:	10800a17 	ldw	r2,40(r2)
    2e14:	1005003a 	cmpeq	r2,r2,zero
    2e18:	1000031e 	bne	r2,zero,2e28 <vTaskDelete+0x68>
    2e1c:	e0bffd17 	ldw	r2,-12(fp)
    2e20:	11000604 	addi	r4,r2,24
    2e24:	00015f80 	call	15f8 <uxListRemove>
    2e28:	e0bffd17 	ldw	r2,-12(fp)
    2e2c:	11400104 	addi	r5,r2,4
    2e30:	01020234 	movhi	r4,2056
    2e34:	213dcc04 	addi	r4,r4,-2256
    2e38:	000149c0 	call	149c <vListInsertEnd>
    2e3c:	d0a02317 	ldw	r2,-32628(gp)
    2e40:	10800044 	addi	r2,r2,1
    2e44:	d0a02315 	stw	r2,-32628(gp)
    2e48:	d0a02b17 	ldw	r2,-32596(gp)
    2e4c:	10800044 	addi	r2,r2,1
    2e50:	d0a02b15 	stw	r2,-32596(gp)
    2e54:	00041680 	call	4168 <vTaskExitCritical>
    2e58:	d0a02717 	ldw	r2,-32612(gp)
    2e5c:	1005003a 	cmpeq	r2,r2,zero
    2e60:	1000081e 	bne	r2,zero,2e84 <vTaskDelete+0xc4>
    2e64:	d0e02217 	ldw	r3,-32632(gp)
    2e68:	e0bffd17 	ldw	r2,-12(fp)
    2e6c:	10c0021e 	bne	r2,r3,2e78 <vTaskDelete+0xb8>
    2e70:	003b683a 	trap	0
    2e74:	00000306 	br	2e84 <vTaskDelete+0xc4>
    2e78:	00041140 	call	4114 <vTaskEnterCritical>
    2e7c:	0003dfc0 	call	3dfc <prvResetNextTaskUnblockTime>
    2e80:	00041680 	call	4168 <vTaskExitCritical>
    2e84:	e037883a 	mov	sp,fp
    2e88:	dfc00117 	ldw	ra,4(sp)
    2e8c:	df000017 	ldw	fp,0(sp)
    2e90:	dec00204 	addi	sp,sp,8
    2e94:	f800283a 	ret

00002e98 <vTaskDelay>:
    2e98:	defffb04 	addi	sp,sp,-20
    2e9c:	dfc00415 	stw	ra,16(sp)
    2ea0:	df000315 	stw	fp,12(sp)
    2ea4:	df000304 	addi	fp,sp,12
    2ea8:	e13fff15 	stw	r4,-4(fp)
    2eac:	e03ffd15 	stw	zero,-12(fp)
    2eb0:	e0bfff17 	ldw	r2,-4(fp)
    2eb4:	1005003a 	cmpeq	r2,r2,zero
    2eb8:	10000c1e 	bne	r2,zero,2eec <vTaskDelay+0x54>
    2ebc:	0002ff00 	call	2ff0 <vTaskSuspendAll>
    2ec0:	d0e02517 	ldw	r3,-32620(gp)
    2ec4:	e0bfff17 	ldw	r2,-4(fp)
    2ec8:	1885883a 	add	r2,r3,r2
    2ecc:	e0bffe15 	stw	r2,-8(fp)
    2ed0:	d0a02217 	ldw	r2,-32632(gp)
    2ed4:	11000104 	addi	r4,r2,4
    2ed8:	00015f80 	call	15f8 <uxListRemove>
    2edc:	e13ffe17 	ldw	r4,-8(fp)
    2ee0:	0003b980 	call	3b98 <prvAddCurrentTaskToDelayedList>
    2ee4:	00030180 	call	3018 <xTaskResumeAll>
    2ee8:	e0bffd15 	stw	r2,-12(fp)
    2eec:	e0bffd17 	ldw	r2,-12(fp)
    2ef0:	1004c03a 	cmpne	r2,r2,zero
    2ef4:	1000011e 	bne	r2,zero,2efc <vTaskDelay+0x64>
    2ef8:	003b683a 	trap	0
    2efc:	e037883a 	mov	sp,fp
    2f00:	dfc00117 	ldw	ra,4(sp)
    2f04:	df000017 	ldw	fp,0(sp)
    2f08:	dec00204 	addi	sp,sp,8
    2f0c:	f800283a 	ret

00002f10 <vTaskStartScheduler>:
    2f10:	defff804 	addi	sp,sp,-32
    2f14:	dfc00715 	stw	ra,28(sp)
    2f18:	df000615 	stw	fp,24(sp)
    2f1c:	df000604 	addi	fp,sp,24
    2f20:	d8000015 	stw	zero,0(sp)
    2f24:	d8000115 	stw	zero,4(sp)
    2f28:	d8000215 	stw	zero,8(sp)
    2f2c:	d8000315 	stw	zero,12(sp)
    2f30:	01000034 	movhi	r4,0
    2f34:	210e3d04 	addi	r4,r4,14580
    2f38:	01420034 	movhi	r5,2048
    2f3c:	29400d04 	addi	r5,r5,52
    2f40:	01840004 	movi	r6,4096
    2f44:	000f883a 	mov	r7,zero
    2f48:	0002bf80 	call	2bf8 <xTaskGenericCreate>
    2f4c:	e0bfff15 	stw	r2,-4(fp)
    2f50:	e0bfff17 	ldw	r2,-4(fp)
    2f54:	10800058 	cmpnei	r2,r2,1
    2f58:	1000021e 	bne	r2,zero,2f64 <vTaskStartScheduler+0x54>
    2f5c:	000488c0 	call	488c <xTimerCreateTimerTask>
    2f60:	e0bfff15 	stw	r2,-4(fp)
    2f64:	e0bfff17 	ldw	r2,-4(fp)
    2f68:	10800058 	cmpnei	r2,r2,1
    2f6c:	10000a1e 	bne	r2,zero,2f98 <vTaskStartScheduler+0x88>
    2f70:	0005303a 	rdctl	r2,status
    2f74:	e0bffe15 	stw	r2,-8(fp)
    2f78:	e0fffe17 	ldw	r3,-8(fp)
    2f7c:	00bfff84 	movi	r2,-2
    2f80:	1884703a 	and	r2,r3,r2
    2f84:	1001703a 	wrctl	status,r2
    2f88:	00800044 	movi	r2,1
    2f8c:	d0a02715 	stw	r2,-32612(gp)
    2f90:	d0202515 	stw	zero,-32620(gp)
    2f94:	00017dc0 	call	17dc <xPortStartScheduler>
    2f98:	e037883a 	mov	sp,fp
    2f9c:	dfc00117 	ldw	ra,4(sp)
    2fa0:	df000017 	ldw	fp,0(sp)
    2fa4:	dec00204 	addi	sp,sp,8
    2fa8:	f800283a 	ret

00002fac <vTaskEndScheduler>:
    2fac:	defffd04 	addi	sp,sp,-12
    2fb0:	dfc00215 	stw	ra,8(sp)
    2fb4:	df000115 	stw	fp,4(sp)
    2fb8:	df000104 	addi	fp,sp,4
    2fbc:	0005303a 	rdctl	r2,status
    2fc0:	e0bfff15 	stw	r2,-4(fp)
    2fc4:	e0ffff17 	ldw	r3,-4(fp)
    2fc8:	00bfff84 	movi	r2,-2
    2fcc:	1884703a 	and	r2,r3,r2
    2fd0:	1001703a 	wrctl	status,r2
    2fd4:	d0202715 	stw	zero,-32612(gp)
    2fd8:	00018140 	call	1814 <vPortEndScheduler>
    2fdc:	e037883a 	mov	sp,fp
    2fe0:	dfc00117 	ldw	ra,4(sp)
    2fe4:	df000017 	ldw	fp,0(sp)
    2fe8:	dec00204 	addi	sp,sp,8
    2fec:	f800283a 	ret

00002ff0 <vTaskSuspendAll>:
    2ff0:	deffff04 	addi	sp,sp,-4
    2ff4:	df000015 	stw	fp,0(sp)
    2ff8:	d839883a 	mov	fp,sp
    2ffc:	d0a02c17 	ldw	r2,-32592(gp)
    3000:	10800044 	addi	r2,r2,1
    3004:	d0a02c15 	stw	r2,-32592(gp)
    3008:	e037883a 	mov	sp,fp
    300c:	df000017 	ldw	fp,0(sp)
    3010:	dec00104 	addi	sp,sp,4
    3014:	f800283a 	ret

00003018 <xTaskResumeAll>:
    3018:	defffc04 	addi	sp,sp,-16
    301c:	dfc00315 	stw	ra,12(sp)
    3020:	df000215 	stw	fp,8(sp)
    3024:	df000204 	addi	fp,sp,8
    3028:	e03ffe15 	stw	zero,-8(fp)
    302c:	00041140 	call	4114 <vTaskEnterCritical>
    3030:	d0a02c17 	ldw	r2,-32592(gp)
    3034:	10bfffc4 	addi	r2,r2,-1
    3038:	d0a02c15 	stw	r2,-32592(gp)
    303c:	d0a02c17 	ldw	r2,-32592(gp)
    3040:	1004c03a 	cmpne	r2,r2,zero
    3044:	1000411e 	bne	r2,zero,314c <xTaskResumeAll+0x134>
    3048:	d0a02417 	ldw	r2,-32624(gp)
    304c:	1005003a 	cmpeq	r2,r2,zero
    3050:	10003e1e 	bne	r2,zero,314c <xTaskResumeAll+0x134>
    3054:	00002306 	br	30e4 <xTaskResumeAll+0xcc>
    3058:	00820234 	movhi	r2,2056
    305c:	10bdc704 	addi	r2,r2,-2276
    3060:	10800317 	ldw	r2,12(r2)
    3064:	10800317 	ldw	r2,12(r2)
    3068:	e0bfff15 	stw	r2,-4(fp)
    306c:	e0bfff17 	ldw	r2,-4(fp)
    3070:	11000604 	addi	r4,r2,24
    3074:	00015f80 	call	15f8 <uxListRemove>
    3078:	e0bfff17 	ldw	r2,-4(fp)
    307c:	11000104 	addi	r4,r2,4
    3080:	00015f80 	call	15f8 <uxListRemove>
    3084:	e0bfff17 	ldw	r2,-4(fp)
    3088:	10c00b17 	ldw	r3,44(r2)
    308c:	d0a02617 	ldw	r2,-32616(gp)
    3090:	10c0032e 	bgeu	r2,r3,30a0 <xTaskResumeAll+0x88>
    3094:	e0bfff17 	ldw	r2,-4(fp)
    3098:	10800b17 	ldw	r2,44(r2)
    309c:	d0a02615 	stw	r2,-32616(gp)
    30a0:	e0bfff17 	ldw	r2,-4(fp)
    30a4:	10800b17 	ldw	r2,44(r2)
    30a8:	10800524 	muli	r2,r2,20
    30ac:	1007883a 	mov	r3,r2
    30b0:	00820234 	movhi	r2,2056
    30b4:	10bd8104 	addi	r2,r2,-2556
    30b8:	1889883a 	add	r4,r3,r2
    30bc:	e0bfff17 	ldw	r2,-4(fp)
    30c0:	11400104 	addi	r5,r2,4
    30c4:	000149c0 	call	149c <vListInsertEnd>
    30c8:	e0bfff17 	ldw	r2,-4(fp)
    30cc:	10c00b17 	ldw	r3,44(r2)
    30d0:	d0a02217 	ldw	r2,-32632(gp)
    30d4:	10800b17 	ldw	r2,44(r2)
    30d8:	18800236 	bltu	r3,r2,30e4 <xTaskResumeAll+0xcc>
    30dc:	00800044 	movi	r2,1
    30e0:	d0a02915 	stw	r2,-32604(gp)
    30e4:	00820234 	movhi	r2,2056
    30e8:	10bdc704 	addi	r2,r2,-2276
    30ec:	10800017 	ldw	r2,0(r2)
    30f0:	1004c03a 	cmpne	r2,r2,zero
    30f4:	103fd81e 	bne	r2,zero,3058 <xTaskResumeAll+0x40>
    30f8:	d0a02817 	ldw	r2,-32608(gp)
    30fc:	1005003a 	cmpeq	r2,r2,zero
    3100:	10000c1e 	bne	r2,zero,3134 <xTaskResumeAll+0x11c>
    3104:	00000806 	br	3128 <xTaskResumeAll+0x110>
    3108:	00031dc0 	call	31dc <xTaskIncrementTick>
    310c:	1005003a 	cmpeq	r2,r2,zero
    3110:	1000021e 	bne	r2,zero,311c <xTaskResumeAll+0x104>
    3114:	00800044 	movi	r2,1
    3118:	d0a02915 	stw	r2,-32604(gp)
    311c:	d0a02817 	ldw	r2,-32608(gp)
    3120:	10bfffc4 	addi	r2,r2,-1
    3124:	d0a02815 	stw	r2,-32608(gp)
    3128:	d0a02817 	ldw	r2,-32608(gp)
    312c:	1004c03a 	cmpne	r2,r2,zero
    3130:	103ff51e 	bne	r2,zero,3108 <xTaskResumeAll+0xf0>
    3134:	d0a02917 	ldw	r2,-32604(gp)
    3138:	10800058 	cmpnei	r2,r2,1
    313c:	1000031e 	bne	r2,zero,314c <xTaskResumeAll+0x134>
    3140:	00800044 	movi	r2,1
    3144:	e0bffe15 	stw	r2,-8(fp)
    3148:	003b683a 	trap	0
    314c:	00041680 	call	4168 <vTaskExitCritical>
    3150:	e0bffe17 	ldw	r2,-8(fp)
    3154:	e037883a 	mov	sp,fp
    3158:	dfc00117 	ldw	ra,4(sp)
    315c:	df000017 	ldw	fp,0(sp)
    3160:	dec00204 	addi	sp,sp,8
    3164:	f800283a 	ret

00003168 <xTaskGetTickCount>:
    3168:	defffe04 	addi	sp,sp,-8
    316c:	df000115 	stw	fp,4(sp)
    3170:	df000104 	addi	fp,sp,4
    3174:	d0a02517 	ldw	r2,-32620(gp)
    3178:	e0bfff15 	stw	r2,-4(fp)
    317c:	e0bfff17 	ldw	r2,-4(fp)
    3180:	e037883a 	mov	sp,fp
    3184:	df000017 	ldw	fp,0(sp)
    3188:	dec00104 	addi	sp,sp,4
    318c:	f800283a 	ret

00003190 <xTaskGetTickCountFromISR>:
    3190:	defffd04 	addi	sp,sp,-12
    3194:	df000215 	stw	fp,8(sp)
    3198:	df000204 	addi	fp,sp,8
    319c:	e03ffe15 	stw	zero,-8(fp)
    31a0:	d0a02517 	ldw	r2,-32620(gp)
    31a4:	e0bfff15 	stw	r2,-4(fp)
    31a8:	e0bfff17 	ldw	r2,-4(fp)
    31ac:	e037883a 	mov	sp,fp
    31b0:	df000017 	ldw	fp,0(sp)
    31b4:	dec00104 	addi	sp,sp,4
    31b8:	f800283a 	ret

000031bc <uxTaskGetNumberOfTasks>:
    31bc:	deffff04 	addi	sp,sp,-4
    31c0:	df000015 	stw	fp,0(sp)
    31c4:	d839883a 	mov	fp,sp
    31c8:	d0a02417 	ldw	r2,-32624(gp)
    31cc:	e037883a 	mov	sp,fp
    31d0:	df000017 	ldw	fp,0(sp)
    31d4:	dec00104 	addi	sp,sp,4
    31d8:	f800283a 	ret

000031dc <xTaskIncrementTick>:
    31dc:	defff804 	addi	sp,sp,-32
    31e0:	dfc00715 	stw	ra,28(sp)
    31e4:	df000615 	stw	fp,24(sp)
    31e8:	df000604 	addi	fp,sp,24
    31ec:	e03ffc15 	stw	zero,-16(fp)
    31f0:	d0a02c17 	ldw	r2,-32592(gp)
    31f4:	1004c03a 	cmpne	r2,r2,zero
    31f8:	1000611e 	bne	r2,zero,3380 <xTaskIncrementTick+0x1a4>
    31fc:	d0a02517 	ldw	r2,-32620(gp)
    3200:	10800044 	addi	r2,r2,1
    3204:	d0a02515 	stw	r2,-32620(gp)
    3208:	d0a02517 	ldw	r2,-32620(gp)
    320c:	e0bffb15 	stw	r2,-20(fp)
    3210:	e0bffb17 	ldw	r2,-20(fp)
    3214:	1004c03a 	cmpne	r2,r2,zero
    3218:	10000a1e 	bne	r2,zero,3244 <xTaskIncrementTick+0x68>
    321c:	d0a02d17 	ldw	r2,-32588(gp)
    3220:	e0bffa15 	stw	r2,-24(fp)
    3224:	d0a02e17 	ldw	r2,-32584(gp)
    3228:	d0a02d15 	stw	r2,-32588(gp)
    322c:	e0bffa17 	ldw	r2,-24(fp)
    3230:	d0a02e15 	stw	r2,-32584(gp)
    3234:	d0a02a17 	ldw	r2,-32600(gp)
    3238:	10800044 	addi	r2,r2,1
    323c:	d0a02a15 	stw	r2,-32600(gp)
    3240:	0003dfc0 	call	3dfc <prvResetNextTaskUnblockTime>
    3244:	d0e00317 	ldw	r3,-32756(gp)
    3248:	e0bffb17 	ldw	r2,-20(fp)
    324c:	10c03f36 	bltu	r2,r3,334c <xTaskIncrementTick+0x170>
    3250:	00000006 	br	3254 <xTaskIncrementTick+0x78>
    3254:	d0a02d17 	ldw	r2,-32588(gp)
    3258:	10800017 	ldw	r2,0(r2)
    325c:	1004c03a 	cmpne	r2,r2,zero
    3260:	1000031e 	bne	r2,zero,3270 <xTaskIncrementTick+0x94>
    3264:	00800044 	movi	r2,1
    3268:	e0bfff05 	stb	r2,-4(fp)
    326c:	00000106 	br	3274 <xTaskIncrementTick+0x98>
    3270:	e03fff05 	stb	zero,-4(fp)
    3274:	e0bfff03 	ldbu	r2,-4(fp)
    3278:	1005003a 	cmpeq	r2,r2,zero
    327c:	1000031e 	bne	r2,zero,328c <xTaskIncrementTick+0xb0>
    3280:	00bfffc4 	movi	r2,-1
    3284:	d0a00315 	stw	r2,-32756(gp)
    3288:	00003006 	br	334c <xTaskIncrementTick+0x170>
    328c:	d0a02d17 	ldw	r2,-32588(gp)
    3290:	10800317 	ldw	r2,12(r2)
    3294:	10800317 	ldw	r2,12(r2)
    3298:	e0bffe15 	stw	r2,-8(fp)
    329c:	e0bffe17 	ldw	r2,-8(fp)
    32a0:	10800117 	ldw	r2,4(r2)
    32a4:	e0bffd15 	stw	r2,-12(fp)
    32a8:	e0fffb17 	ldw	r3,-20(fp)
    32ac:	e0bffd17 	ldw	r2,-12(fp)
    32b0:	1880032e 	bgeu	r3,r2,32c0 <xTaskIncrementTick+0xe4>
    32b4:	e0bffd17 	ldw	r2,-12(fp)
    32b8:	d0a00315 	stw	r2,-32756(gp)
    32bc:	00002306 	br	334c <xTaskIncrementTick+0x170>
    32c0:	e0bffe17 	ldw	r2,-8(fp)
    32c4:	11000104 	addi	r4,r2,4
    32c8:	00015f80 	call	15f8 <uxListRemove>
    32cc:	e0bffe17 	ldw	r2,-8(fp)
    32d0:	10800a17 	ldw	r2,40(r2)
    32d4:	1005003a 	cmpeq	r2,r2,zero
    32d8:	1000031e 	bne	r2,zero,32e8 <xTaskIncrementTick+0x10c>
    32dc:	e0bffe17 	ldw	r2,-8(fp)
    32e0:	11000604 	addi	r4,r2,24
    32e4:	00015f80 	call	15f8 <uxListRemove>
    32e8:	e0bffe17 	ldw	r2,-8(fp)
    32ec:	10c00b17 	ldw	r3,44(r2)
    32f0:	d0a02617 	ldw	r2,-32616(gp)
    32f4:	10c0032e 	bgeu	r2,r3,3304 <xTaskIncrementTick+0x128>
    32f8:	e0bffe17 	ldw	r2,-8(fp)
    32fc:	10800b17 	ldw	r2,44(r2)
    3300:	d0a02615 	stw	r2,-32616(gp)
    3304:	e0bffe17 	ldw	r2,-8(fp)
    3308:	10800b17 	ldw	r2,44(r2)
    330c:	10800524 	muli	r2,r2,20
    3310:	1007883a 	mov	r3,r2
    3314:	00820234 	movhi	r2,2056
    3318:	10bd8104 	addi	r2,r2,-2556
    331c:	1889883a 	add	r4,r3,r2
    3320:	e0bffe17 	ldw	r2,-8(fp)
    3324:	11400104 	addi	r5,r2,4
    3328:	000149c0 	call	149c <vListInsertEnd>
    332c:	e0bffe17 	ldw	r2,-8(fp)
    3330:	10c00b17 	ldw	r3,44(r2)
    3334:	d0a02217 	ldw	r2,-32632(gp)
    3338:	10800b17 	ldw	r2,44(r2)
    333c:	18bfc536 	bltu	r3,r2,3254 <xTaskIncrementTick+0x78>
    3340:	00800044 	movi	r2,1
    3344:	e0bffc15 	stw	r2,-16(fp)
    3348:	003fc206 	br	3254 <xTaskIncrementTick+0x78>
    334c:	d0a02217 	ldw	r2,-32632(gp)
    3350:	10800b17 	ldw	r2,44(r2)
    3354:	10800524 	muli	r2,r2,20
    3358:	1007883a 	mov	r3,r2
    335c:	00820234 	movhi	r2,2056
    3360:	10bd8104 	addi	r2,r2,-2556
    3364:	1885883a 	add	r2,r3,r2
    3368:	10800017 	ldw	r2,0(r2)
    336c:	108000b0 	cmpltui	r2,r2,2
    3370:	1000061e 	bne	r2,zero,338c <xTaskIncrementTick+0x1b0>
    3374:	00800044 	movi	r2,1
    3378:	e0bffc15 	stw	r2,-16(fp)
    337c:	00000306 	br	338c <xTaskIncrementTick+0x1b0>
    3380:	d0a02817 	ldw	r2,-32608(gp)
    3384:	10800044 	addi	r2,r2,1
    3388:	d0a02815 	stw	r2,-32608(gp)
    338c:	d0a02917 	ldw	r2,-32604(gp)
    3390:	1005003a 	cmpeq	r2,r2,zero
    3394:	1000021e 	bne	r2,zero,33a0 <xTaskIncrementTick+0x1c4>
    3398:	00800044 	movi	r2,1
    339c:	e0bffc15 	stw	r2,-16(fp)
    33a0:	e0bffc17 	ldw	r2,-16(fp)
    33a4:	e037883a 	mov	sp,fp
    33a8:	dfc00117 	ldw	ra,4(sp)
    33ac:	df000017 	ldw	fp,0(sp)
    33b0:	dec00204 	addi	sp,sp,8
    33b4:	f800283a 	ret

000033b8 <vTaskSwitchContext>:
    33b8:	defffd04 	addi	sp,sp,-12
    33bc:	dfc00215 	stw	ra,8(sp)
    33c0:	df000115 	stw	fp,4(sp)
    33c4:	df000104 	addi	fp,sp,4
    33c8:	d0a02c17 	ldw	r2,-32592(gp)
    33cc:	1005003a 	cmpeq	r2,r2,zero
    33d0:	1000031e 	bne	r2,zero,33e0 <vTaskSwitchContext+0x28>
    33d4:	00800044 	movi	r2,1
    33d8:	d0a02915 	stw	r2,-32604(gp)
    33dc:	00003d06 	br	34d4 <vTaskSwitchContext+0x11c>
    33e0:	d0202915 	stw	zero,-32604(gp)
    33e4:	d0a02217 	ldw	r2,-32632(gp)
    33e8:	10c00017 	ldw	r3,0(r2)
    33ec:	d0a02217 	ldw	r2,-32632(gp)
    33f0:	10800c17 	ldw	r2,48(r2)
    33f4:	10c00436 	bltu	r2,r3,3408 <vTaskSwitchContext+0x50>
    33f8:	d1202217 	ldw	r4,-32632(gp)
    33fc:	d0a02217 	ldw	r2,-32632(gp)
    3400:	11400d04 	addi	r5,r2,52
    3404:	00016900 	call	1690 <vApplicationStackOverflowHook>
    3408:	d0a02217 	ldw	r2,-32632(gp)
    340c:	11000c17 	ldw	r4,48(r2)
    3410:	01420034 	movhi	r5,2048
    3414:	29400f04 	addi	r5,r5,60
    3418:	01800504 	movi	r6,20
    341c:	00052140 	call	5214 <memcmp>
    3420:	1005003a 	cmpeq	r2,r2,zero
    3424:	1000081e 	bne	r2,zero,3448 <vTaskSwitchContext+0x90>
    3428:	d1202217 	ldw	r4,-32632(gp)
    342c:	d0a02217 	ldw	r2,-32632(gp)
    3430:	11400d04 	addi	r5,r2,52
    3434:	00016900 	call	1690 <vApplicationStackOverflowHook>
    3438:	00000306 	br	3448 <vTaskSwitchContext+0x90>
    343c:	d0a02617 	ldw	r2,-32616(gp)
    3440:	10bfffc4 	addi	r2,r2,-1
    3444:	d0a02615 	stw	r2,-32616(gp)
    3448:	d0a02617 	ldw	r2,-32616(gp)
    344c:	10800524 	muli	r2,r2,20
    3450:	1007883a 	mov	r3,r2
    3454:	00820234 	movhi	r2,2056
    3458:	10bd8104 	addi	r2,r2,-2556
    345c:	1885883a 	add	r2,r3,r2
    3460:	10800017 	ldw	r2,0(r2)
    3464:	1005003a 	cmpeq	r2,r2,zero
    3468:	103ff41e 	bne	r2,zero,343c <vTaskSwitchContext+0x84>
    346c:	d0a02617 	ldw	r2,-32616(gp)
    3470:	10800524 	muli	r2,r2,20
    3474:	1007883a 	mov	r3,r2
    3478:	00820234 	movhi	r2,2056
    347c:	10bd8104 	addi	r2,r2,-2556
    3480:	1885883a 	add	r2,r3,r2
    3484:	e0bfff15 	stw	r2,-4(fp)
    3488:	e0bfff17 	ldw	r2,-4(fp)
    348c:	10800117 	ldw	r2,4(r2)
    3490:	10c00117 	ldw	r3,4(r2)
    3494:	e0bfff17 	ldw	r2,-4(fp)
    3498:	10c00115 	stw	r3,4(r2)
    349c:	e0bfff17 	ldw	r2,-4(fp)
    34a0:	10c00117 	ldw	r3,4(r2)
    34a4:	e0bfff17 	ldw	r2,-4(fp)
    34a8:	10800204 	addi	r2,r2,8
    34ac:	1880051e 	bne	r3,r2,34c4 <vTaskSwitchContext+0x10c>
    34b0:	e0bfff17 	ldw	r2,-4(fp)
    34b4:	10800117 	ldw	r2,4(r2)
    34b8:	10c00117 	ldw	r3,4(r2)
    34bc:	e0bfff17 	ldw	r2,-4(fp)
    34c0:	10c00115 	stw	r3,4(r2)
    34c4:	e0bfff17 	ldw	r2,-4(fp)
    34c8:	10800117 	ldw	r2,4(r2)
    34cc:	10800317 	ldw	r2,12(r2)
    34d0:	d0a02215 	stw	r2,-32632(gp)
    34d4:	e037883a 	mov	sp,fp
    34d8:	dfc00117 	ldw	ra,4(sp)
    34dc:	df000017 	ldw	fp,0(sp)
    34e0:	dec00204 	addi	sp,sp,8
    34e4:	f800283a 	ret

000034e8 <vTaskPlaceOnEventList>:
    34e8:	defffb04 	addi	sp,sp,-20
    34ec:	dfc00415 	stw	ra,16(sp)
    34f0:	df000315 	stw	fp,12(sp)
    34f4:	df000304 	addi	fp,sp,12
    34f8:	e13ffe15 	stw	r4,-8(fp)
    34fc:	e17fff15 	stw	r5,-4(fp)
    3500:	d0a02217 	ldw	r2,-32632(gp)
    3504:	11400604 	addi	r5,r2,24
    3508:	e13ffe17 	ldw	r4,-8(fp)
    350c:	00015240 	call	1524 <vListInsert>
    3510:	d0a02217 	ldw	r2,-32632(gp)
    3514:	11000104 	addi	r4,r2,4
    3518:	00015f80 	call	15f8 <uxListRemove>
    351c:	d0e02517 	ldw	r3,-32620(gp)
    3520:	e0bfff17 	ldw	r2,-4(fp)
    3524:	1885883a 	add	r2,r3,r2
    3528:	e0bffd15 	stw	r2,-12(fp)
    352c:	e13ffd17 	ldw	r4,-12(fp)
    3530:	0003b980 	call	3b98 <prvAddCurrentTaskToDelayedList>
    3534:	e037883a 	mov	sp,fp
    3538:	dfc00117 	ldw	ra,4(sp)
    353c:	df000017 	ldw	fp,0(sp)
    3540:	dec00204 	addi	sp,sp,8
    3544:	f800283a 	ret

00003548 <vTaskPlaceOnUnorderedEventList>:
    3548:	defffa04 	addi	sp,sp,-24
    354c:	dfc00515 	stw	ra,20(sp)
    3550:	df000415 	stw	fp,16(sp)
    3554:	df000404 	addi	fp,sp,16
    3558:	e13ffd15 	stw	r4,-12(fp)
    355c:	e17ffe15 	stw	r5,-8(fp)
    3560:	e1bfff15 	stw	r6,-4(fp)
    3564:	d0e02217 	ldw	r3,-32632(gp)
    3568:	e0bffe17 	ldw	r2,-8(fp)
    356c:	10a00034 	orhi	r2,r2,32768
    3570:	18800615 	stw	r2,24(r3)
    3574:	d0a02217 	ldw	r2,-32632(gp)
    3578:	11400604 	addi	r5,r2,24
    357c:	e13ffd17 	ldw	r4,-12(fp)
    3580:	000149c0 	call	149c <vListInsertEnd>
    3584:	d0a02217 	ldw	r2,-32632(gp)
    3588:	11000104 	addi	r4,r2,4
    358c:	00015f80 	call	15f8 <uxListRemove>
    3590:	d0e02517 	ldw	r3,-32620(gp)
    3594:	e0bfff17 	ldw	r2,-4(fp)
    3598:	1885883a 	add	r2,r3,r2
    359c:	e0bffc15 	stw	r2,-16(fp)
    35a0:	e13ffc17 	ldw	r4,-16(fp)
    35a4:	0003b980 	call	3b98 <prvAddCurrentTaskToDelayedList>
    35a8:	e037883a 	mov	sp,fp
    35ac:	dfc00117 	ldw	ra,4(sp)
    35b0:	df000017 	ldw	fp,0(sp)
    35b4:	dec00204 	addi	sp,sp,8
    35b8:	f800283a 	ret

000035bc <vTaskPlaceOnEventListRestricted>:
    35bc:	defffb04 	addi	sp,sp,-20
    35c0:	dfc00415 	stw	ra,16(sp)
    35c4:	df000315 	stw	fp,12(sp)
    35c8:	df000304 	addi	fp,sp,12
    35cc:	e13ffe15 	stw	r4,-8(fp)
    35d0:	e17fff15 	stw	r5,-4(fp)
    35d4:	d0a02217 	ldw	r2,-32632(gp)
    35d8:	11400604 	addi	r5,r2,24
    35dc:	e13ffe17 	ldw	r4,-8(fp)
    35e0:	000149c0 	call	149c <vListInsertEnd>
    35e4:	d0a02217 	ldw	r2,-32632(gp)
    35e8:	11000104 	addi	r4,r2,4
    35ec:	00015f80 	call	15f8 <uxListRemove>
    35f0:	d0e02517 	ldw	r3,-32620(gp)
    35f4:	e0bfff17 	ldw	r2,-4(fp)
    35f8:	1885883a 	add	r2,r3,r2
    35fc:	e0bffd15 	stw	r2,-12(fp)
    3600:	e13ffd17 	ldw	r4,-12(fp)
    3604:	0003b980 	call	3b98 <prvAddCurrentTaskToDelayedList>
    3608:	e037883a 	mov	sp,fp
    360c:	dfc00117 	ldw	ra,4(sp)
    3610:	df000017 	ldw	fp,0(sp)
    3614:	dec00204 	addi	sp,sp,8
    3618:	f800283a 	ret

0000361c <xTaskRemoveFromEventList>:
    361c:	defffb04 	addi	sp,sp,-20
    3620:	dfc00415 	stw	ra,16(sp)
    3624:	df000315 	stw	fp,12(sp)
    3628:	df000304 	addi	fp,sp,12
    362c:	e13fff15 	stw	r4,-4(fp)
    3630:	e0bfff17 	ldw	r2,-4(fp)
    3634:	10800317 	ldw	r2,12(r2)
    3638:	10800317 	ldw	r2,12(r2)
    363c:	e0bffe15 	stw	r2,-8(fp)
    3640:	e0bffe17 	ldw	r2,-8(fp)
    3644:	11000604 	addi	r4,r2,24
    3648:	00015f80 	call	15f8 <uxListRemove>
    364c:	d0a02c17 	ldw	r2,-32592(gp)
    3650:	1004c03a 	cmpne	r2,r2,zero
    3654:	1000151e 	bne	r2,zero,36ac <xTaskRemoveFromEventList+0x90>
    3658:	e0bffe17 	ldw	r2,-8(fp)
    365c:	11000104 	addi	r4,r2,4
    3660:	00015f80 	call	15f8 <uxListRemove>
    3664:	e0bffe17 	ldw	r2,-8(fp)
    3668:	10c00b17 	ldw	r3,44(r2)
    366c:	d0a02617 	ldw	r2,-32616(gp)
    3670:	10c0032e 	bgeu	r2,r3,3680 <xTaskRemoveFromEventList+0x64>
    3674:	e0bffe17 	ldw	r2,-8(fp)
    3678:	10800b17 	ldw	r2,44(r2)
    367c:	d0a02615 	stw	r2,-32616(gp)
    3680:	e0bffe17 	ldw	r2,-8(fp)
    3684:	10800b17 	ldw	r2,44(r2)
    3688:	10800524 	muli	r2,r2,20
    368c:	1007883a 	mov	r3,r2
    3690:	00820234 	movhi	r2,2056
    3694:	10bd8104 	addi	r2,r2,-2556
    3698:	1889883a 	add	r4,r3,r2
    369c:	e0bffe17 	ldw	r2,-8(fp)
    36a0:	11400104 	addi	r5,r2,4
    36a4:	000149c0 	call	149c <vListInsertEnd>
    36a8:	00000506 	br	36c0 <xTaskRemoveFromEventList+0xa4>
    36ac:	e0bffe17 	ldw	r2,-8(fp)
    36b0:	11400604 	addi	r5,r2,24
    36b4:	01020234 	movhi	r4,2056
    36b8:	213dc704 	addi	r4,r4,-2276
    36bc:	000149c0 	call	149c <vListInsertEnd>
    36c0:	e0bffe17 	ldw	r2,-8(fp)
    36c4:	10c00b17 	ldw	r3,44(r2)
    36c8:	d0a02217 	ldw	r2,-32632(gp)
    36cc:	10800b17 	ldw	r2,44(r2)
    36d0:	10c0052e 	bgeu	r2,r3,36e8 <xTaskRemoveFromEventList+0xcc>
    36d4:	00800044 	movi	r2,1
    36d8:	e0bffd15 	stw	r2,-12(fp)
    36dc:	00800044 	movi	r2,1
    36e0:	d0a02915 	stw	r2,-32604(gp)
    36e4:	00000106 	br	36ec <xTaskRemoveFromEventList+0xd0>
    36e8:	e03ffd15 	stw	zero,-12(fp)
    36ec:	e0bffd17 	ldw	r2,-12(fp)
    36f0:	e037883a 	mov	sp,fp
    36f4:	dfc00117 	ldw	ra,4(sp)
    36f8:	df000017 	ldw	fp,0(sp)
    36fc:	dec00204 	addi	sp,sp,8
    3700:	f800283a 	ret

00003704 <xTaskRemoveFromUnorderedEventList>:
    3704:	defffa04 	addi	sp,sp,-24
    3708:	dfc00515 	stw	ra,20(sp)
    370c:	df000415 	stw	fp,16(sp)
    3710:	df000404 	addi	fp,sp,16
    3714:	e13ffe15 	stw	r4,-8(fp)
    3718:	e17fff15 	stw	r5,-4(fp)
    371c:	e0bfff17 	ldw	r2,-4(fp)
    3720:	10e00034 	orhi	r3,r2,32768
    3724:	e0bffe17 	ldw	r2,-8(fp)
    3728:	10c00015 	stw	r3,0(r2)
    372c:	e0bffe17 	ldw	r2,-8(fp)
    3730:	10800317 	ldw	r2,12(r2)
    3734:	e0bffd15 	stw	r2,-12(fp)
    3738:	e13ffe17 	ldw	r4,-8(fp)
    373c:	00015f80 	call	15f8 <uxListRemove>
    3740:	e0bffd17 	ldw	r2,-12(fp)
    3744:	11000104 	addi	r4,r2,4
    3748:	00015f80 	call	15f8 <uxListRemove>
    374c:	e0bffd17 	ldw	r2,-12(fp)
    3750:	10c00b17 	ldw	r3,44(r2)
    3754:	d0a02617 	ldw	r2,-32616(gp)
    3758:	10c0032e 	bgeu	r2,r3,3768 <xTaskRemoveFromUnorderedEventList+0x64>
    375c:	e0bffd17 	ldw	r2,-12(fp)
    3760:	10800b17 	ldw	r2,44(r2)
    3764:	d0a02615 	stw	r2,-32616(gp)
    3768:	e0bffd17 	ldw	r2,-12(fp)
    376c:	10800b17 	ldw	r2,44(r2)
    3770:	10800524 	muli	r2,r2,20
    3774:	1007883a 	mov	r3,r2
    3778:	00820234 	movhi	r2,2056
    377c:	10bd8104 	addi	r2,r2,-2556
    3780:	1889883a 	add	r4,r3,r2
    3784:	e0bffd17 	ldw	r2,-12(fp)
    3788:	11400104 	addi	r5,r2,4
    378c:	000149c0 	call	149c <vListInsertEnd>
    3790:	e0bffd17 	ldw	r2,-12(fp)
    3794:	10c00b17 	ldw	r3,44(r2)
    3798:	d0a02217 	ldw	r2,-32632(gp)
    379c:	10800b17 	ldw	r2,44(r2)
    37a0:	10c0052e 	bgeu	r2,r3,37b8 <xTaskRemoveFromUnorderedEventList+0xb4>
    37a4:	00800044 	movi	r2,1
    37a8:	e0bffc15 	stw	r2,-16(fp)
    37ac:	00800044 	movi	r2,1
    37b0:	d0a02915 	stw	r2,-32604(gp)
    37b4:	00000106 	br	37bc <xTaskRemoveFromUnorderedEventList+0xb8>
    37b8:	e03ffc15 	stw	zero,-16(fp)
    37bc:	e0bffc17 	ldw	r2,-16(fp)
    37c0:	e037883a 	mov	sp,fp
    37c4:	dfc00117 	ldw	ra,4(sp)
    37c8:	df000017 	ldw	fp,0(sp)
    37cc:	dec00204 	addi	sp,sp,8
    37d0:	f800283a 	ret

000037d4 <vTaskSetTimeOutState>:
    37d4:	defffe04 	addi	sp,sp,-8
    37d8:	df000115 	stw	fp,4(sp)
    37dc:	df000104 	addi	fp,sp,4
    37e0:	e13fff15 	stw	r4,-4(fp)
    37e4:	d0e02a17 	ldw	r3,-32600(gp)
    37e8:	e0bfff17 	ldw	r2,-4(fp)
    37ec:	10c00015 	stw	r3,0(r2)
    37f0:	d0e02517 	ldw	r3,-32620(gp)
    37f4:	e0bfff17 	ldw	r2,-4(fp)
    37f8:	10c00115 	stw	r3,4(r2)
    37fc:	e037883a 	mov	sp,fp
    3800:	df000017 	ldw	fp,0(sp)
    3804:	dec00104 	addi	sp,sp,4
    3808:	f800283a 	ret

0000380c <xTaskCheckForTimeOut>:
    380c:	defffa04 	addi	sp,sp,-24
    3810:	dfc00515 	stw	ra,20(sp)
    3814:	df000415 	stw	fp,16(sp)
    3818:	df000404 	addi	fp,sp,16
    381c:	e13ffe15 	stw	r4,-8(fp)
    3820:	e17fff15 	stw	r5,-4(fp)
    3824:	00041140 	call	4114 <vTaskEnterCritical>
    3828:	d0a02517 	ldw	r2,-32620(gp)
    382c:	e0bffc15 	stw	r2,-16(fp)
    3830:	e0bffe17 	ldw	r2,-8(fp)
    3834:	10c00017 	ldw	r3,0(r2)
    3838:	d0a02a17 	ldw	r2,-32600(gp)
    383c:	18800726 	beq	r3,r2,385c <xTaskCheckForTimeOut+0x50>
    3840:	e0bffe17 	ldw	r2,-8(fp)
    3844:	10c00117 	ldw	r3,4(r2)
    3848:	e0bffc17 	ldw	r2,-16(fp)
    384c:	10c00336 	bltu	r2,r3,385c <xTaskCheckForTimeOut+0x50>
    3850:	00800044 	movi	r2,1
    3854:	e0bffd15 	stw	r2,-12(fp)
    3858:	00001606 	br	38b4 <xTaskCheckForTimeOut+0xa8>
    385c:	e0bffe17 	ldw	r2,-8(fp)
    3860:	10c00117 	ldw	r3,4(r2)
    3864:	e0bffc17 	ldw	r2,-16(fp)
    3868:	10c7c83a 	sub	r3,r2,r3
    386c:	e0bfff17 	ldw	r2,-4(fp)
    3870:	10800017 	ldw	r2,0(r2)
    3874:	18800d2e 	bgeu	r3,r2,38ac <xTaskCheckForTimeOut+0xa0>
    3878:	e0bfff17 	ldw	r2,-4(fp)
    387c:	11000017 	ldw	r4,0(r2)
    3880:	e0bffe17 	ldw	r2,-8(fp)
    3884:	10c00117 	ldw	r3,4(r2)
    3888:	e0bffc17 	ldw	r2,-16(fp)
    388c:	10c5c83a 	sub	r2,r2,r3
    3890:	2087c83a 	sub	r3,r4,r2
    3894:	e0bfff17 	ldw	r2,-4(fp)
    3898:	10c00015 	stw	r3,0(r2)
    389c:	e13ffe17 	ldw	r4,-8(fp)
    38a0:	00037d40 	call	37d4 <vTaskSetTimeOutState>
    38a4:	e03ffd15 	stw	zero,-12(fp)
    38a8:	00000206 	br	38b4 <xTaskCheckForTimeOut+0xa8>
    38ac:	00800044 	movi	r2,1
    38b0:	e0bffd15 	stw	r2,-12(fp)
    38b4:	00041680 	call	4168 <vTaskExitCritical>
    38b8:	e0bffd17 	ldw	r2,-12(fp)
    38bc:	e037883a 	mov	sp,fp
    38c0:	dfc00117 	ldw	ra,4(sp)
    38c4:	df000017 	ldw	fp,0(sp)
    38c8:	dec00204 	addi	sp,sp,8
    38cc:	f800283a 	ret

000038d0 <vTaskMissedYield>:
    38d0:	deffff04 	addi	sp,sp,-4
    38d4:	df000015 	stw	fp,0(sp)
    38d8:	d839883a 	mov	fp,sp
    38dc:	00800044 	movi	r2,1
    38e0:	d0a02915 	stw	r2,-32604(gp)
    38e4:	e037883a 	mov	sp,fp
    38e8:	df000017 	ldw	fp,0(sp)
    38ec:	dec00104 	addi	sp,sp,4
    38f0:	f800283a 	ret

000038f4 <prvIdleTask>:
    38f4:	defffd04 	addi	sp,sp,-12
    38f8:	dfc00215 	stw	ra,8(sp)
    38fc:	df000115 	stw	fp,4(sp)
    3900:	df000104 	addi	fp,sp,4
    3904:	e13fff15 	stw	r4,-4(fp)
    3908:	0003af40 	call	3af4 <prvCheckTasksWaitingTermination>
    390c:	003ffe06 	br	3908 <prvIdleTask+0x14>

00003910 <prvInitialiseTCBVariables>:
    3910:	defff804 	addi	sp,sp,-32
    3914:	dfc00715 	stw	ra,28(sp)
    3918:	df000615 	stw	fp,24(sp)
    391c:	df000604 	addi	fp,sp,24
    3920:	e13ffb15 	stw	r4,-20(fp)
    3924:	e17ffc15 	stw	r5,-16(fp)
    3928:	e1bffd15 	stw	r6,-12(fp)
    392c:	e1fffe15 	stw	r7,-8(fp)
    3930:	e0800217 	ldw	r2,8(fp)
    3934:	e0bfff0d 	sth	r2,-4(fp)
    3938:	e03ffa15 	stw	zero,-24(fp)
    393c:	00001506 	br	3994 <prvInitialiseTCBVariables+0x84>
    3940:	e13ffa17 	ldw	r4,-24(fp)
    3944:	e0fffa17 	ldw	r3,-24(fp)
    3948:	e0bffc17 	ldw	r2,-16(fp)
    394c:	1885883a 	add	r2,r3,r2
    3950:	10c00003 	ldbu	r3,0(r2)
    3954:	e0bffb17 	ldw	r2,-20(fp)
    3958:	2085883a 	add	r2,r4,r2
    395c:	10800d04 	addi	r2,r2,52
    3960:	10c00005 	stb	r3,0(r2)
    3964:	e0fffa17 	ldw	r3,-24(fp)
    3968:	e0bffc17 	ldw	r2,-16(fp)
    396c:	1885883a 	add	r2,r3,r2
    3970:	10800003 	ldbu	r2,0(r2)
    3974:	10803fcc 	andi	r2,r2,255
    3978:	1080201c 	xori	r2,r2,128
    397c:	10bfe004 	addi	r2,r2,-128
    3980:	1005003a 	cmpeq	r2,r2,zero
    3984:	1000061e 	bne	r2,zero,39a0 <prvInitialiseTCBVariables+0x90>
    3988:	e0bffa17 	ldw	r2,-24(fp)
    398c:	10800044 	addi	r2,r2,1
    3990:	e0bffa15 	stw	r2,-24(fp)
    3994:	e0bffa17 	ldw	r2,-24(fp)
    3998:	10800230 	cmpltui	r2,r2,8
    399c:	103fe81e 	bne	r2,zero,3940 <prvInitialiseTCBVariables+0x30>
    39a0:	e0bffb17 	ldw	r2,-20(fp)
    39a4:	10000ec5 	stb	zero,59(r2)
    39a8:	e0bffd17 	ldw	r2,-12(fp)
    39ac:	10800330 	cmpltui	r2,r2,12
    39b0:	1000021e 	bne	r2,zero,39bc <prvInitialiseTCBVariables+0xac>
    39b4:	008002c4 	movi	r2,11
    39b8:	e0bffd15 	stw	r2,-12(fp)
    39bc:	e0fffb17 	ldw	r3,-20(fp)
    39c0:	e0bffd17 	ldw	r2,-12(fp)
    39c4:	18800b15 	stw	r2,44(r3)
    39c8:	e0fffb17 	ldw	r3,-20(fp)
    39cc:	e0bffd17 	ldw	r2,-12(fp)
    39d0:	18801015 	stw	r2,64(r3)
    39d4:	e0bffb17 	ldw	r2,-20(fp)
    39d8:	10001115 	stw	zero,68(r2)
    39dc:	e0bffb17 	ldw	r2,-20(fp)
    39e0:	11000104 	addi	r4,r2,4
    39e4:	00014740 	call	1474 <vListInitialiseItem>
    39e8:	e0bffb17 	ldw	r2,-20(fp)
    39ec:	11000604 	addi	r4,r2,24
    39f0:	00014740 	call	1474 <vListInitialiseItem>
    39f4:	e0fffb17 	ldw	r3,-20(fp)
    39f8:	e0bffb17 	ldw	r2,-20(fp)
    39fc:	18800415 	stw	r2,16(r3)
    3a00:	00c00304 	movi	r3,12
    3a04:	e0bffd17 	ldw	r2,-12(fp)
    3a08:	1887c83a 	sub	r3,r3,r2
    3a0c:	e0bffb17 	ldw	r2,-20(fp)
    3a10:	10c00615 	stw	r3,24(r2)
    3a14:	e0fffb17 	ldw	r3,-20(fp)
    3a18:	e0bffb17 	ldw	r2,-20(fp)
    3a1c:	18800915 	stw	r2,36(r3)
    3a20:	e0bffb17 	ldw	r2,-20(fp)
    3a24:	10000f15 	stw	zero,60(r2)
    3a28:	e0bffb17 	ldw	r2,-20(fp)
    3a2c:	10001215 	stw	zero,72(r2)
    3a30:	e0bffb17 	ldw	r2,-20(fp)
    3a34:	10001315 	stw	zero,76(r2)
    3a38:	e037883a 	mov	sp,fp
    3a3c:	dfc00117 	ldw	ra,4(sp)
    3a40:	df000017 	ldw	fp,0(sp)
    3a44:	dec00204 	addi	sp,sp,8
    3a48:	f800283a 	ret

00003a4c <prvInitialiseTaskLists>:
    3a4c:	defffd04 	addi	sp,sp,-12
    3a50:	dfc00215 	stw	ra,8(sp)
    3a54:	df000115 	stw	fp,4(sp)
    3a58:	df000104 	addi	fp,sp,4
    3a5c:	e03fff15 	stw	zero,-4(fp)
    3a60:	00000a06 	br	3a8c <prvInitialiseTaskLists+0x40>
    3a64:	e0bfff17 	ldw	r2,-4(fp)
    3a68:	10800524 	muli	r2,r2,20
    3a6c:	1007883a 	mov	r3,r2
    3a70:	00820234 	movhi	r2,2056
    3a74:	10bd8104 	addi	r2,r2,-2556
    3a78:	1889883a 	add	r4,r3,r2
    3a7c:	00014040 	call	1404 <vListInitialise>
    3a80:	e0bfff17 	ldw	r2,-4(fp)
    3a84:	10800044 	addi	r2,r2,1
    3a88:	e0bfff15 	stw	r2,-4(fp)
    3a8c:	e0bfff17 	ldw	r2,-4(fp)
    3a90:	10800330 	cmpltui	r2,r2,12
    3a94:	103ff31e 	bne	r2,zero,3a64 <prvInitialiseTaskLists+0x18>
    3a98:	01020234 	movhi	r4,2056
    3a9c:	213dbd04 	addi	r4,r4,-2316
    3aa0:	00014040 	call	1404 <vListInitialise>
    3aa4:	01020234 	movhi	r4,2056
    3aa8:	213dc204 	addi	r4,r4,-2296
    3aac:	00014040 	call	1404 <vListInitialise>
    3ab0:	01020234 	movhi	r4,2056
    3ab4:	213dc704 	addi	r4,r4,-2276
    3ab8:	00014040 	call	1404 <vListInitialise>
    3abc:	01020234 	movhi	r4,2056
    3ac0:	213dcc04 	addi	r4,r4,-2256
    3ac4:	00014040 	call	1404 <vListInitialise>
    3ac8:	00820234 	movhi	r2,2056
    3acc:	10bdbd04 	addi	r2,r2,-2316
    3ad0:	d0a02d15 	stw	r2,-32588(gp)
    3ad4:	00820234 	movhi	r2,2056
    3ad8:	10bdc204 	addi	r2,r2,-2296
    3adc:	d0a02e15 	stw	r2,-32584(gp)
    3ae0:	e037883a 	mov	sp,fp
    3ae4:	dfc00117 	ldw	ra,4(sp)
    3ae8:	df000017 	ldw	fp,0(sp)
    3aec:	dec00204 	addi	sp,sp,8
    3af0:	f800283a 	ret

00003af4 <prvCheckTasksWaitingTermination>:
    3af4:	defffc04 	addi	sp,sp,-16
    3af8:	dfc00315 	stw	ra,12(sp)
    3afc:	df000215 	stw	fp,8(sp)
    3b00:	df000204 	addi	fp,sp,8
    3b04:	00001c06 	br	3b78 <prvCheckTasksWaitingTermination+0x84>
    3b08:	0002ff00 	call	2ff0 <vTaskSuspendAll>
    3b0c:	00820234 	movhi	r2,2056
    3b10:	10bdcc04 	addi	r2,r2,-2256
    3b14:	10800017 	ldw	r2,0(r2)
    3b18:	1005003a 	cmpeq	r2,r2,zero
    3b1c:	e0bfff15 	stw	r2,-4(fp)
    3b20:	00030180 	call	3018 <xTaskResumeAll>
    3b24:	e0bfff17 	ldw	r2,-4(fp)
    3b28:	1004c03a 	cmpne	r2,r2,zero
    3b2c:	1000121e 	bne	r2,zero,3b78 <prvCheckTasksWaitingTermination+0x84>
    3b30:	00041140 	call	4114 <vTaskEnterCritical>
    3b34:	00820234 	movhi	r2,2056
    3b38:	10bdcc04 	addi	r2,r2,-2256
    3b3c:	10800317 	ldw	r2,12(r2)
    3b40:	10800317 	ldw	r2,12(r2)
    3b44:	e0bffe15 	stw	r2,-8(fp)
    3b48:	e0bffe17 	ldw	r2,-8(fp)
    3b4c:	11000104 	addi	r4,r2,4
    3b50:	00015f80 	call	15f8 <uxListRemove>
    3b54:	d0a02417 	ldw	r2,-32624(gp)
    3b58:	10bfffc4 	addi	r2,r2,-1
    3b5c:	d0a02415 	stw	r2,-32624(gp)
    3b60:	d0a02317 	ldw	r2,-32628(gp)
    3b64:	10bfffc4 	addi	r2,r2,-1
    3b68:	d0a02315 	stw	r2,-32628(gp)
    3b6c:	00041680 	call	4168 <vTaskExitCritical>
    3b70:	e13ffe17 	ldw	r4,-8(fp)
    3b74:	0003dc00 	call	3dc0 <prvDeleteTCB>
    3b78:	d0a02317 	ldw	r2,-32628(gp)
    3b7c:	1004c03a 	cmpne	r2,r2,zero
    3b80:	103fe11e 	bne	r2,zero,3b08 <prvCheckTasksWaitingTermination+0x14>
    3b84:	e037883a 	mov	sp,fp
    3b88:	dfc00117 	ldw	ra,4(sp)
    3b8c:	df000017 	ldw	fp,0(sp)
    3b90:	dec00204 	addi	sp,sp,8
    3b94:	f800283a 	ret

00003b98 <prvAddCurrentTaskToDelayedList>:
    3b98:	defffd04 	addi	sp,sp,-12
    3b9c:	dfc00215 	stw	ra,8(sp)
    3ba0:	df000115 	stw	fp,4(sp)
    3ba4:	df000104 	addi	fp,sp,4
    3ba8:	e13fff15 	stw	r4,-4(fp)
    3bac:	d0e02217 	ldw	r3,-32632(gp)
    3bb0:	e0bfff17 	ldw	r2,-4(fp)
    3bb4:	18800115 	stw	r2,4(r3)
    3bb8:	d0e02517 	ldw	r3,-32620(gp)
    3bbc:	e0bfff17 	ldw	r2,-4(fp)
    3bc0:	10c0052e 	bgeu	r2,r3,3bd8 <prvAddCurrentTaskToDelayedList+0x40>
    3bc4:	d1202e17 	ldw	r4,-32584(gp)
    3bc8:	d0a02217 	ldw	r2,-32632(gp)
    3bcc:	11400104 	addi	r5,r2,4
    3bd0:	00015240 	call	1524 <vListInsert>
    3bd4:	00000906 	br	3bfc <prvAddCurrentTaskToDelayedList+0x64>
    3bd8:	d1202d17 	ldw	r4,-32588(gp)
    3bdc:	d0a02217 	ldw	r2,-32632(gp)
    3be0:	11400104 	addi	r5,r2,4
    3be4:	00015240 	call	1524 <vListInsert>
    3be8:	d0e00317 	ldw	r3,-32756(gp)
    3bec:	e0bfff17 	ldw	r2,-4(fp)
    3bf0:	10c0022e 	bgeu	r2,r3,3bfc <prvAddCurrentTaskToDelayedList+0x64>
    3bf4:	e0bfff17 	ldw	r2,-4(fp)
    3bf8:	d0a00315 	stw	r2,-32756(gp)
    3bfc:	e037883a 	mov	sp,fp
    3c00:	dfc00117 	ldw	ra,4(sp)
    3c04:	df000017 	ldw	fp,0(sp)
    3c08:	dec00204 	addi	sp,sp,8
    3c0c:	f800283a 	ret

00003c10 <prvAllocateTCBAndStack>:
    3c10:	defff904 	addi	sp,sp,-28
    3c14:	dfc00615 	stw	ra,24(sp)
    3c18:	df000515 	stw	fp,20(sp)
    3c1c:	df000504 	addi	fp,sp,20
    3c20:	e17ffe15 	stw	r5,-8(fp)
    3c24:	e13ffd0d 	sth	r4,-12(fp)
    3c28:	e0bffe17 	ldw	r2,-8(fp)
    3c2c:	1004c03a 	cmpne	r2,r2,zero
    3c30:	1000071e 	bne	r2,zero,3c50 <prvAllocateTCBAndStack+0x40>
    3c34:	e0bffd0b 	ldhu	r2,-12(fp)
    3c38:	1085883a 	add	r2,r2,r2
    3c3c:	1085883a 	add	r2,r2,r2
    3c40:	1009883a 	mov	r4,r2
    3c44:	0000fbc0 	call	fbc <pvPortMalloc>
    3c48:	e0bfff15 	stw	r2,-4(fp)
    3c4c:	00000206 	br	3c58 <prvAllocateTCBAndStack+0x48>
    3c50:	e0bffe17 	ldw	r2,-8(fp)
    3c54:	e0bfff15 	stw	r2,-4(fp)
    3c58:	e0bfff17 	ldw	r2,-4(fp)
    3c5c:	e0bffb15 	stw	r2,-20(fp)
    3c60:	e0bffb17 	ldw	r2,-20(fp)
    3c64:	1005003a 	cmpeq	r2,r2,zero
    3c68:	10000d1e 	bne	r2,zero,3ca0 <prvAllocateTCBAndStack+0x90>
    3c6c:	01001404 	movi	r4,80
    3c70:	0000fbc0 	call	fbc <pvPortMalloc>
    3c74:	e0bffc15 	stw	r2,-16(fp)
    3c78:	e0bffc17 	ldw	r2,-16(fp)
    3c7c:	1005003a 	cmpeq	r2,r2,zero
    3c80:	1000041e 	bne	r2,zero,3c94 <prvAllocateTCBAndStack+0x84>
    3c84:	e0fffc17 	ldw	r3,-16(fp)
    3c88:	e0bffb17 	ldw	r2,-20(fp)
    3c8c:	18800c15 	stw	r2,48(r3)
    3c90:	00000406 	br	3ca4 <prvAllocateTCBAndStack+0x94>
    3c94:	e13ffb17 	ldw	r4,-20(fp)
    3c98:	00011500 	call	1150 <vPortFree>
    3c9c:	00000106 	br	3ca4 <prvAllocateTCBAndStack+0x94>
    3ca0:	e03ffc15 	stw	zero,-16(fp)
    3ca4:	e0bffc17 	ldw	r2,-16(fp)
    3ca8:	1005003a 	cmpeq	r2,r2,zero
    3cac:	1000081e 	bne	r2,zero,3cd0 <prvAllocateTCBAndStack+0xc0>
    3cb0:	e0bffc17 	ldw	r2,-16(fp)
    3cb4:	11000c17 	ldw	r4,48(r2)
    3cb8:	e0bffd0b 	ldhu	r2,-12(fp)
    3cbc:	1085883a 	add	r2,r2,r2
    3cc0:	1085883a 	add	r2,r2,r2
    3cc4:	100d883a 	mov	r6,r2
    3cc8:	01402944 	movi	r5,165
    3ccc:	00053280 	call	5328 <memset>
    3cd0:	e0bffc17 	ldw	r2,-16(fp)
    3cd4:	e037883a 	mov	sp,fp
    3cd8:	dfc00117 	ldw	ra,4(sp)
    3cdc:	df000017 	ldw	fp,0(sp)
    3ce0:	dec00204 	addi	sp,sp,8
    3ce4:	f800283a 	ret

00003ce8 <prvTaskCheckFreeStackSpace>:
    3ce8:	defffd04 	addi	sp,sp,-12
    3cec:	df000215 	stw	fp,8(sp)
    3cf0:	df000204 	addi	fp,sp,8
    3cf4:	e13fff15 	stw	r4,-4(fp)
    3cf8:	e03ffe15 	stw	zero,-8(fp)
    3cfc:	00000606 	br	3d18 <prvTaskCheckFreeStackSpace+0x30>
    3d00:	e0bfff17 	ldw	r2,-4(fp)
    3d04:	10800044 	addi	r2,r2,1
    3d08:	e0bfff15 	stw	r2,-4(fp)
    3d0c:	e0bffe17 	ldw	r2,-8(fp)
    3d10:	10800044 	addi	r2,r2,1
    3d14:	e0bffe15 	stw	r2,-8(fp)
    3d18:	e0bfff17 	ldw	r2,-4(fp)
    3d1c:	10800003 	ldbu	r2,0(r2)
    3d20:	10803fcc 	andi	r2,r2,255
    3d24:	10802960 	cmpeqi	r2,r2,165
    3d28:	103ff51e 	bne	r2,zero,3d00 <prvTaskCheckFreeStackSpace+0x18>
    3d2c:	e0bffe17 	ldw	r2,-8(fp)
    3d30:	1004d0ba 	srli	r2,r2,2
    3d34:	e0bffe15 	stw	r2,-8(fp)
    3d38:	e0bffe17 	ldw	r2,-8(fp)
    3d3c:	10bfffcc 	andi	r2,r2,65535
    3d40:	e037883a 	mov	sp,fp
    3d44:	df000017 	ldw	fp,0(sp)
    3d48:	dec00104 	addi	sp,sp,4
    3d4c:	f800283a 	ret

00003d50 <uxTaskGetStackHighWaterMark>:
    3d50:	defff904 	addi	sp,sp,-28
    3d54:	dfc00615 	stw	ra,24(sp)
    3d58:	df000515 	stw	fp,20(sp)
    3d5c:	df000504 	addi	fp,sp,20
    3d60:	e13ffe15 	stw	r4,-8(fp)
    3d64:	e0bffe17 	ldw	r2,-8(fp)
    3d68:	1004c03a 	cmpne	r2,r2,zero
    3d6c:	1000031e 	bne	r2,zero,3d7c <uxTaskGetStackHighWaterMark+0x2c>
    3d70:	d0a02217 	ldw	r2,-32632(gp)
    3d74:	e0bfff15 	stw	r2,-4(fp)
    3d78:	00000206 	br	3d84 <uxTaskGetStackHighWaterMark+0x34>
    3d7c:	e0bffe17 	ldw	r2,-8(fp)
    3d80:	e0bfff15 	stw	r2,-4(fp)
    3d84:	e0bfff17 	ldw	r2,-4(fp)
    3d88:	e0bffd15 	stw	r2,-12(fp)
    3d8c:	e0bffd17 	ldw	r2,-12(fp)
    3d90:	10800c17 	ldw	r2,48(r2)
    3d94:	e0bffc15 	stw	r2,-16(fp)
    3d98:	e13ffc17 	ldw	r4,-16(fp)
    3d9c:	0003ce80 	call	3ce8 <prvTaskCheckFreeStackSpace>
    3da0:	10bfffcc 	andi	r2,r2,65535
    3da4:	e0bffb15 	stw	r2,-20(fp)
    3da8:	e0bffb17 	ldw	r2,-20(fp)
    3dac:	e037883a 	mov	sp,fp
    3db0:	dfc00117 	ldw	ra,4(sp)
    3db4:	df000017 	ldw	fp,0(sp)
    3db8:	dec00204 	addi	sp,sp,8
    3dbc:	f800283a 	ret

00003dc0 <prvDeleteTCB>:
    3dc0:	defffd04 	addi	sp,sp,-12
    3dc4:	dfc00215 	stw	ra,8(sp)
    3dc8:	df000115 	stw	fp,4(sp)
    3dcc:	df000104 	addi	fp,sp,4
    3dd0:	e13fff15 	stw	r4,-4(fp)
    3dd4:	e0bfff17 	ldw	r2,-4(fp)
    3dd8:	11000c17 	ldw	r4,48(r2)
    3ddc:	00011500 	call	1150 <vPortFree>
    3de0:	e13fff17 	ldw	r4,-4(fp)
    3de4:	00011500 	call	1150 <vPortFree>
    3de8:	e037883a 	mov	sp,fp
    3dec:	dfc00117 	ldw	ra,4(sp)
    3df0:	df000017 	ldw	fp,0(sp)
    3df4:	dec00204 	addi	sp,sp,8
    3df8:	f800283a 	ret

00003dfc <prvResetNextTaskUnblockTime>:
    3dfc:	defffd04 	addi	sp,sp,-12
    3e00:	df000215 	stw	fp,8(sp)
    3e04:	df000204 	addi	fp,sp,8
    3e08:	d0a02d17 	ldw	r2,-32588(gp)
    3e0c:	10800017 	ldw	r2,0(r2)
    3e10:	1004c03a 	cmpne	r2,r2,zero
    3e14:	1000031e 	bne	r2,zero,3e24 <prvResetNextTaskUnblockTime+0x28>
    3e18:	00800044 	movi	r2,1
    3e1c:	e0bfff05 	stb	r2,-4(fp)
    3e20:	00000106 	br	3e28 <prvResetNextTaskUnblockTime+0x2c>
    3e24:	e03fff05 	stb	zero,-4(fp)
    3e28:	e0bfff03 	ldbu	r2,-4(fp)
    3e2c:	1005003a 	cmpeq	r2,r2,zero
    3e30:	1000031e 	bne	r2,zero,3e40 <prvResetNextTaskUnblockTime+0x44>
    3e34:	00bfffc4 	movi	r2,-1
    3e38:	d0a00315 	stw	r2,-32756(gp)
    3e3c:	00000706 	br	3e5c <prvResetNextTaskUnblockTime+0x60>
    3e40:	d0a02d17 	ldw	r2,-32588(gp)
    3e44:	10800317 	ldw	r2,12(r2)
    3e48:	10800317 	ldw	r2,12(r2)
    3e4c:	e0bffe15 	stw	r2,-8(fp)
    3e50:	e0bffe17 	ldw	r2,-8(fp)
    3e54:	10800117 	ldw	r2,4(r2)
    3e58:	d0a00315 	stw	r2,-32756(gp)
    3e5c:	e037883a 	mov	sp,fp
    3e60:	df000017 	ldw	fp,0(sp)
    3e64:	dec00104 	addi	sp,sp,4
    3e68:	f800283a 	ret

00003e6c <xTaskGetCurrentTaskHandle>:
    3e6c:	defffe04 	addi	sp,sp,-8
    3e70:	df000115 	stw	fp,4(sp)
    3e74:	df000104 	addi	fp,sp,4
    3e78:	d0a02217 	ldw	r2,-32632(gp)
    3e7c:	e0bfff15 	stw	r2,-4(fp)
    3e80:	e0bfff17 	ldw	r2,-4(fp)
    3e84:	e037883a 	mov	sp,fp
    3e88:	df000017 	ldw	fp,0(sp)
    3e8c:	dec00104 	addi	sp,sp,4
    3e90:	f800283a 	ret

00003e94 <xTaskGetSchedulerState>:
    3e94:	defffe04 	addi	sp,sp,-8
    3e98:	df000115 	stw	fp,4(sp)
    3e9c:	df000104 	addi	fp,sp,4
    3ea0:	d0a02717 	ldw	r2,-32612(gp)
    3ea4:	1004c03a 	cmpne	r2,r2,zero
    3ea8:	1000031e 	bne	r2,zero,3eb8 <xTaskGetSchedulerState+0x24>
    3eac:	00800044 	movi	r2,1
    3eb0:	e0bfff15 	stw	r2,-4(fp)
    3eb4:	00000706 	br	3ed4 <xTaskGetSchedulerState+0x40>
    3eb8:	d0a02c17 	ldw	r2,-32592(gp)
    3ebc:	1004c03a 	cmpne	r2,r2,zero
    3ec0:	1000031e 	bne	r2,zero,3ed0 <xTaskGetSchedulerState+0x3c>
    3ec4:	00800084 	movi	r2,2
    3ec8:	e0bfff15 	stw	r2,-4(fp)
    3ecc:	00000106 	br	3ed4 <xTaskGetSchedulerState+0x40>
    3ed0:	e03fff15 	stw	zero,-4(fp)
    3ed4:	e0bfff17 	ldw	r2,-4(fp)
    3ed8:	e037883a 	mov	sp,fp
    3edc:	df000017 	ldw	fp,0(sp)
    3ee0:	dec00104 	addi	sp,sp,4
    3ee4:	f800283a 	ret

00003ee8 <vTaskPriorityInherit>:
    3ee8:	defffb04 	addi	sp,sp,-20
    3eec:	dfc00415 	stw	ra,16(sp)
    3ef0:	df000315 	stw	fp,12(sp)
    3ef4:	df000304 	addi	fp,sp,12
    3ef8:	e13ffe15 	stw	r4,-8(fp)
    3efc:	e0bffe17 	ldw	r2,-8(fp)
    3f00:	e0bffd15 	stw	r2,-12(fp)
    3f04:	e0bffe17 	ldw	r2,-8(fp)
    3f08:	1005003a 	cmpeq	r2,r2,zero
    3f0c:	10003d1e 	bne	r2,zero,4004 <vTaskPriorityInherit+0x11c>
    3f10:	e0bffd17 	ldw	r2,-12(fp)
    3f14:	10c00b17 	ldw	r3,44(r2)
    3f18:	d0a02217 	ldw	r2,-32632(gp)
    3f1c:	10800b17 	ldw	r2,44(r2)
    3f20:	1880382e 	bgeu	r3,r2,4004 <vTaskPriorityInherit+0x11c>
    3f24:	e0bffd17 	ldw	r2,-12(fp)
    3f28:	10800617 	ldw	r2,24(r2)
    3f2c:	1004803a 	cmplt	r2,r2,zero
    3f30:	1000061e 	bne	r2,zero,3f4c <vTaskPriorityInherit+0x64>
    3f34:	d0a02217 	ldw	r2,-32632(gp)
    3f38:	10c00b17 	ldw	r3,44(r2)
    3f3c:	00800304 	movi	r2,12
    3f40:	10c7c83a 	sub	r3,r2,r3
    3f44:	e0bffd17 	ldw	r2,-12(fp)
    3f48:	10c00615 	stw	r3,24(r2)
    3f4c:	e0bffd17 	ldw	r2,-12(fp)
    3f50:	11000517 	ldw	r4,20(r2)
    3f54:	e0bffd17 	ldw	r2,-12(fp)
    3f58:	10800b17 	ldw	r2,44(r2)
    3f5c:	10800524 	muli	r2,r2,20
    3f60:	1007883a 	mov	r3,r2
    3f64:	00820234 	movhi	r2,2056
    3f68:	10bd8104 	addi	r2,r2,-2556
    3f6c:	1885883a 	add	r2,r3,r2
    3f70:	2080031e 	bne	r4,r2,3f80 <vTaskPriorityInherit+0x98>
    3f74:	00800044 	movi	r2,1
    3f78:	e0bfff05 	stb	r2,-4(fp)
    3f7c:	00000106 	br	3f84 <vTaskPriorityInherit+0x9c>
    3f80:	e03fff05 	stb	zero,-4(fp)
    3f84:	e0bfff03 	ldbu	r2,-4(fp)
    3f88:	1005003a 	cmpeq	r2,r2,zero
    3f8c:	1000191e 	bne	r2,zero,3ff4 <vTaskPriorityInherit+0x10c>
    3f90:	e0bffd17 	ldw	r2,-12(fp)
    3f94:	11000104 	addi	r4,r2,4
    3f98:	00015f80 	call	15f8 <uxListRemove>
    3f9c:	d0a02217 	ldw	r2,-32632(gp)
    3fa0:	10c00b17 	ldw	r3,44(r2)
    3fa4:	e0bffd17 	ldw	r2,-12(fp)
    3fa8:	10c00b15 	stw	r3,44(r2)
    3fac:	e0bffd17 	ldw	r2,-12(fp)
    3fb0:	10c00b17 	ldw	r3,44(r2)
    3fb4:	d0a02617 	ldw	r2,-32616(gp)
    3fb8:	10c0032e 	bgeu	r2,r3,3fc8 <vTaskPriorityInherit+0xe0>
    3fbc:	e0bffd17 	ldw	r2,-12(fp)
    3fc0:	10800b17 	ldw	r2,44(r2)
    3fc4:	d0a02615 	stw	r2,-32616(gp)
    3fc8:	e0bffd17 	ldw	r2,-12(fp)
    3fcc:	10800b17 	ldw	r2,44(r2)
    3fd0:	10800524 	muli	r2,r2,20
    3fd4:	1007883a 	mov	r3,r2
    3fd8:	00820234 	movhi	r2,2056
    3fdc:	10bd8104 	addi	r2,r2,-2556
    3fe0:	1889883a 	add	r4,r3,r2
    3fe4:	e0bffd17 	ldw	r2,-12(fp)
    3fe8:	11400104 	addi	r5,r2,4
    3fec:	000149c0 	call	149c <vListInsertEnd>
    3ff0:	00000406 	br	4004 <vTaskPriorityInherit+0x11c>
    3ff4:	d0a02217 	ldw	r2,-32632(gp)
    3ff8:	10c00b17 	ldw	r3,44(r2)
    3ffc:	e0bffd17 	ldw	r2,-12(fp)
    4000:	10c00b15 	stw	r3,44(r2)
    4004:	e037883a 	mov	sp,fp
    4008:	dfc00117 	ldw	ra,4(sp)
    400c:	df000017 	ldw	fp,0(sp)
    4010:	dec00204 	addi	sp,sp,8
    4014:	f800283a 	ret

00004018 <xTaskPriorityDisinherit>:
    4018:	defffb04 	addi	sp,sp,-20
    401c:	dfc00415 	stw	ra,16(sp)
    4020:	df000315 	stw	fp,12(sp)
    4024:	df000304 	addi	fp,sp,12
    4028:	e13fff15 	stw	r4,-4(fp)
    402c:	e0bfff17 	ldw	r2,-4(fp)
    4030:	e0bffe15 	stw	r2,-8(fp)
    4034:	e03ffd15 	stw	zero,-12(fp)
    4038:	e0bfff17 	ldw	r2,-4(fp)
    403c:	1005003a 	cmpeq	r2,r2,zero
    4040:	10002e1e 	bne	r2,zero,40fc <xTaskPriorityDisinherit+0xe4>
    4044:	e0bffe17 	ldw	r2,-8(fp)
    4048:	10801117 	ldw	r2,68(r2)
    404c:	10ffffc4 	addi	r3,r2,-1
    4050:	e0bffe17 	ldw	r2,-8(fp)
    4054:	10c01115 	stw	r3,68(r2)
    4058:	e0bffe17 	ldw	r2,-8(fp)
    405c:	10c00b17 	ldw	r3,44(r2)
    4060:	e0bffe17 	ldw	r2,-8(fp)
    4064:	10801017 	ldw	r2,64(r2)
    4068:	18802426 	beq	r3,r2,40fc <xTaskPriorityDisinherit+0xe4>
    406c:	e0bffe17 	ldw	r2,-8(fp)
    4070:	10801117 	ldw	r2,68(r2)
    4074:	1004c03a 	cmpne	r2,r2,zero
    4078:	1000201e 	bne	r2,zero,40fc <xTaskPriorityDisinherit+0xe4>
    407c:	e0bffe17 	ldw	r2,-8(fp)
    4080:	11000104 	addi	r4,r2,4
    4084:	00015f80 	call	15f8 <uxListRemove>
    4088:	e0bffe17 	ldw	r2,-8(fp)
    408c:	10c01017 	ldw	r3,64(r2)
    4090:	e0bffe17 	ldw	r2,-8(fp)
    4094:	10c00b15 	stw	r3,44(r2)
    4098:	e0bffe17 	ldw	r2,-8(fp)
    409c:	10c00b17 	ldw	r3,44(r2)
    40a0:	00800304 	movi	r2,12
    40a4:	10c7c83a 	sub	r3,r2,r3
    40a8:	e0bffe17 	ldw	r2,-8(fp)
    40ac:	10c00615 	stw	r3,24(r2)
    40b0:	e0bffe17 	ldw	r2,-8(fp)
    40b4:	10c00b17 	ldw	r3,44(r2)
    40b8:	d0a02617 	ldw	r2,-32616(gp)
    40bc:	10c0032e 	bgeu	r2,r3,40cc <xTaskPriorityDisinherit+0xb4>
    40c0:	e0bffe17 	ldw	r2,-8(fp)
    40c4:	10800b17 	ldw	r2,44(r2)
    40c8:	d0a02615 	stw	r2,-32616(gp)
    40cc:	e0bffe17 	ldw	r2,-8(fp)
    40d0:	10800b17 	ldw	r2,44(r2)
    40d4:	10800524 	muli	r2,r2,20
    40d8:	1007883a 	mov	r3,r2
    40dc:	00820234 	movhi	r2,2056
    40e0:	10bd8104 	addi	r2,r2,-2556
    40e4:	1889883a 	add	r4,r3,r2
    40e8:	e0bffe17 	ldw	r2,-8(fp)
    40ec:	11400104 	addi	r5,r2,4
    40f0:	000149c0 	call	149c <vListInsertEnd>
    40f4:	00800044 	movi	r2,1
    40f8:	e0bffd15 	stw	r2,-12(fp)
    40fc:	e0bffd17 	ldw	r2,-12(fp)
    4100:	e037883a 	mov	sp,fp
    4104:	dfc00117 	ldw	ra,4(sp)
    4108:	df000017 	ldw	fp,0(sp)
    410c:	dec00204 	addi	sp,sp,8
    4110:	f800283a 	ret

00004114 <vTaskEnterCritical>:
    4114:	defffe04 	addi	sp,sp,-8
    4118:	df000115 	stw	fp,4(sp)
    411c:	df000104 	addi	fp,sp,4
    4120:	0005303a 	rdctl	r2,status
    4124:	e0bfff15 	stw	r2,-4(fp)
    4128:	e0ffff17 	ldw	r3,-4(fp)
    412c:	00bfff84 	movi	r2,-2
    4130:	1884703a 	and	r2,r3,r2
    4134:	1001703a 	wrctl	status,r2
    4138:	d0a02717 	ldw	r2,-32612(gp)
    413c:	1005003a 	cmpeq	r2,r2,zero
    4140:	1000051e 	bne	r2,zero,4158 <vTaskEnterCritical+0x44>
    4144:	d0e02217 	ldw	r3,-32632(gp)
    4148:	18800f17 	ldw	r2,60(r3)
    414c:	10800044 	addi	r2,r2,1
    4150:	18800f15 	stw	r2,60(r3)
    4154:	d0a02217 	ldw	r2,-32632(gp)
    4158:	e037883a 	mov	sp,fp
    415c:	df000017 	ldw	fp,0(sp)
    4160:	dec00104 	addi	sp,sp,4
    4164:	f800283a 	ret

00004168 <vTaskExitCritical>:
    4168:	defffe04 	addi	sp,sp,-8
    416c:	df000115 	stw	fp,4(sp)
    4170:	df000104 	addi	fp,sp,4
    4174:	d0a02717 	ldw	r2,-32612(gp)
    4178:	1005003a 	cmpeq	r2,r2,zero
    417c:	1000101e 	bne	r2,zero,41c0 <vTaskExitCritical+0x58>
    4180:	d0a02217 	ldw	r2,-32632(gp)
    4184:	10800f17 	ldw	r2,60(r2)
    4188:	1005003a 	cmpeq	r2,r2,zero
    418c:	10000c1e 	bne	r2,zero,41c0 <vTaskExitCritical+0x58>
    4190:	d0e02217 	ldw	r3,-32632(gp)
    4194:	18800f17 	ldw	r2,60(r3)
    4198:	10bfffc4 	addi	r2,r2,-1
    419c:	18800f15 	stw	r2,60(r3)
    41a0:	d0a02217 	ldw	r2,-32632(gp)
    41a4:	10800f17 	ldw	r2,60(r2)
    41a8:	1004c03a 	cmpne	r2,r2,zero
    41ac:	1000041e 	bne	r2,zero,41c0 <vTaskExitCritical+0x58>
    41b0:	00800044 	movi	r2,1
    41b4:	e0bfff15 	stw	r2,-4(fp)
    41b8:	e0bfff17 	ldw	r2,-4(fp)
    41bc:	1001703a 	wrctl	status,r2
    41c0:	e037883a 	mov	sp,fp
    41c4:	df000017 	ldw	fp,0(sp)
    41c8:	dec00104 	addi	sp,sp,4
    41cc:	f800283a 	ret

000041d0 <uxTaskResetEventItemValue>:
    41d0:	defffe04 	addi	sp,sp,-8
    41d4:	df000115 	stw	fp,4(sp)
    41d8:	df000104 	addi	fp,sp,4
    41dc:	d0a02217 	ldw	r2,-32632(gp)
    41e0:	10800617 	ldw	r2,24(r2)
    41e4:	e0bfff15 	stw	r2,-4(fp)
    41e8:	d1202217 	ldw	r4,-32632(gp)
    41ec:	d0a02217 	ldw	r2,-32632(gp)
    41f0:	10c00b17 	ldw	r3,44(r2)
    41f4:	00800304 	movi	r2,12
    41f8:	10c5c83a 	sub	r2,r2,r3
    41fc:	20800615 	stw	r2,24(r4)
    4200:	e0bfff17 	ldw	r2,-4(fp)
    4204:	e037883a 	mov	sp,fp
    4208:	df000017 	ldw	fp,0(sp)
    420c:	dec00104 	addi	sp,sp,4
    4210:	f800283a 	ret

00004214 <pvTaskIncrementMutexHeldCount>:
    4214:	deffff04 	addi	sp,sp,-4
    4218:	df000015 	stw	fp,0(sp)
    421c:	d839883a 	mov	fp,sp
    4220:	d0a02217 	ldw	r2,-32632(gp)
    4224:	1005003a 	cmpeq	r2,r2,zero
    4228:	1000041e 	bne	r2,zero,423c <pvTaskIncrementMutexHeldCount+0x28>
    422c:	d0a02217 	ldw	r2,-32632(gp)
    4230:	10c01117 	ldw	r3,68(r2)
    4234:	18c00044 	addi	r3,r3,1
    4238:	10c01115 	stw	r3,68(r2)
    423c:	d0a02217 	ldw	r2,-32632(gp)
    4240:	e037883a 	mov	sp,fp
    4244:	df000017 	ldw	fp,0(sp)
    4248:	dec00104 	addi	sp,sp,4
    424c:	f800283a 	ret

00004250 <ulTaskNotifyTake>:
    4250:	defffa04 	addi	sp,sp,-24
    4254:	dfc00515 	stw	ra,20(sp)
    4258:	df000415 	stw	fp,16(sp)
    425c:	df000404 	addi	fp,sp,16
    4260:	e13ffe15 	stw	r4,-8(fp)
    4264:	e17fff15 	stw	r5,-4(fp)
    4268:	00041140 	call	4114 <vTaskEnterCritical>
    426c:	d0a02217 	ldw	r2,-32632(gp)
    4270:	10801217 	ldw	r2,72(r2)
    4274:	1004c03a 	cmpne	r2,r2,zero
    4278:	1000101e 	bne	r2,zero,42bc <ulTaskNotifyTake+0x6c>
    427c:	d0e02217 	ldw	r3,-32632(gp)
    4280:	00800044 	movi	r2,1
    4284:	18801315 	stw	r2,76(r3)
    4288:	e0bfff17 	ldw	r2,-4(fp)
    428c:	1005003a 	cmpeq	r2,r2,zero
    4290:	10000a1e 	bne	r2,zero,42bc <ulTaskNotifyTake+0x6c>
    4294:	d0a02217 	ldw	r2,-32632(gp)
    4298:	11000104 	addi	r4,r2,4
    429c:	00015f80 	call	15f8 <uxListRemove>
    42a0:	d0e02517 	ldw	r3,-32620(gp)
    42a4:	e0bfff17 	ldw	r2,-4(fp)
    42a8:	1885883a 	add	r2,r3,r2
    42ac:	e0bffd15 	stw	r2,-12(fp)
    42b0:	e13ffd17 	ldw	r4,-12(fp)
    42b4:	0003b980 	call	3b98 <prvAddCurrentTaskToDelayedList>
    42b8:	003b683a 	trap	0
    42bc:	00041680 	call	4168 <vTaskExitCritical>
    42c0:	00041140 	call	4114 <vTaskEnterCritical>
    42c4:	d0a02217 	ldw	r2,-32632(gp)
    42c8:	10801217 	ldw	r2,72(r2)
    42cc:	e0bffc15 	stw	r2,-16(fp)
    42d0:	e0bffc17 	ldw	r2,-16(fp)
    42d4:	1005003a 	cmpeq	r2,r2,zero
    42d8:	10000a1e 	bne	r2,zero,4304 <ulTaskNotifyTake+0xb4>
    42dc:	e0bffe17 	ldw	r2,-8(fp)
    42e0:	1005003a 	cmpeq	r2,r2,zero
    42e4:	1000031e 	bne	r2,zero,42f4 <ulTaskNotifyTake+0xa4>
    42e8:	d0a02217 	ldw	r2,-32632(gp)
    42ec:	10001215 	stw	zero,72(r2)
    42f0:	00000406 	br	4304 <ulTaskNotifyTake+0xb4>
    42f4:	d0a02217 	ldw	r2,-32632(gp)
    42f8:	10c01217 	ldw	r3,72(r2)
    42fc:	18ffffc4 	addi	r3,r3,-1
    4300:	10c01215 	stw	r3,72(r2)
    4304:	d0a02217 	ldw	r2,-32632(gp)
    4308:	10001315 	stw	zero,76(r2)
    430c:	00041680 	call	4168 <vTaskExitCritical>
    4310:	e0bffc17 	ldw	r2,-16(fp)
    4314:	e037883a 	mov	sp,fp
    4318:	dfc00117 	ldw	ra,4(sp)
    431c:	df000017 	ldw	fp,0(sp)
    4320:	dec00204 	addi	sp,sp,8
    4324:	f800283a 	ret

00004328 <xTaskNotifyWait>:
    4328:	defff804 	addi	sp,sp,-32
    432c:	dfc00715 	stw	ra,28(sp)
    4330:	df000615 	stw	fp,24(sp)
    4334:	df000604 	addi	fp,sp,24
    4338:	e13ffc15 	stw	r4,-16(fp)
    433c:	e17ffd15 	stw	r5,-12(fp)
    4340:	e1bffe15 	stw	r6,-8(fp)
    4344:	e1ffff15 	stw	r7,-4(fp)
    4348:	00041140 	call	4114 <vTaskEnterCritical>
    434c:	d0a02217 	ldw	r2,-32632(gp)
    4350:	10801317 	ldw	r2,76(r2)
    4354:	108000a0 	cmpeqi	r2,r2,2
    4358:	1000161e 	bne	r2,zero,43b4 <xTaskNotifyWait+0x8c>
    435c:	d0e02217 	ldw	r3,-32632(gp)
    4360:	19001217 	ldw	r4,72(r3)
    4364:	e0bffc17 	ldw	r2,-16(fp)
    4368:	0084303a 	nor	r2,zero,r2
    436c:	2084703a 	and	r2,r4,r2
    4370:	18801215 	stw	r2,72(r3)
    4374:	d0e02217 	ldw	r3,-32632(gp)
    4378:	00800044 	movi	r2,1
    437c:	18801315 	stw	r2,76(r3)
    4380:	e0bfff17 	ldw	r2,-4(fp)
    4384:	1005003a 	cmpeq	r2,r2,zero
    4388:	10000a1e 	bne	r2,zero,43b4 <xTaskNotifyWait+0x8c>
    438c:	d0a02217 	ldw	r2,-32632(gp)
    4390:	11000104 	addi	r4,r2,4
    4394:	00015f80 	call	15f8 <uxListRemove>
    4398:	d0e02517 	ldw	r3,-32620(gp)
    439c:	e0bfff17 	ldw	r2,-4(fp)
    43a0:	1885883a 	add	r2,r3,r2
    43a4:	e0bffb15 	stw	r2,-20(fp)
    43a8:	e13ffb17 	ldw	r4,-20(fp)
    43ac:	0003b980 	call	3b98 <prvAddCurrentTaskToDelayedList>
    43b0:	003b683a 	trap	0
    43b4:	00041680 	call	4168 <vTaskExitCritical>
    43b8:	00041140 	call	4114 <vTaskEnterCritical>
    43bc:	e0bffe17 	ldw	r2,-8(fp)
    43c0:	1005003a 	cmpeq	r2,r2,zero
    43c4:	1000041e 	bne	r2,zero,43d8 <xTaskNotifyWait+0xb0>
    43c8:	d0a02217 	ldw	r2,-32632(gp)
    43cc:	10c01217 	ldw	r3,72(r2)
    43d0:	e0bffe17 	ldw	r2,-8(fp)
    43d4:	10c00015 	stw	r3,0(r2)
    43d8:	d0a02217 	ldw	r2,-32632(gp)
    43dc:	10801317 	ldw	r2,76(r2)
    43e0:	10800058 	cmpnei	r2,r2,1
    43e4:	1000021e 	bne	r2,zero,43f0 <xTaskNotifyWait+0xc8>
    43e8:	e03ffa15 	stw	zero,-24(fp)
    43ec:	00000806 	br	4410 <xTaskNotifyWait+0xe8>
    43f0:	d0e02217 	ldw	r3,-32632(gp)
    43f4:	19001217 	ldw	r4,72(r3)
    43f8:	e0bffd17 	ldw	r2,-12(fp)
    43fc:	0084303a 	nor	r2,zero,r2
    4400:	2084703a 	and	r2,r4,r2
    4404:	18801215 	stw	r2,72(r3)
    4408:	00800044 	movi	r2,1
    440c:	e0bffa15 	stw	r2,-24(fp)
    4410:	d0a02217 	ldw	r2,-32632(gp)
    4414:	10001315 	stw	zero,76(r2)
    4418:	00041680 	call	4168 <vTaskExitCritical>
    441c:	e0bffa17 	ldw	r2,-24(fp)
    4420:	e037883a 	mov	sp,fp
    4424:	dfc00117 	ldw	ra,4(sp)
    4428:	df000017 	ldw	fp,0(sp)
    442c:	dec00204 	addi	sp,sp,8
    4430:	f800283a 	ret

00004434 <xTaskNotify>:
    4434:	defff704 	addi	sp,sp,-36
    4438:	dfc00815 	stw	ra,32(sp)
    443c:	df000715 	stw	fp,28(sp)
    4440:	df000704 	addi	fp,sp,28
    4444:	e13ffc15 	stw	r4,-16(fp)
    4448:	e17ffd15 	stw	r5,-12(fp)
    444c:	e1bffe15 	stw	r6,-8(fp)
    4450:	00800044 	movi	r2,1
    4454:	e0bff915 	stw	r2,-28(fp)
    4458:	e0bffc17 	ldw	r2,-16(fp)
    445c:	e0bffb15 	stw	r2,-20(fp)
    4460:	00041140 	call	4114 <vTaskEnterCritical>
    4464:	e0bffb17 	ldw	r2,-20(fp)
    4468:	10801317 	ldw	r2,76(r2)
    446c:	e0bffa15 	stw	r2,-24(fp)
    4470:	e0fffb17 	ldw	r3,-20(fp)
    4474:	00800084 	movi	r2,2
    4478:	18801315 	stw	r2,76(r3)
    447c:	e0bffe17 	ldw	r2,-8(fp)
    4480:	e0bfff15 	stw	r2,-4(fp)
    4484:	e0ffff17 	ldw	r3,-4(fp)
    4488:	188000a0 	cmpeqi	r2,r3,2
    448c:	1000151e 	bne	r2,zero,44e4 <xTaskNotify+0xb0>
    4490:	e0ffff17 	ldw	r3,-4(fp)
    4494:	188000e8 	cmpgeui	r2,r3,3
    4498:	1000041e 	bne	r2,zero,44ac <xTaskNotify+0x78>
    449c:	e0ffff17 	ldw	r3,-4(fp)
    44a0:	18800060 	cmpeqi	r2,r3,1
    44a4:	1000081e 	bne	r2,zero,44c8 <xTaskNotify+0x94>
    44a8:	00002006 	br	452c <xTaskNotify+0xf8>
    44ac:	e0ffff17 	ldw	r3,-4(fp)
    44b0:	188000e0 	cmpeqi	r2,r3,3
    44b4:	1000111e 	bne	r2,zero,44fc <xTaskNotify+0xc8>
    44b8:	e0ffff17 	ldw	r3,-4(fp)
    44bc:	18800120 	cmpeqi	r2,r3,4
    44c0:	1000121e 	bne	r2,zero,450c <xTaskNotify+0xd8>
    44c4:	00001906 	br	452c <xTaskNotify+0xf8>
    44c8:	e0bffb17 	ldw	r2,-20(fp)
    44cc:	10c01217 	ldw	r3,72(r2)
    44d0:	e0bffd17 	ldw	r2,-12(fp)
    44d4:	1886b03a 	or	r3,r3,r2
    44d8:	e0bffb17 	ldw	r2,-20(fp)
    44dc:	10c01215 	stw	r3,72(r2)
    44e0:	00001206 	br	452c <xTaskNotify+0xf8>
    44e4:	e0bffb17 	ldw	r2,-20(fp)
    44e8:	10801217 	ldw	r2,72(r2)
    44ec:	10c00044 	addi	r3,r2,1
    44f0:	e0bffb17 	ldw	r2,-20(fp)
    44f4:	10c01215 	stw	r3,72(r2)
    44f8:	00000c06 	br	452c <xTaskNotify+0xf8>
    44fc:	e0fffb17 	ldw	r3,-20(fp)
    4500:	e0bffd17 	ldw	r2,-12(fp)
    4504:	18801215 	stw	r2,72(r3)
    4508:	00000806 	br	452c <xTaskNotify+0xf8>
    450c:	e0bffa17 	ldw	r2,-24(fp)
    4510:	108000a0 	cmpeqi	r2,r2,2
    4514:	1000041e 	bne	r2,zero,4528 <xTaskNotify+0xf4>
    4518:	e0fffb17 	ldw	r3,-20(fp)
    451c:	e0bffd17 	ldw	r2,-12(fp)
    4520:	18801215 	stw	r2,72(r3)
    4524:	00000106 	br	452c <xTaskNotify+0xf8>
    4528:	e03ff915 	stw	zero,-28(fp)
    452c:	e0bffa17 	ldw	r2,-24(fp)
    4530:	10800058 	cmpnei	r2,r2,1
    4534:	10001a1e 	bne	r2,zero,45a0 <xTaskNotify+0x16c>
    4538:	e0bffb17 	ldw	r2,-20(fp)
    453c:	11000104 	addi	r4,r2,4
    4540:	00015f80 	call	15f8 <uxListRemove>
    4544:	e0bffb17 	ldw	r2,-20(fp)
    4548:	10c00b17 	ldw	r3,44(r2)
    454c:	d0a02617 	ldw	r2,-32616(gp)
    4550:	10c0032e 	bgeu	r2,r3,4560 <xTaskNotify+0x12c>
    4554:	e0bffb17 	ldw	r2,-20(fp)
    4558:	10800b17 	ldw	r2,44(r2)
    455c:	d0a02615 	stw	r2,-32616(gp)
    4560:	e0bffb17 	ldw	r2,-20(fp)
    4564:	10800b17 	ldw	r2,44(r2)
    4568:	10800524 	muli	r2,r2,20
    456c:	1007883a 	mov	r3,r2
    4570:	00820234 	movhi	r2,2056
    4574:	10bd8104 	addi	r2,r2,-2556
    4578:	1889883a 	add	r4,r3,r2
    457c:	e0bffb17 	ldw	r2,-20(fp)
    4580:	11400104 	addi	r5,r2,4
    4584:	000149c0 	call	149c <vListInsertEnd>
    4588:	e0bffb17 	ldw	r2,-20(fp)
    458c:	10c00b17 	ldw	r3,44(r2)
    4590:	d0a02217 	ldw	r2,-32632(gp)
    4594:	10800b17 	ldw	r2,44(r2)
    4598:	10c0012e 	bgeu	r2,r3,45a0 <xTaskNotify+0x16c>
    459c:	003b683a 	trap	0
    45a0:	00041680 	call	4168 <vTaskExitCritical>
    45a4:	e0bff917 	ldw	r2,-28(fp)
    45a8:	e037883a 	mov	sp,fp
    45ac:	dfc00117 	ldw	ra,4(sp)
    45b0:	df000017 	ldw	fp,0(sp)
    45b4:	dec00204 	addi	sp,sp,8
    45b8:	f800283a 	ret

000045bc <xTaskNotifyFromISR>:
    45bc:	defff504 	addi	sp,sp,-44
    45c0:	dfc00a15 	stw	ra,40(sp)
    45c4:	df000915 	stw	fp,36(sp)
    45c8:	df000904 	addi	fp,sp,36
    45cc:	e13ffb15 	stw	r4,-20(fp)
    45d0:	e17ffc15 	stw	r5,-16(fp)
    45d4:	e1bffd15 	stw	r6,-12(fp)
    45d8:	e1fffe15 	stw	r7,-8(fp)
    45dc:	00800044 	movi	r2,1
    45e0:	e0bff815 	stw	r2,-32(fp)
    45e4:	e0bffb17 	ldw	r2,-20(fp)
    45e8:	e0bffa15 	stw	r2,-24(fp)
    45ec:	e03ff715 	stw	zero,-36(fp)
    45f0:	e0bffa17 	ldw	r2,-24(fp)
    45f4:	10801317 	ldw	r2,76(r2)
    45f8:	e0bff915 	stw	r2,-28(fp)
    45fc:	e0fffa17 	ldw	r3,-24(fp)
    4600:	00800084 	movi	r2,2
    4604:	18801315 	stw	r2,76(r3)
    4608:	e0bffd17 	ldw	r2,-12(fp)
    460c:	e0bfff15 	stw	r2,-4(fp)
    4610:	e0ffff17 	ldw	r3,-4(fp)
    4614:	188000a0 	cmpeqi	r2,r3,2
    4618:	1000151e 	bne	r2,zero,4670 <xTaskNotifyFromISR+0xb4>
    461c:	e0ffff17 	ldw	r3,-4(fp)
    4620:	188000e8 	cmpgeui	r2,r3,3
    4624:	1000041e 	bne	r2,zero,4638 <xTaskNotifyFromISR+0x7c>
    4628:	e0ffff17 	ldw	r3,-4(fp)
    462c:	18800060 	cmpeqi	r2,r3,1
    4630:	1000081e 	bne	r2,zero,4654 <xTaskNotifyFromISR+0x98>
    4634:	00002006 	br	46b8 <xTaskNotifyFromISR+0xfc>
    4638:	e0ffff17 	ldw	r3,-4(fp)
    463c:	188000e0 	cmpeqi	r2,r3,3
    4640:	1000111e 	bne	r2,zero,4688 <xTaskNotifyFromISR+0xcc>
    4644:	e0ffff17 	ldw	r3,-4(fp)
    4648:	18800120 	cmpeqi	r2,r3,4
    464c:	1000121e 	bne	r2,zero,4698 <xTaskNotifyFromISR+0xdc>
    4650:	00001906 	br	46b8 <xTaskNotifyFromISR+0xfc>
    4654:	e0bffa17 	ldw	r2,-24(fp)
    4658:	10c01217 	ldw	r3,72(r2)
    465c:	e0bffc17 	ldw	r2,-16(fp)
    4660:	1886b03a 	or	r3,r3,r2
    4664:	e0bffa17 	ldw	r2,-24(fp)
    4668:	10c01215 	stw	r3,72(r2)
    466c:	00001206 	br	46b8 <xTaskNotifyFromISR+0xfc>
    4670:	e0bffa17 	ldw	r2,-24(fp)
    4674:	10801217 	ldw	r2,72(r2)
    4678:	10c00044 	addi	r3,r2,1
    467c:	e0bffa17 	ldw	r2,-24(fp)
    4680:	10c01215 	stw	r3,72(r2)
    4684:	00000c06 	br	46b8 <xTaskNotifyFromISR+0xfc>
    4688:	e0fffa17 	ldw	r3,-24(fp)
    468c:	e0bffc17 	ldw	r2,-16(fp)
    4690:	18801215 	stw	r2,72(r3)
    4694:	00000806 	br	46b8 <xTaskNotifyFromISR+0xfc>
    4698:	e0bff917 	ldw	r2,-28(fp)
    469c:	108000a0 	cmpeqi	r2,r2,2
    46a0:	1000041e 	bne	r2,zero,46b4 <xTaskNotifyFromISR+0xf8>
    46a4:	e0fffa17 	ldw	r3,-24(fp)
    46a8:	e0bffc17 	ldw	r2,-16(fp)
    46ac:	18801215 	stw	r2,72(r3)
    46b0:	00000106 	br	46b8 <xTaskNotifyFromISR+0xfc>
    46b4:	e03ff815 	stw	zero,-32(fp)
    46b8:	e0bff917 	ldw	r2,-28(fp)
    46bc:	10800058 	cmpnei	r2,r2,1
    46c0:	1000281e 	bne	r2,zero,4764 <xTaskNotifyFromISR+0x1a8>
    46c4:	d0a02c17 	ldw	r2,-32592(gp)
    46c8:	1004c03a 	cmpne	r2,r2,zero
    46cc:	1000151e 	bne	r2,zero,4724 <xTaskNotifyFromISR+0x168>
    46d0:	e0bffa17 	ldw	r2,-24(fp)
    46d4:	11000104 	addi	r4,r2,4
    46d8:	00015f80 	call	15f8 <uxListRemove>
    46dc:	e0bffa17 	ldw	r2,-24(fp)
    46e0:	10c00b17 	ldw	r3,44(r2)
    46e4:	d0a02617 	ldw	r2,-32616(gp)
    46e8:	10c0032e 	bgeu	r2,r3,46f8 <xTaskNotifyFromISR+0x13c>
    46ec:	e0bffa17 	ldw	r2,-24(fp)
    46f0:	10800b17 	ldw	r2,44(r2)
    46f4:	d0a02615 	stw	r2,-32616(gp)
    46f8:	e0bffa17 	ldw	r2,-24(fp)
    46fc:	10800b17 	ldw	r2,44(r2)
    4700:	10800524 	muli	r2,r2,20
    4704:	1007883a 	mov	r3,r2
    4708:	00820234 	movhi	r2,2056
    470c:	10bd8104 	addi	r2,r2,-2556
    4710:	1889883a 	add	r4,r3,r2
    4714:	e0bffa17 	ldw	r2,-24(fp)
    4718:	11400104 	addi	r5,r2,4
    471c:	000149c0 	call	149c <vListInsertEnd>
    4720:	00000506 	br	4738 <xTaskNotifyFromISR+0x17c>
    4724:	e0bffa17 	ldw	r2,-24(fp)
    4728:	11400604 	addi	r5,r2,24
    472c:	01020234 	movhi	r4,2056
    4730:	213dc704 	addi	r4,r4,-2276
    4734:	000149c0 	call	149c <vListInsertEnd>
    4738:	e0bffa17 	ldw	r2,-24(fp)
    473c:	10c00b17 	ldw	r3,44(r2)
    4740:	d0a02217 	ldw	r2,-32632(gp)
    4744:	10800b17 	ldw	r2,44(r2)
    4748:	10c0062e 	bgeu	r2,r3,4764 <xTaskNotifyFromISR+0x1a8>
    474c:	e0bffe17 	ldw	r2,-8(fp)
    4750:	1005003a 	cmpeq	r2,r2,zero
    4754:	1000031e 	bne	r2,zero,4764 <xTaskNotifyFromISR+0x1a8>
    4758:	e0fffe17 	ldw	r3,-8(fp)
    475c:	00800044 	movi	r2,1
    4760:	18800015 	stw	r2,0(r3)
    4764:	e0bff817 	ldw	r2,-32(fp)
    4768:	e037883a 	mov	sp,fp
    476c:	dfc00117 	ldw	ra,4(sp)
    4770:	df000017 	ldw	fp,0(sp)
    4774:	dec00204 	addi	sp,sp,8
    4778:	f800283a 	ret

0000477c <vTaskNotifyGiveFromISR>:
    477c:	defff904 	addi	sp,sp,-28
    4780:	dfc00615 	stw	ra,24(sp)
    4784:	df000515 	stw	fp,20(sp)
    4788:	df000504 	addi	fp,sp,20
    478c:	e13ffe15 	stw	r4,-8(fp)
    4790:	e17fff15 	stw	r5,-4(fp)
    4794:	e0bffe17 	ldw	r2,-8(fp)
    4798:	e0bffd15 	stw	r2,-12(fp)
    479c:	e03ffb15 	stw	zero,-20(fp)
    47a0:	e0bffd17 	ldw	r2,-12(fp)
    47a4:	10801317 	ldw	r2,76(r2)
    47a8:	e0bffc15 	stw	r2,-16(fp)
    47ac:	e0fffd17 	ldw	r3,-12(fp)
    47b0:	00800084 	movi	r2,2
    47b4:	18801315 	stw	r2,76(r3)
    47b8:	e0bffd17 	ldw	r2,-12(fp)
    47bc:	10801217 	ldw	r2,72(r2)
    47c0:	10c00044 	addi	r3,r2,1
    47c4:	e0bffd17 	ldw	r2,-12(fp)
    47c8:	10c01215 	stw	r3,72(r2)
    47cc:	e0bffc17 	ldw	r2,-16(fp)
    47d0:	10800058 	cmpnei	r2,r2,1
    47d4:	1000281e 	bne	r2,zero,4878 <vTaskNotifyGiveFromISR+0xfc>
    47d8:	d0a02c17 	ldw	r2,-32592(gp)
    47dc:	1004c03a 	cmpne	r2,r2,zero
    47e0:	1000151e 	bne	r2,zero,4838 <vTaskNotifyGiveFromISR+0xbc>
    47e4:	e0bffd17 	ldw	r2,-12(fp)
    47e8:	11000104 	addi	r4,r2,4
    47ec:	00015f80 	call	15f8 <uxListRemove>
    47f0:	e0bffd17 	ldw	r2,-12(fp)
    47f4:	10c00b17 	ldw	r3,44(r2)
    47f8:	d0a02617 	ldw	r2,-32616(gp)
    47fc:	10c0032e 	bgeu	r2,r3,480c <vTaskNotifyGiveFromISR+0x90>
    4800:	e0bffd17 	ldw	r2,-12(fp)
    4804:	10800b17 	ldw	r2,44(r2)
    4808:	d0a02615 	stw	r2,-32616(gp)
    480c:	e0bffd17 	ldw	r2,-12(fp)
    4810:	10800b17 	ldw	r2,44(r2)
    4814:	10800524 	muli	r2,r2,20
    4818:	1007883a 	mov	r3,r2
    481c:	00820234 	movhi	r2,2056
    4820:	10bd8104 	addi	r2,r2,-2556
    4824:	1889883a 	add	r4,r3,r2
    4828:	e0bffd17 	ldw	r2,-12(fp)
    482c:	11400104 	addi	r5,r2,4
    4830:	000149c0 	call	149c <vListInsertEnd>
    4834:	00000506 	br	484c <vTaskNotifyGiveFromISR+0xd0>
    4838:	e0bffd17 	ldw	r2,-12(fp)
    483c:	11400604 	addi	r5,r2,24
    4840:	01020234 	movhi	r4,2056
    4844:	213dc704 	addi	r4,r4,-2276
    4848:	000149c0 	call	149c <vListInsertEnd>
    484c:	e0bffd17 	ldw	r2,-12(fp)
    4850:	10c00b17 	ldw	r3,44(r2)
    4854:	d0a02217 	ldw	r2,-32632(gp)
    4858:	10800b17 	ldw	r2,44(r2)
    485c:	10c0062e 	bgeu	r2,r3,4878 <vTaskNotifyGiveFromISR+0xfc>
    4860:	e0bfff17 	ldw	r2,-4(fp)
    4864:	1005003a 	cmpeq	r2,r2,zero
    4868:	1000031e 	bne	r2,zero,4878 <vTaskNotifyGiveFromISR+0xfc>
    486c:	e0ffff17 	ldw	r3,-4(fp)
    4870:	00800044 	movi	r2,1
    4874:	18800015 	stw	r2,0(r3)
    4878:	e037883a 	mov	sp,fp
    487c:	dfc00117 	ldw	ra,4(sp)
    4880:	df000017 	ldw	fp,0(sp)
    4884:	dec00204 	addi	sp,sp,8
    4888:	f800283a 	ret

0000488c <xTimerCreateTimerTask>:
    488c:	defff904 	addi	sp,sp,-28
    4890:	dfc00615 	stw	ra,24(sp)
    4894:	df000515 	stw	fp,20(sp)
    4898:	df000504 	addi	fp,sp,20
    489c:	e03fff15 	stw	zero,-4(fp)
    48a0:	00050440 	call	5044 <prvCheckForValidListAndQueue>
    48a4:	d0a02f17 	ldw	r2,-32580(gp)
    48a8:	1005003a 	cmpeq	r2,r2,zero
    48ac:	10000d1e 	bne	r2,zero,48e4 <xTimerCreateTimerTask+0x58>
    48b0:	008000c4 	movi	r2,3
    48b4:	d8800015 	stw	r2,0(sp)
    48b8:	d8000115 	stw	zero,4(sp)
    48bc:	d8000215 	stw	zero,8(sp)
    48c0:	d8000315 	stw	zero,12(sp)
    48c4:	01000034 	movhi	r4,0
    48c8:	2112d404 	addi	r4,r4,19280
    48cc:	01420034 	movhi	r5,2048
    48d0:	29401404 	addi	r5,r5,80
    48d4:	01820004 	movi	r6,2048
    48d8:	000f883a 	mov	r7,zero
    48dc:	0002bf80 	call	2bf8 <xTaskGenericCreate>
    48e0:	e0bfff15 	stw	r2,-4(fp)
    48e4:	e0bfff17 	ldw	r2,-4(fp)
    48e8:	e037883a 	mov	sp,fp
    48ec:	dfc00117 	ldw	ra,4(sp)
    48f0:	df000017 	ldw	fp,0(sp)
    48f4:	dec00204 	addi	sp,sp,8
    48f8:	f800283a 	ret

000048fc <xTimerCreate>:
    48fc:	defff904 	addi	sp,sp,-28
    4900:	dfc00615 	stw	ra,24(sp)
    4904:	df000515 	stw	fp,20(sp)
    4908:	df000504 	addi	fp,sp,20
    490c:	e13ffc15 	stw	r4,-16(fp)
    4910:	e17ffd15 	stw	r5,-12(fp)
    4914:	e1bffe15 	stw	r6,-8(fp)
    4918:	e1ffff15 	stw	r7,-4(fp)
    491c:	e0bffd17 	ldw	r2,-12(fp)
    4920:	1004c03a 	cmpne	r2,r2,zero
    4924:	1000021e 	bne	r2,zero,4930 <xTimerCreate+0x34>
    4928:	e03ffb15 	stw	zero,-20(fp)
    492c:	00001906 	br	4994 <xTimerCreate+0x98>
    4930:	01000a04 	movi	r4,40
    4934:	0000fbc0 	call	fbc <pvPortMalloc>
    4938:	e0bffb15 	stw	r2,-20(fp)
    493c:	e0bffb17 	ldw	r2,-20(fp)
    4940:	1005003a 	cmpeq	r2,r2,zero
    4944:	1000131e 	bne	r2,zero,4994 <xTimerCreate+0x98>
    4948:	00050440 	call	5044 <prvCheckForValidListAndQueue>
    494c:	e0fffb17 	ldw	r3,-20(fp)
    4950:	e0bffc17 	ldw	r2,-16(fp)
    4954:	18800015 	stw	r2,0(r3)
    4958:	e0fffb17 	ldw	r3,-20(fp)
    495c:	e0bffd17 	ldw	r2,-12(fp)
    4960:	18800615 	stw	r2,24(r3)
    4964:	e0fffb17 	ldw	r3,-20(fp)
    4968:	e0bffe17 	ldw	r2,-8(fp)
    496c:	18800715 	stw	r2,28(r3)
    4970:	e0fffb17 	ldw	r3,-20(fp)
    4974:	e0bfff17 	ldw	r2,-4(fp)
    4978:	18800815 	stw	r2,32(r3)
    497c:	e0fffb17 	ldw	r3,-20(fp)
    4980:	e0800217 	ldw	r2,8(fp)
    4984:	18800915 	stw	r2,36(r3)
    4988:	e0bffb17 	ldw	r2,-20(fp)
    498c:	11000104 	addi	r4,r2,4
    4990:	00014740 	call	1474 <vListInitialiseItem>
    4994:	e0bffb17 	ldw	r2,-20(fp)
    4998:	e037883a 	mov	sp,fp
    499c:	dfc00117 	ldw	ra,4(sp)
    49a0:	df000017 	ldw	fp,0(sp)
    49a4:	dec00204 	addi	sp,sp,8
    49a8:	f800283a 	ret

000049ac <xTimerGenericCommand>:
    49ac:	defff604 	addi	sp,sp,-40
    49b0:	dfc00915 	stw	ra,36(sp)
    49b4:	df000815 	stw	fp,32(sp)
    49b8:	df000804 	addi	fp,sp,32
    49bc:	e13ffc15 	stw	r4,-16(fp)
    49c0:	e17ffd15 	stw	r5,-12(fp)
    49c4:	e1bffe15 	stw	r6,-8(fp)
    49c8:	e1ffff15 	stw	r7,-4(fp)
    49cc:	e03ff815 	stw	zero,-32(fp)
    49d0:	d0a02f17 	ldw	r2,-32580(gp)
    49d4:	1005003a 	cmpeq	r2,r2,zero
    49d8:	1000201e 	bne	r2,zero,4a5c <xTimerGenericCommand+0xb0>
    49dc:	e0bffd17 	ldw	r2,-12(fp)
    49e0:	e0bff915 	stw	r2,-28(fp)
    49e4:	e0bffe17 	ldw	r2,-8(fp)
    49e8:	e0bffa15 	stw	r2,-24(fp)
    49ec:	e0bffc17 	ldw	r2,-16(fp)
    49f0:	e0bffb15 	stw	r2,-20(fp)
    49f4:	e0bffd17 	ldw	r2,-12(fp)
    49f8:	10800188 	cmpgei	r2,r2,6
    49fc:	1000111e 	bne	r2,zero,4a44 <xTimerGenericCommand+0x98>
    4a00:	0003e940 	call	3e94 <xTaskGetSchedulerState>
    4a04:	10800098 	cmpnei	r2,r2,2
    4a08:	1000071e 	bne	r2,zero,4a28 <xTimerGenericCommand+0x7c>
    4a0c:	d1202f17 	ldw	r4,-32580(gp)
    4a10:	e17ff904 	addi	r5,fp,-28
    4a14:	e1800217 	ldw	r6,8(fp)
    4a18:	000f883a 	mov	r7,zero
    4a1c:	0001f100 	call	1f10 <xQueueGenericSend>
    4a20:	e0bff815 	stw	r2,-32(fp)
    4a24:	00000d06 	br	4a5c <xTimerGenericCommand+0xb0>
    4a28:	d1202f17 	ldw	r4,-32580(gp)
    4a2c:	e17ff904 	addi	r5,fp,-28
    4a30:	000d883a 	mov	r6,zero
    4a34:	000f883a 	mov	r7,zero
    4a38:	0001f100 	call	1f10 <xQueueGenericSend>
    4a3c:	e0bff815 	stw	r2,-32(fp)
    4a40:	00000606 	br	4a5c <xTimerGenericCommand+0xb0>
    4a44:	d1202f17 	ldw	r4,-32580(gp)
    4a48:	e17ff904 	addi	r5,fp,-28
    4a4c:	e1bfff17 	ldw	r6,-4(fp)
    4a50:	000f883a 	mov	r7,zero
    4a54:	00020c00 	call	20c0 <xQueueGenericSendFromISR>
    4a58:	e0bff815 	stw	r2,-32(fp)
    4a5c:	e0bff817 	ldw	r2,-32(fp)
    4a60:	e037883a 	mov	sp,fp
    4a64:	dfc00117 	ldw	ra,4(sp)
    4a68:	df000017 	ldw	fp,0(sp)
    4a6c:	dec00204 	addi	sp,sp,8
    4a70:	f800283a 	ret

00004a74 <pcTimerGetTimerName>:
    4a74:	defffd04 	addi	sp,sp,-12
    4a78:	df000215 	stw	fp,8(sp)
    4a7c:	df000204 	addi	fp,sp,8
    4a80:	e13fff15 	stw	r4,-4(fp)
    4a84:	e0bfff17 	ldw	r2,-4(fp)
    4a88:	e0bffe15 	stw	r2,-8(fp)
    4a8c:	e0bffe17 	ldw	r2,-8(fp)
    4a90:	10800017 	ldw	r2,0(r2)
    4a94:	e037883a 	mov	sp,fp
    4a98:	df000017 	ldw	fp,0(sp)
    4a9c:	dec00104 	addi	sp,sp,4
    4aa0:	f800283a 	ret

00004aa4 <prvProcessExpiredTimer>:
    4aa4:	defff904 	addi	sp,sp,-28
    4aa8:	dfc00615 	stw	ra,24(sp)
    4aac:	df000515 	stw	fp,20(sp)
    4ab0:	df000504 	addi	fp,sp,20
    4ab4:	e13ffe15 	stw	r4,-8(fp)
    4ab8:	e17fff15 	stw	r5,-4(fp)
    4abc:	d0a03117 	ldw	r2,-32572(gp)
    4ac0:	10800317 	ldw	r2,12(r2)
    4ac4:	10800317 	ldw	r2,12(r2)
    4ac8:	e0bffc15 	stw	r2,-16(fp)
    4acc:	e0bffc17 	ldw	r2,-16(fp)
    4ad0:	11000104 	addi	r4,r2,4
    4ad4:	00015f80 	call	15f8 <uxListRemove>
    4ad8:	e0bffc17 	ldw	r2,-16(fp)
    4adc:	10800717 	ldw	r2,28(r2)
    4ae0:	10800058 	cmpnei	r2,r2,1
    4ae4:	1000111e 	bne	r2,zero,4b2c <prvProcessExpiredTimer+0x88>
    4ae8:	e0bffc17 	ldw	r2,-16(fp)
    4aec:	10c00617 	ldw	r3,24(r2)
    4af0:	e0bffe17 	ldw	r2,-8(fp)
    4af4:	188b883a 	add	r5,r3,r2
    4af8:	e13ffc17 	ldw	r4,-16(fp)
    4afc:	e1bfff17 	ldw	r6,-4(fp)
    4b00:	e1fffe17 	ldw	r7,-8(fp)
    4b04:	0004ce80 	call	4ce8 <prvInsertTimerInActiveList>
    4b08:	10800058 	cmpnei	r2,r2,1
    4b0c:	1000071e 	bne	r2,zero,4b2c <prvProcessExpiredTimer+0x88>
    4b10:	d8000015 	stw	zero,0(sp)
    4b14:	e13ffc17 	ldw	r4,-16(fp)
    4b18:	000b883a 	mov	r5,zero
    4b1c:	e1bffe17 	ldw	r6,-8(fp)
    4b20:	000f883a 	mov	r7,zero
    4b24:	00049ac0 	call	49ac <xTimerGenericCommand>
    4b28:	e0bffd15 	stw	r2,-12(fp)
    4b2c:	e0bffc17 	ldw	r2,-16(fp)
    4b30:	10800917 	ldw	r2,36(r2)
    4b34:	e13ffc17 	ldw	r4,-16(fp)
    4b38:	103ee83a 	callr	r2
    4b3c:	e037883a 	mov	sp,fp
    4b40:	dfc00117 	ldw	ra,4(sp)
    4b44:	df000017 	ldw	fp,0(sp)
    4b48:	dec00204 	addi	sp,sp,8
    4b4c:	f800283a 	ret

00004b50 <prvTimerTask>:
    4b50:	defffb04 	addi	sp,sp,-20
    4b54:	dfc00415 	stw	ra,16(sp)
    4b58:	df000315 	stw	fp,12(sp)
    4b5c:	df000304 	addi	fp,sp,12
    4b60:	e13fff15 	stw	r4,-4(fp)
    4b64:	e13ffe04 	addi	r4,fp,-8
    4b68:	0004c240 	call	4c24 <prvGetNextExpireTime>
    4b6c:	e0bffd15 	stw	r2,-12(fp)
    4b70:	e17ffe17 	ldw	r5,-8(fp)
    4b74:	e13ffd17 	ldw	r4,-12(fp)
    4b78:	0004b840 	call	4b84 <prvProcessTimerOrBlockTask>
    4b7c:	0004db40 	call	4db4 <prvProcessReceivedCommands>
    4b80:	003ff806 	br	4b64 <prvTimerTask+0x14>

00004b84 <prvProcessTimerOrBlockTask>:
    4b84:	defffa04 	addi	sp,sp,-24
    4b88:	dfc00515 	stw	ra,20(sp)
    4b8c:	df000415 	stw	fp,16(sp)
    4b90:	df000404 	addi	fp,sp,16
    4b94:	e13ffe15 	stw	r4,-8(fp)
    4b98:	e17fff15 	stw	r5,-4(fp)
    4b9c:	0002ff00 	call	2ff0 <vTaskSuspendAll>
    4ba0:	e13ffd04 	addi	r4,fp,-12
    4ba4:	0004c840 	call	4c84 <prvSampleTimeNow>
    4ba8:	e0bffc15 	stw	r2,-16(fp)
    4bac:	e0bffd17 	ldw	r2,-12(fp)
    4bb0:	1004c03a 	cmpne	r2,r2,zero
    4bb4:	1000151e 	bne	r2,zero,4c0c <prvProcessTimerOrBlockTask+0x88>
    4bb8:	e0bfff17 	ldw	r2,-4(fp)
    4bbc:	1004c03a 	cmpne	r2,r2,zero
    4bc0:	1000081e 	bne	r2,zero,4be4 <prvProcessTimerOrBlockTask+0x60>
    4bc4:	e0fffe17 	ldw	r3,-8(fp)
    4bc8:	e0bffc17 	ldw	r2,-16(fp)
    4bcc:	10c00536 	bltu	r2,r3,4be4 <prvProcessTimerOrBlockTask+0x60>
    4bd0:	00030180 	call	3018 <xTaskResumeAll>
    4bd4:	e13ffe17 	ldw	r4,-8(fp)
    4bd8:	e17ffc17 	ldw	r5,-16(fp)
    4bdc:	0004aa40 	call	4aa4 <prvProcessExpiredTimer>
    4be0:	00000b06 	br	4c10 <prvProcessTimerOrBlockTask+0x8c>
    4be4:	d1202f17 	ldw	r4,-32580(gp)
    4be8:	e0fffe17 	ldw	r3,-8(fp)
    4bec:	e0bffc17 	ldw	r2,-16(fp)
    4bf0:	188bc83a 	sub	r5,r3,r2
    4bf4:	0002b640 	call	2b64 <vQueueWaitForMessageRestricted>
    4bf8:	00030180 	call	3018 <xTaskResumeAll>
    4bfc:	1004c03a 	cmpne	r2,r2,zero
    4c00:	1000031e 	bne	r2,zero,4c10 <prvProcessTimerOrBlockTask+0x8c>
    4c04:	003b683a 	trap	0
    4c08:	00000106 	br	4c10 <prvProcessTimerOrBlockTask+0x8c>
    4c0c:	00030180 	call	3018 <xTaskResumeAll>
    4c10:	e037883a 	mov	sp,fp
    4c14:	dfc00117 	ldw	ra,4(sp)
    4c18:	df000017 	ldw	fp,0(sp)
    4c1c:	dec00204 	addi	sp,sp,8
    4c20:	f800283a 	ret

00004c24 <prvGetNextExpireTime>:
    4c24:	defffd04 	addi	sp,sp,-12
    4c28:	df000215 	stw	fp,8(sp)
    4c2c:	df000204 	addi	fp,sp,8
    4c30:	e13fff15 	stw	r4,-4(fp)
    4c34:	d0a03117 	ldw	r2,-32572(gp)
    4c38:	10800017 	ldw	r2,0(r2)
    4c3c:	1007003a 	cmpeq	r3,r2,zero
    4c40:	e0bfff17 	ldw	r2,-4(fp)
    4c44:	10c00015 	stw	r3,0(r2)
    4c48:	e0bfff17 	ldw	r2,-4(fp)
    4c4c:	10800017 	ldw	r2,0(r2)
    4c50:	1004c03a 	cmpne	r2,r2,zero
    4c54:	1000051e 	bne	r2,zero,4c6c <prvGetNextExpireTime+0x48>
    4c58:	d0a03117 	ldw	r2,-32572(gp)
    4c5c:	10800317 	ldw	r2,12(r2)
    4c60:	10800017 	ldw	r2,0(r2)
    4c64:	e0bffe15 	stw	r2,-8(fp)
    4c68:	00000106 	br	4c70 <prvGetNextExpireTime+0x4c>
    4c6c:	e03ffe15 	stw	zero,-8(fp)
    4c70:	e0bffe17 	ldw	r2,-8(fp)
    4c74:	e037883a 	mov	sp,fp
    4c78:	df000017 	ldw	fp,0(sp)
    4c7c:	dec00104 	addi	sp,sp,4
    4c80:	f800283a 	ret

00004c84 <prvSampleTimeNow>:
    4c84:	defffc04 	addi	sp,sp,-16
    4c88:	dfc00315 	stw	ra,12(sp)
    4c8c:	df000215 	stw	fp,8(sp)
    4c90:	df000204 	addi	fp,sp,8
    4c94:	e13fff15 	stw	r4,-4(fp)
    4c98:	00031680 	call	3168 <xTaskGetTickCount>
    4c9c:	e0bffe15 	stw	r2,-8(fp)
    4ca0:	d0e03017 	ldw	r3,-32576(gp)
    4ca4:	e0bffe17 	ldw	r2,-8(fp)
    4ca8:	10c0052e 	bgeu	r2,r3,4cc0 <prvSampleTimeNow+0x3c>
    4cac:	0004f400 	call	4f40 <prvSwitchTimerLists>
    4cb0:	e0ffff17 	ldw	r3,-4(fp)
    4cb4:	00800044 	movi	r2,1
    4cb8:	18800015 	stw	r2,0(r3)
    4cbc:	00000206 	br	4cc8 <prvSampleTimeNow+0x44>
    4cc0:	e0bfff17 	ldw	r2,-4(fp)
    4cc4:	10000015 	stw	zero,0(r2)
    4cc8:	e0bffe17 	ldw	r2,-8(fp)
    4ccc:	d0a03015 	stw	r2,-32576(gp)
    4cd0:	e0bffe17 	ldw	r2,-8(fp)
    4cd4:	e037883a 	mov	sp,fp
    4cd8:	dfc00117 	ldw	ra,4(sp)
    4cdc:	df000017 	ldw	fp,0(sp)
    4ce0:	dec00204 	addi	sp,sp,8
    4ce4:	f800283a 	ret

00004ce8 <prvInsertTimerInActiveList>:
    4ce8:	defff904 	addi	sp,sp,-28
    4cec:	dfc00615 	stw	ra,24(sp)
    4cf0:	df000515 	stw	fp,20(sp)
    4cf4:	df000504 	addi	fp,sp,20
    4cf8:	e13ffc15 	stw	r4,-16(fp)
    4cfc:	e17ffd15 	stw	r5,-12(fp)
    4d00:	e1bffe15 	stw	r6,-8(fp)
    4d04:	e1ffff15 	stw	r7,-4(fp)
    4d08:	e03ffb15 	stw	zero,-20(fp)
    4d0c:	e0fffc17 	ldw	r3,-16(fp)
    4d10:	e0bffd17 	ldw	r2,-12(fp)
    4d14:	18800115 	stw	r2,4(r3)
    4d18:	e0fffc17 	ldw	r3,-16(fp)
    4d1c:	e0bffc17 	ldw	r2,-16(fp)
    4d20:	18800415 	stw	r2,16(r3)
    4d24:	e0fffd17 	ldw	r3,-12(fp)
    4d28:	e0bffe17 	ldw	r2,-8(fp)
    4d2c:	10c00e36 	bltu	r2,r3,4d68 <prvInsertTimerInActiveList+0x80>
    4d30:	e0fffe17 	ldw	r3,-8(fp)
    4d34:	e0bfff17 	ldw	r2,-4(fp)
    4d38:	1887c83a 	sub	r3,r3,r2
    4d3c:	e0bffc17 	ldw	r2,-16(fp)
    4d40:	10800617 	ldw	r2,24(r2)
    4d44:	18800336 	bltu	r3,r2,4d54 <prvInsertTimerInActiveList+0x6c>
    4d48:	00800044 	movi	r2,1
    4d4c:	e0bffb15 	stw	r2,-20(fp)
    4d50:	00001206 	br	4d9c <prvInsertTimerInActiveList+0xb4>
    4d54:	d1203217 	ldw	r4,-32568(gp)
    4d58:	e0bffc17 	ldw	r2,-16(fp)
    4d5c:	11400104 	addi	r5,r2,4
    4d60:	00015240 	call	1524 <vListInsert>
    4d64:	00000d06 	br	4d9c <prvInsertTimerInActiveList+0xb4>
    4d68:	e0fffe17 	ldw	r3,-8(fp)
    4d6c:	e0bfff17 	ldw	r2,-4(fp)
    4d70:	1880062e 	bgeu	r3,r2,4d8c <prvInsertTimerInActiveList+0xa4>
    4d74:	e0fffd17 	ldw	r3,-12(fp)
    4d78:	e0bfff17 	ldw	r2,-4(fp)
    4d7c:	18800336 	bltu	r3,r2,4d8c <prvInsertTimerInActiveList+0xa4>
    4d80:	00800044 	movi	r2,1
    4d84:	e0bffb15 	stw	r2,-20(fp)
    4d88:	00000406 	br	4d9c <prvInsertTimerInActiveList+0xb4>
    4d8c:	d1203117 	ldw	r4,-32572(gp)
    4d90:	e0bffc17 	ldw	r2,-16(fp)
    4d94:	11400104 	addi	r5,r2,4
    4d98:	00015240 	call	1524 <vListInsert>
    4d9c:	e0bffb17 	ldw	r2,-20(fp)
    4da0:	e037883a 	mov	sp,fp
    4da4:	dfc00117 	ldw	ra,4(sp)
    4da8:	df000017 	ldw	fp,0(sp)
    4dac:	dec00204 	addi	sp,sp,8
    4db0:	f800283a 	ret

00004db4 <prvProcessReceivedCommands>:
    4db4:	defff504 	addi	sp,sp,-44
    4db8:	dfc00a15 	stw	ra,40(sp)
    4dbc:	df000915 	stw	fp,36(sp)
    4dc0:	df000904 	addi	fp,sp,36
    4dc4:	00005206 	br	4f10 <prvProcessReceivedCommands+0x15c>
    4dc8:	e0bffb17 	ldw	r2,-20(fp)
    4dcc:	1004803a 	cmplt	r2,r2,zero
    4dd0:	10004f1e 	bne	r2,zero,4f10 <prvProcessReceivedCommands+0x15c>
    4dd4:	e0bffd17 	ldw	r2,-12(fp)
    4dd8:	e0bffa15 	stw	r2,-24(fp)
    4ddc:	e0bffa17 	ldw	r2,-24(fp)
    4de0:	10800517 	ldw	r2,20(r2)
    4de4:	1005003a 	cmpeq	r2,r2,zero
    4de8:	1000031e 	bne	r2,zero,4df8 <prvProcessReceivedCommands+0x44>
    4dec:	e0bffa17 	ldw	r2,-24(fp)
    4df0:	11000104 	addi	r4,r2,4
    4df4:	00015f80 	call	15f8 <uxListRemove>
    4df8:	e13ffe04 	addi	r4,fp,-8
    4dfc:	0004c840 	call	4c84 <prvSampleTimeNow>
    4e00:	e0bff815 	stw	r2,-32(fp)
    4e04:	e0bffb17 	ldw	r2,-20(fp)
    4e08:	e0bfff15 	stw	r2,-4(fp)
    4e0c:	e0ffff17 	ldw	r3,-4(fp)
    4e10:	188002a8 	cmpgeui	r2,r3,10
    4e14:	10003e1e 	bne	r2,zero,4f10 <prvProcessReceivedCommands+0x15c>
    4e18:	e13fff17 	ldw	r4,-4(fp)
    4e1c:	e13fff17 	ldw	r4,-4(fp)
    4e20:	2105883a 	add	r2,r4,r4
    4e24:	1087883a 	add	r3,r2,r2
    4e28:	00800034 	movhi	r2,0
    4e2c:	10938f04 	addi	r2,r2,20028
    4e30:	1885883a 	add	r2,r3,r2
    4e34:	10800017 	ldw	r2,0(r2)
    4e38:	1000683a 	jmp	r2
    4e3c:	00004e64 	muli	zero,zero,313
    4e40:	00004e64 	muli	zero,zero,313
    4e44:	00004e64 	muli	zero,zero,313
    4e48:	00004f10 	cmplti	zero,zero,316
    4e4c:	00004ed8 	cmpnei	zero,zero,315
    4e50:	00004f08 	cmpgei	zero,zero,316
    4e54:	00004e64 	muli	zero,zero,313
    4e58:	00004e64 	muli	zero,zero,313
    4e5c:	00004f10 	cmplti	zero,zero,316
    4e60:	00004ed8 	cmpnei	zero,zero,315
    4e64:	e0fffc17 	ldw	r3,-16(fp)
    4e68:	e0bffa17 	ldw	r2,-24(fp)
    4e6c:	10800617 	ldw	r2,24(r2)
    4e70:	188b883a 	add	r5,r3,r2
    4e74:	e1fffc17 	ldw	r7,-16(fp)
    4e78:	e13ffa17 	ldw	r4,-24(fp)
    4e7c:	e1bff817 	ldw	r6,-32(fp)
    4e80:	0004ce80 	call	4ce8 <prvInsertTimerInActiveList>
    4e84:	10800058 	cmpnei	r2,r2,1
    4e88:	1000211e 	bne	r2,zero,4f10 <prvProcessReceivedCommands+0x15c>
    4e8c:	e0bffa17 	ldw	r2,-24(fp)
    4e90:	10800917 	ldw	r2,36(r2)
    4e94:	e13ffa17 	ldw	r4,-24(fp)
    4e98:	103ee83a 	callr	r2
    4e9c:	e0bffa17 	ldw	r2,-24(fp)
    4ea0:	10800717 	ldw	r2,28(r2)
    4ea4:	10800058 	cmpnei	r2,r2,1
    4ea8:	1000191e 	bne	r2,zero,4f10 <prvProcessReceivedCommands+0x15c>
    4eac:	e0fffc17 	ldw	r3,-16(fp)
    4eb0:	e0bffa17 	ldw	r2,-24(fp)
    4eb4:	10800617 	ldw	r2,24(r2)
    4eb8:	188d883a 	add	r6,r3,r2
    4ebc:	d8000015 	stw	zero,0(sp)
    4ec0:	e13ffa17 	ldw	r4,-24(fp)
    4ec4:	000b883a 	mov	r5,zero
    4ec8:	000f883a 	mov	r7,zero
    4ecc:	00049ac0 	call	49ac <xTimerGenericCommand>
    4ed0:	e0bff915 	stw	r2,-28(fp)
    4ed4:	00000e06 	br	4f10 <prvProcessReceivedCommands+0x15c>
    4ed8:	e0fffc17 	ldw	r3,-16(fp)
    4edc:	e0bffa17 	ldw	r2,-24(fp)
    4ee0:	10c00615 	stw	r3,24(r2)
    4ee4:	e0bffa17 	ldw	r2,-24(fp)
    4ee8:	10c00617 	ldw	r3,24(r2)
    4eec:	e0bff817 	ldw	r2,-32(fp)
    4ef0:	188b883a 	add	r5,r3,r2
    4ef4:	e13ffa17 	ldw	r4,-24(fp)
    4ef8:	e1bff817 	ldw	r6,-32(fp)
    4efc:	e1fff817 	ldw	r7,-32(fp)
    4f00:	0004ce80 	call	4ce8 <prvInsertTimerInActiveList>
    4f04:	00000206 	br	4f10 <prvProcessReceivedCommands+0x15c>
    4f08:	e13ffa17 	ldw	r4,-24(fp)
    4f0c:	00011500 	call	1150 <vPortFree>
    4f10:	d1202f17 	ldw	r4,-32580(gp)
    4f14:	e17ffb04 	addi	r5,fp,-20
    4f18:	000d883a 	mov	r6,zero
    4f1c:	000f883a 	mov	r7,zero
    4f20:	00022800 	call	2280 <xQueueGenericReceive>
    4f24:	1004c03a 	cmpne	r2,r2,zero
    4f28:	103fa71e 	bne	r2,zero,4dc8 <prvProcessReceivedCommands+0x14>
    4f2c:	e037883a 	mov	sp,fp
    4f30:	dfc00117 	ldw	ra,4(sp)
    4f34:	df000017 	ldw	fp,0(sp)
    4f38:	dec00204 	addi	sp,sp,8
    4f3c:	f800283a 	ret

00004f40 <prvSwitchTimerLists>:
    4f40:	defff804 	addi	sp,sp,-32
    4f44:	dfc00715 	stw	ra,28(sp)
    4f48:	df000615 	stw	fp,24(sp)
    4f4c:	df000604 	addi	fp,sp,24
    4f50:	00002d06 	br	5008 <prvSwitchTimerLists+0xc8>
    4f54:	d0a03117 	ldw	r2,-32572(gp)
    4f58:	10800317 	ldw	r2,12(r2)
    4f5c:	10800017 	ldw	r2,0(r2)
    4f60:	e0bfff15 	stw	r2,-4(fp)
    4f64:	d0a03117 	ldw	r2,-32572(gp)
    4f68:	10800317 	ldw	r2,12(r2)
    4f6c:	10800317 	ldw	r2,12(r2)
    4f70:	e0bffc15 	stw	r2,-16(fp)
    4f74:	e0bffc17 	ldw	r2,-16(fp)
    4f78:	11000104 	addi	r4,r2,4
    4f7c:	00015f80 	call	15f8 <uxListRemove>
    4f80:	e0bffc17 	ldw	r2,-16(fp)
    4f84:	10800917 	ldw	r2,36(r2)
    4f88:	e13ffc17 	ldw	r4,-16(fp)
    4f8c:	103ee83a 	callr	r2
    4f90:	e0bffc17 	ldw	r2,-16(fp)
    4f94:	10800717 	ldw	r2,28(r2)
    4f98:	10800058 	cmpnei	r2,r2,1
    4f9c:	10001a1e 	bne	r2,zero,5008 <prvSwitchTimerLists+0xc8>
    4fa0:	e0bffc17 	ldw	r2,-16(fp)
    4fa4:	10c00617 	ldw	r3,24(r2)
    4fa8:	e0bfff17 	ldw	r2,-4(fp)
    4fac:	1885883a 	add	r2,r3,r2
    4fb0:	e0bffe15 	stw	r2,-8(fp)
    4fb4:	e0fffe17 	ldw	r3,-8(fp)
    4fb8:	e0bfff17 	ldw	r2,-4(fp)
    4fbc:	10c00b2e 	bgeu	r2,r3,4fec <prvSwitchTimerLists+0xac>
    4fc0:	e0fffc17 	ldw	r3,-16(fp)
    4fc4:	e0bffe17 	ldw	r2,-8(fp)
    4fc8:	18800115 	stw	r2,4(r3)
    4fcc:	e0fffc17 	ldw	r3,-16(fp)
    4fd0:	e0bffc17 	ldw	r2,-16(fp)
    4fd4:	18800415 	stw	r2,16(r3)
    4fd8:	d1203117 	ldw	r4,-32572(gp)
    4fdc:	e0bffc17 	ldw	r2,-16(fp)
    4fe0:	11400104 	addi	r5,r2,4
    4fe4:	00015240 	call	1524 <vListInsert>
    4fe8:	00000706 	br	5008 <prvSwitchTimerLists+0xc8>
    4fec:	d8000015 	stw	zero,0(sp)
    4ff0:	e13ffc17 	ldw	r4,-16(fp)
    4ff4:	000b883a 	mov	r5,zero
    4ff8:	e1bfff17 	ldw	r6,-4(fp)
    4ffc:	000f883a 	mov	r7,zero
    5000:	00049ac0 	call	49ac <xTimerGenericCommand>
    5004:	e0bffb15 	stw	r2,-20(fp)
    5008:	d0a03117 	ldw	r2,-32572(gp)
    500c:	10800017 	ldw	r2,0(r2)
    5010:	1004c03a 	cmpne	r2,r2,zero
    5014:	103fcf1e 	bne	r2,zero,4f54 <prvSwitchTimerLists+0x14>
    5018:	d0a03117 	ldw	r2,-32572(gp)
    501c:	e0bffd15 	stw	r2,-12(fp)
    5020:	d0a03217 	ldw	r2,-32568(gp)
    5024:	d0a03115 	stw	r2,-32572(gp)
    5028:	e0bffd17 	ldw	r2,-12(fp)
    502c:	d0a03215 	stw	r2,-32568(gp)
    5030:	e037883a 	mov	sp,fp
    5034:	dfc00117 	ldw	ra,4(sp)
    5038:	df000017 	ldw	fp,0(sp)
    503c:	dec00204 	addi	sp,sp,8
    5040:	f800283a 	ret

00005044 <prvCheckForValidListAndQueue>:
    5044:	defffe04 	addi	sp,sp,-8
    5048:	dfc00115 	stw	ra,4(sp)
    504c:	df000015 	stw	fp,0(sp)
    5050:	d839883a 	mov	fp,sp
    5054:	00041140 	call	4114 <vTaskEnterCritical>
    5058:	d0a02f17 	ldw	r2,-32580(gp)
    505c:	1004c03a 	cmpne	r2,r2,zero
    5060:	1000111e 	bne	r2,zero,50a8 <prvCheckForValidListAndQueue+0x64>
    5064:	01020234 	movhi	r4,2056
    5068:	213dd104 	addi	r4,r4,-2236
    506c:	00014040 	call	1404 <vListInitialise>
    5070:	01020234 	movhi	r4,2056
    5074:	213dd604 	addi	r4,r4,-2216
    5078:	00014040 	call	1404 <vListInitialise>
    507c:	00820234 	movhi	r2,2056
    5080:	10bdd104 	addi	r2,r2,-2236
    5084:	d0a03115 	stw	r2,-32572(gp)
    5088:	00820234 	movhi	r2,2056
    508c:	10bdd604 	addi	r2,r2,-2216
    5090:	d0a03215 	stw	r2,-32568(gp)
    5094:	01000284 	movi	r4,10
    5098:	01400304 	movi	r5,12
    509c:	000d883a 	mov	r6,zero
    50a0:	0001bd80 	call	1bd8 <xQueueGenericCreate>
    50a4:	d0a02f15 	stw	r2,-32580(gp)
    50a8:	00041680 	call	4168 <vTaskExitCritical>
    50ac:	e037883a 	mov	sp,fp
    50b0:	dfc00117 	ldw	ra,4(sp)
    50b4:	df000017 	ldw	fp,0(sp)
    50b8:	dec00204 	addi	sp,sp,8
    50bc:	f800283a 	ret

000050c0 <xTimerIsTimerActive>:
    50c0:	defffb04 	addi	sp,sp,-20
    50c4:	dfc00415 	stw	ra,16(sp)
    50c8:	df000315 	stw	fp,12(sp)
    50cc:	df000304 	addi	fp,sp,12
    50d0:	e13fff15 	stw	r4,-4(fp)
    50d4:	e0bfff17 	ldw	r2,-4(fp)
    50d8:	e0bffd15 	stw	r2,-12(fp)
    50dc:	00041140 	call	4114 <vTaskEnterCritical>
    50e0:	e0bffd17 	ldw	r2,-12(fp)
    50e4:	10800517 	ldw	r2,20(r2)
    50e8:	1004c03a 	cmpne	r2,r2,zero
    50ec:	e0bffe15 	stw	r2,-8(fp)
    50f0:	00041680 	call	4168 <vTaskExitCritical>
    50f4:	e0bffe17 	ldw	r2,-8(fp)
    50f8:	e037883a 	mov	sp,fp
    50fc:	dfc00117 	ldw	ra,4(sp)
    5100:	df000017 	ldw	fp,0(sp)
    5104:	dec00204 	addi	sp,sp,8
    5108:	f800283a 	ret

0000510c <pvTimerGetTimerID>:
    510c:	defffd04 	addi	sp,sp,-12
    5110:	df000215 	stw	fp,8(sp)
    5114:	df000204 	addi	fp,sp,8
    5118:	e13fff15 	stw	r4,-4(fp)
    511c:	e0bfff17 	ldw	r2,-4(fp)
    5120:	e0bffe15 	stw	r2,-8(fp)
    5124:	e0bffe17 	ldw	r2,-8(fp)
    5128:	10800817 	ldw	r2,32(r2)
    512c:	e037883a 	mov	sp,fp
    5130:	df000017 	ldw	fp,0(sp)
    5134:	dec00104 	addi	sp,sp,4
    5138:	f800283a 	ret

0000513c <main>:
    513c:	defffa04 	addi	sp,sp,-24
    5140:	dfc00515 	stw	ra,20(sp)
    5144:	df000415 	stw	fp,16(sp)
    5148:	df000404 	addi	fp,sp,16
    514c:	00800044 	movi	r2,1
    5150:	d8800015 	stw	r2,0(sp)
    5154:	d8000115 	stw	zero,4(sp)
    5158:	d8000215 	stw	zero,8(sp)
    515c:	d8000315 	stw	zero,12(sp)
    5160:	01000034 	movhi	r4,0
    5164:	21146f04 	addi	r4,r4,20924
    5168:	01420034 	movhi	r5,2048
    516c:	29401604 	addi	r5,r5,88
    5170:	01840004 	movi	r6,4096
    5174:	01c48d34 	movhi	r7,4660
    5178:	39d59e04 	addi	r7,r7,22136
    517c:	0002bf80 	call	2bf8 <xTaskGenericCreate>
    5180:	00800044 	movi	r2,1
    5184:	d8800015 	stw	r2,0(sp)
    5188:	d8000115 	stw	zero,4(sp)
    518c:	d8000215 	stw	zero,8(sp)
    5190:	d8000315 	stw	zero,12(sp)
    5194:	01000034 	movhi	r4,0
    5198:	21147a04 	addi	r4,r4,20968
    519c:	01420034 	movhi	r5,2048
    51a0:	29401804 	addi	r5,r5,96
    51a4:	01840004 	movi	r6,4096
    51a8:	01e1d974 	movhi	r7,34661
    51ac:	39d0c844 	addi	r7,r7,17185
    51b0:	0002bf80 	call	2bf8 <xTaskGenericCreate>
    51b4:	0002f100 	call	2f10 <vTaskStartScheduler>
    51b8:	003fff06 	br	51b8 <main+0x7c>

000051bc <prvFirstRegTestTask>:
    51bc:	defffd04 	addi	sp,sp,-12
    51c0:	dfc00215 	stw	ra,8(sp)
    51c4:	df000115 	stw	fp,4(sp)
    51c8:	df000104 	addi	fp,sp,4
    51cc:	e13fff15 	stw	r4,-4(fp)
    51d0:	01020034 	movhi	r4,2048
    51d4:	21001a04 	addi	r4,r4,104
    51d8:	00054d80 	call	54d8 <puts>
    51dc:	0100fa04 	movi	r4,1000
    51e0:	0002e980 	call	2e98 <vTaskDelay>
    51e4:	003ffa06 	br	51d0 <prvFirstRegTestTask+0x14>

000051e8 <prvSecondRegTestTask>:
    51e8:	defffd04 	addi	sp,sp,-12
    51ec:	dfc00215 	stw	ra,8(sp)
    51f0:	df000115 	stw	fp,4(sp)
    51f4:	df000104 	addi	fp,sp,4
    51f8:	e13fff15 	stw	r4,-4(fp)
    51fc:	01020034 	movhi	r4,2048
    5200:	21001c04 	addi	r4,r4,112
    5204:	00054d80 	call	54d8 <puts>
    5208:	0100fa04 	movi	r4,1000
    520c:	0002e980 	call	2e98 <vTaskDelay>
    5210:	003ffa06 	br	51fc <prvSecondRegTestTask+0x14>

00005214 <memcmp>:
    5214:	00c000c4 	movi	r3,3
    5218:	1980032e 	bgeu	r3,r6,5228 <memcmp+0x14>
    521c:	2144b03a 	or	r2,r4,r5
    5220:	10c4703a 	and	r2,r2,r3
    5224:	10000f26 	beq	r2,zero,5264 <memcmp+0x50>
    5228:	31ffffc4 	addi	r7,r6,-1
    522c:	3000061e 	bne	r6,zero,5248 <memcmp+0x34>
    5230:	00000a06 	br	525c <memcmp+0x48>
    5234:	39ffffc4 	addi	r7,r7,-1
    5238:	00bfffc4 	movi	r2,-1
    523c:	21000044 	addi	r4,r4,1
    5240:	29400044 	addi	r5,r5,1
    5244:	38800526 	beq	r7,r2,525c <memcmp+0x48>
    5248:	20c00003 	ldbu	r3,0(r4)
    524c:	28800003 	ldbu	r2,0(r5)
    5250:	18bff826 	beq	r3,r2,5234 <memcmp+0x20>
    5254:	1885c83a 	sub	r2,r3,r2
    5258:	f800283a 	ret
    525c:	0005883a 	mov	r2,zero
    5260:	f800283a 	ret
    5264:	180f883a 	mov	r7,r3
    5268:	20c00017 	ldw	r3,0(r4)
    526c:	28800017 	ldw	r2,0(r5)
    5270:	18bfed1e 	bne	r3,r2,5228 <memcmp+0x14>
    5274:	31bfff04 	addi	r6,r6,-4
    5278:	21000104 	addi	r4,r4,4
    527c:	29400104 	addi	r5,r5,4
    5280:	39bff936 	bltu	r7,r6,5268 <memcmp+0x54>
    5284:	003fe806 	br	5228 <memcmp+0x14>

00005288 <memcpy>:
    5288:	01c003c4 	movi	r7,15
    528c:	2007883a 	mov	r3,r4
    5290:	3980032e 	bgeu	r7,r6,52a0 <memcpy+0x18>
    5294:	2904b03a 	or	r2,r5,r4
    5298:	108000cc 	andi	r2,r2,3
    529c:	10000926 	beq	r2,zero,52c4 <memcpy+0x3c>
    52a0:	30000626 	beq	r6,zero,52bc <memcpy+0x34>
    52a4:	30cd883a 	add	r6,r6,r3
    52a8:	28800003 	ldbu	r2,0(r5)
    52ac:	29400044 	addi	r5,r5,1
    52b0:	18800005 	stb	r2,0(r3)
    52b4:	18c00044 	addi	r3,r3,1
    52b8:	30fffb1e 	bne	r6,r3,52a8 <memcpy+0x20>
    52bc:	2005883a 	mov	r2,r4
    52c0:	f800283a 	ret
    52c4:	3811883a 	mov	r8,r7
    52c8:	200f883a 	mov	r7,r4
    52cc:	28c00017 	ldw	r3,0(r5)
    52d0:	31bffc04 	addi	r6,r6,-16
    52d4:	38c00015 	stw	r3,0(r7)
    52d8:	28800117 	ldw	r2,4(r5)
    52dc:	38800115 	stw	r2,4(r7)
    52e0:	28c00217 	ldw	r3,8(r5)
    52e4:	38c00215 	stw	r3,8(r7)
    52e8:	28800317 	ldw	r2,12(r5)
    52ec:	29400404 	addi	r5,r5,16
    52f0:	38800315 	stw	r2,12(r7)
    52f4:	39c00404 	addi	r7,r7,16
    52f8:	41bff436 	bltu	r8,r6,52cc <memcpy+0x44>
    52fc:	008000c4 	movi	r2,3
    5300:	1180072e 	bgeu	r2,r6,5320 <memcpy+0x98>
    5304:	1007883a 	mov	r3,r2
    5308:	28800017 	ldw	r2,0(r5)
    530c:	31bfff04 	addi	r6,r6,-4
    5310:	29400104 	addi	r5,r5,4
    5314:	38800015 	stw	r2,0(r7)
    5318:	39c00104 	addi	r7,r7,4
    531c:	19bffa36 	bltu	r3,r6,5308 <memcpy+0x80>
    5320:	3807883a 	mov	r3,r7
    5324:	003fde06 	br	52a0 <memcpy+0x18>

00005328 <memset>:
    5328:	008000c4 	movi	r2,3
    532c:	29403fcc 	andi	r5,r5,255
    5330:	2007883a 	mov	r3,r4
    5334:	1180022e 	bgeu	r2,r6,5340 <memset+0x18>
    5338:	2084703a 	and	r2,r4,r2
    533c:	10000826 	beq	r2,zero,5360 <memset+0x38>
    5340:	30000526 	beq	r6,zero,5358 <memset+0x30>
    5344:	2805883a 	mov	r2,r5
    5348:	30cd883a 	add	r6,r6,r3
    534c:	18800005 	stb	r2,0(r3)
    5350:	18c00044 	addi	r3,r3,1
    5354:	19bffd1e 	bne	r3,r6,534c <memset+0x24>
    5358:	2005883a 	mov	r2,r4
    535c:	f800283a 	ret
    5360:	2804923a 	slli	r2,r5,8
    5364:	020003c4 	movi	r8,15
    5368:	200f883a 	mov	r7,r4
    536c:	2884b03a 	or	r2,r5,r2
    5370:	1006943a 	slli	r3,r2,16
    5374:	10c6b03a 	or	r3,r2,r3
    5378:	41800a2e 	bgeu	r8,r6,53a4 <memset+0x7c>
    537c:	4005883a 	mov	r2,r8
    5380:	31bffc04 	addi	r6,r6,-16
    5384:	38c00015 	stw	r3,0(r7)
    5388:	38c00115 	stw	r3,4(r7)
    538c:	38c00215 	stw	r3,8(r7)
    5390:	38c00315 	stw	r3,12(r7)
    5394:	39c00404 	addi	r7,r7,16
    5398:	11bff936 	bltu	r2,r6,5380 <memset+0x58>
    539c:	008000c4 	movi	r2,3
    53a0:	1180052e 	bgeu	r2,r6,53b8 <memset+0x90>
    53a4:	31bfff04 	addi	r6,r6,-4
    53a8:	008000c4 	movi	r2,3
    53ac:	38c00015 	stw	r3,0(r7)
    53b0:	39c00104 	addi	r7,r7,4
    53b4:	11bffb36 	bltu	r2,r6,53a4 <memset+0x7c>
    53b8:	3807883a 	mov	r3,r7
    53bc:	003fe006 	br	5340 <memset+0x18>

000053c0 <printf>:
    53c0:	defffb04 	addi	sp,sp,-20
    53c4:	dfc00115 	stw	ra,4(sp)
    53c8:	d9400215 	stw	r5,8(sp)
    53cc:	d9800315 	stw	r6,12(sp)
    53d0:	d9c00415 	stw	r7,16(sp)
    53d4:	00820034 	movhi	r2,2048
    53d8:	10892c04 	addi	r2,r2,9392
    53dc:	10c00017 	ldw	r3,0(r2)
    53e0:	200b883a 	mov	r5,r4
    53e4:	d8800204 	addi	r2,sp,8
    53e8:	19000217 	ldw	r4,8(r3)
    53ec:	100d883a 	mov	r6,r2
    53f0:	d8800015 	stw	r2,0(sp)
    53f4:	00074640 	call	7464 <__vfprintf_internal>
    53f8:	dfc00117 	ldw	ra,4(sp)
    53fc:	dec00504 	addi	sp,sp,20
    5400:	f800283a 	ret

00005404 <_printf_r>:
    5404:	defffc04 	addi	sp,sp,-16
    5408:	dfc00115 	stw	ra,4(sp)
    540c:	d9800215 	stw	r6,8(sp)
    5410:	d9c00315 	stw	r7,12(sp)
    5414:	280d883a 	mov	r6,r5
    5418:	21400217 	ldw	r5,8(r4)
    541c:	d8c00204 	addi	r3,sp,8
    5420:	180f883a 	mov	r7,r3
    5424:	d8c00015 	stw	r3,0(sp)
    5428:	00055b80 	call	55b8 <___vfprintf_internal_r>
    542c:	dfc00117 	ldw	ra,4(sp)
    5430:	dec00404 	addi	sp,sp,16
    5434:	f800283a 	ret

00005438 <_puts_r>:
    5438:	defff604 	addi	sp,sp,-40
    543c:	dc400715 	stw	r17,28(sp)
    5440:	2023883a 	mov	r17,r4
    5444:	2809883a 	mov	r4,r5
    5448:	dfc00915 	stw	ra,36(sp)
    544c:	dcc00815 	stw	r19,32(sp)
    5450:	2827883a 	mov	r19,r5
    5454:	00054ec0 	call	54ec <strlen>
    5458:	89400217 	ldw	r5,8(r17)
    545c:	00c20034 	movhi	r3,2048
    5460:	18c01e04 	addi	r3,r3,120
    5464:	01c00044 	movi	r7,1
    5468:	12000044 	addi	r8,r2,1
    546c:	d8c00515 	stw	r3,20(sp)
    5470:	d9c00615 	stw	r7,24(sp)
    5474:	d8c00304 	addi	r3,sp,12
    5478:	01c00084 	movi	r7,2
    547c:	8809883a 	mov	r4,r17
    5480:	d80d883a 	mov	r6,sp
    5484:	d8c00015 	stw	r3,0(sp)
    5488:	dcc00315 	stw	r19,12(sp)
    548c:	da000215 	stw	r8,8(sp)
    5490:	d9c00115 	stw	r7,4(sp)
    5494:	d8800415 	stw	r2,16(sp)
    5498:	00096c00 	call	96c0 <__sfvwrite_r>
    549c:	00ffffc4 	movi	r3,-1
    54a0:	10000626 	beq	r2,zero,54bc <_puts_r+0x84>
    54a4:	1805883a 	mov	r2,r3
    54a8:	dfc00917 	ldw	ra,36(sp)
    54ac:	dcc00817 	ldw	r19,32(sp)
    54b0:	dc400717 	ldw	r17,28(sp)
    54b4:	dec00a04 	addi	sp,sp,40
    54b8:	f800283a 	ret
    54bc:	00c00284 	movi	r3,10
    54c0:	1805883a 	mov	r2,r3
    54c4:	dfc00917 	ldw	ra,36(sp)
    54c8:	dcc00817 	ldw	r19,32(sp)
    54cc:	dc400717 	ldw	r17,28(sp)
    54d0:	dec00a04 	addi	sp,sp,40
    54d4:	f800283a 	ret

000054d8 <puts>:
    54d8:	00820034 	movhi	r2,2048
    54dc:	10892c04 	addi	r2,r2,9392
    54e0:	200b883a 	mov	r5,r4
    54e4:	11000017 	ldw	r4,0(r2)
    54e8:	00054381 	jmpi	5438 <_puts_r>

000054ec <strlen>:
    54ec:	208000cc 	andi	r2,r4,3
    54f0:	2011883a 	mov	r8,r4
    54f4:	1000161e 	bne	r2,zero,5550 <strlen+0x64>
    54f8:	20c00017 	ldw	r3,0(r4)
    54fc:	017fbff4 	movhi	r5,65279
    5500:	297fbfc4 	addi	r5,r5,-257
    5504:	01e02074 	movhi	r7,32897
    5508:	39e02004 	addi	r7,r7,-32640
    550c:	1945883a 	add	r2,r3,r5
    5510:	11c4703a 	and	r2,r2,r7
    5514:	00c6303a 	nor	r3,zero,r3
    5518:	1886703a 	and	r3,r3,r2
    551c:	18000c1e 	bne	r3,zero,5550 <strlen+0x64>
    5520:	280d883a 	mov	r6,r5
    5524:	380b883a 	mov	r5,r7
    5528:	21000104 	addi	r4,r4,4
    552c:	20800017 	ldw	r2,0(r4)
    5530:	1187883a 	add	r3,r2,r6
    5534:	1946703a 	and	r3,r3,r5
    5538:	0084303a 	nor	r2,zero,r2
    553c:	10c4703a 	and	r2,r2,r3
    5540:	103ff926 	beq	r2,zero,5528 <strlen+0x3c>
    5544:	20800007 	ldb	r2,0(r4)
    5548:	10000326 	beq	r2,zero,5558 <strlen+0x6c>
    554c:	21000044 	addi	r4,r4,1
    5550:	20800007 	ldb	r2,0(r4)
    5554:	103ffd1e 	bne	r2,zero,554c <strlen+0x60>
    5558:	2205c83a 	sub	r2,r4,r8
    555c:	f800283a 	ret

00005560 <__sprint_r>:
    5560:	30800217 	ldw	r2,8(r6)
    5564:	defffe04 	addi	sp,sp,-8
    5568:	dc000015 	stw	r16,0(sp)
    556c:	dfc00115 	stw	ra,4(sp)
    5570:	3021883a 	mov	r16,r6
    5574:	0007883a 	mov	r3,zero
    5578:	1000061e 	bne	r2,zero,5594 <__sprint_r+0x34>
    557c:	1805883a 	mov	r2,r3
    5580:	30000115 	stw	zero,4(r6)
    5584:	dfc00117 	ldw	ra,4(sp)
    5588:	dc000017 	ldw	r16,0(sp)
    558c:	dec00204 	addi	sp,sp,8
    5590:	f800283a 	ret
    5594:	00096c00 	call	96c0 <__sfvwrite_r>
    5598:	1007883a 	mov	r3,r2
    559c:	1805883a 	mov	r2,r3
    55a0:	80000115 	stw	zero,4(r16)
    55a4:	80000215 	stw	zero,8(r16)
    55a8:	dfc00117 	ldw	ra,4(sp)
    55ac:	dc000017 	ldw	r16,0(sp)
    55b0:	dec00204 	addi	sp,sp,8
    55b4:	f800283a 	ret

000055b8 <___vfprintf_internal_r>:
    55b8:	defea304 	addi	sp,sp,-1396
    55bc:	dd815915 	stw	r22,1380(sp)
    55c0:	dc015315 	stw	r16,1356(sp)
    55c4:	d9c15215 	stw	r7,1352(sp)
    55c8:	dfc15c15 	stw	ra,1392(sp)
    55cc:	df015b15 	stw	fp,1388(sp)
    55d0:	ddc15a15 	stw	r23,1384(sp)
    55d4:	dd415815 	stw	r21,1376(sp)
    55d8:	dd015715 	stw	r20,1372(sp)
    55dc:	dcc15615 	stw	r19,1368(sp)
    55e0:	dc815515 	stw	r18,1364(sp)
    55e4:	dc415415 	stw	r17,1360(sp)
    55e8:	282d883a 	mov	r22,r5
    55ec:	3021883a 	mov	r16,r6
    55f0:	d9015015 	stw	r4,1344(sp)
    55f4:	0009ce40 	call	9ce4 <_localeconv_r>
    55f8:	10800017 	ldw	r2,0(r2)
    55fc:	d9c15217 	ldw	r7,1352(sp)
    5600:	d8814a15 	stw	r2,1320(sp)
    5604:	d8815017 	ldw	r2,1344(sp)
    5608:	10000226 	beq	r2,zero,5614 <___vfprintf_internal_r+0x5c>
    560c:	10800e17 	ldw	r2,56(r2)
    5610:	10020d26 	beq	r2,zero,5e48 <___vfprintf_internal_r+0x890>
    5614:	b080030b 	ldhu	r2,12(r22)
    5618:	1080020c 	andi	r2,r2,8
    561c:	10020e26 	beq	r2,zero,5e58 <___vfprintf_internal_r+0x8a0>
    5620:	b0800417 	ldw	r2,16(r22)
    5624:	10020c26 	beq	r2,zero,5e58 <___vfprintf_internal_r+0x8a0>
    5628:	b200030b 	ldhu	r8,12(r22)
    562c:	00800284 	movi	r2,10
    5630:	40c0068c 	andi	r3,r8,26
    5634:	18802f1e 	bne	r3,r2,56f4 <___vfprintf_internal_r+0x13c>
    5638:	b080038f 	ldh	r2,14(r22)
    563c:	10002d16 	blt	r2,zero,56f4 <___vfprintf_internal_r+0x13c>
    5640:	b240038b 	ldhu	r9,14(r22)
    5644:	b2800717 	ldw	r10,28(r22)
    5648:	b2c00917 	ldw	r11,36(r22)
    564c:	d9015017 	ldw	r4,1344(sp)
    5650:	dc402a04 	addi	r17,sp,168
    5654:	d8804104 	addi	r2,sp,260
    5658:	00c10004 	movi	r3,1024
    565c:	423fff4c 	andi	r8,r8,65533
    5660:	800d883a 	mov	r6,r16
    5664:	880b883a 	mov	r5,r17
    5668:	da002d0d 	sth	r8,180(sp)
    566c:	da402d8d 	sth	r9,182(sp)
    5670:	da803115 	stw	r10,196(sp)
    5674:	dac03315 	stw	r11,204(sp)
    5678:	d8802e15 	stw	r2,184(sp)
    567c:	d8c02f15 	stw	r3,188(sp)
    5680:	d8802a15 	stw	r2,168(sp)
    5684:	d8c02c15 	stw	r3,176(sp)
    5688:	d8003015 	stw	zero,192(sp)
    568c:	00055b80 	call	55b8 <___vfprintf_internal_r>
    5690:	d8814c15 	stw	r2,1328(sp)
    5694:	10000416 	blt	r2,zero,56a8 <___vfprintf_internal_r+0xf0>
    5698:	d9015017 	ldw	r4,1344(sp)
    569c:	880b883a 	mov	r5,r17
    56a0:	0008d900 	call	8d90 <_fflush_r>
    56a4:	1002321e 	bne	r2,zero,5f70 <___vfprintf_internal_r+0x9b8>
    56a8:	d8802d0b 	ldhu	r2,180(sp)
    56ac:	1080100c 	andi	r2,r2,64
    56b0:	10000326 	beq	r2,zero,56c0 <___vfprintf_internal_r+0x108>
    56b4:	b080030b 	ldhu	r2,12(r22)
    56b8:	10801014 	ori	r2,r2,64
    56bc:	b080030d 	sth	r2,12(r22)
    56c0:	d8814c17 	ldw	r2,1328(sp)
    56c4:	dfc15c17 	ldw	ra,1392(sp)
    56c8:	df015b17 	ldw	fp,1388(sp)
    56cc:	ddc15a17 	ldw	r23,1384(sp)
    56d0:	dd815917 	ldw	r22,1380(sp)
    56d4:	dd415817 	ldw	r21,1376(sp)
    56d8:	dd015717 	ldw	r20,1372(sp)
    56dc:	dcc15617 	ldw	r19,1368(sp)
    56e0:	dc815517 	ldw	r18,1364(sp)
    56e4:	dc415417 	ldw	r17,1360(sp)
    56e8:	dc015317 	ldw	r16,1356(sp)
    56ec:	dec15d04 	addi	sp,sp,1396
    56f0:	f800283a 	ret
    56f4:	0005883a 	mov	r2,zero
    56f8:	0007883a 	mov	r3,zero
    56fc:	dd401a04 	addi	r21,sp,104
    5700:	d8814315 	stw	r2,1292(sp)
    5704:	802f883a 	mov	r23,r16
    5708:	d8c14415 	stw	r3,1296(sp)
    570c:	d8014c15 	stw	zero,1328(sp)
    5710:	d8014915 	stw	zero,1316(sp)
    5714:	d8014515 	stw	zero,1300(sp)
    5718:	d8014815 	stw	zero,1312(sp)
    571c:	dd400d15 	stw	r21,52(sp)
    5720:	d8000f15 	stw	zero,60(sp)
    5724:	d8000e15 	stw	zero,56(sp)
    5728:	b8800007 	ldb	r2,0(r23)
    572c:	10001926 	beq	r2,zero,5794 <___vfprintf_internal_r+0x1dc>
    5730:	00c00944 	movi	r3,37
    5734:	10c01726 	beq	r2,r3,5794 <___vfprintf_internal_r+0x1dc>
    5738:	b821883a 	mov	r16,r23
    573c:	00000106 	br	5744 <___vfprintf_internal_r+0x18c>
    5740:	10c00326 	beq	r2,r3,5750 <___vfprintf_internal_r+0x198>
    5744:	84000044 	addi	r16,r16,1
    5748:	80800007 	ldb	r2,0(r16)
    574c:	103ffc1e 	bne	r2,zero,5740 <___vfprintf_internal_r+0x188>
    5750:	85e7c83a 	sub	r19,r16,r23
    5754:	98000e26 	beq	r19,zero,5790 <___vfprintf_internal_r+0x1d8>
    5758:	dc800f17 	ldw	r18,60(sp)
    575c:	dc400e17 	ldw	r17,56(sp)
    5760:	008001c4 	movi	r2,7
    5764:	94e5883a 	add	r18,r18,r19
    5768:	8c400044 	addi	r17,r17,1
    576c:	adc00015 	stw	r23,0(r21)
    5770:	dc800f15 	stw	r18,60(sp)
    5774:	acc00115 	stw	r19,4(r21)
    5778:	dc400e15 	stw	r17,56(sp)
    577c:	14428b16 	blt	r2,r17,61ac <___vfprintf_internal_r+0xbf4>
    5780:	ad400204 	addi	r21,r21,8
    5784:	d9014c17 	ldw	r4,1328(sp)
    5788:	24c9883a 	add	r4,r4,r19
    578c:	d9014c15 	stw	r4,1328(sp)
    5790:	802f883a 	mov	r23,r16
    5794:	b8800007 	ldb	r2,0(r23)
    5798:	10013c26 	beq	r2,zero,5c8c <___vfprintf_internal_r+0x6d4>
    579c:	bdc00044 	addi	r23,r23,1
    57a0:	d8000405 	stb	zero,16(sp)
    57a4:	b8c00007 	ldb	r3,0(r23)
    57a8:	04ffffc4 	movi	r19,-1
    57ac:	d8014d15 	stw	zero,1332(sp)
    57b0:	d8014b15 	stw	zero,1324(sp)
    57b4:	d8c14e15 	stw	r3,1336(sp)
    57b8:	bdc00044 	addi	r23,r23,1
    57bc:	d9414e17 	ldw	r5,1336(sp)
    57c0:	00801604 	movi	r2,88
    57c4:	28fff804 	addi	r3,r5,-32
    57c8:	10c06036 	bltu	r2,r3,594c <___vfprintf_internal_r+0x394>
    57cc:	18c5883a 	add	r2,r3,r3
    57d0:	1085883a 	add	r2,r2,r2
    57d4:	00c00034 	movhi	r3,0
    57d8:	18d5fa04 	addi	r3,r3,22504
    57dc:	10c5883a 	add	r2,r2,r3
    57e0:	11000017 	ldw	r4,0(r2)
    57e4:	2000683a 	jmp	r4
    57e8:	0000675c 	xori	zero,zero,413
    57ec:	0000594c 	andi	zero,zero,357
    57f0:	0000594c 	andi	zero,zero,357
    57f4:	00006748 	cmpgei	zero,zero,413
    57f8:	0000594c 	andi	zero,zero,357
    57fc:	0000594c 	andi	zero,zero,357
    5800:	0000594c 	andi	zero,zero,357
    5804:	0000594c 	andi	zero,zero,357
    5808:	0000594c 	andi	zero,zero,357
    580c:	0000594c 	andi	zero,zero,357
    5810:	00006528 	cmpgeui	zero,zero,404
    5814:	00006738 	rdprs	zero,zero,412
    5818:	0000594c 	andi	zero,zero,357
    581c:	00006540 	call	654 <prvCheckDelayedList+0x110>
    5820:	000067d4 	movui	zero,415
    5824:	0000594c 	andi	zero,zero,357
    5828:	000067c0 	call	67c <prvCheckDelayedList+0x138>
    582c:	00006788 	cmpgei	zero,zero,414
    5830:	00006788 	cmpgei	zero,zero,414
    5834:	00006788 	cmpgei	zero,zero,414
    5838:	00006788 	cmpgei	zero,zero,414
    583c:	00006788 	cmpgei	zero,zero,414
    5840:	00006788 	cmpgei	zero,zero,414
    5844:	00006788 	cmpgei	zero,zero,414
    5848:	00006788 	cmpgei	zero,zero,414
    584c:	00006788 	cmpgei	zero,zero,414
    5850:	0000594c 	andi	zero,zero,357
    5854:	0000594c 	andi	zero,zero,357
    5858:	0000594c 	andi	zero,zero,357
    585c:	0000594c 	andi	zero,zero,357
    5860:	0000594c 	andi	zero,zero,357
    5864:	0000594c 	andi	zero,zero,357
    5868:	0000594c 	andi	zero,zero,357
    586c:	0000594c 	andi	zero,zero,357
    5870:	0000594c 	andi	zero,zero,357
    5874:	0000594c 	andi	zero,zero,357
    5878:	00005fa4 	muli	zero,zero,382
    587c:	00006610 	cmplti	zero,zero,408
    5880:	0000594c 	andi	zero,zero,357
    5884:	00006610 	cmplti	zero,zero,408
    5888:	0000594c 	andi	zero,zero,357
    588c:	0000594c 	andi	zero,zero,357
    5890:	0000594c 	andi	zero,zero,357
    5894:	0000594c 	andi	zero,zero,357
    5898:	00006774 	movhi	zero,413
    589c:	0000594c 	andi	zero,zero,357
    58a0:	0000594c 	andi	zero,zero,357
    58a4:	00006058 	cmpnei	zero,zero,385
    58a8:	0000594c 	andi	zero,zero,357
    58ac:	0000594c 	andi	zero,zero,357
    58b0:	0000594c 	andi	zero,zero,357
    58b4:	0000594c 	andi	zero,zero,357
    58b8:	0000594c 	andi	zero,zero,357
    58bc:	000060a4 	muli	zero,zero,386
    58c0:	0000594c 	andi	zero,zero,357
    58c4:	0000594c 	andi	zero,zero,357
    58c8:	000066c4 	movi	zero,411
    58cc:	0000594c 	andi	zero,zero,357
    58d0:	0000594c 	andi	zero,zero,357
    58d4:	0000594c 	andi	zero,zero,357
    58d8:	0000594c 	andi	zero,zero,357
    58dc:	0000594c 	andi	zero,zero,357
    58e0:	0000594c 	andi	zero,zero,357
    58e4:	0000594c 	andi	zero,zero,357
    58e8:	0000594c 	andi	zero,zero,357
    58ec:	0000594c 	andi	zero,zero,357
    58f0:	0000594c 	andi	zero,zero,357
    58f4:	00006698 	cmpnei	zero,zero,410
    58f8:	00005fb0 	cmpltui	zero,zero,382
    58fc:	00006610 	cmplti	zero,zero,408
    5900:	00006610 	cmplti	zero,zero,408
    5904:	00006610 	cmplti	zero,zero,408
    5908:	000065fc 	xorhi	zero,zero,407
    590c:	00005fb0 	cmpltui	zero,zero,382
    5910:	0000594c 	andi	zero,zero,357
    5914:	0000594c 	andi	zero,zero,357
    5918:	00006584 	movi	zero,406
    591c:	0000594c 	andi	zero,zero,357
    5920:	00006554 	movui	zero,405
    5924:	00006064 	muli	zero,zero,385
    5928:	000065b4 	movhi	zero,406
    592c:	000065a0 	cmpeqi	zero,zero,406
    5930:	0000594c 	andi	zero,zero,357
    5934:	00006830 	cmpltui	zero,zero,416
    5938:	0000594c 	andi	zero,zero,357
    593c:	000060b0 	cmpltui	zero,zero,386
    5940:	0000594c 	andi	zero,zero,357
    5944:	0000594c 	andi	zero,zero,357
    5948:	00006728 	cmpgeui	zero,zero,412
    594c:	d9014e17 	ldw	r4,1336(sp)
    5950:	2000ce26 	beq	r4,zero,5c8c <___vfprintf_internal_r+0x6d4>
    5954:	01400044 	movi	r5,1
    5958:	d9801004 	addi	r6,sp,64
    595c:	d9c14115 	stw	r7,1284(sp)
    5960:	d9414615 	stw	r5,1304(sp)
    5964:	d9814215 	stw	r6,1288(sp)
    5968:	280f883a 	mov	r7,r5
    596c:	d9001005 	stb	r4,64(sp)
    5970:	d8000405 	stb	zero,16(sp)
    5974:	d8014715 	stw	zero,1308(sp)
    5978:	d8c14d17 	ldw	r3,1332(sp)
    597c:	1880008c 	andi	r2,r3,2
    5980:	1005003a 	cmpeq	r2,r2,zero
    5984:	d8815115 	stw	r2,1348(sp)
    5988:	1000031e 	bne	r2,zero,5998 <___vfprintf_internal_r+0x3e0>
    598c:	d9014617 	ldw	r4,1304(sp)
    5990:	21000084 	addi	r4,r4,2
    5994:	d9014615 	stw	r4,1304(sp)
    5998:	d9414d17 	ldw	r5,1332(sp)
    599c:	2940210c 	andi	r5,r5,132
    59a0:	d9414f15 	stw	r5,1340(sp)
    59a4:	28002d1e 	bne	r5,zero,5a5c <___vfprintf_internal_r+0x4a4>
    59a8:	d9814b17 	ldw	r6,1324(sp)
    59ac:	d8814617 	ldw	r2,1304(sp)
    59b0:	30a1c83a 	sub	r16,r6,r2
    59b4:	0400290e 	bge	zero,r16,5a5c <___vfprintf_internal_r+0x4a4>
    59b8:	00800404 	movi	r2,16
    59bc:	1404580e 	bge	r2,r16,6b20 <___vfprintf_internal_r+0x1568>
    59c0:	dc800f17 	ldw	r18,60(sp)
    59c4:	dc400e17 	ldw	r17,56(sp)
    59c8:	1027883a 	mov	r19,r2
    59cc:	07020034 	movhi	fp,2048
    59d0:	e7003b04 	addi	fp,fp,236
    59d4:	050001c4 	movi	r20,7
    59d8:	00000306 	br	59e8 <___vfprintf_internal_r+0x430>
    59dc:	843ffc04 	addi	r16,r16,-16
    59e0:	ad400204 	addi	r21,r21,8
    59e4:	9c00130e 	bge	r19,r16,5a34 <___vfprintf_internal_r+0x47c>
    59e8:	94800404 	addi	r18,r18,16
    59ec:	8c400044 	addi	r17,r17,1
    59f0:	af000015 	stw	fp,0(r21)
    59f4:	acc00115 	stw	r19,4(r21)
    59f8:	dc800f15 	stw	r18,60(sp)
    59fc:	dc400e15 	stw	r17,56(sp)
    5a00:	a47ff60e 	bge	r20,r17,59dc <___vfprintf_internal_r+0x424>
    5a04:	d9015017 	ldw	r4,1344(sp)
    5a08:	b00b883a 	mov	r5,r22
    5a0c:	d9800d04 	addi	r6,sp,52
    5a10:	d9c15215 	stw	r7,1352(sp)
    5a14:	00055600 	call	5560 <__sprint_r>
    5a18:	d9c15217 	ldw	r7,1352(sp)
    5a1c:	10009e1e 	bne	r2,zero,5c98 <___vfprintf_internal_r+0x6e0>
    5a20:	843ffc04 	addi	r16,r16,-16
    5a24:	dc800f17 	ldw	r18,60(sp)
    5a28:	dc400e17 	ldw	r17,56(sp)
    5a2c:	dd401a04 	addi	r21,sp,104
    5a30:	9c3fed16 	blt	r19,r16,59e8 <___vfprintf_internal_r+0x430>
    5a34:	9425883a 	add	r18,r18,r16
    5a38:	8c400044 	addi	r17,r17,1
    5a3c:	008001c4 	movi	r2,7
    5a40:	af000015 	stw	fp,0(r21)
    5a44:	ac000115 	stw	r16,4(r21)
    5a48:	dc800f15 	stw	r18,60(sp)
    5a4c:	dc400e15 	stw	r17,56(sp)
    5a50:	1441f516 	blt	r2,r17,6228 <___vfprintf_internal_r+0xc70>
    5a54:	ad400204 	addi	r21,r21,8
    5a58:	00000206 	br	5a64 <___vfprintf_internal_r+0x4ac>
    5a5c:	dc800f17 	ldw	r18,60(sp)
    5a60:	dc400e17 	ldw	r17,56(sp)
    5a64:	d8800407 	ldb	r2,16(sp)
    5a68:	10000b26 	beq	r2,zero,5a98 <___vfprintf_internal_r+0x4e0>
    5a6c:	00800044 	movi	r2,1
    5a70:	94800044 	addi	r18,r18,1
    5a74:	8c400044 	addi	r17,r17,1
    5a78:	a8800115 	stw	r2,4(r21)
    5a7c:	d8c00404 	addi	r3,sp,16
    5a80:	008001c4 	movi	r2,7
    5a84:	a8c00015 	stw	r3,0(r21)
    5a88:	dc800f15 	stw	r18,60(sp)
    5a8c:	dc400e15 	stw	r17,56(sp)
    5a90:	1441da16 	blt	r2,r17,61fc <___vfprintf_internal_r+0xc44>
    5a94:	ad400204 	addi	r21,r21,8
    5a98:	d9015117 	ldw	r4,1348(sp)
    5a9c:	20000b1e 	bne	r4,zero,5acc <___vfprintf_internal_r+0x514>
    5aa0:	d8800504 	addi	r2,sp,20
    5aa4:	94800084 	addi	r18,r18,2
    5aa8:	8c400044 	addi	r17,r17,1
    5aac:	a8800015 	stw	r2,0(r21)
    5ab0:	00c00084 	movi	r3,2
    5ab4:	008001c4 	movi	r2,7
    5ab8:	a8c00115 	stw	r3,4(r21)
    5abc:	dc800f15 	stw	r18,60(sp)
    5ac0:	dc400e15 	stw	r17,56(sp)
    5ac4:	1441c216 	blt	r2,r17,61d0 <___vfprintf_internal_r+0xc18>
    5ac8:	ad400204 	addi	r21,r21,8
    5acc:	d9414f17 	ldw	r5,1340(sp)
    5ad0:	00802004 	movi	r2,128
    5ad4:	2880b126 	beq	r5,r2,5d9c <___vfprintf_internal_r+0x7e4>
    5ad8:	d8c14717 	ldw	r3,1308(sp)
    5adc:	19e1c83a 	sub	r16,r3,r7
    5ae0:	0400260e 	bge	zero,r16,5b7c <___vfprintf_internal_r+0x5c4>
    5ae4:	00800404 	movi	r2,16
    5ae8:	1403c90e 	bge	r2,r16,6a10 <___vfprintf_internal_r+0x1458>
    5aec:	1027883a 	mov	r19,r2
    5af0:	07020034 	movhi	fp,2048
    5af4:	e7003704 	addi	fp,fp,220
    5af8:	050001c4 	movi	r20,7
    5afc:	00000306 	br	5b0c <___vfprintf_internal_r+0x554>
    5b00:	843ffc04 	addi	r16,r16,-16
    5b04:	ad400204 	addi	r21,r21,8
    5b08:	9c00130e 	bge	r19,r16,5b58 <___vfprintf_internal_r+0x5a0>
    5b0c:	94800404 	addi	r18,r18,16
    5b10:	8c400044 	addi	r17,r17,1
    5b14:	af000015 	stw	fp,0(r21)
    5b18:	acc00115 	stw	r19,4(r21)
    5b1c:	dc800f15 	stw	r18,60(sp)
    5b20:	dc400e15 	stw	r17,56(sp)
    5b24:	a47ff60e 	bge	r20,r17,5b00 <___vfprintf_internal_r+0x548>
    5b28:	d9015017 	ldw	r4,1344(sp)
    5b2c:	b00b883a 	mov	r5,r22
    5b30:	d9800d04 	addi	r6,sp,52
    5b34:	d9c15215 	stw	r7,1352(sp)
    5b38:	00055600 	call	5560 <__sprint_r>
    5b3c:	d9c15217 	ldw	r7,1352(sp)
    5b40:	1000551e 	bne	r2,zero,5c98 <___vfprintf_internal_r+0x6e0>
    5b44:	843ffc04 	addi	r16,r16,-16
    5b48:	dc800f17 	ldw	r18,60(sp)
    5b4c:	dc400e17 	ldw	r17,56(sp)
    5b50:	dd401a04 	addi	r21,sp,104
    5b54:	9c3fed16 	blt	r19,r16,5b0c <___vfprintf_internal_r+0x554>
    5b58:	9425883a 	add	r18,r18,r16
    5b5c:	8c400044 	addi	r17,r17,1
    5b60:	008001c4 	movi	r2,7
    5b64:	af000015 	stw	fp,0(r21)
    5b68:	ac000115 	stw	r16,4(r21)
    5b6c:	dc800f15 	stw	r18,60(sp)
    5b70:	dc400e15 	stw	r17,56(sp)
    5b74:	14418216 	blt	r2,r17,6180 <___vfprintf_internal_r+0xbc8>
    5b78:	ad400204 	addi	r21,r21,8
    5b7c:	d9014d17 	ldw	r4,1332(sp)
    5b80:	2080400c 	andi	r2,r4,256
    5b84:	10004a1e 	bne	r2,zero,5cb0 <___vfprintf_internal_r+0x6f8>
    5b88:	d9414217 	ldw	r5,1288(sp)
    5b8c:	91e5883a 	add	r18,r18,r7
    5b90:	8c400044 	addi	r17,r17,1
    5b94:	008001c4 	movi	r2,7
    5b98:	a9400015 	stw	r5,0(r21)
    5b9c:	a9c00115 	stw	r7,4(r21)
    5ba0:	dc800f15 	stw	r18,60(sp)
    5ba4:	dc400e15 	stw	r17,56(sp)
    5ba8:	14416716 	blt	r2,r17,6148 <___vfprintf_internal_r+0xb90>
    5bac:	a8c00204 	addi	r3,r21,8
    5bb0:	d9814d17 	ldw	r6,1332(sp)
    5bb4:	3080010c 	andi	r2,r6,4
    5bb8:	10002826 	beq	r2,zero,5c5c <___vfprintf_internal_r+0x6a4>
    5bbc:	d8814b17 	ldw	r2,1324(sp)
    5bc0:	d9014617 	ldw	r4,1304(sp)
    5bc4:	1121c83a 	sub	r16,r2,r4
    5bc8:	0400240e 	bge	zero,r16,5c5c <___vfprintf_internal_r+0x6a4>
    5bcc:	00800404 	movi	r2,16
    5bd0:	14044f0e 	bge	r2,r16,6d10 <___vfprintf_internal_r+0x1758>
    5bd4:	dc400e17 	ldw	r17,56(sp)
    5bd8:	1027883a 	mov	r19,r2
    5bdc:	07020034 	movhi	fp,2048
    5be0:	e7003b04 	addi	fp,fp,236
    5be4:	050001c4 	movi	r20,7
    5be8:	00000306 	br	5bf8 <___vfprintf_internal_r+0x640>
    5bec:	843ffc04 	addi	r16,r16,-16
    5bf0:	18c00204 	addi	r3,r3,8
    5bf4:	9c00110e 	bge	r19,r16,5c3c <___vfprintf_internal_r+0x684>
    5bf8:	94800404 	addi	r18,r18,16
    5bfc:	8c400044 	addi	r17,r17,1
    5c00:	1f000015 	stw	fp,0(r3)
    5c04:	1cc00115 	stw	r19,4(r3)
    5c08:	dc800f15 	stw	r18,60(sp)
    5c0c:	dc400e15 	stw	r17,56(sp)
    5c10:	a47ff60e 	bge	r20,r17,5bec <___vfprintf_internal_r+0x634>
    5c14:	d9015017 	ldw	r4,1344(sp)
    5c18:	b00b883a 	mov	r5,r22
    5c1c:	d9800d04 	addi	r6,sp,52
    5c20:	00055600 	call	5560 <__sprint_r>
    5c24:	10001c1e 	bne	r2,zero,5c98 <___vfprintf_internal_r+0x6e0>
    5c28:	843ffc04 	addi	r16,r16,-16
    5c2c:	dc800f17 	ldw	r18,60(sp)
    5c30:	dc400e17 	ldw	r17,56(sp)
    5c34:	d8c01a04 	addi	r3,sp,104
    5c38:	9c3fef16 	blt	r19,r16,5bf8 <___vfprintf_internal_r+0x640>
    5c3c:	9425883a 	add	r18,r18,r16
    5c40:	8c400044 	addi	r17,r17,1
    5c44:	008001c4 	movi	r2,7
    5c48:	1f000015 	stw	fp,0(r3)
    5c4c:	1c000115 	stw	r16,4(r3)
    5c50:	dc800f15 	stw	r18,60(sp)
    5c54:	dc400e15 	stw	r17,56(sp)
    5c58:	1440cb16 	blt	r2,r17,5f88 <___vfprintf_internal_r+0x9d0>
    5c5c:	d8814b17 	ldw	r2,1324(sp)
    5c60:	d9414617 	ldw	r5,1304(sp)
    5c64:	1140010e 	bge	r2,r5,5c6c <___vfprintf_internal_r+0x6b4>
    5c68:	2805883a 	mov	r2,r5
    5c6c:	d9814c17 	ldw	r6,1328(sp)
    5c70:	308d883a 	add	r6,r6,r2
    5c74:	d9814c15 	stw	r6,1328(sp)
    5c78:	90013b1e 	bne	r18,zero,6168 <___vfprintf_internal_r+0xbb0>
    5c7c:	d9c14117 	ldw	r7,1284(sp)
    5c80:	dd401a04 	addi	r21,sp,104
    5c84:	d8000e15 	stw	zero,56(sp)
    5c88:	003ea706 	br	5728 <___vfprintf_internal_r+0x170>
    5c8c:	d8800f17 	ldw	r2,60(sp)
    5c90:	10053f1e 	bne	r2,zero,7190 <___vfprintf_internal_r+0x1bd8>
    5c94:	d8000e15 	stw	zero,56(sp)
    5c98:	b080030b 	ldhu	r2,12(r22)
    5c9c:	1080100c 	andi	r2,r2,64
    5ca0:	103e8726 	beq	r2,zero,56c0 <___vfprintf_internal_r+0x108>
    5ca4:	00bfffc4 	movi	r2,-1
    5ca8:	d8814c15 	stw	r2,1328(sp)
    5cac:	003e8406 	br	56c0 <___vfprintf_internal_r+0x108>
    5cb0:	d9814e17 	ldw	r6,1336(sp)
    5cb4:	00801944 	movi	r2,101
    5cb8:	11806e16 	blt	r2,r6,5e74 <___vfprintf_internal_r+0x8bc>
    5cbc:	d9414817 	ldw	r5,1312(sp)
    5cc0:	00c00044 	movi	r3,1
    5cc4:	1943430e 	bge	r3,r5,69d4 <___vfprintf_internal_r+0x141c>
    5cc8:	d8814217 	ldw	r2,1288(sp)
    5ccc:	94800044 	addi	r18,r18,1
    5cd0:	8c400044 	addi	r17,r17,1
    5cd4:	a8800015 	stw	r2,0(r21)
    5cd8:	008001c4 	movi	r2,7
    5cdc:	a8c00115 	stw	r3,4(r21)
    5ce0:	dc800f15 	stw	r18,60(sp)
    5ce4:	dc400e15 	stw	r17,56(sp)
    5ce8:	1441ca16 	blt	r2,r17,6414 <___vfprintf_internal_r+0xe5c>
    5cec:	a8c00204 	addi	r3,r21,8
    5cf0:	d9014a17 	ldw	r4,1320(sp)
    5cf4:	00800044 	movi	r2,1
    5cf8:	94800044 	addi	r18,r18,1
    5cfc:	8c400044 	addi	r17,r17,1
    5d00:	18800115 	stw	r2,4(r3)
    5d04:	008001c4 	movi	r2,7
    5d08:	19000015 	stw	r4,0(r3)
    5d0c:	dc800f15 	stw	r18,60(sp)
    5d10:	dc400e15 	stw	r17,56(sp)
    5d14:	1441b616 	blt	r2,r17,63f0 <___vfprintf_internal_r+0xe38>
    5d18:	1cc00204 	addi	r19,r3,8
    5d1c:	d9014317 	ldw	r4,1292(sp)
    5d20:	d9414417 	ldw	r5,1296(sp)
    5d24:	000d883a 	mov	r6,zero
    5d28:	000f883a 	mov	r7,zero
    5d2c:	000dcd00 	call	dcd0 <__nedf2>
    5d30:	10017426 	beq	r2,zero,6304 <___vfprintf_internal_r+0xd4c>
    5d34:	d9414817 	ldw	r5,1312(sp)
    5d38:	d9814217 	ldw	r6,1288(sp)
    5d3c:	8c400044 	addi	r17,r17,1
    5d40:	2c85883a 	add	r2,r5,r18
    5d44:	14bfffc4 	addi	r18,r2,-1
    5d48:	28bfffc4 	addi	r2,r5,-1
    5d4c:	30c00044 	addi	r3,r6,1
    5d50:	98800115 	stw	r2,4(r19)
    5d54:	008001c4 	movi	r2,7
    5d58:	98c00015 	stw	r3,0(r19)
    5d5c:	dc800f15 	stw	r18,60(sp)
    5d60:	dc400e15 	stw	r17,56(sp)
    5d64:	14418e16 	blt	r2,r17,63a0 <___vfprintf_internal_r+0xde8>
    5d68:	9cc00204 	addi	r19,r19,8
    5d6c:	d9414917 	ldw	r5,1316(sp)
    5d70:	d8800904 	addi	r2,sp,36
    5d74:	8c400044 	addi	r17,r17,1
    5d78:	9165883a 	add	r18,r18,r5
    5d7c:	98800015 	stw	r2,0(r19)
    5d80:	008001c4 	movi	r2,7
    5d84:	99400115 	stw	r5,4(r19)
    5d88:	dc800f15 	stw	r18,60(sp)
    5d8c:	dc400e15 	stw	r17,56(sp)
    5d90:	1440ed16 	blt	r2,r17,6148 <___vfprintf_internal_r+0xb90>
    5d94:	98c00204 	addi	r3,r19,8
    5d98:	003f8506 	br	5bb0 <___vfprintf_internal_r+0x5f8>
    5d9c:	d9814b17 	ldw	r6,1324(sp)
    5da0:	d8814617 	ldw	r2,1304(sp)
    5da4:	30a1c83a 	sub	r16,r6,r2
    5da8:	043f4b0e 	bge	zero,r16,5ad8 <___vfprintf_internal_r+0x520>
    5dac:	00800404 	movi	r2,16
    5db0:	1404340e 	bge	r2,r16,6e84 <___vfprintf_internal_r+0x18cc>
    5db4:	1027883a 	mov	r19,r2
    5db8:	07020034 	movhi	fp,2048
    5dbc:	e7003704 	addi	fp,fp,220
    5dc0:	050001c4 	movi	r20,7
    5dc4:	00000306 	br	5dd4 <___vfprintf_internal_r+0x81c>
    5dc8:	843ffc04 	addi	r16,r16,-16
    5dcc:	ad400204 	addi	r21,r21,8
    5dd0:	9c00130e 	bge	r19,r16,5e20 <___vfprintf_internal_r+0x868>
    5dd4:	94800404 	addi	r18,r18,16
    5dd8:	8c400044 	addi	r17,r17,1
    5ddc:	af000015 	stw	fp,0(r21)
    5de0:	acc00115 	stw	r19,4(r21)
    5de4:	dc800f15 	stw	r18,60(sp)
    5de8:	dc400e15 	stw	r17,56(sp)
    5dec:	a47ff60e 	bge	r20,r17,5dc8 <___vfprintf_internal_r+0x810>
    5df0:	d9015017 	ldw	r4,1344(sp)
    5df4:	b00b883a 	mov	r5,r22
    5df8:	d9800d04 	addi	r6,sp,52
    5dfc:	d9c15215 	stw	r7,1352(sp)
    5e00:	00055600 	call	5560 <__sprint_r>
    5e04:	d9c15217 	ldw	r7,1352(sp)
    5e08:	103fa31e 	bne	r2,zero,5c98 <___vfprintf_internal_r+0x6e0>
    5e0c:	843ffc04 	addi	r16,r16,-16
    5e10:	dc800f17 	ldw	r18,60(sp)
    5e14:	dc400e17 	ldw	r17,56(sp)
    5e18:	dd401a04 	addi	r21,sp,104
    5e1c:	9c3fed16 	blt	r19,r16,5dd4 <___vfprintf_internal_r+0x81c>
    5e20:	9425883a 	add	r18,r18,r16
    5e24:	8c400044 	addi	r17,r17,1
    5e28:	008001c4 	movi	r2,7
    5e2c:	af000015 	stw	fp,0(r21)
    5e30:	ac000115 	stw	r16,4(r21)
    5e34:	dc800f15 	stw	r18,60(sp)
    5e38:	dc400e15 	stw	r17,56(sp)
    5e3c:	14416116 	blt	r2,r17,63c4 <___vfprintf_internal_r+0xe0c>
    5e40:	ad400204 	addi	r21,r21,8
    5e44:	003f2406 	br	5ad8 <___vfprintf_internal_r+0x520>
    5e48:	d9015017 	ldw	r4,1344(sp)
    5e4c:	00090280 	call	9028 <__sinit>
    5e50:	d9c15217 	ldw	r7,1352(sp)
    5e54:	003def06 	br	5614 <___vfprintf_internal_r+0x5c>
    5e58:	d9015017 	ldw	r4,1344(sp)
    5e5c:	b00b883a 	mov	r5,r22
    5e60:	d9c15215 	stw	r7,1352(sp)
    5e64:	00074880 	call	7488 <__swsetup_r>
    5e68:	d9c15217 	ldw	r7,1352(sp)
    5e6c:	103dee26 	beq	r2,zero,5628 <___vfprintf_internal_r+0x70>
    5e70:	003f8c06 	br	5ca4 <___vfprintf_internal_r+0x6ec>
    5e74:	d9014317 	ldw	r4,1292(sp)
    5e78:	d9414417 	ldw	r5,1296(sp)
    5e7c:	000d883a 	mov	r6,zero
    5e80:	000f883a 	mov	r7,zero
    5e84:	000dc480 	call	dc48 <__eqdf2>
    5e88:	1000f21e 	bne	r2,zero,6254 <___vfprintf_internal_r+0xc9c>
    5e8c:	00820034 	movhi	r2,2048
    5e90:	10803604 	addi	r2,r2,216
    5e94:	94800044 	addi	r18,r18,1
    5e98:	8c400044 	addi	r17,r17,1
    5e9c:	a8800015 	stw	r2,0(r21)
    5ea0:	00c00044 	movi	r3,1
    5ea4:	008001c4 	movi	r2,7
    5ea8:	a8c00115 	stw	r3,4(r21)
    5eac:	dc800f15 	stw	r18,60(sp)
    5eb0:	dc400e15 	stw	r17,56(sp)
    5eb4:	1442fa16 	blt	r2,r17,6aa0 <___vfprintf_internal_r+0x14e8>
    5eb8:	a8c00204 	addi	r3,r21,8
    5ebc:	d8800617 	ldw	r2,24(sp)
    5ec0:	d9014817 	ldw	r4,1312(sp)
    5ec4:	11015c0e 	bge	r2,r4,6438 <___vfprintf_internal_r+0xe80>
    5ec8:	dc400e17 	ldw	r17,56(sp)
    5ecc:	d9814a17 	ldw	r6,1320(sp)
    5ed0:	00800044 	movi	r2,1
    5ed4:	94800044 	addi	r18,r18,1
    5ed8:	8c400044 	addi	r17,r17,1
    5edc:	18800115 	stw	r2,4(r3)
    5ee0:	008001c4 	movi	r2,7
    5ee4:	19800015 	stw	r6,0(r3)
    5ee8:	dc800f15 	stw	r18,60(sp)
    5eec:	dc400e15 	stw	r17,56(sp)
    5ef0:	14431016 	blt	r2,r17,6b34 <___vfprintf_internal_r+0x157c>
    5ef4:	18c00204 	addi	r3,r3,8
    5ef8:	d8814817 	ldw	r2,1312(sp)
    5efc:	143fffc4 	addi	r16,r2,-1
    5f00:	043f2b0e 	bge	zero,r16,5bb0 <___vfprintf_internal_r+0x5f8>
    5f04:	00800404 	movi	r2,16
    5f08:	1402a20e 	bge	r2,r16,6994 <___vfprintf_internal_r+0x13dc>
    5f0c:	dc400e17 	ldw	r17,56(sp)
    5f10:	1027883a 	mov	r19,r2
    5f14:	07020034 	movhi	fp,2048
    5f18:	e7003704 	addi	fp,fp,220
    5f1c:	050001c4 	movi	r20,7
    5f20:	00000306 	br	5f30 <___vfprintf_internal_r+0x978>
    5f24:	18c00204 	addi	r3,r3,8
    5f28:	843ffc04 	addi	r16,r16,-16
    5f2c:	9c029c0e 	bge	r19,r16,69a0 <___vfprintf_internal_r+0x13e8>
    5f30:	94800404 	addi	r18,r18,16
    5f34:	8c400044 	addi	r17,r17,1
    5f38:	1f000015 	stw	fp,0(r3)
    5f3c:	1cc00115 	stw	r19,4(r3)
    5f40:	dc800f15 	stw	r18,60(sp)
    5f44:	dc400e15 	stw	r17,56(sp)
    5f48:	a47ff60e 	bge	r20,r17,5f24 <___vfprintf_internal_r+0x96c>
    5f4c:	d9015017 	ldw	r4,1344(sp)
    5f50:	b00b883a 	mov	r5,r22
    5f54:	d9800d04 	addi	r6,sp,52
    5f58:	00055600 	call	5560 <__sprint_r>
    5f5c:	103f4e1e 	bne	r2,zero,5c98 <___vfprintf_internal_r+0x6e0>
    5f60:	dc800f17 	ldw	r18,60(sp)
    5f64:	dc400e17 	ldw	r17,56(sp)
    5f68:	d8c01a04 	addi	r3,sp,104
    5f6c:	003fee06 	br	5f28 <___vfprintf_internal_r+0x970>
    5f70:	d8802d0b 	ldhu	r2,180(sp)
    5f74:	00ffffc4 	movi	r3,-1
    5f78:	d8c14c15 	stw	r3,1328(sp)
    5f7c:	1080100c 	andi	r2,r2,64
    5f80:	103dcc1e 	bne	r2,zero,56b4 <___vfprintf_internal_r+0xfc>
    5f84:	003dce06 	br	56c0 <___vfprintf_internal_r+0x108>
    5f88:	d9015017 	ldw	r4,1344(sp)
    5f8c:	b00b883a 	mov	r5,r22
    5f90:	d9800d04 	addi	r6,sp,52
    5f94:	00055600 	call	5560 <__sprint_r>
    5f98:	103f3f1e 	bne	r2,zero,5c98 <___vfprintf_internal_r+0x6e0>
    5f9c:	dc800f17 	ldw	r18,60(sp)
    5fa0:	003f2e06 	br	5c5c <___vfprintf_internal_r+0x6a4>
    5fa4:	d9414d17 	ldw	r5,1332(sp)
    5fa8:	29400414 	ori	r5,r5,16
    5fac:	d9414d15 	stw	r5,1332(sp)
    5fb0:	d9814d17 	ldw	r6,1332(sp)
    5fb4:	3080080c 	andi	r2,r6,32
    5fb8:	10014f1e 	bne	r2,zero,64f8 <___vfprintf_internal_r+0xf40>
    5fbc:	d8c14d17 	ldw	r3,1332(sp)
    5fc0:	1880040c 	andi	r2,r3,16
    5fc4:	1002ea1e 	bne	r2,zero,6b70 <___vfprintf_internal_r+0x15b8>
    5fc8:	d9014d17 	ldw	r4,1332(sp)
    5fcc:	2080100c 	andi	r2,r4,64
    5fd0:	1002e726 	beq	r2,zero,6b70 <___vfprintf_internal_r+0x15b8>
    5fd4:	3880000f 	ldh	r2,0(r7)
    5fd8:	39c00104 	addi	r7,r7,4
    5fdc:	d9c14115 	stw	r7,1284(sp)
    5fe0:	1023d7fa 	srai	r17,r2,31
    5fe4:	1021883a 	mov	r16,r2
    5fe8:	88037216 	blt	r17,zero,6db4 <___vfprintf_internal_r+0x17fc>
    5fec:	01000044 	movi	r4,1
    5ff0:	98000416 	blt	r19,zero,6004 <___vfprintf_internal_r+0xa4c>
    5ff4:	d8c14d17 	ldw	r3,1332(sp)
    5ff8:	00bfdfc4 	movi	r2,-129
    5ffc:	1886703a 	and	r3,r3,r2
    6000:	d8c14d15 	stw	r3,1332(sp)
    6004:	8444b03a 	or	r2,r16,r17
    6008:	1002261e 	bne	r2,zero,68a4 <___vfprintf_internal_r+0x12ec>
    600c:	9802251e 	bne	r19,zero,68a4 <___vfprintf_internal_r+0x12ec>
    6010:	20803fcc 	andi	r2,r4,255
    6014:	10029b26 	beq	r2,zero,6a84 <___vfprintf_internal_r+0x14cc>
    6018:	d8c01a04 	addi	r3,sp,104
    601c:	dd001004 	addi	r20,sp,64
    6020:	d8c14215 	stw	r3,1288(sp)
    6024:	d8c14217 	ldw	r3,1288(sp)
    6028:	dcc14615 	stw	r19,1304(sp)
    602c:	a0c5c83a 	sub	r2,r20,r3
    6030:	11c00a04 	addi	r7,r2,40
    6034:	99c0010e 	bge	r19,r7,603c <___vfprintf_internal_r+0xa84>
    6038:	d9c14615 	stw	r7,1304(sp)
    603c:	dcc14715 	stw	r19,1308(sp)
    6040:	d8800407 	ldb	r2,16(sp)
    6044:	103e4c26 	beq	r2,zero,5978 <___vfprintf_internal_r+0x3c0>
    6048:	d8814617 	ldw	r2,1304(sp)
    604c:	10800044 	addi	r2,r2,1
    6050:	d8814615 	stw	r2,1304(sp)
    6054:	003e4806 	br	5978 <___vfprintf_internal_r+0x3c0>
    6058:	d9814d17 	ldw	r6,1332(sp)
    605c:	31800414 	ori	r6,r6,16
    6060:	d9814d15 	stw	r6,1332(sp)
    6064:	d8c14d17 	ldw	r3,1332(sp)
    6068:	1880080c 	andi	r2,r3,32
    606c:	1001271e 	bne	r2,zero,650c <___vfprintf_internal_r+0xf54>
    6070:	d9414d17 	ldw	r5,1332(sp)
    6074:	2880040c 	andi	r2,r5,16
    6078:	1002b61e 	bne	r2,zero,6b54 <___vfprintf_internal_r+0x159c>
    607c:	d9814d17 	ldw	r6,1332(sp)
    6080:	3080100c 	andi	r2,r6,64
    6084:	1002b326 	beq	r2,zero,6b54 <___vfprintf_internal_r+0x159c>
    6088:	3c00000b 	ldhu	r16,0(r7)
    608c:	0009883a 	mov	r4,zero
    6090:	39c00104 	addi	r7,r7,4
    6094:	0023883a 	mov	r17,zero
    6098:	d9c14115 	stw	r7,1284(sp)
    609c:	d8000405 	stb	zero,16(sp)
    60a0:	003fd306 	br	5ff0 <___vfprintf_internal_r+0xa38>
    60a4:	d9014d17 	ldw	r4,1332(sp)
    60a8:	21000414 	ori	r4,r4,16
    60ac:	d9014d15 	stw	r4,1332(sp)
    60b0:	d9414d17 	ldw	r5,1332(sp)
    60b4:	2880080c 	andi	r2,r5,32
    60b8:	1001081e 	bne	r2,zero,64dc <___vfprintf_internal_r+0xf24>
    60bc:	d8c14d17 	ldw	r3,1332(sp)
    60c0:	1880040c 	andi	r2,r3,16
    60c4:	1002b01e 	bne	r2,zero,6b88 <___vfprintf_internal_r+0x15d0>
    60c8:	d9014d17 	ldw	r4,1332(sp)
    60cc:	2080100c 	andi	r2,r4,64
    60d0:	1002ad26 	beq	r2,zero,6b88 <___vfprintf_internal_r+0x15d0>
    60d4:	3c00000b 	ldhu	r16,0(r7)
    60d8:	01000044 	movi	r4,1
    60dc:	39c00104 	addi	r7,r7,4
    60e0:	0023883a 	mov	r17,zero
    60e4:	d9c14115 	stw	r7,1284(sp)
    60e8:	d8000405 	stb	zero,16(sp)
    60ec:	003fc006 	br	5ff0 <___vfprintf_internal_r+0xa38>
    60f0:	d9015017 	ldw	r4,1344(sp)
    60f4:	b00b883a 	mov	r5,r22
    60f8:	d9800d04 	addi	r6,sp,52
    60fc:	00055600 	call	5560 <__sprint_r>
    6100:	103ee51e 	bne	r2,zero,5c98 <___vfprintf_internal_r+0x6e0>
    6104:	dc800f17 	ldw	r18,60(sp)
    6108:	d8c01a04 	addi	r3,sp,104
    610c:	d9814d17 	ldw	r6,1332(sp)
    6110:	3080004c 	andi	r2,r6,1
    6114:	1005003a 	cmpeq	r2,r2,zero
    6118:	103ea51e 	bne	r2,zero,5bb0 <___vfprintf_internal_r+0x5f8>
    611c:	00800044 	movi	r2,1
    6120:	dc400e17 	ldw	r17,56(sp)
    6124:	18800115 	stw	r2,4(r3)
    6128:	d8814a17 	ldw	r2,1320(sp)
    612c:	94800044 	addi	r18,r18,1
    6130:	8c400044 	addi	r17,r17,1
    6134:	18800015 	stw	r2,0(r3)
    6138:	008001c4 	movi	r2,7
    613c:	dc800f15 	stw	r18,60(sp)
    6140:	dc400e15 	stw	r17,56(sp)
    6144:	14421e0e 	bge	r2,r17,69c0 <___vfprintf_internal_r+0x1408>
    6148:	d9015017 	ldw	r4,1344(sp)
    614c:	b00b883a 	mov	r5,r22
    6150:	d9800d04 	addi	r6,sp,52
    6154:	00055600 	call	5560 <__sprint_r>
    6158:	103ecf1e 	bne	r2,zero,5c98 <___vfprintf_internal_r+0x6e0>
    615c:	dc800f17 	ldw	r18,60(sp)
    6160:	d8c01a04 	addi	r3,sp,104
    6164:	003e9206 	br	5bb0 <___vfprintf_internal_r+0x5f8>
    6168:	d9015017 	ldw	r4,1344(sp)
    616c:	b00b883a 	mov	r5,r22
    6170:	d9800d04 	addi	r6,sp,52
    6174:	00055600 	call	5560 <__sprint_r>
    6178:	103ec026 	beq	r2,zero,5c7c <___vfprintf_internal_r+0x6c4>
    617c:	003ec606 	br	5c98 <___vfprintf_internal_r+0x6e0>
    6180:	d9015017 	ldw	r4,1344(sp)
    6184:	b00b883a 	mov	r5,r22
    6188:	d9800d04 	addi	r6,sp,52
    618c:	d9c15215 	stw	r7,1352(sp)
    6190:	00055600 	call	5560 <__sprint_r>
    6194:	d9c15217 	ldw	r7,1352(sp)
    6198:	103ebf1e 	bne	r2,zero,5c98 <___vfprintf_internal_r+0x6e0>
    619c:	dc800f17 	ldw	r18,60(sp)
    61a0:	dc400e17 	ldw	r17,56(sp)
    61a4:	dd401a04 	addi	r21,sp,104
    61a8:	003e7406 	br	5b7c <___vfprintf_internal_r+0x5c4>
    61ac:	d9015017 	ldw	r4,1344(sp)
    61b0:	b00b883a 	mov	r5,r22
    61b4:	d9800d04 	addi	r6,sp,52
    61b8:	d9c15215 	stw	r7,1352(sp)
    61bc:	00055600 	call	5560 <__sprint_r>
    61c0:	d9c15217 	ldw	r7,1352(sp)
    61c4:	103eb41e 	bne	r2,zero,5c98 <___vfprintf_internal_r+0x6e0>
    61c8:	dd401a04 	addi	r21,sp,104
    61cc:	003d6d06 	br	5784 <___vfprintf_internal_r+0x1cc>
    61d0:	d9015017 	ldw	r4,1344(sp)
    61d4:	b00b883a 	mov	r5,r22
    61d8:	d9800d04 	addi	r6,sp,52
    61dc:	d9c15215 	stw	r7,1352(sp)
    61e0:	00055600 	call	5560 <__sprint_r>
    61e4:	d9c15217 	ldw	r7,1352(sp)
    61e8:	103eab1e 	bne	r2,zero,5c98 <___vfprintf_internal_r+0x6e0>
    61ec:	dc800f17 	ldw	r18,60(sp)
    61f0:	dc400e17 	ldw	r17,56(sp)
    61f4:	dd401a04 	addi	r21,sp,104
    61f8:	003e3406 	br	5acc <___vfprintf_internal_r+0x514>
    61fc:	d9015017 	ldw	r4,1344(sp)
    6200:	b00b883a 	mov	r5,r22
    6204:	d9800d04 	addi	r6,sp,52
    6208:	d9c15215 	stw	r7,1352(sp)
    620c:	00055600 	call	5560 <__sprint_r>
    6210:	d9c15217 	ldw	r7,1352(sp)
    6214:	103ea01e 	bne	r2,zero,5c98 <___vfprintf_internal_r+0x6e0>
    6218:	dc800f17 	ldw	r18,60(sp)
    621c:	dc400e17 	ldw	r17,56(sp)
    6220:	dd401a04 	addi	r21,sp,104
    6224:	003e1c06 	br	5a98 <___vfprintf_internal_r+0x4e0>
    6228:	d9015017 	ldw	r4,1344(sp)
    622c:	b00b883a 	mov	r5,r22
    6230:	d9800d04 	addi	r6,sp,52
    6234:	d9c15215 	stw	r7,1352(sp)
    6238:	00055600 	call	5560 <__sprint_r>
    623c:	d9c15217 	ldw	r7,1352(sp)
    6240:	103e951e 	bne	r2,zero,5c98 <___vfprintf_internal_r+0x6e0>
    6244:	dc800f17 	ldw	r18,60(sp)
    6248:	dc400e17 	ldw	r17,56(sp)
    624c:	dd401a04 	addi	r21,sp,104
    6250:	003e0406 	br	5a64 <___vfprintf_internal_r+0x4ac>
    6254:	d9000617 	ldw	r4,24(sp)
    6258:	0102520e 	bge	zero,r4,6ba4 <___vfprintf_internal_r+0x15ec>
    625c:	d9814817 	ldw	r6,1312(sp)
    6260:	21807a16 	blt	r4,r6,644c <___vfprintf_internal_r+0xe94>
    6264:	d8814217 	ldw	r2,1288(sp)
    6268:	91a5883a 	add	r18,r18,r6
    626c:	8c400044 	addi	r17,r17,1
    6270:	a8800015 	stw	r2,0(r21)
    6274:	008001c4 	movi	r2,7
    6278:	a9800115 	stw	r6,4(r21)
    627c:	dc800f15 	stw	r18,60(sp)
    6280:	dc400e15 	stw	r17,56(sp)
    6284:	1442f616 	blt	r2,r17,6e60 <___vfprintf_internal_r+0x18a8>
    6288:	a8c00204 	addi	r3,r21,8
    628c:	d9414817 	ldw	r5,1312(sp)
    6290:	2161c83a 	sub	r16,r4,r5
    6294:	043f9d0e 	bge	zero,r16,610c <___vfprintf_internal_r+0xb54>
    6298:	00800404 	movi	r2,16
    629c:	1402130e 	bge	r2,r16,6aec <___vfprintf_internal_r+0x1534>
    62a0:	dc400e17 	ldw	r17,56(sp)
    62a4:	1027883a 	mov	r19,r2
    62a8:	07020034 	movhi	fp,2048
    62ac:	e7003704 	addi	fp,fp,220
    62b0:	050001c4 	movi	r20,7
    62b4:	00000306 	br	62c4 <___vfprintf_internal_r+0xd0c>
    62b8:	18c00204 	addi	r3,r3,8
    62bc:	843ffc04 	addi	r16,r16,-16
    62c0:	9c020d0e 	bge	r19,r16,6af8 <___vfprintf_internal_r+0x1540>
    62c4:	94800404 	addi	r18,r18,16
    62c8:	8c400044 	addi	r17,r17,1
    62cc:	1f000015 	stw	fp,0(r3)
    62d0:	1cc00115 	stw	r19,4(r3)
    62d4:	dc800f15 	stw	r18,60(sp)
    62d8:	dc400e15 	stw	r17,56(sp)
    62dc:	a47ff60e 	bge	r20,r17,62b8 <___vfprintf_internal_r+0xd00>
    62e0:	d9015017 	ldw	r4,1344(sp)
    62e4:	b00b883a 	mov	r5,r22
    62e8:	d9800d04 	addi	r6,sp,52
    62ec:	00055600 	call	5560 <__sprint_r>
    62f0:	103e691e 	bne	r2,zero,5c98 <___vfprintf_internal_r+0x6e0>
    62f4:	dc800f17 	ldw	r18,60(sp)
    62f8:	dc400e17 	ldw	r17,56(sp)
    62fc:	d8c01a04 	addi	r3,sp,104
    6300:	003fee06 	br	62bc <___vfprintf_internal_r+0xd04>
    6304:	d8814817 	ldw	r2,1312(sp)
    6308:	143fffc4 	addi	r16,r2,-1
    630c:	043e970e 	bge	zero,r16,5d6c <___vfprintf_internal_r+0x7b4>
    6310:	00800404 	movi	r2,16
    6314:	1400180e 	bge	r2,r16,6378 <___vfprintf_internal_r+0xdc0>
    6318:	1029883a 	mov	r20,r2
    631c:	07020034 	movhi	fp,2048
    6320:	e7003704 	addi	fp,fp,220
    6324:	054001c4 	movi	r21,7
    6328:	00000306 	br	6338 <___vfprintf_internal_r+0xd80>
    632c:	9cc00204 	addi	r19,r19,8
    6330:	843ffc04 	addi	r16,r16,-16
    6334:	a400120e 	bge	r20,r16,6380 <___vfprintf_internal_r+0xdc8>
    6338:	94800404 	addi	r18,r18,16
    633c:	8c400044 	addi	r17,r17,1
    6340:	9f000015 	stw	fp,0(r19)
    6344:	9d000115 	stw	r20,4(r19)
    6348:	dc800f15 	stw	r18,60(sp)
    634c:	dc400e15 	stw	r17,56(sp)
    6350:	ac7ff60e 	bge	r21,r17,632c <___vfprintf_internal_r+0xd74>
    6354:	d9015017 	ldw	r4,1344(sp)
    6358:	b00b883a 	mov	r5,r22
    635c:	d9800d04 	addi	r6,sp,52
    6360:	00055600 	call	5560 <__sprint_r>
    6364:	103e4c1e 	bne	r2,zero,5c98 <___vfprintf_internal_r+0x6e0>
    6368:	dc800f17 	ldw	r18,60(sp)
    636c:	dc400e17 	ldw	r17,56(sp)
    6370:	dcc01a04 	addi	r19,sp,104
    6374:	003fee06 	br	6330 <___vfprintf_internal_r+0xd78>
    6378:	07020034 	movhi	fp,2048
    637c:	e7003704 	addi	fp,fp,220
    6380:	9425883a 	add	r18,r18,r16
    6384:	8c400044 	addi	r17,r17,1
    6388:	008001c4 	movi	r2,7
    638c:	9f000015 	stw	fp,0(r19)
    6390:	9c000115 	stw	r16,4(r19)
    6394:	dc800f15 	stw	r18,60(sp)
    6398:	dc400e15 	stw	r17,56(sp)
    639c:	147e720e 	bge	r2,r17,5d68 <___vfprintf_internal_r+0x7b0>
    63a0:	d9015017 	ldw	r4,1344(sp)
    63a4:	b00b883a 	mov	r5,r22
    63a8:	d9800d04 	addi	r6,sp,52
    63ac:	00055600 	call	5560 <__sprint_r>
    63b0:	103e391e 	bne	r2,zero,5c98 <___vfprintf_internal_r+0x6e0>
    63b4:	dc800f17 	ldw	r18,60(sp)
    63b8:	dc400e17 	ldw	r17,56(sp)
    63bc:	dcc01a04 	addi	r19,sp,104
    63c0:	003e6a06 	br	5d6c <___vfprintf_internal_r+0x7b4>
    63c4:	d9015017 	ldw	r4,1344(sp)
    63c8:	b00b883a 	mov	r5,r22
    63cc:	d9800d04 	addi	r6,sp,52
    63d0:	d9c15215 	stw	r7,1352(sp)
    63d4:	00055600 	call	5560 <__sprint_r>
    63d8:	d9c15217 	ldw	r7,1352(sp)
    63dc:	103e2e1e 	bne	r2,zero,5c98 <___vfprintf_internal_r+0x6e0>
    63e0:	dc800f17 	ldw	r18,60(sp)
    63e4:	dc400e17 	ldw	r17,56(sp)
    63e8:	dd401a04 	addi	r21,sp,104
    63ec:	003dba06 	br	5ad8 <___vfprintf_internal_r+0x520>
    63f0:	d9015017 	ldw	r4,1344(sp)
    63f4:	b00b883a 	mov	r5,r22
    63f8:	d9800d04 	addi	r6,sp,52
    63fc:	00055600 	call	5560 <__sprint_r>
    6400:	103e251e 	bne	r2,zero,5c98 <___vfprintf_internal_r+0x6e0>
    6404:	dc800f17 	ldw	r18,60(sp)
    6408:	dc400e17 	ldw	r17,56(sp)
    640c:	dcc01a04 	addi	r19,sp,104
    6410:	003e4206 	br	5d1c <___vfprintf_internal_r+0x764>
    6414:	d9015017 	ldw	r4,1344(sp)
    6418:	b00b883a 	mov	r5,r22
    641c:	d9800d04 	addi	r6,sp,52
    6420:	00055600 	call	5560 <__sprint_r>
    6424:	103e1c1e 	bne	r2,zero,5c98 <___vfprintf_internal_r+0x6e0>
    6428:	dc800f17 	ldw	r18,60(sp)
    642c:	dc400e17 	ldw	r17,56(sp)
    6430:	d8c01a04 	addi	r3,sp,104
    6434:	003e2e06 	br	5cf0 <___vfprintf_internal_r+0x738>
    6438:	d9414d17 	ldw	r5,1332(sp)
    643c:	2880004c 	andi	r2,r5,1
    6440:	1005003a 	cmpeq	r2,r2,zero
    6444:	103dda1e 	bne	r2,zero,5bb0 <___vfprintf_internal_r+0x5f8>
    6448:	003e9f06 	br	5ec8 <___vfprintf_internal_r+0x910>
    644c:	d8c14217 	ldw	r3,1288(sp)
    6450:	9125883a 	add	r18,r18,r4
    6454:	8c400044 	addi	r17,r17,1
    6458:	008001c4 	movi	r2,7
    645c:	a8c00015 	stw	r3,0(r21)
    6460:	a9000115 	stw	r4,4(r21)
    6464:	dc800f15 	stw	r18,60(sp)
    6468:	dc400e15 	stw	r17,56(sp)
    646c:	14426616 	blt	r2,r17,6e08 <___vfprintf_internal_r+0x1850>
    6470:	a8c00204 	addi	r3,r21,8
    6474:	d9414a17 	ldw	r5,1320(sp)
    6478:	00800044 	movi	r2,1
    647c:	94800044 	addi	r18,r18,1
    6480:	8c400044 	addi	r17,r17,1
    6484:	18800115 	stw	r2,4(r3)
    6488:	008001c4 	movi	r2,7
    648c:	19400015 	stw	r5,0(r3)
    6490:	dc800f15 	stw	r18,60(sp)
    6494:	dc400e15 	stw	r17,56(sp)
    6498:	2021883a 	mov	r16,r4
    649c:	14425016 	blt	r2,r17,6de0 <___vfprintf_internal_r+0x1828>
    64a0:	19400204 	addi	r5,r3,8
    64a4:	d9814817 	ldw	r6,1312(sp)
    64a8:	8c400044 	addi	r17,r17,1
    64ac:	dc400e15 	stw	r17,56(sp)
    64b0:	3107c83a 	sub	r3,r6,r4
    64b4:	d9014217 	ldw	r4,1288(sp)
    64b8:	90e5883a 	add	r18,r18,r3
    64bc:	28c00115 	stw	r3,4(r5)
    64c0:	8105883a 	add	r2,r16,r4
    64c4:	28800015 	stw	r2,0(r5)
    64c8:	008001c4 	movi	r2,7
    64cc:	dc800f15 	stw	r18,60(sp)
    64d0:	147f1d16 	blt	r2,r17,6148 <___vfprintf_internal_r+0xb90>
    64d4:	28c00204 	addi	r3,r5,8
    64d8:	003db506 	br	5bb0 <___vfprintf_internal_r+0x5f8>
    64dc:	3c000017 	ldw	r16,0(r7)
    64e0:	3c400117 	ldw	r17,4(r7)
    64e4:	39800204 	addi	r6,r7,8
    64e8:	01000044 	movi	r4,1
    64ec:	d9814115 	stw	r6,1284(sp)
    64f0:	d8000405 	stb	zero,16(sp)
    64f4:	003ebe06 	br	5ff0 <___vfprintf_internal_r+0xa38>
    64f8:	3c000017 	ldw	r16,0(r7)
    64fc:	3c400117 	ldw	r17,4(r7)
    6500:	38800204 	addi	r2,r7,8
    6504:	d8814115 	stw	r2,1284(sp)
    6508:	003eb706 	br	5fe8 <___vfprintf_internal_r+0xa30>
    650c:	3c000017 	ldw	r16,0(r7)
    6510:	3c400117 	ldw	r17,4(r7)
    6514:	39000204 	addi	r4,r7,8
    6518:	d9014115 	stw	r4,1284(sp)
    651c:	0009883a 	mov	r4,zero
    6520:	d8000405 	stb	zero,16(sp)
    6524:	003eb206 	br	5ff0 <___vfprintf_internal_r+0xa38>
    6528:	38c00017 	ldw	r3,0(r7)
    652c:	39c00104 	addi	r7,r7,4
    6530:	d8c14b15 	stw	r3,1324(sp)
    6534:	1800d10e 	bge	r3,zero,687c <___vfprintf_internal_r+0x12c4>
    6538:	00c7c83a 	sub	r3,zero,r3
    653c:	d8c14b15 	stw	r3,1324(sp)
    6540:	d9014d17 	ldw	r4,1332(sp)
    6544:	b8c00007 	ldb	r3,0(r23)
    6548:	21000114 	ori	r4,r4,4
    654c:	d9014d15 	stw	r4,1332(sp)
    6550:	003c9806 	br	57b4 <___vfprintf_internal_r+0x1fc>
    6554:	d9814d17 	ldw	r6,1332(sp)
    6558:	3080080c 	andi	r2,r6,32
    655c:	1001f026 	beq	r2,zero,6d20 <___vfprintf_internal_r+0x1768>
    6560:	d9014c17 	ldw	r4,1328(sp)
    6564:	38800017 	ldw	r2,0(r7)
    6568:	39c00104 	addi	r7,r7,4
    656c:	d9c14115 	stw	r7,1284(sp)
    6570:	2007d7fa 	srai	r3,r4,31
    6574:	d9c14117 	ldw	r7,1284(sp)
    6578:	11000015 	stw	r4,0(r2)
    657c:	10c00115 	stw	r3,4(r2)
    6580:	003c6906 	br	5728 <___vfprintf_internal_r+0x170>
    6584:	b8c00007 	ldb	r3,0(r23)
    6588:	00801b04 	movi	r2,108
    658c:	18824f26 	beq	r3,r2,6ecc <___vfprintf_internal_r+0x1914>
    6590:	d9414d17 	ldw	r5,1332(sp)
    6594:	29400414 	ori	r5,r5,16
    6598:	d9414d15 	stw	r5,1332(sp)
    659c:	003c8506 	br	57b4 <___vfprintf_internal_r+0x1fc>
    65a0:	d9814d17 	ldw	r6,1332(sp)
    65a4:	b8c00007 	ldb	r3,0(r23)
    65a8:	31800814 	ori	r6,r6,32
    65ac:	d9814d15 	stw	r6,1332(sp)
    65b0:	003c8006 	br	57b4 <___vfprintf_internal_r+0x1fc>
    65b4:	d8814d17 	ldw	r2,1332(sp)
    65b8:	3c000017 	ldw	r16,0(r7)
    65bc:	00c01e04 	movi	r3,120
    65c0:	10800094 	ori	r2,r2,2
    65c4:	d8814d15 	stw	r2,1332(sp)
    65c8:	39c00104 	addi	r7,r7,4
    65cc:	01420034 	movhi	r5,2048
    65d0:	29401f04 	addi	r5,r5,124
    65d4:	00800c04 	movi	r2,48
    65d8:	0023883a 	mov	r17,zero
    65dc:	01000084 	movi	r4,2
    65e0:	d9c14115 	stw	r7,1284(sp)
    65e4:	d8c14e15 	stw	r3,1336(sp)
    65e8:	d9414515 	stw	r5,1300(sp)
    65ec:	d8800505 	stb	r2,20(sp)
    65f0:	d8c00545 	stb	r3,21(sp)
    65f4:	d8000405 	stb	zero,16(sp)
    65f8:	003e7d06 	br	5ff0 <___vfprintf_internal_r+0xa38>
    65fc:	d8814d17 	ldw	r2,1332(sp)
    6600:	b8c00007 	ldb	r3,0(r23)
    6604:	10801014 	ori	r2,r2,64
    6608:	d8814d15 	stw	r2,1332(sp)
    660c:	003c6906 	br	57b4 <___vfprintf_internal_r+0x1fc>
    6610:	d9414d17 	ldw	r5,1332(sp)
    6614:	2880020c 	andi	r2,r5,8
    6618:	1001df26 	beq	r2,zero,6d98 <___vfprintf_internal_r+0x17e0>
    661c:	39800017 	ldw	r6,0(r7)
    6620:	38800204 	addi	r2,r7,8
    6624:	d8814115 	stw	r2,1284(sp)
    6628:	d9814315 	stw	r6,1292(sp)
    662c:	39c00117 	ldw	r7,4(r7)
    6630:	d9c14415 	stw	r7,1296(sp)
    6634:	d9014317 	ldw	r4,1292(sp)
    6638:	d9414417 	ldw	r5,1296(sp)
    663c:	000be200 	call	be20 <__isinfd>
    6640:	10021726 	beq	r2,zero,6ea0 <___vfprintf_internal_r+0x18e8>
    6644:	d9014317 	ldw	r4,1292(sp)
    6648:	d9414417 	ldw	r5,1296(sp)
    664c:	000d883a 	mov	r6,zero
    6650:	000f883a 	mov	r7,zero
    6654:	000de680 	call	de68 <__ltdf2>
    6658:	1002ca16 	blt	r2,zero,7184 <___vfprintf_internal_r+0x1bcc>
    665c:	d9414e17 	ldw	r5,1336(sp)
    6660:	008011c4 	movi	r2,71
    6664:	11420a16 	blt	r2,r5,6e90 <___vfprintf_internal_r+0x18d8>
    6668:	01820034 	movhi	r6,2048
    666c:	31802404 	addi	r6,r6,144
    6670:	d9814215 	stw	r6,1288(sp)
    6674:	d9014d17 	ldw	r4,1332(sp)
    6678:	00c000c4 	movi	r3,3
    667c:	00bfdfc4 	movi	r2,-129
    6680:	2088703a 	and	r4,r4,r2
    6684:	180f883a 	mov	r7,r3
    6688:	d8c14615 	stw	r3,1304(sp)
    668c:	d9014d15 	stw	r4,1332(sp)
    6690:	d8014715 	stw	zero,1308(sp)
    6694:	003e6a06 	br	6040 <___vfprintf_internal_r+0xa88>
    6698:	38800017 	ldw	r2,0(r7)
    669c:	00c00044 	movi	r3,1
    66a0:	39c00104 	addi	r7,r7,4
    66a4:	d9c14115 	stw	r7,1284(sp)
    66a8:	d9001004 	addi	r4,sp,64
    66ac:	180f883a 	mov	r7,r3
    66b0:	d8c14615 	stw	r3,1304(sp)
    66b4:	d9014215 	stw	r4,1288(sp)
    66b8:	d8801005 	stb	r2,64(sp)
    66bc:	d8000405 	stb	zero,16(sp)
    66c0:	003cac06 	br	5974 <___vfprintf_internal_r+0x3bc>
    66c4:	01420034 	movhi	r5,2048
    66c8:	29402a04 	addi	r5,r5,168
    66cc:	d9414515 	stw	r5,1300(sp)
    66d0:	d9814d17 	ldw	r6,1332(sp)
    66d4:	3080080c 	andi	r2,r6,32
    66d8:	1000f926 	beq	r2,zero,6ac0 <___vfprintf_internal_r+0x1508>
    66dc:	3c000017 	ldw	r16,0(r7)
    66e0:	3c400117 	ldw	r17,4(r7)
    66e4:	38800204 	addi	r2,r7,8
    66e8:	d8814115 	stw	r2,1284(sp)
    66ec:	d9414d17 	ldw	r5,1332(sp)
    66f0:	2880004c 	andi	r2,r5,1
    66f4:	1005003a 	cmpeq	r2,r2,zero
    66f8:	1000b31e 	bne	r2,zero,69c8 <___vfprintf_internal_r+0x1410>
    66fc:	8444b03a 	or	r2,r16,r17
    6700:	1000b126 	beq	r2,zero,69c8 <___vfprintf_internal_r+0x1410>
    6704:	d9814e17 	ldw	r6,1336(sp)
    6708:	29400094 	ori	r5,r5,2
    670c:	00800c04 	movi	r2,48
    6710:	01000084 	movi	r4,2
    6714:	d9414d15 	stw	r5,1332(sp)
    6718:	d8800505 	stb	r2,20(sp)
    671c:	d9800545 	stb	r6,21(sp)
    6720:	d8000405 	stb	zero,16(sp)
    6724:	003e3206 	br	5ff0 <___vfprintf_internal_r+0xa38>
    6728:	01820034 	movhi	r6,2048
    672c:	31801f04 	addi	r6,r6,124
    6730:	d9814515 	stw	r6,1300(sp)
    6734:	003fe606 	br	66d0 <___vfprintf_internal_r+0x1118>
    6738:	00800ac4 	movi	r2,43
    673c:	d8800405 	stb	r2,16(sp)
    6740:	b8c00007 	ldb	r3,0(r23)
    6744:	003c1b06 	br	57b4 <___vfprintf_internal_r+0x1fc>
    6748:	d8814d17 	ldw	r2,1332(sp)
    674c:	b8c00007 	ldb	r3,0(r23)
    6750:	10800054 	ori	r2,r2,1
    6754:	d8814d15 	stw	r2,1332(sp)
    6758:	003c1606 	br	57b4 <___vfprintf_internal_r+0x1fc>
    675c:	d8800407 	ldb	r2,16(sp)
    6760:	1000461e 	bne	r2,zero,687c <___vfprintf_internal_r+0x12c4>
    6764:	00800804 	movi	r2,32
    6768:	d8800405 	stb	r2,16(sp)
    676c:	b8c00007 	ldb	r3,0(r23)
    6770:	003c1006 	br	57b4 <___vfprintf_internal_r+0x1fc>
    6774:	d9814d17 	ldw	r6,1332(sp)
    6778:	b8c00007 	ldb	r3,0(r23)
    677c:	31800214 	ori	r6,r6,8
    6780:	d9814d15 	stw	r6,1332(sp)
    6784:	003c0b06 	br	57b4 <___vfprintf_internal_r+0x1fc>
    6788:	0007883a 	mov	r3,zero
    678c:	01000244 	movi	r4,9
    6790:	188002a4 	muli	r2,r3,10
    6794:	b8c00007 	ldb	r3,0(r23)
    6798:	d9814e17 	ldw	r6,1336(sp)
    679c:	bdc00044 	addi	r23,r23,1
    67a0:	d8c14e15 	stw	r3,1336(sp)
    67a4:	d9414e17 	ldw	r5,1336(sp)
    67a8:	3085883a 	add	r2,r6,r2
    67ac:	10fff404 	addi	r3,r2,-48
    67b0:	28bff404 	addi	r2,r5,-48
    67b4:	20bff62e 	bgeu	r4,r2,6790 <___vfprintf_internal_r+0x11d8>
    67b8:	d8c14b15 	stw	r3,1324(sp)
    67bc:	003bff06 	br	57bc <___vfprintf_internal_r+0x204>
    67c0:	d9414d17 	ldw	r5,1332(sp)
    67c4:	b8c00007 	ldb	r3,0(r23)
    67c8:	29402014 	ori	r5,r5,128
    67cc:	d9414d15 	stw	r5,1332(sp)
    67d0:	003bf806 	br	57b4 <___vfprintf_internal_r+0x1fc>
    67d4:	b8c00007 	ldb	r3,0(r23)
    67d8:	00800a84 	movi	r2,42
    67dc:	bdc00044 	addi	r23,r23,1
    67e0:	18831526 	beq	r3,r2,7438 <___vfprintf_internal_r+0x1e80>
    67e4:	d8c14e15 	stw	r3,1336(sp)
    67e8:	18bff404 	addi	r2,r3,-48
    67ec:	00c00244 	movi	r3,9
    67f0:	18827836 	bltu	r3,r2,71d4 <___vfprintf_internal_r+0x1c1c>
    67f4:	000d883a 	mov	r6,zero
    67f8:	308002a4 	muli	r2,r6,10
    67fc:	b9800007 	ldb	r6,0(r23)
    6800:	d9414e17 	ldw	r5,1336(sp)
    6804:	bdc00044 	addi	r23,r23,1
    6808:	d9814e15 	stw	r6,1336(sp)
    680c:	d9014e17 	ldw	r4,1336(sp)
    6810:	1145883a 	add	r2,r2,r5
    6814:	11bff404 	addi	r6,r2,-48
    6818:	20bff404 	addi	r2,r4,-48
    681c:	18bff62e 	bgeu	r3,r2,67f8 <___vfprintf_internal_r+0x1240>
    6820:	3027883a 	mov	r19,r6
    6824:	303be50e 	bge	r6,zero,57bc <___vfprintf_internal_r+0x204>
    6828:	04ffffc4 	movi	r19,-1
    682c:	003be306 	br	57bc <___vfprintf_internal_r+0x204>
    6830:	d8000405 	stb	zero,16(sp)
    6834:	39800017 	ldw	r6,0(r7)
    6838:	39c00104 	addi	r7,r7,4
    683c:	d9c14115 	stw	r7,1284(sp)
    6840:	d9814215 	stw	r6,1288(sp)
    6844:	3001c926 	beq	r6,zero,6f6c <___vfprintf_internal_r+0x19b4>
    6848:	98000e16 	blt	r19,zero,6884 <___vfprintf_internal_r+0x12cc>
    684c:	d9014217 	ldw	r4,1288(sp)
    6850:	000b883a 	mov	r5,zero
    6854:	980d883a 	mov	r6,r19
    6858:	000a6740 	call	a674 <memchr>
    685c:	10025926 	beq	r2,zero,71c4 <___vfprintf_internal_r+0x1c0c>
    6860:	d8c14217 	ldw	r3,1288(sp)
    6864:	10cfc83a 	sub	r7,r2,r3
    6868:	99c19e16 	blt	r19,r7,6ee4 <___vfprintf_internal_r+0x192c>
    686c:	d9c14615 	stw	r7,1304(sp)
    6870:	38000916 	blt	r7,zero,6898 <___vfprintf_internal_r+0x12e0>
    6874:	d8014715 	stw	zero,1308(sp)
    6878:	003df106 	br	6040 <___vfprintf_internal_r+0xa88>
    687c:	b8c00007 	ldb	r3,0(r23)
    6880:	003bcc06 	br	57b4 <___vfprintf_internal_r+0x1fc>
    6884:	d9014217 	ldw	r4,1288(sp)
    6888:	00054ec0 	call	54ec <strlen>
    688c:	d8814615 	stw	r2,1304(sp)
    6890:	100f883a 	mov	r7,r2
    6894:	103ff70e 	bge	r2,zero,6874 <___vfprintf_internal_r+0x12bc>
    6898:	d8014615 	stw	zero,1304(sp)
    689c:	d8014715 	stw	zero,1308(sp)
    68a0:	003de706 	br	6040 <___vfprintf_internal_r+0xa88>
    68a4:	20c03fcc 	andi	r3,r4,255
    68a8:	00800044 	movi	r2,1
    68ac:	18802d26 	beq	r3,r2,6964 <___vfprintf_internal_r+0x13ac>
    68b0:	18800e36 	bltu	r3,r2,68ec <___vfprintf_internal_r+0x1334>
    68b4:	00800084 	movi	r2,2
    68b8:	1880fa26 	beq	r3,r2,6ca4 <___vfprintf_internal_r+0x16ec>
    68bc:	01020034 	movhi	r4,2048
    68c0:	21002f04 	addi	r4,r4,188
    68c4:	00054ec0 	call	54ec <strlen>
    68c8:	100f883a 	mov	r7,r2
    68cc:	dcc14615 	stw	r19,1304(sp)
    68d0:	9880010e 	bge	r19,r2,68d8 <___vfprintf_internal_r+0x1320>
    68d4:	d8814615 	stw	r2,1304(sp)
    68d8:	00820034 	movhi	r2,2048
    68dc:	10802f04 	addi	r2,r2,188
    68e0:	dcc14715 	stw	r19,1308(sp)
    68e4:	d8814215 	stw	r2,1288(sp)
    68e8:	003dd506 	br	6040 <___vfprintf_internal_r+0xa88>
    68ec:	d9401a04 	addi	r5,sp,104
    68f0:	dd001004 	addi	r20,sp,64
    68f4:	d9414215 	stw	r5,1288(sp)
    68f8:	880a977a 	slli	r5,r17,29
    68fc:	d9814217 	ldw	r6,1288(sp)
    6900:	8004d0fa 	srli	r2,r16,3
    6904:	8806d0fa 	srli	r3,r17,3
    6908:	810001cc 	andi	r4,r16,7
    690c:	2884b03a 	or	r2,r5,r2
    6910:	31bfffc4 	addi	r6,r6,-1
    6914:	21000c04 	addi	r4,r4,48
    6918:	d9814215 	stw	r6,1288(sp)
    691c:	10cab03a 	or	r5,r2,r3
    6920:	31000005 	stb	r4,0(r6)
    6924:	1021883a 	mov	r16,r2
    6928:	1823883a 	mov	r17,r3
    692c:	283ff21e 	bne	r5,zero,68f8 <___vfprintf_internal_r+0x1340>
    6930:	d8c14d17 	ldw	r3,1332(sp)
    6934:	1880004c 	andi	r2,r3,1
    6938:	1005003a 	cmpeq	r2,r2,zero
    693c:	103db91e 	bne	r2,zero,6024 <___vfprintf_internal_r+0xa6c>
    6940:	20803fcc 	andi	r2,r4,255
    6944:	1080201c 	xori	r2,r2,128
    6948:	10bfe004 	addi	r2,r2,-128
    694c:	00c00c04 	movi	r3,48
    6950:	10fdb426 	beq	r2,r3,6024 <___vfprintf_internal_r+0xa6c>
    6954:	31bfffc4 	addi	r6,r6,-1
    6958:	d9814215 	stw	r6,1288(sp)
    695c:	30c00005 	stb	r3,0(r6)
    6960:	003db006 	br	6024 <___vfprintf_internal_r+0xa6c>
    6964:	88800068 	cmpgeui	r2,r17,1
    6968:	10002c1e 	bne	r2,zero,6a1c <___vfprintf_internal_r+0x1464>
    696c:	8800021e 	bne	r17,zero,6978 <___vfprintf_internal_r+0x13c0>
    6970:	00800244 	movi	r2,9
    6974:	14002936 	bltu	r2,r16,6a1c <___vfprintf_internal_r+0x1464>
    6978:	d90019c4 	addi	r4,sp,103
    697c:	dd001004 	addi	r20,sp,64
    6980:	d9014215 	stw	r4,1288(sp)
    6984:	d9014217 	ldw	r4,1288(sp)
    6988:	80800c04 	addi	r2,r16,48
    698c:	20800005 	stb	r2,0(r4)
    6990:	003da406 	br	6024 <___vfprintf_internal_r+0xa6c>
    6994:	dc400e17 	ldw	r17,56(sp)
    6998:	07020034 	movhi	fp,2048
    699c:	e7003704 	addi	fp,fp,220
    69a0:	9425883a 	add	r18,r18,r16
    69a4:	8c400044 	addi	r17,r17,1
    69a8:	008001c4 	movi	r2,7
    69ac:	1f000015 	stw	fp,0(r3)
    69b0:	1c000115 	stw	r16,4(r3)
    69b4:	dc800f15 	stw	r18,60(sp)
    69b8:	dc400e15 	stw	r17,56(sp)
    69bc:	147de216 	blt	r2,r17,6148 <___vfprintf_internal_r+0xb90>
    69c0:	18c00204 	addi	r3,r3,8
    69c4:	003c7a06 	br	5bb0 <___vfprintf_internal_r+0x5f8>
    69c8:	01000084 	movi	r4,2
    69cc:	d8000405 	stb	zero,16(sp)
    69d0:	003d8706 	br	5ff0 <___vfprintf_internal_r+0xa38>
    69d4:	d9814d17 	ldw	r6,1332(sp)
    69d8:	30c4703a 	and	r2,r6,r3
    69dc:	1005003a 	cmpeq	r2,r2,zero
    69e0:	103cb926 	beq	r2,zero,5cc8 <___vfprintf_internal_r+0x710>
    69e4:	d9014217 	ldw	r4,1288(sp)
    69e8:	94800044 	addi	r18,r18,1
    69ec:	8c400044 	addi	r17,r17,1
    69f0:	008001c4 	movi	r2,7
    69f4:	a9000015 	stw	r4,0(r21)
    69f8:	a8c00115 	stw	r3,4(r21)
    69fc:	dc800f15 	stw	r18,60(sp)
    6a00:	dc400e15 	stw	r17,56(sp)
    6a04:	147e6616 	blt	r2,r17,63a0 <___vfprintf_internal_r+0xde8>
    6a08:	acc00204 	addi	r19,r21,8
    6a0c:	003cd706 	br	5d6c <___vfprintf_internal_r+0x7b4>
    6a10:	07020034 	movhi	fp,2048
    6a14:	e7003704 	addi	fp,fp,220
    6a18:	003c4f06 	br	5b58 <___vfprintf_internal_r+0x5a0>
    6a1c:	dd001004 	addi	r20,sp,64
    6a20:	dc801a04 	addi	r18,sp,104
    6a24:	8009883a 	mov	r4,r16
    6a28:	880b883a 	mov	r5,r17
    6a2c:	01800284 	movi	r6,10
    6a30:	000f883a 	mov	r7,zero
    6a34:	000cb780 	call	cb78 <__umoddi3>
    6a38:	12000c04 	addi	r8,r2,48
    6a3c:	94bfffc4 	addi	r18,r18,-1
    6a40:	8009883a 	mov	r4,r16
    6a44:	880b883a 	mov	r5,r17
    6a48:	01800284 	movi	r6,10
    6a4c:	000f883a 	mov	r7,zero
    6a50:	92000005 	stb	r8,0(r18)
    6a54:	000c59c0 	call	c59c <__udivdi3>
    6a58:	1009883a 	mov	r4,r2
    6a5c:	1021883a 	mov	r16,r2
    6a60:	18800068 	cmpgeui	r2,r3,1
    6a64:	1823883a 	mov	r17,r3
    6a68:	103fee1e 	bne	r2,zero,6a24 <___vfprintf_internal_r+0x146c>
    6a6c:	1800021e 	bne	r3,zero,6a78 <___vfprintf_internal_r+0x14c0>
    6a70:	00800244 	movi	r2,9
    6a74:	113feb36 	bltu	r2,r4,6a24 <___vfprintf_internal_r+0x146c>
    6a78:	94bfffc4 	addi	r18,r18,-1
    6a7c:	dc814215 	stw	r18,1288(sp)
    6a80:	003fc006 	br	6984 <___vfprintf_internal_r+0x13cc>
    6a84:	d9014d17 	ldw	r4,1332(sp)
    6a88:	2080004c 	andi	r2,r4,1
    6a8c:	10009a1e 	bne	r2,zero,6cf8 <___vfprintf_internal_r+0x1740>
    6a90:	d9401a04 	addi	r5,sp,104
    6a94:	dd001004 	addi	r20,sp,64
    6a98:	d9414215 	stw	r5,1288(sp)
    6a9c:	003d6106 	br	6024 <___vfprintf_internal_r+0xa6c>
    6aa0:	d9015017 	ldw	r4,1344(sp)
    6aa4:	b00b883a 	mov	r5,r22
    6aa8:	d9800d04 	addi	r6,sp,52
    6aac:	00055600 	call	5560 <__sprint_r>
    6ab0:	103c791e 	bne	r2,zero,5c98 <___vfprintf_internal_r+0x6e0>
    6ab4:	dc800f17 	ldw	r18,60(sp)
    6ab8:	d8c01a04 	addi	r3,sp,104
    6abc:	003cff06 	br	5ebc <___vfprintf_internal_r+0x904>
    6ac0:	d8c14d17 	ldw	r3,1332(sp)
    6ac4:	1880040c 	andi	r2,r3,16
    6ac8:	1000711e 	bne	r2,zero,6c90 <___vfprintf_internal_r+0x16d8>
    6acc:	d9014d17 	ldw	r4,1332(sp)
    6ad0:	2080100c 	andi	r2,r4,64
    6ad4:	10006e26 	beq	r2,zero,6c90 <___vfprintf_internal_r+0x16d8>
    6ad8:	3c00000b 	ldhu	r16,0(r7)
    6adc:	0023883a 	mov	r17,zero
    6ae0:	39c00104 	addi	r7,r7,4
    6ae4:	d9c14115 	stw	r7,1284(sp)
    6ae8:	003f0006 	br	66ec <___vfprintf_internal_r+0x1134>
    6aec:	dc400e17 	ldw	r17,56(sp)
    6af0:	07020034 	movhi	fp,2048
    6af4:	e7003704 	addi	fp,fp,220
    6af8:	9425883a 	add	r18,r18,r16
    6afc:	8c400044 	addi	r17,r17,1
    6b00:	008001c4 	movi	r2,7
    6b04:	1f000015 	stw	fp,0(r3)
    6b08:	1c000115 	stw	r16,4(r3)
    6b0c:	dc800f15 	stw	r18,60(sp)
    6b10:	dc400e15 	stw	r17,56(sp)
    6b14:	147d7616 	blt	r2,r17,60f0 <___vfprintf_internal_r+0xb38>
    6b18:	18c00204 	addi	r3,r3,8
    6b1c:	003d7b06 	br	610c <___vfprintf_internal_r+0xb54>
    6b20:	dc800f17 	ldw	r18,60(sp)
    6b24:	dc400e17 	ldw	r17,56(sp)
    6b28:	07020034 	movhi	fp,2048
    6b2c:	e7003b04 	addi	fp,fp,236
    6b30:	003bc006 	br	5a34 <___vfprintf_internal_r+0x47c>
    6b34:	d9015017 	ldw	r4,1344(sp)
    6b38:	b00b883a 	mov	r5,r22
    6b3c:	d9800d04 	addi	r6,sp,52
    6b40:	00055600 	call	5560 <__sprint_r>
    6b44:	103c541e 	bne	r2,zero,5c98 <___vfprintf_internal_r+0x6e0>
    6b48:	dc800f17 	ldw	r18,60(sp)
    6b4c:	d8c01a04 	addi	r3,sp,104
    6b50:	003ce906 	br	5ef8 <___vfprintf_internal_r+0x940>
    6b54:	3c000017 	ldw	r16,0(r7)
    6b58:	0009883a 	mov	r4,zero
    6b5c:	39c00104 	addi	r7,r7,4
    6b60:	0023883a 	mov	r17,zero
    6b64:	d9c14115 	stw	r7,1284(sp)
    6b68:	d8000405 	stb	zero,16(sp)
    6b6c:	003d2006 	br	5ff0 <___vfprintf_internal_r+0xa38>
    6b70:	38800017 	ldw	r2,0(r7)
    6b74:	39c00104 	addi	r7,r7,4
    6b78:	d9c14115 	stw	r7,1284(sp)
    6b7c:	1023d7fa 	srai	r17,r2,31
    6b80:	1021883a 	mov	r16,r2
    6b84:	003d1806 	br	5fe8 <___vfprintf_internal_r+0xa30>
    6b88:	3c000017 	ldw	r16,0(r7)
    6b8c:	01000044 	movi	r4,1
    6b90:	39c00104 	addi	r7,r7,4
    6b94:	0023883a 	mov	r17,zero
    6b98:	d9c14115 	stw	r7,1284(sp)
    6b9c:	d8000405 	stb	zero,16(sp)
    6ba0:	003d1306 	br	5ff0 <___vfprintf_internal_r+0xa38>
    6ba4:	00820034 	movhi	r2,2048
    6ba8:	10803604 	addi	r2,r2,216
    6bac:	94800044 	addi	r18,r18,1
    6bb0:	8c400044 	addi	r17,r17,1
    6bb4:	a8800015 	stw	r2,0(r21)
    6bb8:	00c00044 	movi	r3,1
    6bbc:	008001c4 	movi	r2,7
    6bc0:	a8c00115 	stw	r3,4(r21)
    6bc4:	dc800f15 	stw	r18,60(sp)
    6bc8:	dc400e15 	stw	r17,56(sp)
    6bcc:	1440ca16 	blt	r2,r17,6ef8 <___vfprintf_internal_r+0x1940>
    6bd0:	a8c00204 	addi	r3,r21,8
    6bd4:	2000061e 	bne	r4,zero,6bf0 <___vfprintf_internal_r+0x1638>
    6bd8:	d9414817 	ldw	r5,1312(sp)
    6bdc:	2800041e 	bne	r5,zero,6bf0 <___vfprintf_internal_r+0x1638>
    6be0:	d9814d17 	ldw	r6,1332(sp)
    6be4:	3080004c 	andi	r2,r6,1
    6be8:	1005003a 	cmpeq	r2,r2,zero
    6bec:	103bf01e 	bne	r2,zero,5bb0 <___vfprintf_internal_r+0x5f8>
    6bf0:	00800044 	movi	r2,1
    6bf4:	dc400e17 	ldw	r17,56(sp)
    6bf8:	18800115 	stw	r2,4(r3)
    6bfc:	d8814a17 	ldw	r2,1320(sp)
    6c00:	94800044 	addi	r18,r18,1
    6c04:	8c400044 	addi	r17,r17,1
    6c08:	18800015 	stw	r2,0(r3)
    6c0c:	008001c4 	movi	r2,7
    6c10:	dc800f15 	stw	r18,60(sp)
    6c14:	dc400e15 	stw	r17,56(sp)
    6c18:	1440ca16 	blt	r2,r17,6f44 <___vfprintf_internal_r+0x198c>
    6c1c:	18c00204 	addi	r3,r3,8
    6c20:	0121c83a 	sub	r16,zero,r4
    6c24:	0400500e 	bge	zero,r16,6d68 <___vfprintf_internal_r+0x17b0>
    6c28:	00800404 	movi	r2,16
    6c2c:	1400800e 	bge	r2,r16,6e30 <___vfprintf_internal_r+0x1878>
    6c30:	1027883a 	mov	r19,r2
    6c34:	07020034 	movhi	fp,2048
    6c38:	e7003704 	addi	fp,fp,220
    6c3c:	050001c4 	movi	r20,7
    6c40:	00000306 	br	6c50 <___vfprintf_internal_r+0x1698>
    6c44:	18c00204 	addi	r3,r3,8
    6c48:	843ffc04 	addi	r16,r16,-16
    6c4c:	9c007a0e 	bge	r19,r16,6e38 <___vfprintf_internal_r+0x1880>
    6c50:	94800404 	addi	r18,r18,16
    6c54:	8c400044 	addi	r17,r17,1
    6c58:	1f000015 	stw	fp,0(r3)
    6c5c:	1cc00115 	stw	r19,4(r3)
    6c60:	dc800f15 	stw	r18,60(sp)
    6c64:	dc400e15 	stw	r17,56(sp)
    6c68:	a47ff60e 	bge	r20,r17,6c44 <___vfprintf_internal_r+0x168c>
    6c6c:	d9015017 	ldw	r4,1344(sp)
    6c70:	b00b883a 	mov	r5,r22
    6c74:	d9800d04 	addi	r6,sp,52
    6c78:	00055600 	call	5560 <__sprint_r>
    6c7c:	103c061e 	bne	r2,zero,5c98 <___vfprintf_internal_r+0x6e0>
    6c80:	dc800f17 	ldw	r18,60(sp)
    6c84:	dc400e17 	ldw	r17,56(sp)
    6c88:	d8c01a04 	addi	r3,sp,104
    6c8c:	003fee06 	br	6c48 <___vfprintf_internal_r+0x1690>
    6c90:	3c000017 	ldw	r16,0(r7)
    6c94:	0023883a 	mov	r17,zero
    6c98:	39c00104 	addi	r7,r7,4
    6c9c:	d9c14115 	stw	r7,1284(sp)
    6ca0:	003e9206 	br	66ec <___vfprintf_internal_r+0x1134>
    6ca4:	d9401a04 	addi	r5,sp,104
    6ca8:	dd001004 	addi	r20,sp,64
    6cac:	d9414215 	stw	r5,1288(sp)
    6cb0:	d9814517 	ldw	r6,1300(sp)
    6cb4:	880a973a 	slli	r5,r17,28
    6cb8:	8004d13a 	srli	r2,r16,4
    6cbc:	810003cc 	andi	r4,r16,15
    6cc0:	3109883a 	add	r4,r6,r4
    6cc4:	2884b03a 	or	r2,r5,r2
    6cc8:	21400003 	ldbu	r5,0(r4)
    6ccc:	d9014217 	ldw	r4,1288(sp)
    6cd0:	8806d13a 	srli	r3,r17,4
    6cd4:	1021883a 	mov	r16,r2
    6cd8:	213fffc4 	addi	r4,r4,-1
    6cdc:	d9014215 	stw	r4,1288(sp)
    6ce0:	d9814217 	ldw	r6,1288(sp)
    6ce4:	10c8b03a 	or	r4,r2,r3
    6ce8:	1823883a 	mov	r17,r3
    6cec:	31400005 	stb	r5,0(r6)
    6cf0:	203fef1e 	bne	r4,zero,6cb0 <___vfprintf_internal_r+0x16f8>
    6cf4:	003ccb06 	br	6024 <___vfprintf_internal_r+0xa6c>
    6cf8:	00800c04 	movi	r2,48
    6cfc:	d98019c4 	addi	r6,sp,103
    6d00:	dd001004 	addi	r20,sp,64
    6d04:	d88019c5 	stb	r2,103(sp)
    6d08:	d9814215 	stw	r6,1288(sp)
    6d0c:	003cc506 	br	6024 <___vfprintf_internal_r+0xa6c>
    6d10:	dc400e17 	ldw	r17,56(sp)
    6d14:	07020034 	movhi	fp,2048
    6d18:	e7003b04 	addi	fp,fp,236
    6d1c:	003bc706 	br	5c3c <___vfprintf_internal_r+0x684>
    6d20:	d9414d17 	ldw	r5,1332(sp)
    6d24:	2880040c 	andi	r2,r5,16
    6d28:	10007c26 	beq	r2,zero,6f1c <___vfprintf_internal_r+0x1964>
    6d2c:	38800017 	ldw	r2,0(r7)
    6d30:	39c00104 	addi	r7,r7,4
    6d34:	d9c14115 	stw	r7,1284(sp)
    6d38:	d9814c17 	ldw	r6,1328(sp)
    6d3c:	d9c14117 	ldw	r7,1284(sp)
    6d40:	11800015 	stw	r6,0(r2)
    6d44:	003a7806 	br	5728 <___vfprintf_internal_r+0x170>
    6d48:	d9015017 	ldw	r4,1344(sp)
    6d4c:	b00b883a 	mov	r5,r22
    6d50:	d9800d04 	addi	r6,sp,52
    6d54:	00055600 	call	5560 <__sprint_r>
    6d58:	103bcf1e 	bne	r2,zero,5c98 <___vfprintf_internal_r+0x6e0>
    6d5c:	dc800f17 	ldw	r18,60(sp)
    6d60:	dc400e17 	ldw	r17,56(sp)
    6d64:	d8c01a04 	addi	r3,sp,104
    6d68:	d9014817 	ldw	r4,1312(sp)
    6d6c:	d9414217 	ldw	r5,1288(sp)
    6d70:	8c400044 	addi	r17,r17,1
    6d74:	9125883a 	add	r18,r18,r4
    6d78:	008001c4 	movi	r2,7
    6d7c:	19400015 	stw	r5,0(r3)
    6d80:	19000115 	stw	r4,4(r3)
    6d84:	dc800f15 	stw	r18,60(sp)
    6d88:	dc400e15 	stw	r17,56(sp)
    6d8c:	147cee16 	blt	r2,r17,6148 <___vfprintf_internal_r+0xb90>
    6d90:	18c00204 	addi	r3,r3,8
    6d94:	003b8606 	br	5bb0 <___vfprintf_internal_r+0x5f8>
    6d98:	38c00017 	ldw	r3,0(r7)
    6d9c:	39000204 	addi	r4,r7,8
    6da0:	d9014115 	stw	r4,1284(sp)
    6da4:	d8c14315 	stw	r3,1292(sp)
    6da8:	39c00117 	ldw	r7,4(r7)
    6dac:	d9c14415 	stw	r7,1296(sp)
    6db0:	003e2006 	br	6634 <___vfprintf_internal_r+0x107c>
    6db4:	0005883a 	mov	r2,zero
    6db8:	1409c83a 	sub	r4,r2,r16
    6dbc:	1105803a 	cmpltu	r2,r2,r4
    6dc0:	044bc83a 	sub	r5,zero,r17
    6dc4:	2885c83a 	sub	r2,r5,r2
    6dc8:	2021883a 	mov	r16,r4
    6dcc:	1023883a 	mov	r17,r2
    6dd0:	01000044 	movi	r4,1
    6dd4:	00800b44 	movi	r2,45
    6dd8:	d8800405 	stb	r2,16(sp)
    6ddc:	003c8406 	br	5ff0 <___vfprintf_internal_r+0xa38>
    6de0:	d9015017 	ldw	r4,1344(sp)
    6de4:	b00b883a 	mov	r5,r22
    6de8:	d9800d04 	addi	r6,sp,52
    6dec:	00055600 	call	5560 <__sprint_r>
    6df0:	103ba91e 	bne	r2,zero,5c98 <___vfprintf_internal_r+0x6e0>
    6df4:	dc800f17 	ldw	r18,60(sp)
    6df8:	dc400e17 	ldw	r17,56(sp)
    6dfc:	d9000617 	ldw	r4,24(sp)
    6e00:	d9401a04 	addi	r5,sp,104
    6e04:	003da706 	br	64a4 <___vfprintf_internal_r+0xeec>
    6e08:	d9015017 	ldw	r4,1344(sp)
    6e0c:	b00b883a 	mov	r5,r22
    6e10:	d9800d04 	addi	r6,sp,52
    6e14:	00055600 	call	5560 <__sprint_r>
    6e18:	103b9f1e 	bne	r2,zero,5c98 <___vfprintf_internal_r+0x6e0>
    6e1c:	dc800f17 	ldw	r18,60(sp)
    6e20:	dc400e17 	ldw	r17,56(sp)
    6e24:	d9000617 	ldw	r4,24(sp)
    6e28:	d8c01a04 	addi	r3,sp,104
    6e2c:	003d9106 	br	6474 <___vfprintf_internal_r+0xebc>
    6e30:	07020034 	movhi	fp,2048
    6e34:	e7003704 	addi	fp,fp,220
    6e38:	9425883a 	add	r18,r18,r16
    6e3c:	8c400044 	addi	r17,r17,1
    6e40:	008001c4 	movi	r2,7
    6e44:	1f000015 	stw	fp,0(r3)
    6e48:	1c000115 	stw	r16,4(r3)
    6e4c:	dc800f15 	stw	r18,60(sp)
    6e50:	dc400e15 	stw	r17,56(sp)
    6e54:	147fbc16 	blt	r2,r17,6d48 <___vfprintf_internal_r+0x1790>
    6e58:	18c00204 	addi	r3,r3,8
    6e5c:	003fc206 	br	6d68 <___vfprintf_internal_r+0x17b0>
    6e60:	d9015017 	ldw	r4,1344(sp)
    6e64:	b00b883a 	mov	r5,r22
    6e68:	d9800d04 	addi	r6,sp,52
    6e6c:	00055600 	call	5560 <__sprint_r>
    6e70:	103b891e 	bne	r2,zero,5c98 <___vfprintf_internal_r+0x6e0>
    6e74:	dc800f17 	ldw	r18,60(sp)
    6e78:	d9000617 	ldw	r4,24(sp)
    6e7c:	d8c01a04 	addi	r3,sp,104
    6e80:	003d0206 	br	628c <___vfprintf_internal_r+0xcd4>
    6e84:	07020034 	movhi	fp,2048
    6e88:	e7003704 	addi	fp,fp,220
    6e8c:	003be406 	br	5e20 <___vfprintf_internal_r+0x868>
    6e90:	00820034 	movhi	r2,2048
    6e94:	10802504 	addi	r2,r2,148
    6e98:	d8814215 	stw	r2,1288(sp)
    6e9c:	003df506 	br	6674 <___vfprintf_internal_r+0x10bc>
    6ea0:	d9014317 	ldw	r4,1292(sp)
    6ea4:	d9414417 	ldw	r5,1296(sp)
    6ea8:	000be600 	call	be60 <__isnand>
    6eac:	10003926 	beq	r2,zero,6f94 <___vfprintf_internal_r+0x19dc>
    6eb0:	d9414e17 	ldw	r5,1336(sp)
    6eb4:	008011c4 	movi	r2,71
    6eb8:	1140ce16 	blt	r2,r5,71f4 <___vfprintf_internal_r+0x1c3c>
    6ebc:	01820034 	movhi	r6,2048
    6ec0:	31802604 	addi	r6,r6,152
    6ec4:	d9814215 	stw	r6,1288(sp)
    6ec8:	003dea06 	br	6674 <___vfprintf_internal_r+0x10bc>
    6ecc:	d9014d17 	ldw	r4,1332(sp)
    6ed0:	bdc00044 	addi	r23,r23,1
    6ed4:	b8c00007 	ldb	r3,0(r23)
    6ed8:	21000814 	ori	r4,r4,32
    6edc:	d9014d15 	stw	r4,1332(sp)
    6ee0:	003a3406 	br	57b4 <___vfprintf_internal_r+0x1fc>
    6ee4:	dcc14615 	stw	r19,1304(sp)
    6ee8:	98011016 	blt	r19,zero,732c <___vfprintf_internal_r+0x1d74>
    6eec:	980f883a 	mov	r7,r19
    6ef0:	d8014715 	stw	zero,1308(sp)
    6ef4:	003c5206 	br	6040 <___vfprintf_internal_r+0xa88>
    6ef8:	d9015017 	ldw	r4,1344(sp)
    6efc:	b00b883a 	mov	r5,r22
    6f00:	d9800d04 	addi	r6,sp,52
    6f04:	00055600 	call	5560 <__sprint_r>
    6f08:	103b631e 	bne	r2,zero,5c98 <___vfprintf_internal_r+0x6e0>
    6f0c:	dc800f17 	ldw	r18,60(sp)
    6f10:	d9000617 	ldw	r4,24(sp)
    6f14:	d8c01a04 	addi	r3,sp,104
    6f18:	003f2e06 	br	6bd4 <___vfprintf_internal_r+0x161c>
    6f1c:	d8c14d17 	ldw	r3,1332(sp)
    6f20:	1880100c 	andi	r2,r3,64
    6f24:	1000a026 	beq	r2,zero,71a8 <___vfprintf_internal_r+0x1bf0>
    6f28:	38800017 	ldw	r2,0(r7)
    6f2c:	39c00104 	addi	r7,r7,4
    6f30:	d9c14115 	stw	r7,1284(sp)
    6f34:	d9014c17 	ldw	r4,1328(sp)
    6f38:	d9c14117 	ldw	r7,1284(sp)
    6f3c:	1100000d 	sth	r4,0(r2)
    6f40:	0039f906 	br	5728 <___vfprintf_internal_r+0x170>
    6f44:	d9015017 	ldw	r4,1344(sp)
    6f48:	b00b883a 	mov	r5,r22
    6f4c:	d9800d04 	addi	r6,sp,52
    6f50:	00055600 	call	5560 <__sprint_r>
    6f54:	103b501e 	bne	r2,zero,5c98 <___vfprintf_internal_r+0x6e0>
    6f58:	dc800f17 	ldw	r18,60(sp)
    6f5c:	dc400e17 	ldw	r17,56(sp)
    6f60:	d9000617 	ldw	r4,24(sp)
    6f64:	d8c01a04 	addi	r3,sp,104
    6f68:	003f2d06 	br	6c20 <___vfprintf_internal_r+0x1668>
    6f6c:	00800184 	movi	r2,6
    6f70:	14c09a36 	bltu	r2,r19,71dc <___vfprintf_internal_r+0x1c24>
    6f74:	dcc14615 	stw	r19,1304(sp)
    6f78:	9800010e 	bge	r19,zero,6f80 <___vfprintf_internal_r+0x19c8>
    6f7c:	d8014615 	stw	zero,1304(sp)
    6f80:	00820034 	movhi	r2,2048
    6f84:	10802804 	addi	r2,r2,160
    6f88:	980f883a 	mov	r7,r19
    6f8c:	d8814215 	stw	r2,1288(sp)
    6f90:	003a7806 	br	5974 <___vfprintf_internal_r+0x3bc>
    6f94:	00bfffc4 	movi	r2,-1
    6f98:	9880e226 	beq	r19,r2,7324 <___vfprintf_internal_r+0x1d6c>
    6f9c:	d9414e17 	ldw	r5,1336(sp)
    6fa0:	008019c4 	movi	r2,103
    6fa4:	2880dc26 	beq	r5,r2,7318 <___vfprintf_internal_r+0x1d60>
    6fa8:	008011c4 	movi	r2,71
    6fac:	2880da26 	beq	r5,r2,7318 <___vfprintf_internal_r+0x1d60>
    6fb0:	d9414d17 	ldw	r5,1332(sp)
    6fb4:	d9014417 	ldw	r4,1296(sp)
    6fb8:	d9814317 	ldw	r6,1292(sp)
    6fbc:	29404014 	ori	r5,r5,256
    6fc0:	d9414d15 	stw	r5,1332(sp)
    6fc4:	2000cc16 	blt	r4,zero,72f8 <___vfprintf_internal_r+0x1d40>
    6fc8:	3021883a 	mov	r16,r6
    6fcc:	2023883a 	mov	r17,r4
    6fd0:	0039883a 	mov	fp,zero
    6fd4:	d9414e17 	ldw	r5,1336(sp)
    6fd8:	00801984 	movi	r2,102
    6fdc:	2880b726 	beq	r5,r2,72bc <___vfprintf_internal_r+0x1d04>
    6fe0:	00801184 	movi	r2,70
    6fe4:	2880b526 	beq	r5,r2,72bc <___vfprintf_internal_r+0x1d04>
    6fe8:	00801944 	movi	r2,101
    6fec:	2880c826 	beq	r5,r2,7310 <___vfprintf_internal_r+0x1d58>
    6ff0:	00801144 	movi	r2,69
    6ff4:	2880c626 	beq	r5,r2,7310 <___vfprintf_internal_r+0x1d58>
    6ff8:	9829883a 	mov	r20,r19
    6ffc:	d9015017 	ldw	r4,1344(sp)
    7000:	d8800604 	addi	r2,sp,24
    7004:	880d883a 	mov	r6,r17
    7008:	d8800115 	stw	r2,4(sp)
    700c:	d8c00704 	addi	r3,sp,28
    7010:	d8800804 	addi	r2,sp,32
    7014:	800b883a 	mov	r5,r16
    7018:	01c00084 	movi	r7,2
    701c:	d8c00215 	stw	r3,8(sp)
    7020:	d8800315 	stw	r2,12(sp)
    7024:	dd000015 	stw	r20,0(sp)
    7028:	00077dc0 	call	77dc <_dtoa_r>
    702c:	d9814e17 	ldw	r6,1336(sp)
    7030:	d8814215 	stw	r2,1288(sp)
    7034:	008019c4 	movi	r2,103
    7038:	30809526 	beq	r6,r2,7290 <___vfprintf_internal_r+0x1cd8>
    703c:	d8c14e17 	ldw	r3,1336(sp)
    7040:	008011c4 	movi	r2,71
    7044:	18809226 	beq	r3,r2,7290 <___vfprintf_internal_r+0x1cd8>
    7048:	d9414217 	ldw	r5,1288(sp)
    704c:	d9814e17 	ldw	r6,1336(sp)
    7050:	00801984 	movi	r2,102
    7054:	2d25883a 	add	r18,r5,r20
    7058:	30808626 	beq	r6,r2,7274 <___vfprintf_internal_r+0x1cbc>
    705c:	00801184 	movi	r2,70
    7060:	30808426 	beq	r6,r2,7274 <___vfprintf_internal_r+0x1cbc>
    7064:	000d883a 	mov	r6,zero
    7068:	000f883a 	mov	r7,zero
    706c:	880b883a 	mov	r5,r17
    7070:	8009883a 	mov	r4,r16
    7074:	000dc480 	call	dc48 <__eqdf2>
    7078:	1000751e 	bne	r2,zero,7250 <___vfprintf_internal_r+0x1c98>
    707c:	9005883a 	mov	r2,r18
    7080:	dc800815 	stw	r18,32(sp)
    7084:	d9014217 	ldw	r4,1288(sp)
    7088:	d9414e17 	ldw	r5,1336(sp)
    708c:	00c019c4 	movi	r3,103
    7090:	1125c83a 	sub	r18,r2,r4
    7094:	28c06826 	beq	r5,r3,7238 <___vfprintf_internal_r+0x1c80>
    7098:	008011c4 	movi	r2,71
    709c:	28806626 	beq	r5,r2,7238 <___vfprintf_internal_r+0x1c80>
    70a0:	d9000617 	ldw	r4,24(sp)
    70a4:	d8c14e17 	ldw	r3,1336(sp)
    70a8:	00801944 	movi	r2,101
    70ac:	10c05516 	blt	r2,r3,7204 <___vfprintf_internal_r+0x1c4c>
    70b0:	213fffc4 	addi	r4,r4,-1
    70b4:	d9000615 	stw	r4,24(sp)
    70b8:	d8c00905 	stb	r3,36(sp)
    70bc:	2021883a 	mov	r16,r4
    70c0:	2000c116 	blt	r4,zero,73c8 <___vfprintf_internal_r+0x1e10>
    70c4:	00800ac4 	movi	r2,43
    70c8:	d8800945 	stb	r2,37(sp)
    70cc:	00800244 	movi	r2,9
    70d0:	1400af0e 	bge	r2,r16,7390 <___vfprintf_internal_r+0x1dd8>
    70d4:	1027883a 	mov	r19,r2
    70d8:	dc400cc4 	addi	r17,sp,51
    70dc:	8009883a 	mov	r4,r16
    70e0:	01400284 	movi	r5,10
    70e4:	000e3300 	call	e330 <__modsi3>
    70e8:	10800c04 	addi	r2,r2,48
    70ec:	8c7fffc4 	addi	r17,r17,-1
    70f0:	8009883a 	mov	r4,r16
    70f4:	01400284 	movi	r5,10
    70f8:	88800005 	stb	r2,0(r17)
    70fc:	000e2d00 	call	e2d0 <__divsi3>
    7100:	1021883a 	mov	r16,r2
    7104:	98bff516 	blt	r19,r2,70dc <___vfprintf_internal_r+0x1b24>
    7108:	10c00c04 	addi	r3,r2,48
    710c:	d8800b04 	addi	r2,sp,44
    7110:	108001c4 	addi	r2,r2,7
    7114:	897fffc4 	addi	r5,r17,-1
    7118:	88ffffc5 	stb	r3,-1(r17)
    711c:	2880a72e 	bgeu	r5,r2,73bc <___vfprintf_internal_r+0x1e04>
    7120:	1009883a 	mov	r4,r2
    7124:	d9800904 	addi	r6,sp,36
    7128:	d8c00984 	addi	r3,sp,38
    712c:	28800003 	ldbu	r2,0(r5)
    7130:	29400044 	addi	r5,r5,1
    7134:	18800005 	stb	r2,0(r3)
    7138:	18c00044 	addi	r3,r3,1
    713c:	293ffb36 	bltu	r5,r4,712c <___vfprintf_internal_r+0x1b74>
    7140:	1987c83a 	sub	r3,r3,r6
    7144:	00800044 	movi	r2,1
    7148:	d8c14915 	stw	r3,1316(sp)
    714c:	90cf883a 	add	r7,r18,r3
    7150:	1480960e 	bge	r2,r18,73ac <___vfprintf_internal_r+0x1df4>
    7154:	39c00044 	addi	r7,r7,1
    7158:	d9c14615 	stw	r7,1304(sp)
    715c:	38003416 	blt	r7,zero,7230 <___vfprintf_internal_r+0x1c78>
    7160:	e0803fcc 	andi	r2,fp,255
    7164:	1080201c 	xori	r2,r2,128
    7168:	10bfe004 	addi	r2,r2,-128
    716c:	10004e26 	beq	r2,zero,72a8 <___vfprintf_internal_r+0x1cf0>
    7170:	00800b44 	movi	r2,45
    7174:	dc814815 	stw	r18,1312(sp)
    7178:	d8014715 	stw	zero,1308(sp)
    717c:	d8800405 	stb	r2,16(sp)
    7180:	003bb106 	br	6048 <___vfprintf_internal_r+0xa90>
    7184:	00800b44 	movi	r2,45
    7188:	d8800405 	stb	r2,16(sp)
    718c:	003d3306 	br	665c <___vfprintf_internal_r+0x10a4>
    7190:	d9015017 	ldw	r4,1344(sp)
    7194:	b00b883a 	mov	r5,r22
    7198:	d9800d04 	addi	r6,sp,52
    719c:	00055600 	call	5560 <__sprint_r>
    71a0:	103abd1e 	bne	r2,zero,5c98 <___vfprintf_internal_r+0x6e0>
    71a4:	003abb06 	br	5c94 <___vfprintf_internal_r+0x6dc>
    71a8:	38800017 	ldw	r2,0(r7)
    71ac:	39c00104 	addi	r7,r7,4
    71b0:	d9c14115 	stw	r7,1284(sp)
    71b4:	d9414c17 	ldw	r5,1328(sp)
    71b8:	d9c14117 	ldw	r7,1284(sp)
    71bc:	11400015 	stw	r5,0(r2)
    71c0:	00395906 	br	5728 <___vfprintf_internal_r+0x170>
    71c4:	980f883a 	mov	r7,r19
    71c8:	dcc14615 	stw	r19,1304(sp)
    71cc:	d8014715 	stw	zero,1308(sp)
    71d0:	003b9b06 	br	6040 <___vfprintf_internal_r+0xa88>
    71d4:	0027883a 	mov	r19,zero
    71d8:	00397806 	br	57bc <___vfprintf_internal_r+0x204>
    71dc:	00c20034 	movhi	r3,2048
    71e0:	18c02804 	addi	r3,r3,160
    71e4:	100f883a 	mov	r7,r2
    71e8:	d8814615 	stw	r2,1304(sp)
    71ec:	d8c14215 	stw	r3,1288(sp)
    71f0:	0039e006 	br	5974 <___vfprintf_internal_r+0x3bc>
    71f4:	00820034 	movhi	r2,2048
    71f8:	10802704 	addi	r2,r2,156
    71fc:	d8814215 	stw	r2,1288(sp)
    7200:	003d1c06 	br	6674 <___vfprintf_internal_r+0x10bc>
    7204:	d9414e17 	ldw	r5,1336(sp)
    7208:	00801984 	movi	r2,102
    720c:	28804926 	beq	r5,r2,7334 <___vfprintf_internal_r+0x1d7c>
    7210:	200f883a 	mov	r7,r4
    7214:	24805716 	blt	r4,r18,7374 <___vfprintf_internal_r+0x1dbc>
    7218:	d9414d17 	ldw	r5,1332(sp)
    721c:	2880004c 	andi	r2,r5,1
    7220:	10000126 	beq	r2,zero,7228 <___vfprintf_internal_r+0x1c70>
    7224:	21c00044 	addi	r7,r4,1
    7228:	d9c14615 	stw	r7,1304(sp)
    722c:	383fcc0e 	bge	r7,zero,7160 <___vfprintf_internal_r+0x1ba8>
    7230:	d8014615 	stw	zero,1304(sp)
    7234:	003fca06 	br	7160 <___vfprintf_internal_r+0x1ba8>
    7238:	d9000617 	ldw	r4,24(sp)
    723c:	00bfff04 	movi	r2,-4
    7240:	1100480e 	bge	r2,r4,7364 <___vfprintf_internal_r+0x1dac>
    7244:	99004716 	blt	r19,r4,7364 <___vfprintf_internal_r+0x1dac>
    7248:	d8c14e15 	stw	r3,1336(sp)
    724c:	003ff006 	br	7210 <___vfprintf_internal_r+0x1c58>
    7250:	d8800817 	ldw	r2,32(sp)
    7254:	14bf8b2e 	bgeu	r2,r18,7084 <___vfprintf_internal_r+0x1acc>
    7258:	9007883a 	mov	r3,r18
    725c:	01000c04 	movi	r4,48
    7260:	11000005 	stb	r4,0(r2)
    7264:	10800044 	addi	r2,r2,1
    7268:	d8800815 	stw	r2,32(sp)
    726c:	18bffc1e 	bne	r3,r2,7260 <___vfprintf_internal_r+0x1ca8>
    7270:	003f8406 	br	7084 <___vfprintf_internal_r+0x1acc>
    7274:	d8814217 	ldw	r2,1288(sp)
    7278:	10c00007 	ldb	r3,0(r2)
    727c:	00800c04 	movi	r2,48
    7280:	18805b26 	beq	r3,r2,73f0 <___vfprintf_internal_r+0x1e38>
    7284:	d9000617 	ldw	r4,24(sp)
    7288:	9125883a 	add	r18,r18,r4
    728c:	003f7506 	br	7064 <___vfprintf_internal_r+0x1aac>
    7290:	d9014d17 	ldw	r4,1332(sp)
    7294:	2080004c 	andi	r2,r4,1
    7298:	1005003a 	cmpeq	r2,r2,zero
    729c:	103f6a26 	beq	r2,zero,7048 <___vfprintf_internal_r+0x1a90>
    72a0:	d8800817 	ldw	r2,32(sp)
    72a4:	003f7706 	br	7084 <___vfprintf_internal_r+0x1acc>
    72a8:	d9c14615 	stw	r7,1304(sp)
    72ac:	38004d16 	blt	r7,zero,73e4 <___vfprintf_internal_r+0x1e2c>
    72b0:	dc814815 	stw	r18,1312(sp)
    72b4:	d8014715 	stw	zero,1308(sp)
    72b8:	003b6106 	br	6040 <___vfprintf_internal_r+0xa88>
    72bc:	d9015017 	ldw	r4,1344(sp)
    72c0:	d8800604 	addi	r2,sp,24
    72c4:	d8800115 	stw	r2,4(sp)
    72c8:	d8c00704 	addi	r3,sp,28
    72cc:	d8800804 	addi	r2,sp,32
    72d0:	800b883a 	mov	r5,r16
    72d4:	880d883a 	mov	r6,r17
    72d8:	01c000c4 	movi	r7,3
    72dc:	d8c00215 	stw	r3,8(sp)
    72e0:	d8800315 	stw	r2,12(sp)
    72e4:	dcc00015 	stw	r19,0(sp)
    72e8:	9829883a 	mov	r20,r19
    72ec:	00077dc0 	call	77dc <_dtoa_r>
    72f0:	d8814215 	stw	r2,1288(sp)
    72f4:	003f5106 	br	703c <___vfprintf_internal_r+0x1a84>
    72f8:	d8c14317 	ldw	r3,1292(sp)
    72fc:	d9014417 	ldw	r4,1296(sp)
    7300:	07000b44 	movi	fp,45
    7304:	1821883a 	mov	r16,r3
    7308:	2460003c 	xorhi	r17,r4,32768
    730c:	003f3106 	br	6fd4 <___vfprintf_internal_r+0x1a1c>
    7310:	9d000044 	addi	r20,r19,1
    7314:	003f3906 	br	6ffc <___vfprintf_internal_r+0x1a44>
    7318:	983f251e 	bne	r19,zero,6fb0 <___vfprintf_internal_r+0x19f8>
    731c:	04c00044 	movi	r19,1
    7320:	003f2306 	br	6fb0 <___vfprintf_internal_r+0x19f8>
    7324:	04c00184 	movi	r19,6
    7328:	003f2106 	br	6fb0 <___vfprintf_internal_r+0x19f8>
    732c:	d8014615 	stw	zero,1304(sp)
    7330:	003eee06 	br	6eec <___vfprintf_internal_r+0x1934>
    7334:	200f883a 	mov	r7,r4
    7338:	0100370e 	bge	zero,r4,7418 <___vfprintf_internal_r+0x1e60>
    733c:	9800031e 	bne	r19,zero,734c <___vfprintf_internal_r+0x1d94>
    7340:	d9814d17 	ldw	r6,1332(sp)
    7344:	3080004c 	andi	r2,r6,1
    7348:	103fb726 	beq	r2,zero,7228 <___vfprintf_internal_r+0x1c70>
    734c:	20800044 	addi	r2,r4,1
    7350:	98a7883a 	add	r19,r19,r2
    7354:	dcc14615 	stw	r19,1304(sp)
    7358:	980f883a 	mov	r7,r19
    735c:	983f800e 	bge	r19,zero,7160 <___vfprintf_internal_r+0x1ba8>
    7360:	003fb306 	br	7230 <___vfprintf_internal_r+0x1c78>
    7364:	d9814e17 	ldw	r6,1336(sp)
    7368:	31bfff84 	addi	r6,r6,-2
    736c:	d9814e15 	stw	r6,1336(sp)
    7370:	003f4c06 	br	70a4 <___vfprintf_internal_r+0x1aec>
    7374:	0100180e 	bge	zero,r4,73d8 <___vfprintf_internal_r+0x1e20>
    7378:	00800044 	movi	r2,1
    737c:	1485883a 	add	r2,r2,r18
    7380:	d8814615 	stw	r2,1304(sp)
    7384:	100f883a 	mov	r7,r2
    7388:	103f750e 	bge	r2,zero,7160 <___vfprintf_internal_r+0x1ba8>
    738c:	003fa806 	br	7230 <___vfprintf_internal_r+0x1c78>
    7390:	80c00c04 	addi	r3,r16,48
    7394:	00800c04 	movi	r2,48
    7398:	d8c009c5 	stb	r3,39(sp)
    739c:	d9800904 	addi	r6,sp,36
    73a0:	d8c00a04 	addi	r3,sp,40
    73a4:	d8800985 	stb	r2,38(sp)
    73a8:	003f6506 	br	7140 <___vfprintf_internal_r+0x1b88>
    73ac:	d9014d17 	ldw	r4,1332(sp)
    73b0:	2084703a 	and	r2,r4,r2
    73b4:	103f9c26 	beq	r2,zero,7228 <___vfprintf_internal_r+0x1c70>
    73b8:	003f6606 	br	7154 <___vfprintf_internal_r+0x1b9c>
    73bc:	d9800904 	addi	r6,sp,36
    73c0:	d8c00984 	addi	r3,sp,38
    73c4:	003f5e06 	br	7140 <___vfprintf_internal_r+0x1b88>
    73c8:	00800b44 	movi	r2,45
    73cc:	0121c83a 	sub	r16,zero,r4
    73d0:	d8800945 	stb	r2,37(sp)
    73d4:	003f3d06 	br	70cc <___vfprintf_internal_r+0x1b14>
    73d8:	00800084 	movi	r2,2
    73dc:	1105c83a 	sub	r2,r2,r4
    73e0:	003fe606 	br	737c <___vfprintf_internal_r+0x1dc4>
    73e4:	d8014615 	stw	zero,1304(sp)
    73e8:	dc814815 	stw	r18,1312(sp)
    73ec:	003fb106 	br	72b4 <___vfprintf_internal_r+0x1cfc>
    73f0:	000d883a 	mov	r6,zero
    73f4:	000f883a 	mov	r7,zero
    73f8:	8009883a 	mov	r4,r16
    73fc:	880b883a 	mov	r5,r17
    7400:	000dcd00 	call	dcd0 <__nedf2>
    7404:	103f9f26 	beq	r2,zero,7284 <___vfprintf_internal_r+0x1ccc>
    7408:	00800044 	movi	r2,1
    740c:	1509c83a 	sub	r4,r2,r20
    7410:	d9000615 	stw	r4,24(sp)
    7414:	003f9b06 	br	7284 <___vfprintf_internal_r+0x1ccc>
    7418:	98000d1e 	bne	r19,zero,7450 <___vfprintf_internal_r+0x1e98>
    741c:	d8c14d17 	ldw	r3,1332(sp)
    7420:	1880004c 	andi	r2,r3,1
    7424:	10000a1e 	bne	r2,zero,7450 <___vfprintf_internal_r+0x1e98>
    7428:	01000044 	movi	r4,1
    742c:	200f883a 	mov	r7,r4
    7430:	d9014615 	stw	r4,1304(sp)
    7434:	003f4a06 	br	7160 <___vfprintf_internal_r+0x1ba8>
    7438:	3cc00017 	ldw	r19,0(r7)
    743c:	39c00104 	addi	r7,r7,4
    7440:	983d0e0e 	bge	r19,zero,687c <___vfprintf_internal_r+0x12c4>
    7444:	b8c00007 	ldb	r3,0(r23)
    7448:	04ffffc4 	movi	r19,-1
    744c:	0038d906 	br	57b4 <___vfprintf_internal_r+0x1fc>
    7450:	9cc00084 	addi	r19,r19,2
    7454:	dcc14615 	stw	r19,1304(sp)
    7458:	980f883a 	mov	r7,r19
    745c:	983f400e 	bge	r19,zero,7160 <___vfprintf_internal_r+0x1ba8>
    7460:	003f7306 	br	7230 <___vfprintf_internal_r+0x1c78>

00007464 <__vfprintf_internal>:
    7464:	00820034 	movhi	r2,2048
    7468:	10892c04 	addi	r2,r2,9392
    746c:	2013883a 	mov	r9,r4
    7470:	11000017 	ldw	r4,0(r2)
    7474:	2805883a 	mov	r2,r5
    7478:	300f883a 	mov	r7,r6
    747c:	480b883a 	mov	r5,r9
    7480:	100d883a 	mov	r6,r2
    7484:	00055b81 	jmpi	55b8 <___vfprintf_internal_r>

00007488 <__swsetup_r>:
    7488:	00820034 	movhi	r2,2048
    748c:	10892c04 	addi	r2,r2,9392
    7490:	10c00017 	ldw	r3,0(r2)
    7494:	defffd04 	addi	sp,sp,-12
    7498:	dc400115 	stw	r17,4(sp)
    749c:	dc000015 	stw	r16,0(sp)
    74a0:	dfc00215 	stw	ra,8(sp)
    74a4:	2023883a 	mov	r17,r4
    74a8:	2821883a 	mov	r16,r5
    74ac:	18000226 	beq	r3,zero,74b8 <__swsetup_r+0x30>
    74b0:	18800e17 	ldw	r2,56(r3)
    74b4:	10001f26 	beq	r2,zero,7534 <__swsetup_r+0xac>
    74b8:	8100030b 	ldhu	r4,12(r16)
    74bc:	2080020c 	andi	r2,r4,8
    74c0:	10002826 	beq	r2,zero,7564 <__swsetup_r+0xdc>
    74c4:	81400417 	ldw	r5,16(r16)
    74c8:	28001d26 	beq	r5,zero,7540 <__swsetup_r+0xb8>
    74cc:	2080004c 	andi	r2,r4,1
    74d0:	1005003a 	cmpeq	r2,r2,zero
    74d4:	10000b26 	beq	r2,zero,7504 <__swsetup_r+0x7c>
    74d8:	2080008c 	andi	r2,r4,2
    74dc:	10001226 	beq	r2,zero,7528 <__swsetup_r+0xa0>
    74e0:	0005883a 	mov	r2,zero
    74e4:	80800215 	stw	r2,8(r16)
    74e8:	28000b26 	beq	r5,zero,7518 <__swsetup_r+0x90>
    74ec:	0005883a 	mov	r2,zero
    74f0:	dfc00217 	ldw	ra,8(sp)
    74f4:	dc400117 	ldw	r17,4(sp)
    74f8:	dc000017 	ldw	r16,0(sp)
    74fc:	dec00304 	addi	sp,sp,12
    7500:	f800283a 	ret
    7504:	80800517 	ldw	r2,20(r16)
    7508:	80000215 	stw	zero,8(r16)
    750c:	0085c83a 	sub	r2,zero,r2
    7510:	80800615 	stw	r2,24(r16)
    7514:	283ff51e 	bne	r5,zero,74ec <__swsetup_r+0x64>
    7518:	2080200c 	andi	r2,r4,128
    751c:	103ff326 	beq	r2,zero,74ec <__swsetup_r+0x64>
    7520:	00bfffc4 	movi	r2,-1
    7524:	003ff206 	br	74f0 <__swsetup_r+0x68>
    7528:	80800517 	ldw	r2,20(r16)
    752c:	80800215 	stw	r2,8(r16)
    7530:	003fed06 	br	74e8 <__swsetup_r+0x60>
    7534:	1809883a 	mov	r4,r3
    7538:	00090280 	call	9028 <__sinit>
    753c:	003fde06 	br	74b8 <__swsetup_r+0x30>
    7540:	20c0a00c 	andi	r3,r4,640
    7544:	00808004 	movi	r2,512
    7548:	18bfe026 	beq	r3,r2,74cc <__swsetup_r+0x44>
    754c:	8809883a 	mov	r4,r17
    7550:	800b883a 	mov	r5,r16
    7554:	0009da00 	call	9da0 <__smakebuf_r>
    7558:	8100030b 	ldhu	r4,12(r16)
    755c:	81400417 	ldw	r5,16(r16)
    7560:	003fda06 	br	74cc <__swsetup_r+0x44>
    7564:	2080040c 	andi	r2,r4,16
    7568:	103fed26 	beq	r2,zero,7520 <__swsetup_r+0x98>
    756c:	2080010c 	andi	r2,r4,4
    7570:	10001226 	beq	r2,zero,75bc <__swsetup_r+0x134>
    7574:	81400c17 	ldw	r5,48(r16)
    7578:	28000526 	beq	r5,zero,7590 <__swsetup_r+0x108>
    757c:	80801004 	addi	r2,r16,64
    7580:	28800226 	beq	r5,r2,758c <__swsetup_r+0x104>
    7584:	8809883a 	mov	r4,r17
    7588:	00093ac0 	call	93ac <_free_r>
    758c:	80000c15 	stw	zero,48(r16)
    7590:	8080030b 	ldhu	r2,12(r16)
    7594:	81400417 	ldw	r5,16(r16)
    7598:	80000115 	stw	zero,4(r16)
    759c:	10bff6cc 	andi	r2,r2,65499
    75a0:	8080030d 	sth	r2,12(r16)
    75a4:	81400015 	stw	r5,0(r16)
    75a8:	8080030b 	ldhu	r2,12(r16)
    75ac:	10800214 	ori	r2,r2,8
    75b0:	113fffcc 	andi	r4,r2,65535
    75b4:	8080030d 	sth	r2,12(r16)
    75b8:	003fc306 	br	74c8 <__swsetup_r+0x40>
    75bc:	81400417 	ldw	r5,16(r16)
    75c0:	003ff906 	br	75a8 <__swsetup_r+0x120>

000075c4 <quorem>:
    75c4:	28c00417 	ldw	r3,16(r5)
    75c8:	20800417 	ldw	r2,16(r4)
    75cc:	defff604 	addi	sp,sp,-40
    75d0:	ddc00715 	stw	r23,28(sp)
    75d4:	dd400515 	stw	r21,20(sp)
    75d8:	dfc00915 	stw	ra,36(sp)
    75dc:	df000815 	stw	fp,32(sp)
    75e0:	dd800615 	stw	r22,24(sp)
    75e4:	dd000415 	stw	r20,16(sp)
    75e8:	dcc00315 	stw	r19,12(sp)
    75ec:	dc800215 	stw	r18,8(sp)
    75f0:	dc400115 	stw	r17,4(sp)
    75f4:	dc000015 	stw	r16,0(sp)
    75f8:	202f883a 	mov	r23,r4
    75fc:	282b883a 	mov	r21,r5
    7600:	10c07416 	blt	r2,r3,77d4 <quorem+0x210>
    7604:	1c7fffc4 	addi	r17,r3,-1
    7608:	8c45883a 	add	r2,r17,r17
    760c:	1085883a 	add	r2,r2,r2
    7610:	2c000504 	addi	r16,r5,20
    7614:	24c00504 	addi	r19,r4,20
    7618:	14ed883a 	add	r22,r2,r19
    761c:	80a5883a 	add	r18,r16,r2
    7620:	b7000017 	ldw	fp,0(r22)
    7624:	91400017 	ldw	r5,0(r18)
    7628:	e009883a 	mov	r4,fp
    762c:	29400044 	addi	r5,r5,1
    7630:	000e3900 	call	e390 <__udivsi3>
    7634:	1029883a 	mov	r20,r2
    7638:	10003c1e 	bne	r2,zero,772c <quorem+0x168>
    763c:	a80b883a 	mov	r5,r21
    7640:	b809883a 	mov	r4,r23
    7644:	000a9940 	call	a994 <__mcmp>
    7648:	10002b16 	blt	r2,zero,76f8 <quorem+0x134>
    764c:	a5000044 	addi	r20,r20,1
    7650:	980f883a 	mov	r7,r19
    7654:	0011883a 	mov	r8,zero
    7658:	0009883a 	mov	r4,zero
    765c:	81400017 	ldw	r5,0(r16)
    7660:	38c00017 	ldw	r3,0(r7)
    7664:	84000104 	addi	r16,r16,4
    7668:	28bfffcc 	andi	r2,r5,65535
    766c:	2085883a 	add	r2,r4,r2
    7670:	11bfffcc 	andi	r6,r2,65535
    7674:	193fffcc 	andi	r4,r3,65535
    7678:	1004d43a 	srli	r2,r2,16
    767c:	280ad43a 	srli	r5,r5,16
    7680:	2189c83a 	sub	r4,r4,r6
    7684:	2209883a 	add	r4,r4,r8
    7688:	1806d43a 	srli	r3,r3,16
    768c:	288b883a 	add	r5,r5,r2
    7690:	200dd43a 	srai	r6,r4,16
    7694:	28bfffcc 	andi	r2,r5,65535
    7698:	1887c83a 	sub	r3,r3,r2
    769c:	1987883a 	add	r3,r3,r6
    76a0:	3900000d 	sth	r4,0(r7)
    76a4:	38c0008d 	sth	r3,2(r7)
    76a8:	2808d43a 	srli	r4,r5,16
    76ac:	39c00104 	addi	r7,r7,4
    76b0:	1811d43a 	srai	r8,r3,16
    76b4:	943fe92e 	bgeu	r18,r16,765c <quorem+0x98>
    76b8:	8c45883a 	add	r2,r17,r17
    76bc:	1085883a 	add	r2,r2,r2
    76c0:	9885883a 	add	r2,r19,r2
    76c4:	10c00017 	ldw	r3,0(r2)
    76c8:	18000b1e 	bne	r3,zero,76f8 <quorem+0x134>
    76cc:	113fff04 	addi	r4,r2,-4
    76d0:	9900082e 	bgeu	r19,r4,76f4 <quorem+0x130>
    76d4:	10bfff17 	ldw	r2,-4(r2)
    76d8:	10000326 	beq	r2,zero,76e8 <quorem+0x124>
    76dc:	00000506 	br	76f4 <quorem+0x130>
    76e0:	20800017 	ldw	r2,0(r4)
    76e4:	1000031e 	bne	r2,zero,76f4 <quorem+0x130>
    76e8:	213fff04 	addi	r4,r4,-4
    76ec:	8c7fffc4 	addi	r17,r17,-1
    76f0:	993ffb36 	bltu	r19,r4,76e0 <quorem+0x11c>
    76f4:	bc400415 	stw	r17,16(r23)
    76f8:	a005883a 	mov	r2,r20
    76fc:	dfc00917 	ldw	ra,36(sp)
    7700:	df000817 	ldw	fp,32(sp)
    7704:	ddc00717 	ldw	r23,28(sp)
    7708:	dd800617 	ldw	r22,24(sp)
    770c:	dd400517 	ldw	r21,20(sp)
    7710:	dd000417 	ldw	r20,16(sp)
    7714:	dcc00317 	ldw	r19,12(sp)
    7718:	dc800217 	ldw	r18,8(sp)
    771c:	dc400117 	ldw	r17,4(sp)
    7720:	dc000017 	ldw	r16,0(sp)
    7724:	dec00a04 	addi	sp,sp,40
    7728:	f800283a 	ret
    772c:	980f883a 	mov	r7,r19
    7730:	8011883a 	mov	r8,r16
    7734:	0013883a 	mov	r9,zero
    7738:	000d883a 	mov	r6,zero
    773c:	40c00017 	ldw	r3,0(r8)
    7740:	39000017 	ldw	r4,0(r7)
    7744:	42000104 	addi	r8,r8,4
    7748:	18bfffcc 	andi	r2,r3,65535
    774c:	a085383a 	mul	r2,r20,r2
    7750:	1806d43a 	srli	r3,r3,16
    7754:	217fffcc 	andi	r5,r4,65535
    7758:	3085883a 	add	r2,r6,r2
    775c:	11bfffcc 	andi	r6,r2,65535
    7760:	a0c7383a 	mul	r3,r20,r3
    7764:	1004d43a 	srli	r2,r2,16
    7768:	298bc83a 	sub	r5,r5,r6
    776c:	2a4b883a 	add	r5,r5,r9
    7770:	2008d43a 	srli	r4,r4,16
    7774:	1887883a 	add	r3,r3,r2
    7778:	280dd43a 	srai	r6,r5,16
    777c:	18bfffcc 	andi	r2,r3,65535
    7780:	2089c83a 	sub	r4,r4,r2
    7784:	2189883a 	add	r4,r4,r6
    7788:	3900008d 	sth	r4,2(r7)
    778c:	3940000d 	sth	r5,0(r7)
    7790:	180cd43a 	srli	r6,r3,16
    7794:	39c00104 	addi	r7,r7,4
    7798:	2013d43a 	srai	r9,r4,16
    779c:	923fe72e 	bgeu	r18,r8,773c <quorem+0x178>
    77a0:	e03fa61e 	bne	fp,zero,763c <quorem+0x78>
    77a4:	b0ffff04 	addi	r3,r22,-4
    77a8:	98c0082e 	bgeu	r19,r3,77cc <quorem+0x208>
    77ac:	b0bfff17 	ldw	r2,-4(r22)
    77b0:	10000326 	beq	r2,zero,77c0 <quorem+0x1fc>
    77b4:	00000506 	br	77cc <quorem+0x208>
    77b8:	18800017 	ldw	r2,0(r3)
    77bc:	1000031e 	bne	r2,zero,77cc <quorem+0x208>
    77c0:	18ffff04 	addi	r3,r3,-4
    77c4:	8c7fffc4 	addi	r17,r17,-1
    77c8:	98fffb36 	bltu	r19,r3,77b8 <quorem+0x1f4>
    77cc:	bc400415 	stw	r17,16(r23)
    77d0:	003f9a06 	br	763c <quorem+0x78>
    77d4:	0005883a 	mov	r2,zero
    77d8:	003fc806 	br	76fc <quorem+0x138>

000077dc <_dtoa_r>:
    77dc:	22001017 	ldw	r8,64(r4)
    77e0:	deffda04 	addi	sp,sp,-152
    77e4:	dd402115 	stw	r21,132(sp)
    77e8:	dd002015 	stw	r20,128(sp)
    77ec:	dc801e15 	stw	r18,120(sp)
    77f0:	dc401d15 	stw	r17,116(sp)
    77f4:	dfc02515 	stw	ra,148(sp)
    77f8:	df002415 	stw	fp,144(sp)
    77fc:	ddc02315 	stw	r23,140(sp)
    7800:	dd802215 	stw	r22,136(sp)
    7804:	dcc01f15 	stw	r19,124(sp)
    7808:	dc001c15 	stw	r16,112(sp)
    780c:	d9001615 	stw	r4,88(sp)
    7810:	3023883a 	mov	r17,r6
    7814:	2829883a 	mov	r20,r5
    7818:	d9c01715 	stw	r7,92(sp)
    781c:	dc802817 	ldw	r18,160(sp)
    7820:	302b883a 	mov	r21,r6
    7824:	40000a26 	beq	r8,zero,7850 <_dtoa_r+0x74>
    7828:	20801117 	ldw	r2,68(r4)
    782c:	400b883a 	mov	r5,r8
    7830:	40800115 	stw	r2,4(r8)
    7834:	20c01117 	ldw	r3,68(r4)
    7838:	00800044 	movi	r2,1
    783c:	10c4983a 	sll	r2,r2,r3
    7840:	40800215 	stw	r2,8(r8)
    7844:	000a8380 	call	a838 <_Bfree>
    7848:	d8c01617 	ldw	r3,88(sp)
    784c:	18001015 	stw	zero,64(r3)
    7850:	8800a316 	blt	r17,zero,7ae0 <_dtoa_r+0x304>
    7854:	90000015 	stw	zero,0(r18)
    7858:	a8dffc2c 	andhi	r3,r21,32752
    785c:	009ffc34 	movhi	r2,32752
    7860:	18809126 	beq	r3,r2,7aa8 <_dtoa_r+0x2cc>
    7864:	000d883a 	mov	r6,zero
    7868:	000f883a 	mov	r7,zero
    786c:	a009883a 	mov	r4,r20
    7870:	a80b883a 	mov	r5,r21
    7874:	dd001215 	stw	r20,72(sp)
    7878:	dd401315 	stw	r21,76(sp)
    787c:	000dcd00 	call	dcd0 <__nedf2>
    7880:	1000171e 	bne	r2,zero,78e0 <_dtoa_r+0x104>
    7884:	d9802717 	ldw	r6,156(sp)
    7888:	00800044 	movi	r2,1
    788c:	30800015 	stw	r2,0(r6)
    7890:	d8802917 	ldw	r2,164(sp)
    7894:	10029b26 	beq	r2,zero,8304 <_dtoa_r+0xb28>
    7898:	d9002917 	ldw	r4,164(sp)
    789c:	00820034 	movhi	r2,2048
    78a0:	10803644 	addi	r2,r2,217
    78a4:	10ffffc4 	addi	r3,r2,-1
    78a8:	20800015 	stw	r2,0(r4)
    78ac:	1805883a 	mov	r2,r3
    78b0:	dfc02517 	ldw	ra,148(sp)
    78b4:	df002417 	ldw	fp,144(sp)
    78b8:	ddc02317 	ldw	r23,140(sp)
    78bc:	dd802217 	ldw	r22,136(sp)
    78c0:	dd402117 	ldw	r21,132(sp)
    78c4:	dd002017 	ldw	r20,128(sp)
    78c8:	dcc01f17 	ldw	r19,124(sp)
    78cc:	dc801e17 	ldw	r18,120(sp)
    78d0:	dc401d17 	ldw	r17,116(sp)
    78d4:	dc001c17 	ldw	r16,112(sp)
    78d8:	dec02604 	addi	sp,sp,152
    78dc:	f800283a 	ret
    78e0:	d9001617 	ldw	r4,88(sp)
    78e4:	d9401217 	ldw	r5,72(sp)
    78e8:	d8800104 	addi	r2,sp,4
    78ec:	a80d883a 	mov	r6,r21
    78f0:	d9c00204 	addi	r7,sp,8
    78f4:	d8800015 	stw	r2,0(sp)
    78f8:	000ae740 	call	ae74 <__d2b>
    78fc:	d8800715 	stw	r2,28(sp)
    7900:	a804d53a 	srli	r2,r21,20
    7904:	1101ffcc 	andi	r4,r2,2047
    7908:	20008626 	beq	r4,zero,7b24 <_dtoa_r+0x348>
    790c:	d8c01217 	ldw	r3,72(sp)
    7910:	00800434 	movhi	r2,16
    7914:	10bfffc4 	addi	r2,r2,-1
    7918:	ddc00117 	ldw	r23,4(sp)
    791c:	a884703a 	and	r2,r21,r2
    7920:	1811883a 	mov	r8,r3
    7924:	124ffc34 	orhi	r9,r2,16368
    7928:	25bf0044 	addi	r22,r4,-1023
    792c:	d8000815 	stw	zero,32(sp)
    7930:	0005883a 	mov	r2,zero
    7934:	00cffe34 	movhi	r3,16376
    7938:	480b883a 	mov	r5,r9
    793c:	4009883a 	mov	r4,r8
    7940:	180f883a 	mov	r7,r3
    7944:	100d883a 	mov	r6,r2
    7948:	000d5380 	call	d538 <__subdf3>
    794c:	0218dbf4 	movhi	r8,25455
    7950:	4210d844 	addi	r8,r8,17249
    7954:	024ff4f4 	movhi	r9,16339
    7958:	4a61e9c4 	addi	r9,r9,-30809
    795c:	480f883a 	mov	r7,r9
    7960:	400d883a 	mov	r6,r8
    7964:	180b883a 	mov	r5,r3
    7968:	1009883a 	mov	r4,r2
    796c:	000d62c0 	call	d62c <__muldf3>
    7970:	0222d874 	movhi	r8,35681
    7974:	42322cc4 	addi	r8,r8,-14157
    7978:	024ff1f4 	movhi	r9,16327
    797c:	4a628a04 	addi	r9,r9,-30168
    7980:	480f883a 	mov	r7,r9
    7984:	400d883a 	mov	r6,r8
    7988:	180b883a 	mov	r5,r3
    798c:	1009883a 	mov	r4,r2
    7990:	000d5b80 	call	d5b8 <__adddf3>
    7994:	b009883a 	mov	r4,r22
    7998:	1021883a 	mov	r16,r2
    799c:	1823883a 	mov	r17,r3
    79a0:	000def00 	call	def0 <__floatsidf>
    79a4:	021427f4 	movhi	r8,20639
    79a8:	421e7ec4 	addi	r8,r8,31227
    79ac:	024ff4f4 	movhi	r9,16339
    79b0:	4a5104c4 	addi	r9,r9,17427
    79b4:	480f883a 	mov	r7,r9
    79b8:	400d883a 	mov	r6,r8
    79bc:	180b883a 	mov	r5,r3
    79c0:	1009883a 	mov	r4,r2
    79c4:	000d62c0 	call	d62c <__muldf3>
    79c8:	180f883a 	mov	r7,r3
    79cc:	880b883a 	mov	r5,r17
    79d0:	100d883a 	mov	r6,r2
    79d4:	8009883a 	mov	r4,r16
    79d8:	000d5b80 	call	d5b8 <__adddf3>
    79dc:	1009883a 	mov	r4,r2
    79e0:	180b883a 	mov	r5,r3
    79e4:	1021883a 	mov	r16,r2
    79e8:	1823883a 	mov	r17,r3
    79ec:	000dfe80 	call	dfe8 <__fixdfsi>
    79f0:	000d883a 	mov	r6,zero
    79f4:	000f883a 	mov	r7,zero
    79f8:	8009883a 	mov	r4,r16
    79fc:	880b883a 	mov	r5,r17
    7a00:	d8800d15 	stw	r2,52(sp)
    7a04:	000de680 	call	de68 <__ltdf2>
    7a08:	10031716 	blt	r2,zero,8668 <_dtoa_r+0xe8c>
    7a0c:	d8c00d17 	ldw	r3,52(sp)
    7a10:	00800584 	movi	r2,22
    7a14:	10c1482e 	bgeu	r2,r3,7f38 <_dtoa_r+0x75c>
    7a18:	01000044 	movi	r4,1
    7a1c:	d9000c15 	stw	r4,48(sp)
    7a20:	bd85c83a 	sub	r2,r23,r22
    7a24:	11bfffc4 	addi	r6,r2,-1
    7a28:	30030b16 	blt	r6,zero,8658 <_dtoa_r+0xe7c>
    7a2c:	d9800a15 	stw	r6,40(sp)
    7a30:	d8001115 	stw	zero,68(sp)
    7a34:	d8c00d17 	ldw	r3,52(sp)
    7a38:	1802ff16 	blt	r3,zero,8638 <_dtoa_r+0xe5c>
    7a3c:	d9000a17 	ldw	r4,40(sp)
    7a40:	d8c00915 	stw	r3,36(sp)
    7a44:	d8001015 	stw	zero,64(sp)
    7a48:	20c9883a 	add	r4,r4,r3
    7a4c:	d9000a15 	stw	r4,40(sp)
    7a50:	d9001717 	ldw	r4,92(sp)
    7a54:	00800244 	movi	r2,9
    7a58:	11004636 	bltu	r2,r4,7b74 <_dtoa_r+0x398>
    7a5c:	00800144 	movi	r2,5
    7a60:	11020416 	blt	r2,r4,8274 <_dtoa_r+0xa98>
    7a64:	04400044 	movi	r17,1
    7a68:	d8c01717 	ldw	r3,92(sp)
    7a6c:	00800144 	movi	r2,5
    7a70:	10c1ed36 	bltu	r2,r3,8228 <_dtoa_r+0xa4c>
    7a74:	18c5883a 	add	r2,r3,r3
    7a78:	1085883a 	add	r2,r2,r2
    7a7c:	00c00034 	movhi	r3,0
    7a80:	18dea404 	addi	r3,r3,31376
    7a84:	10c5883a 	add	r2,r2,r3
    7a88:	11000017 	ldw	r4,0(r2)
    7a8c:	2000683a 	jmp	r4
    7a90:	00007b7c 	xorhi	zero,zero,493
    7a94:	00007b7c 	xorhi	zero,zero,493
    7a98:	0000857c 	xorhi	zero,zero,533
    7a9c:	00008554 	movui	zero,533
    7aa0:	00008598 	cmpnei	zero,zero,534
    7aa4:	000085a4 	muli	zero,zero,534
    7aa8:	d9002717 	ldw	r4,156(sp)
    7aac:	0089c3c4 	movi	r2,9999
    7ab0:	20800015 	stw	r2,0(r4)
    7ab4:	a0001026 	beq	r20,zero,7af8 <_dtoa_r+0x31c>
    7ab8:	00c20034 	movhi	r3,2048
    7abc:	18c04204 	addi	r3,r3,264
    7ac0:	d9802917 	ldw	r6,164(sp)
    7ac4:	303f7926 	beq	r6,zero,78ac <_dtoa_r+0xd0>
    7ac8:	188000c7 	ldb	r2,3(r3)
    7acc:	190000c4 	addi	r4,r3,3
    7ad0:	1000101e 	bne	r2,zero,7b14 <_dtoa_r+0x338>
    7ad4:	d8802917 	ldw	r2,164(sp)
    7ad8:	11000015 	stw	r4,0(r2)
    7adc:	003f7306 	br	78ac <_dtoa_r+0xd0>
    7ae0:	00a00034 	movhi	r2,32768
    7ae4:	10bfffc4 	addi	r2,r2,-1
    7ae8:	00c00044 	movi	r3,1
    7aec:	88aa703a 	and	r21,r17,r2
    7af0:	90c00015 	stw	r3,0(r18)
    7af4:	003f5806 	br	7858 <_dtoa_r+0x7c>
    7af8:	00800434 	movhi	r2,16
    7afc:	10bfffc4 	addi	r2,r2,-1
    7b00:	a884703a 	and	r2,r21,r2
    7b04:	103fec1e 	bne	r2,zero,7ab8 <_dtoa_r+0x2dc>
    7b08:	00c20034 	movhi	r3,2048
    7b0c:	18c03f04 	addi	r3,r3,252
    7b10:	003feb06 	br	7ac0 <_dtoa_r+0x2e4>
    7b14:	d8802917 	ldw	r2,164(sp)
    7b18:	19000204 	addi	r4,r3,8
    7b1c:	11000015 	stw	r4,0(r2)
    7b20:	003f6206 	br	78ac <_dtoa_r+0xd0>
    7b24:	ddc00117 	ldw	r23,4(sp)
    7b28:	d8800217 	ldw	r2,8(sp)
    7b2c:	01000804 	movi	r4,32
    7b30:	b8c10c84 	addi	r3,r23,1074
    7b34:	18a3883a 	add	r17,r3,r2
    7b38:	2441b80e 	bge	r4,r17,821c <_dtoa_r+0xa40>
    7b3c:	00c01004 	movi	r3,64
    7b40:	1c47c83a 	sub	r3,r3,r17
    7b44:	88bff804 	addi	r2,r17,-32
    7b48:	a8c6983a 	sll	r3,r21,r3
    7b4c:	a084d83a 	srl	r2,r20,r2
    7b50:	1888b03a 	or	r4,r3,r2
    7b54:	000e0c00 	call	e0c0 <__floatunsidf>
    7b58:	1011883a 	mov	r8,r2
    7b5c:	00bf8434 	movhi	r2,65040
    7b60:	01000044 	movi	r4,1
    7b64:	10d3883a 	add	r9,r2,r3
    7b68:	8dbef344 	addi	r22,r17,-1075
    7b6c:	d9000815 	stw	r4,32(sp)
    7b70:	003f6f06 	br	7930 <_dtoa_r+0x154>
    7b74:	d8001715 	stw	zero,92(sp)
    7b78:	04400044 	movi	r17,1
    7b7c:	00bfffc4 	movi	r2,-1
    7b80:	00c00044 	movi	r3,1
    7b84:	d8800e15 	stw	r2,56(sp)
    7b88:	d8002615 	stw	zero,152(sp)
    7b8c:	d8800f15 	stw	r2,60(sp)
    7b90:	d8c00b15 	stw	r3,44(sp)
    7b94:	1021883a 	mov	r16,r2
    7b98:	d8801617 	ldw	r2,88(sp)
    7b9c:	10001115 	stw	zero,68(r2)
    7ba0:	d8801617 	ldw	r2,88(sp)
    7ba4:	11401117 	ldw	r5,68(r2)
    7ba8:	1009883a 	mov	r4,r2
    7bac:	000adb80 	call	adb8 <_Balloc>
    7bb0:	d8c01617 	ldw	r3,88(sp)
    7bb4:	d8800515 	stw	r2,20(sp)
    7bb8:	18801015 	stw	r2,64(r3)
    7bbc:	00800384 	movi	r2,14
    7bc0:	14006836 	bltu	r2,r16,7d64 <_dtoa_r+0x588>
    7bc4:	8805003a 	cmpeq	r2,r17,zero
    7bc8:	1000661e 	bne	r2,zero,7d64 <_dtoa_r+0x588>
    7bcc:	d9000d17 	ldw	r4,52(sp)
    7bd0:	0102300e 	bge	zero,r4,8494 <_dtoa_r+0xcb8>
    7bd4:	208003cc 	andi	r2,r4,15
    7bd8:	100490fa 	slli	r2,r2,3
    7bdc:	2025d13a 	srai	r18,r4,4
    7be0:	00c20034 	movhi	r3,2048
    7be4:	18c05404 	addi	r3,r3,336
    7be8:	10c5883a 	add	r2,r2,r3
    7bec:	90c0040c 	andi	r3,r18,16
    7bf0:	14000017 	ldw	r16,0(r2)
    7bf4:	14400117 	ldw	r17,4(r2)
    7bf8:	18036a1e 	bne	r3,zero,89a4 <_dtoa_r+0x11c8>
    7bfc:	05800084 	movi	r22,2
    7c00:	90001026 	beq	r18,zero,7c44 <_dtoa_r+0x468>
    7c04:	04c20034 	movhi	r19,2048
    7c08:	9cc08604 	addi	r19,r19,536
    7c0c:	9080004c 	andi	r2,r18,1
    7c10:	1005003a 	cmpeq	r2,r2,zero
    7c14:	1000081e 	bne	r2,zero,7c38 <_dtoa_r+0x45c>
    7c18:	99800017 	ldw	r6,0(r19)
    7c1c:	99c00117 	ldw	r7,4(r19)
    7c20:	880b883a 	mov	r5,r17
    7c24:	8009883a 	mov	r4,r16
    7c28:	000d62c0 	call	d62c <__muldf3>
    7c2c:	1021883a 	mov	r16,r2
    7c30:	b5800044 	addi	r22,r22,1
    7c34:	1823883a 	mov	r17,r3
    7c38:	9025d07a 	srai	r18,r18,1
    7c3c:	9cc00204 	addi	r19,r19,8
    7c40:	903ff21e 	bne	r18,zero,7c0c <_dtoa_r+0x430>
    7c44:	a80b883a 	mov	r5,r21
    7c48:	a009883a 	mov	r4,r20
    7c4c:	880f883a 	mov	r7,r17
    7c50:	800d883a 	mov	r6,r16
    7c54:	000d9f00 	call	d9f0 <__divdf3>
    7c58:	1029883a 	mov	r20,r2
    7c5c:	182b883a 	mov	r21,r3
    7c60:	d8c00c17 	ldw	r3,48(sp)
    7c64:	1805003a 	cmpeq	r2,r3,zero
    7c68:	1000081e 	bne	r2,zero,7c8c <_dtoa_r+0x4b0>
    7c6c:	0005883a 	mov	r2,zero
    7c70:	00cffc34 	movhi	r3,16368
    7c74:	180f883a 	mov	r7,r3
    7c78:	a009883a 	mov	r4,r20
    7c7c:	a80b883a 	mov	r5,r21
    7c80:	100d883a 	mov	r6,r2
    7c84:	000de680 	call	de68 <__ltdf2>
    7c88:	1003fe16 	blt	r2,zero,8c84 <_dtoa_r+0x14a8>
    7c8c:	b009883a 	mov	r4,r22
    7c90:	000def00 	call	def0 <__floatsidf>
    7c94:	180b883a 	mov	r5,r3
    7c98:	1009883a 	mov	r4,r2
    7c9c:	a00d883a 	mov	r6,r20
    7ca0:	a80f883a 	mov	r7,r21
    7ca4:	000d62c0 	call	d62c <__muldf3>
    7ca8:	0011883a 	mov	r8,zero
    7cac:	02500734 	movhi	r9,16412
    7cb0:	1009883a 	mov	r4,r2
    7cb4:	180b883a 	mov	r5,r3
    7cb8:	480f883a 	mov	r7,r9
    7cbc:	400d883a 	mov	r6,r8
    7cc0:	000d5b80 	call	d5b8 <__adddf3>
    7cc4:	d9000f17 	ldw	r4,60(sp)
    7cc8:	102d883a 	mov	r22,r2
    7ccc:	00bf3034 	movhi	r2,64704
    7cd0:	18b9883a 	add	fp,r3,r2
    7cd4:	e02f883a 	mov	r23,fp
    7cd8:	20028f1e 	bne	r4,zero,8718 <_dtoa_r+0xf3c>
    7cdc:	0005883a 	mov	r2,zero
    7ce0:	00d00534 	movhi	r3,16404
    7ce4:	a009883a 	mov	r4,r20
    7ce8:	a80b883a 	mov	r5,r21
    7cec:	180f883a 	mov	r7,r3
    7cf0:	100d883a 	mov	r6,r2
    7cf4:	000d5380 	call	d538 <__subdf3>
    7cf8:	1009883a 	mov	r4,r2
    7cfc:	e00f883a 	mov	r7,fp
    7d00:	180b883a 	mov	r5,r3
    7d04:	b00d883a 	mov	r6,r22
    7d08:	1025883a 	mov	r18,r2
    7d0c:	1827883a 	mov	r19,r3
    7d10:	000dd580 	call	dd58 <__gtdf2>
    7d14:	00834f16 	blt	zero,r2,8a54 <_dtoa_r+0x1278>
    7d18:	e0e0003c 	xorhi	r3,fp,32768
    7d1c:	9009883a 	mov	r4,r18
    7d20:	980b883a 	mov	r5,r19
    7d24:	180f883a 	mov	r7,r3
    7d28:	b00d883a 	mov	r6,r22
    7d2c:	000de680 	call	de68 <__ltdf2>
    7d30:	1000080e 	bge	r2,zero,7d54 <_dtoa_r+0x578>
    7d34:	0027883a 	mov	r19,zero
    7d38:	0025883a 	mov	r18,zero
    7d3c:	d8802617 	ldw	r2,152(sp)
    7d40:	df000517 	ldw	fp,20(sp)
    7d44:	d8000615 	stw	zero,24(sp)
    7d48:	0084303a 	nor	r2,zero,r2
    7d4c:	d8800d15 	stw	r2,52(sp)
    7d50:	00019b06 	br	83c0 <_dtoa_r+0xbe4>
    7d54:	d9801217 	ldw	r6,72(sp)
    7d58:	d8801317 	ldw	r2,76(sp)
    7d5c:	3029883a 	mov	r20,r6
    7d60:	102b883a 	mov	r21,r2
    7d64:	d8c00217 	ldw	r3,8(sp)
    7d68:	18008516 	blt	r3,zero,7f80 <_dtoa_r+0x7a4>
    7d6c:	d9000d17 	ldw	r4,52(sp)
    7d70:	00800384 	movi	r2,14
    7d74:	11008216 	blt	r2,r4,7f80 <_dtoa_r+0x7a4>
    7d78:	200490fa 	slli	r2,r4,3
    7d7c:	d9802617 	ldw	r6,152(sp)
    7d80:	00c20034 	movhi	r3,2048
    7d84:	18c05404 	addi	r3,r3,336
    7d88:	10c5883a 	add	r2,r2,r3
    7d8c:	14800017 	ldw	r18,0(r2)
    7d90:	14c00117 	ldw	r19,4(r2)
    7d94:	30031e16 	blt	r6,zero,8a10 <_dtoa_r+0x1234>
    7d98:	d9000517 	ldw	r4,20(sp)
    7d9c:	d8c00f17 	ldw	r3,60(sp)
    7da0:	a823883a 	mov	r17,r21
    7da4:	a021883a 	mov	r16,r20
    7da8:	192b883a 	add	r21,r3,r4
    7dac:	2039883a 	mov	fp,r4
    7db0:	00000f06 	br	7df0 <_dtoa_r+0x614>
    7db4:	0005883a 	mov	r2,zero
    7db8:	00d00934 	movhi	r3,16420
    7dbc:	5009883a 	mov	r4,r10
    7dc0:	580b883a 	mov	r5,r11
    7dc4:	180f883a 	mov	r7,r3
    7dc8:	100d883a 	mov	r6,r2
    7dcc:	000d62c0 	call	d62c <__muldf3>
    7dd0:	180b883a 	mov	r5,r3
    7dd4:	000d883a 	mov	r6,zero
    7dd8:	000f883a 	mov	r7,zero
    7ddc:	1009883a 	mov	r4,r2
    7de0:	1021883a 	mov	r16,r2
    7de4:	1823883a 	mov	r17,r3
    7de8:	000dcd00 	call	dcd0 <__nedf2>
    7dec:	10004526 	beq	r2,zero,7f04 <_dtoa_r+0x728>
    7df0:	900d883a 	mov	r6,r18
    7df4:	980f883a 	mov	r7,r19
    7df8:	8009883a 	mov	r4,r16
    7dfc:	880b883a 	mov	r5,r17
    7e00:	000d9f00 	call	d9f0 <__divdf3>
    7e04:	180b883a 	mov	r5,r3
    7e08:	1009883a 	mov	r4,r2
    7e0c:	000dfe80 	call	dfe8 <__fixdfsi>
    7e10:	1009883a 	mov	r4,r2
    7e14:	1029883a 	mov	r20,r2
    7e18:	000def00 	call	def0 <__floatsidf>
    7e1c:	180f883a 	mov	r7,r3
    7e20:	9009883a 	mov	r4,r18
    7e24:	980b883a 	mov	r5,r19
    7e28:	100d883a 	mov	r6,r2
    7e2c:	000d62c0 	call	d62c <__muldf3>
    7e30:	180f883a 	mov	r7,r3
    7e34:	880b883a 	mov	r5,r17
    7e38:	8009883a 	mov	r4,r16
    7e3c:	100d883a 	mov	r6,r2
    7e40:	000d5380 	call	d538 <__subdf3>
    7e44:	1015883a 	mov	r10,r2
    7e48:	a0800c04 	addi	r2,r20,48
    7e4c:	e0800005 	stb	r2,0(fp)
    7e50:	e7000044 	addi	fp,fp,1
    7e54:	1817883a 	mov	r11,r3
    7e58:	e57fd61e 	bne	fp,r21,7db4 <_dtoa_r+0x5d8>
    7e5c:	500d883a 	mov	r6,r10
    7e60:	180f883a 	mov	r7,r3
    7e64:	5009883a 	mov	r4,r10
    7e68:	180b883a 	mov	r5,r3
    7e6c:	000d5b80 	call	d5b8 <__adddf3>
    7e70:	100d883a 	mov	r6,r2
    7e74:	9009883a 	mov	r4,r18
    7e78:	980b883a 	mov	r5,r19
    7e7c:	180f883a 	mov	r7,r3
    7e80:	1021883a 	mov	r16,r2
    7e84:	1823883a 	mov	r17,r3
    7e88:	000de680 	call	de68 <__ltdf2>
    7e8c:	10000816 	blt	r2,zero,7eb0 <_dtoa_r+0x6d4>
    7e90:	980b883a 	mov	r5,r19
    7e94:	800d883a 	mov	r6,r16
    7e98:	880f883a 	mov	r7,r17
    7e9c:	9009883a 	mov	r4,r18
    7ea0:	000dc480 	call	dc48 <__eqdf2>
    7ea4:	1000171e 	bne	r2,zero,7f04 <_dtoa_r+0x728>
    7ea8:	a080004c 	andi	r2,r20,1
    7eac:	10001526 	beq	r2,zero,7f04 <_dtoa_r+0x728>
    7eb0:	d8800d17 	ldw	r2,52(sp)
    7eb4:	d8800415 	stw	r2,16(sp)
    7eb8:	e009883a 	mov	r4,fp
    7ebc:	213fffc4 	addi	r4,r4,-1
    7ec0:	20c00007 	ldb	r3,0(r4)
    7ec4:	00800e44 	movi	r2,57
    7ec8:	1880081e 	bne	r3,r2,7eec <_dtoa_r+0x710>
    7ecc:	d8800517 	ldw	r2,20(sp)
    7ed0:	113ffa1e 	bne	r2,r4,7ebc <_dtoa_r+0x6e0>
    7ed4:	d8c00417 	ldw	r3,16(sp)
    7ed8:	d9800517 	ldw	r6,20(sp)
    7edc:	00800c04 	movi	r2,48
    7ee0:	18c00044 	addi	r3,r3,1
    7ee4:	d8c00415 	stw	r3,16(sp)
    7ee8:	30800005 	stb	r2,0(r6)
    7eec:	20800003 	ldbu	r2,0(r4)
    7ef0:	d8c00417 	ldw	r3,16(sp)
    7ef4:	27000044 	addi	fp,r4,1
    7ef8:	10800044 	addi	r2,r2,1
    7efc:	d8c00d15 	stw	r3,52(sp)
    7f00:	20800005 	stb	r2,0(r4)
    7f04:	d9001617 	ldw	r4,88(sp)
    7f08:	d9400717 	ldw	r5,28(sp)
    7f0c:	000a8380 	call	a838 <_Bfree>
    7f10:	e0000005 	stb	zero,0(fp)
    7f14:	d9800d17 	ldw	r6,52(sp)
    7f18:	d8c02717 	ldw	r3,156(sp)
    7f1c:	d9002917 	ldw	r4,164(sp)
    7f20:	30800044 	addi	r2,r6,1
    7f24:	18800015 	stw	r2,0(r3)
    7f28:	20029c26 	beq	r4,zero,899c <_dtoa_r+0x11c0>
    7f2c:	d8c00517 	ldw	r3,20(sp)
    7f30:	27000015 	stw	fp,0(r4)
    7f34:	003e5d06 	br	78ac <_dtoa_r+0xd0>
    7f38:	d9800d17 	ldw	r6,52(sp)
    7f3c:	00c20034 	movhi	r3,2048
    7f40:	18c05404 	addi	r3,r3,336
    7f44:	d9001217 	ldw	r4,72(sp)
    7f48:	300490fa 	slli	r2,r6,3
    7f4c:	d9401317 	ldw	r5,76(sp)
    7f50:	10c5883a 	add	r2,r2,r3
    7f54:	12000017 	ldw	r8,0(r2)
    7f58:	12400117 	ldw	r9,4(r2)
    7f5c:	400d883a 	mov	r6,r8
    7f60:	480f883a 	mov	r7,r9
    7f64:	000de680 	call	de68 <__ltdf2>
    7f68:	1000030e 	bge	r2,zero,7f78 <_dtoa_r+0x79c>
    7f6c:	d8800d17 	ldw	r2,52(sp)
    7f70:	10bfffc4 	addi	r2,r2,-1
    7f74:	d8800d15 	stw	r2,52(sp)
    7f78:	d8000c15 	stw	zero,48(sp)
    7f7c:	003ea806 	br	7a20 <_dtoa_r+0x244>
    7f80:	d9000b17 	ldw	r4,44(sp)
    7f84:	202cc03a 	cmpne	r22,r4,zero
    7f88:	b000c71e 	bne	r22,zero,82a8 <_dtoa_r+0xacc>
    7f8c:	dc001117 	ldw	r16,68(sp)
    7f90:	dc801017 	ldw	r18,64(sp)
    7f94:	0027883a 	mov	r19,zero
    7f98:	04000b0e 	bge	zero,r16,7fc8 <_dtoa_r+0x7ec>
    7f9c:	d8c00a17 	ldw	r3,40(sp)
    7fa0:	00c0090e 	bge	zero,r3,7fc8 <_dtoa_r+0x7ec>
    7fa4:	8005883a 	mov	r2,r16
    7fa8:	1c011316 	blt	r3,r16,83f8 <_dtoa_r+0xc1c>
    7fac:	d9000a17 	ldw	r4,40(sp)
    7fb0:	d9801117 	ldw	r6,68(sp)
    7fb4:	80a1c83a 	sub	r16,r16,r2
    7fb8:	2089c83a 	sub	r4,r4,r2
    7fbc:	308dc83a 	sub	r6,r6,r2
    7fc0:	d9000a15 	stw	r4,40(sp)
    7fc4:	d9801115 	stw	r6,68(sp)
    7fc8:	d8801017 	ldw	r2,64(sp)
    7fcc:	0080150e 	bge	zero,r2,8024 <_dtoa_r+0x848>
    7fd0:	d8c00b17 	ldw	r3,44(sp)
    7fd4:	1805003a 	cmpeq	r2,r3,zero
    7fd8:	1001c91e 	bne	r2,zero,8700 <_dtoa_r+0xf24>
    7fdc:	04800e0e 	bge	zero,r18,8018 <_dtoa_r+0x83c>
    7fe0:	d9001617 	ldw	r4,88(sp)
    7fe4:	980b883a 	mov	r5,r19
    7fe8:	900d883a 	mov	r6,r18
    7fec:	000b5ec0 	call	b5ec <__pow5mult>
    7ff0:	d9001617 	ldw	r4,88(sp)
    7ff4:	d9800717 	ldw	r6,28(sp)
    7ff8:	100b883a 	mov	r5,r2
    7ffc:	1027883a 	mov	r19,r2
    8000:	000b2c80 	call	b2c8 <__multiply>
    8004:	d9001617 	ldw	r4,88(sp)
    8008:	d9400717 	ldw	r5,28(sp)
    800c:	1023883a 	mov	r17,r2
    8010:	000a8380 	call	a838 <_Bfree>
    8014:	dc400715 	stw	r17,28(sp)
    8018:	d9001017 	ldw	r4,64(sp)
    801c:	248dc83a 	sub	r6,r4,r18
    8020:	30010e1e 	bne	r6,zero,845c <_dtoa_r+0xc80>
    8024:	d9001617 	ldw	r4,88(sp)
    8028:	04400044 	movi	r17,1
    802c:	880b883a 	mov	r5,r17
    8030:	000b4b00 	call	b4b0 <__i2b>
    8034:	d9800917 	ldw	r6,36(sp)
    8038:	1025883a 	mov	r18,r2
    803c:	0180040e 	bge	zero,r6,8050 <_dtoa_r+0x874>
    8040:	d9001617 	ldw	r4,88(sp)
    8044:	100b883a 	mov	r5,r2
    8048:	000b5ec0 	call	b5ec <__pow5mult>
    804c:	1025883a 	mov	r18,r2
    8050:	d8801717 	ldw	r2,92(sp)
    8054:	8880f30e 	bge	r17,r2,8424 <_dtoa_r+0xc48>
    8058:	0023883a 	mov	r17,zero
    805c:	d9800917 	ldw	r6,36(sp)
    8060:	30019e1e 	bne	r6,zero,86dc <_dtoa_r+0xf00>
    8064:	00c00044 	movi	r3,1
    8068:	d9000a17 	ldw	r4,40(sp)
    806c:	20c5883a 	add	r2,r4,r3
    8070:	10c007cc 	andi	r3,r2,31
    8074:	1800841e 	bne	r3,zero,8288 <_dtoa_r+0xaac>
    8078:	00800704 	movi	r2,28
    807c:	d9000a17 	ldw	r4,40(sp)
    8080:	d9801117 	ldw	r6,68(sp)
    8084:	80a1883a 	add	r16,r16,r2
    8088:	2089883a 	add	r4,r4,r2
    808c:	308d883a 	add	r6,r6,r2
    8090:	d9000a15 	stw	r4,40(sp)
    8094:	d9801115 	stw	r6,68(sp)
    8098:	d8801117 	ldw	r2,68(sp)
    809c:	0080050e 	bge	zero,r2,80b4 <_dtoa_r+0x8d8>
    80a0:	d9400717 	ldw	r5,28(sp)
    80a4:	d9001617 	ldw	r4,88(sp)
    80a8:	100d883a 	mov	r6,r2
    80ac:	000b17c0 	call	b17c <__lshift>
    80b0:	d8800715 	stw	r2,28(sp)
    80b4:	d8c00a17 	ldw	r3,40(sp)
    80b8:	00c0050e 	bge	zero,r3,80d0 <_dtoa_r+0x8f4>
    80bc:	d9001617 	ldw	r4,88(sp)
    80c0:	900b883a 	mov	r5,r18
    80c4:	180d883a 	mov	r6,r3
    80c8:	000b17c0 	call	b17c <__lshift>
    80cc:	1025883a 	mov	r18,r2
    80d0:	d9000c17 	ldw	r4,48(sp)
    80d4:	2005003a 	cmpeq	r2,r4,zero
    80d8:	10016f26 	beq	r2,zero,8698 <_dtoa_r+0xebc>
    80dc:	d9000f17 	ldw	r4,60(sp)
    80e0:	0102170e 	bge	zero,r4,8940 <_dtoa_r+0x1164>
    80e4:	d9800b17 	ldw	r6,44(sp)
    80e8:	3005003a 	cmpeq	r2,r6,zero
    80ec:	1000881e 	bne	r2,zero,8310 <_dtoa_r+0xb34>
    80f0:	0400050e 	bge	zero,r16,8108 <_dtoa_r+0x92c>
    80f4:	d9001617 	ldw	r4,88(sp)
    80f8:	980b883a 	mov	r5,r19
    80fc:	800d883a 	mov	r6,r16
    8100:	000b17c0 	call	b17c <__lshift>
    8104:	1027883a 	mov	r19,r2
    8108:	8804c03a 	cmpne	r2,r17,zero
    810c:	1002541e 	bne	r2,zero,8a60 <_dtoa_r+0x1284>
    8110:	980b883a 	mov	r5,r19
    8114:	dd800517 	ldw	r22,20(sp)
    8118:	dcc00615 	stw	r19,24(sp)
    811c:	a700004c 	andi	fp,r20,1
    8120:	2827883a 	mov	r19,r5
    8124:	d9000717 	ldw	r4,28(sp)
    8128:	900b883a 	mov	r5,r18
    812c:	00075c40 	call	75c4 <quorem>
    8130:	d9000717 	ldw	r4,28(sp)
    8134:	d9400617 	ldw	r5,24(sp)
    8138:	1023883a 	mov	r17,r2
    813c:	8dc00c04 	addi	r23,r17,48
    8140:	000a9940 	call	a994 <__mcmp>
    8144:	d9001617 	ldw	r4,88(sp)
    8148:	900b883a 	mov	r5,r18
    814c:	980d883a 	mov	r6,r19
    8150:	1029883a 	mov	r20,r2
    8154:	000aff00 	call	aff0 <__mdiff>
    8158:	102b883a 	mov	r21,r2
    815c:	10800317 	ldw	r2,12(r2)
    8160:	1001281e 	bne	r2,zero,8604 <_dtoa_r+0xe28>
    8164:	d9000717 	ldw	r4,28(sp)
    8168:	a80b883a 	mov	r5,r21
    816c:	000a9940 	call	a994 <__mcmp>
    8170:	d9001617 	ldw	r4,88(sp)
    8174:	1021883a 	mov	r16,r2
    8178:	a80b883a 	mov	r5,r21
    817c:	000a8380 	call	a838 <_Bfree>
    8180:	8000041e 	bne	r16,zero,8194 <_dtoa_r+0x9b8>
    8184:	d8801717 	ldw	r2,92(sp)
    8188:	1000021e 	bne	r2,zero,8194 <_dtoa_r+0x9b8>
    818c:	e004c03a 	cmpne	r2,fp,zero
    8190:	10011726 	beq	r2,zero,85f0 <_dtoa_r+0xe14>
    8194:	a0010616 	blt	r20,zero,85b0 <_dtoa_r+0xdd4>
    8198:	a000041e 	bne	r20,zero,81ac <_dtoa_r+0x9d0>
    819c:	d8c01717 	ldw	r3,92(sp)
    81a0:	1800021e 	bne	r3,zero,81ac <_dtoa_r+0x9d0>
    81a4:	e004c03a 	cmpne	r2,fp,zero
    81a8:	10010126 	beq	r2,zero,85b0 <_dtoa_r+0xdd4>
    81ac:	04023d16 	blt	zero,r16,8aa4 <_dtoa_r+0x12c8>
    81b0:	b5c00005 	stb	r23,0(r22)
    81b4:	d9800517 	ldw	r6,20(sp)
    81b8:	d9000f17 	ldw	r4,60(sp)
    81bc:	b5800044 	addi	r22,r22,1
    81c0:	3105883a 	add	r2,r6,r4
    81c4:	b0806526 	beq	r22,r2,835c <_dtoa_r+0xb80>
    81c8:	d9400717 	ldw	r5,28(sp)
    81cc:	d9001617 	ldw	r4,88(sp)
    81d0:	01800284 	movi	r6,10
    81d4:	000f883a 	mov	r7,zero
    81d8:	000b4ec0 	call	b4ec <__multadd>
    81dc:	d8800715 	stw	r2,28(sp)
    81e0:	d8800617 	ldw	r2,24(sp)
    81e4:	14c10c26 	beq	r2,r19,8618 <_dtoa_r+0xe3c>
    81e8:	d9400617 	ldw	r5,24(sp)
    81ec:	d9001617 	ldw	r4,88(sp)
    81f0:	01800284 	movi	r6,10
    81f4:	000f883a 	mov	r7,zero
    81f8:	000b4ec0 	call	b4ec <__multadd>
    81fc:	d9001617 	ldw	r4,88(sp)
    8200:	980b883a 	mov	r5,r19
    8204:	01800284 	movi	r6,10
    8208:	000f883a 	mov	r7,zero
    820c:	d8800615 	stw	r2,24(sp)
    8210:	000b4ec0 	call	b4ec <__multadd>
    8214:	1027883a 	mov	r19,r2
    8218:	003fc206 	br	8124 <_dtoa_r+0x948>
    821c:	2445c83a 	sub	r2,r4,r17
    8220:	a088983a 	sll	r4,r20,r2
    8224:	003e4b06 	br	7b54 <_dtoa_r+0x378>
    8228:	01bfffc4 	movi	r6,-1
    822c:	00800044 	movi	r2,1
    8230:	d9800e15 	stw	r6,56(sp)
    8234:	d9800f15 	stw	r6,60(sp)
    8238:	d8800b15 	stw	r2,44(sp)
    823c:	d8c01617 	ldw	r3,88(sp)
    8240:	008005c4 	movi	r2,23
    8244:	18001115 	stw	zero,68(r3)
    8248:	1580082e 	bgeu	r2,r22,826c <_dtoa_r+0xa90>
    824c:	00c00104 	movi	r3,4
    8250:	0009883a 	mov	r4,zero
    8254:	18c7883a 	add	r3,r3,r3
    8258:	18800504 	addi	r2,r3,20
    825c:	21000044 	addi	r4,r4,1
    8260:	b0bffc2e 	bgeu	r22,r2,8254 <_dtoa_r+0xa78>
    8264:	d9801617 	ldw	r6,88(sp)
    8268:	31001115 	stw	r4,68(r6)
    826c:	dc000f17 	ldw	r16,60(sp)
    8270:	003e4b06 	br	7ba0 <_dtoa_r+0x3c4>
    8274:	d9801717 	ldw	r6,92(sp)
    8278:	0023883a 	mov	r17,zero
    827c:	31bfff04 	addi	r6,r6,-4
    8280:	d9801715 	stw	r6,92(sp)
    8284:	003df806 	br	7a68 <_dtoa_r+0x28c>
    8288:	00800804 	movi	r2,32
    828c:	10c9c83a 	sub	r4,r2,r3
    8290:	00c00104 	movi	r3,4
    8294:	19005a16 	blt	r3,r4,8400 <_dtoa_r+0xc24>
    8298:	008000c4 	movi	r2,3
    829c:	113f7e16 	blt	r2,r4,8098 <_dtoa_r+0x8bc>
    82a0:	20800704 	addi	r2,r4,28
    82a4:	003f7506 	br	807c <_dtoa_r+0x8a0>
    82a8:	d9801717 	ldw	r6,92(sp)
    82ac:	00800044 	movi	r2,1
    82b0:	1180a10e 	bge	r2,r6,8538 <_dtoa_r+0xd5c>
    82b4:	d9800f17 	ldw	r6,60(sp)
    82b8:	d8c01017 	ldw	r3,64(sp)
    82bc:	30bfffc4 	addi	r2,r6,-1
    82c0:	1881c616 	blt	r3,r2,89dc <_dtoa_r+0x1200>
    82c4:	18a5c83a 	sub	r18,r3,r2
    82c8:	d8800f17 	ldw	r2,60(sp)
    82cc:	10026216 	blt	r2,zero,8c58 <_dtoa_r+0x147c>
    82d0:	dc001117 	ldw	r16,68(sp)
    82d4:	1007883a 	mov	r3,r2
    82d8:	d9800a17 	ldw	r6,40(sp)
    82dc:	d8801117 	ldw	r2,68(sp)
    82e0:	d9001617 	ldw	r4,88(sp)
    82e4:	30cd883a 	add	r6,r6,r3
    82e8:	10c5883a 	add	r2,r2,r3
    82ec:	01400044 	movi	r5,1
    82f0:	d9800a15 	stw	r6,40(sp)
    82f4:	d8801115 	stw	r2,68(sp)
    82f8:	000b4b00 	call	b4b0 <__i2b>
    82fc:	1027883a 	mov	r19,r2
    8300:	003f2506 	br	7f98 <_dtoa_r+0x7bc>
    8304:	00c20034 	movhi	r3,2048
    8308:	18c03604 	addi	r3,r3,216
    830c:	003d6706 	br	78ac <_dtoa_r+0xd0>
    8310:	dd800517 	ldw	r22,20(sp)
    8314:	04000044 	movi	r16,1
    8318:	00000706 	br	8338 <_dtoa_r+0xb5c>
    831c:	d9400717 	ldw	r5,28(sp)
    8320:	d9001617 	ldw	r4,88(sp)
    8324:	01800284 	movi	r6,10
    8328:	000f883a 	mov	r7,zero
    832c:	000b4ec0 	call	b4ec <__multadd>
    8330:	d8800715 	stw	r2,28(sp)
    8334:	84000044 	addi	r16,r16,1
    8338:	d9000717 	ldw	r4,28(sp)
    833c:	900b883a 	mov	r5,r18
    8340:	00075c40 	call	75c4 <quorem>
    8344:	15c00c04 	addi	r23,r2,48
    8348:	b5c00005 	stb	r23,0(r22)
    834c:	d8c00f17 	ldw	r3,60(sp)
    8350:	b5800044 	addi	r22,r22,1
    8354:	80fff116 	blt	r16,r3,831c <_dtoa_r+0xb40>
    8358:	d8000615 	stw	zero,24(sp)
    835c:	d9400717 	ldw	r5,28(sp)
    8360:	d9001617 	ldw	r4,88(sp)
    8364:	01800044 	movi	r6,1
    8368:	000b17c0 	call	b17c <__lshift>
    836c:	1009883a 	mov	r4,r2
    8370:	900b883a 	mov	r5,r18
    8374:	d8800715 	stw	r2,28(sp)
    8378:	000a9940 	call	a994 <__mcmp>
    837c:	00803c0e 	bge	zero,r2,8470 <_dtoa_r+0xc94>
    8380:	b009883a 	mov	r4,r22
    8384:	213fffc4 	addi	r4,r4,-1
    8388:	21400003 	ldbu	r5,0(r4)
    838c:	00800e44 	movi	r2,57
    8390:	28c03fcc 	andi	r3,r5,255
    8394:	18c0201c 	xori	r3,r3,128
    8398:	18ffe004 	addi	r3,r3,-128
    839c:	1881981e 	bne	r3,r2,8a00 <_dtoa_r+0x1224>
    83a0:	d9800517 	ldw	r6,20(sp)
    83a4:	21bff71e 	bne	r4,r6,8384 <_dtoa_r+0xba8>
    83a8:	d8800d17 	ldw	r2,52(sp)
    83ac:	37000044 	addi	fp,r6,1
    83b0:	10800044 	addi	r2,r2,1
    83b4:	d8800d15 	stw	r2,52(sp)
    83b8:	00800c44 	movi	r2,49
    83bc:	30800005 	stb	r2,0(r6)
    83c0:	d9001617 	ldw	r4,88(sp)
    83c4:	900b883a 	mov	r5,r18
    83c8:	000a8380 	call	a838 <_Bfree>
    83cc:	983ecd26 	beq	r19,zero,7f04 <_dtoa_r+0x728>
    83d0:	d8c00617 	ldw	r3,24(sp)
    83d4:	18000426 	beq	r3,zero,83e8 <_dtoa_r+0xc0c>
    83d8:	1cc00326 	beq	r3,r19,83e8 <_dtoa_r+0xc0c>
    83dc:	d9001617 	ldw	r4,88(sp)
    83e0:	180b883a 	mov	r5,r3
    83e4:	000a8380 	call	a838 <_Bfree>
    83e8:	d9001617 	ldw	r4,88(sp)
    83ec:	980b883a 	mov	r5,r19
    83f0:	000a8380 	call	a838 <_Bfree>
    83f4:	003ec306 	br	7f04 <_dtoa_r+0x728>
    83f8:	1805883a 	mov	r2,r3
    83fc:	003eeb06 	br	7fac <_dtoa_r+0x7d0>
    8400:	d9800a17 	ldw	r6,40(sp)
    8404:	d8c01117 	ldw	r3,68(sp)
    8408:	20bfff04 	addi	r2,r4,-4
    840c:	308d883a 	add	r6,r6,r2
    8410:	1887883a 	add	r3,r3,r2
    8414:	80a1883a 	add	r16,r16,r2
    8418:	d9800a15 	stw	r6,40(sp)
    841c:	d8c01115 	stw	r3,68(sp)
    8420:	003f1d06 	br	8098 <_dtoa_r+0x8bc>
    8424:	a03f0c1e 	bne	r20,zero,8058 <_dtoa_r+0x87c>
    8428:	00800434 	movhi	r2,16
    842c:	10bfffc4 	addi	r2,r2,-1
    8430:	a884703a 	and	r2,r21,r2
    8434:	103f081e 	bne	r2,zero,8058 <_dtoa_r+0x87c>
    8438:	a89ffc2c 	andhi	r2,r21,32752
    843c:	103f0626 	beq	r2,zero,8058 <_dtoa_r+0x87c>
    8440:	d8c01117 	ldw	r3,68(sp)
    8444:	d9000a17 	ldw	r4,40(sp)
    8448:	18c00044 	addi	r3,r3,1
    844c:	21000044 	addi	r4,r4,1
    8450:	d8c01115 	stw	r3,68(sp)
    8454:	d9000a15 	stw	r4,40(sp)
    8458:	003f0006 	br	805c <_dtoa_r+0x880>
    845c:	d9400717 	ldw	r5,28(sp)
    8460:	d9001617 	ldw	r4,88(sp)
    8464:	000b5ec0 	call	b5ec <__pow5mult>
    8468:	d8800715 	stw	r2,28(sp)
    846c:	003eed06 	br	8024 <_dtoa_r+0x848>
    8470:	1000021e 	bne	r2,zero,847c <_dtoa_r+0xca0>
    8474:	b880004c 	andi	r2,r23,1
    8478:	103fc11e 	bne	r2,zero,8380 <_dtoa_r+0xba4>
    847c:	b5bfffc4 	addi	r22,r22,-1
    8480:	b0c00007 	ldb	r3,0(r22)
    8484:	00800c04 	movi	r2,48
    8488:	18bffc26 	beq	r3,r2,847c <_dtoa_r+0xca0>
    848c:	b7000044 	addi	fp,r22,1
    8490:	003fcb06 	br	83c0 <_dtoa_r+0xbe4>
    8494:	d9800d17 	ldw	r6,52(sp)
    8498:	018fc83a 	sub	r7,zero,r6
    849c:	3801f726 	beq	r7,zero,8c7c <_dtoa_r+0x14a0>
    84a0:	398003cc 	andi	r6,r7,15
    84a4:	300c90fa 	slli	r6,r6,3
    84a8:	01420034 	movhi	r5,2048
    84ac:	29405404 	addi	r5,r5,336
    84b0:	d9001217 	ldw	r4,72(sp)
    84b4:	314d883a 	add	r6,r6,r5
    84b8:	30c00117 	ldw	r3,4(r6)
    84bc:	30800017 	ldw	r2,0(r6)
    84c0:	d9401317 	ldw	r5,76(sp)
    84c4:	3821d13a 	srai	r16,r7,4
    84c8:	100d883a 	mov	r6,r2
    84cc:	180f883a 	mov	r7,r3
    84d0:	000d62c0 	call	d62c <__muldf3>
    84d4:	1011883a 	mov	r8,r2
    84d8:	1813883a 	mov	r9,r3
    84dc:	1029883a 	mov	r20,r2
    84e0:	182b883a 	mov	r21,r3
    84e4:	8001e526 	beq	r16,zero,8c7c <_dtoa_r+0x14a0>
    84e8:	05800084 	movi	r22,2
    84ec:	04420034 	movhi	r17,2048
    84f0:	8c408604 	addi	r17,r17,536
    84f4:	8080004c 	andi	r2,r16,1
    84f8:	1005003a 	cmpeq	r2,r2,zero
    84fc:	1000081e 	bne	r2,zero,8520 <_dtoa_r+0xd44>
    8500:	89800017 	ldw	r6,0(r17)
    8504:	89c00117 	ldw	r7,4(r17)
    8508:	480b883a 	mov	r5,r9
    850c:	4009883a 	mov	r4,r8
    8510:	000d62c0 	call	d62c <__muldf3>
    8514:	1011883a 	mov	r8,r2
    8518:	b5800044 	addi	r22,r22,1
    851c:	1813883a 	mov	r9,r3
    8520:	8021d07a 	srai	r16,r16,1
    8524:	8c400204 	addi	r17,r17,8
    8528:	803ff21e 	bne	r16,zero,84f4 <_dtoa_r+0xd18>
    852c:	4029883a 	mov	r20,r8
    8530:	482b883a 	mov	r21,r9
    8534:	003dca06 	br	7c60 <_dtoa_r+0x484>
    8538:	d9000817 	ldw	r4,32(sp)
    853c:	2005003a 	cmpeq	r2,r4,zero
    8540:	1001f61e 	bne	r2,zero,8d1c <_dtoa_r+0x1540>
    8544:	dc001117 	ldw	r16,68(sp)
    8548:	dc801017 	ldw	r18,64(sp)
    854c:	18c10cc4 	addi	r3,r3,1075
    8550:	003f6106 	br	82d8 <_dtoa_r+0xafc>
    8554:	d8000b15 	stw	zero,44(sp)
    8558:	d9802617 	ldw	r6,152(sp)
    855c:	d8c00d17 	ldw	r3,52(sp)
    8560:	30800044 	addi	r2,r6,1
    8564:	18ad883a 	add	r22,r3,r2
    8568:	b13fffc4 	addi	r4,r22,-1
    856c:	d9000e15 	stw	r4,56(sp)
    8570:	0581f60e 	bge	zero,r22,8d4c <_dtoa_r+0x1570>
    8574:	dd800f15 	stw	r22,60(sp)
    8578:	003f3006 	br	823c <_dtoa_r+0xa60>
    857c:	d8000b15 	stw	zero,44(sp)
    8580:	d9002617 	ldw	r4,152(sp)
    8584:	0101eb0e 	bge	zero,r4,8d34 <_dtoa_r+0x1558>
    8588:	202d883a 	mov	r22,r4
    858c:	d9000e15 	stw	r4,56(sp)
    8590:	d9000f15 	stw	r4,60(sp)
    8594:	003f2906 	br	823c <_dtoa_r+0xa60>
    8598:	01800044 	movi	r6,1
    859c:	d9800b15 	stw	r6,44(sp)
    85a0:	003ff706 	br	8580 <_dtoa_r+0xda4>
    85a4:	01000044 	movi	r4,1
    85a8:	d9000b15 	stw	r4,44(sp)
    85ac:	003fea06 	br	8558 <_dtoa_r+0xd7c>
    85b0:	04000c0e 	bge	zero,r16,85e4 <_dtoa_r+0xe08>
    85b4:	d9400717 	ldw	r5,28(sp)
    85b8:	d9001617 	ldw	r4,88(sp)
    85bc:	01800044 	movi	r6,1
    85c0:	000b17c0 	call	b17c <__lshift>
    85c4:	1009883a 	mov	r4,r2
    85c8:	900b883a 	mov	r5,r18
    85cc:	d8800715 	stw	r2,28(sp)
    85d0:	000a9940 	call	a994 <__mcmp>
    85d4:	0081e00e 	bge	zero,r2,8d58 <_dtoa_r+0x157c>
    85d8:	bdc00044 	addi	r23,r23,1
    85dc:	00800e84 	movi	r2,58
    85e0:	b881a226 	beq	r23,r2,8c6c <_dtoa_r+0x1490>
    85e4:	b7000044 	addi	fp,r22,1
    85e8:	b5c00005 	stb	r23,0(r22)
    85ec:	003f7406 	br	83c0 <_dtoa_r+0xbe4>
    85f0:	00800e44 	movi	r2,57
    85f4:	b8819d26 	beq	r23,r2,8c6c <_dtoa_r+0x1490>
    85f8:	053ffa0e 	bge	zero,r20,85e4 <_dtoa_r+0xe08>
    85fc:	8dc00c44 	addi	r23,r17,49
    8600:	003ff806 	br	85e4 <_dtoa_r+0xe08>
    8604:	d9001617 	ldw	r4,88(sp)
    8608:	a80b883a 	mov	r5,r21
    860c:	04000044 	movi	r16,1
    8610:	000a8380 	call	a838 <_Bfree>
    8614:	003edf06 	br	8194 <_dtoa_r+0x9b8>
    8618:	d9001617 	ldw	r4,88(sp)
    861c:	980b883a 	mov	r5,r19
    8620:	01800284 	movi	r6,10
    8624:	000f883a 	mov	r7,zero
    8628:	000b4ec0 	call	b4ec <__multadd>
    862c:	1027883a 	mov	r19,r2
    8630:	d8800615 	stw	r2,24(sp)
    8634:	003ebb06 	br	8124 <_dtoa_r+0x948>
    8638:	d9801117 	ldw	r6,68(sp)
    863c:	d8800d17 	ldw	r2,52(sp)
    8640:	d8000915 	stw	zero,36(sp)
    8644:	308dc83a 	sub	r6,r6,r2
    8648:	0087c83a 	sub	r3,zero,r2
    864c:	d9801115 	stw	r6,68(sp)
    8650:	d8c01015 	stw	r3,64(sp)
    8654:	003cfe06 	br	7a50 <_dtoa_r+0x274>
    8658:	018dc83a 	sub	r6,zero,r6
    865c:	d9801115 	stw	r6,68(sp)
    8660:	d8000a15 	stw	zero,40(sp)
    8664:	003cf306 	br	7a34 <_dtoa_r+0x258>
    8668:	d9000d17 	ldw	r4,52(sp)
    866c:	000def00 	call	def0 <__floatsidf>
    8670:	880b883a 	mov	r5,r17
    8674:	8009883a 	mov	r4,r16
    8678:	180f883a 	mov	r7,r3
    867c:	100d883a 	mov	r6,r2
    8680:	000dcd00 	call	dcd0 <__nedf2>
    8684:	103ce126 	beq	r2,zero,7a0c <_dtoa_r+0x230>
    8688:	d9800d17 	ldw	r6,52(sp)
    868c:	31bfffc4 	addi	r6,r6,-1
    8690:	d9800d15 	stw	r6,52(sp)
    8694:	003cdd06 	br	7a0c <_dtoa_r+0x230>
    8698:	d9000717 	ldw	r4,28(sp)
    869c:	900b883a 	mov	r5,r18
    86a0:	000a9940 	call	a994 <__mcmp>
    86a4:	103e8d0e 	bge	r2,zero,80dc <_dtoa_r+0x900>
    86a8:	d9400717 	ldw	r5,28(sp)
    86ac:	d9001617 	ldw	r4,88(sp)
    86b0:	01800284 	movi	r6,10
    86b4:	000f883a 	mov	r7,zero
    86b8:	000b4ec0 	call	b4ec <__multadd>
    86bc:	d9800d17 	ldw	r6,52(sp)
    86c0:	d8800715 	stw	r2,28(sp)
    86c4:	31bfffc4 	addi	r6,r6,-1
    86c8:	d9800d15 	stw	r6,52(sp)
    86cc:	b001a71e 	bne	r22,zero,8d6c <_dtoa_r+0x1590>
    86d0:	d8800e17 	ldw	r2,56(sp)
    86d4:	d8800f15 	stw	r2,60(sp)
    86d8:	003e8006 	br	80dc <_dtoa_r+0x900>
    86dc:	90800417 	ldw	r2,16(r18)
    86e0:	1085883a 	add	r2,r2,r2
    86e4:	1085883a 	add	r2,r2,r2
    86e8:	1485883a 	add	r2,r2,r18
    86ec:	11000417 	ldw	r4,16(r2)
    86f0:	000a8600 	call	a860 <__hi0bits>
    86f4:	00c00804 	movi	r3,32
    86f8:	1887c83a 	sub	r3,r3,r2
    86fc:	003e5a06 	br	8068 <_dtoa_r+0x88c>
    8700:	d9400717 	ldw	r5,28(sp)
    8704:	d9801017 	ldw	r6,64(sp)
    8708:	d9001617 	ldw	r4,88(sp)
    870c:	000b5ec0 	call	b5ec <__pow5mult>
    8710:	d8800715 	stw	r2,28(sp)
    8714:	003e4306 	br	8024 <_dtoa_r+0x848>
    8718:	d9800f17 	ldw	r6,60(sp)
    871c:	d8800d17 	ldw	r2,52(sp)
    8720:	d9800315 	stw	r6,12(sp)
    8724:	d8800415 	stw	r2,16(sp)
    8728:	d8c00b17 	ldw	r3,44(sp)
    872c:	1805003a 	cmpeq	r2,r3,zero
    8730:	1000e21e 	bne	r2,zero,8abc <_dtoa_r+0x12e0>
    8734:	d9000317 	ldw	r4,12(sp)
    8738:	0005883a 	mov	r2,zero
    873c:	00cff834 	movhi	r3,16352
    8740:	200c90fa 	slli	r6,r4,3
    8744:	01020034 	movhi	r4,2048
    8748:	21005404 	addi	r4,r4,336
    874c:	180b883a 	mov	r5,r3
    8750:	310d883a 	add	r6,r6,r4
    8754:	327fff17 	ldw	r9,-4(r6)
    8758:	323ffe17 	ldw	r8,-8(r6)
    875c:	1009883a 	mov	r4,r2
    8760:	480f883a 	mov	r7,r9
    8764:	400d883a 	mov	r6,r8
    8768:	000d9f00 	call	d9f0 <__divdf3>
    876c:	180b883a 	mov	r5,r3
    8770:	b00d883a 	mov	r6,r22
    8774:	b80f883a 	mov	r7,r23
    8778:	1009883a 	mov	r4,r2
    877c:	000d5380 	call	d538 <__subdf3>
    8780:	a80b883a 	mov	r5,r21
    8784:	a009883a 	mov	r4,r20
    8788:	d8c01915 	stw	r3,100(sp)
    878c:	d8801815 	stw	r2,96(sp)
    8790:	000dfe80 	call	dfe8 <__fixdfsi>
    8794:	1009883a 	mov	r4,r2
    8798:	1027883a 	mov	r19,r2
    879c:	000def00 	call	def0 <__floatsidf>
    87a0:	a80b883a 	mov	r5,r21
    87a4:	a009883a 	mov	r4,r20
    87a8:	180f883a 	mov	r7,r3
    87ac:	100d883a 	mov	r6,r2
    87b0:	000d5380 	call	d538 <__subdf3>
    87b4:	d9801817 	ldw	r6,96(sp)
    87b8:	1823883a 	mov	r17,r3
    87bc:	d8801415 	stw	r2,80(sp)
    87c0:	302d883a 	mov	r22,r6
    87c4:	d9800517 	ldw	r6,20(sp)
    87c8:	9cc00c04 	addi	r19,r19,48
    87cc:	dc401515 	stw	r17,84(sp)
    87d0:	d8c01917 	ldw	r3,100(sp)
    87d4:	34c00005 	stb	r19,0(r6)
    87d8:	d8800517 	ldw	r2,20(sp)
    87dc:	d9401917 	ldw	r5,100(sp)
    87e0:	d9801417 	ldw	r6,80(sp)
    87e4:	b009883a 	mov	r4,r22
    87e8:	880f883a 	mov	r7,r17
    87ec:	182f883a 	mov	r23,r3
    87f0:	17000044 	addi	fp,r2,1
    87f4:	000dd580 	call	dd58 <__gtdf2>
    87f8:	00804e16 	blt	zero,r2,8934 <_dtoa_r+0x1158>
    87fc:	d9801417 	ldw	r6,80(sp)
    8800:	0005883a 	mov	r2,zero
    8804:	00cffc34 	movhi	r3,16368
    8808:	180b883a 	mov	r5,r3
    880c:	880f883a 	mov	r7,r17
    8810:	1009883a 	mov	r4,r2
    8814:	000d5380 	call	d538 <__subdf3>
    8818:	d9401917 	ldw	r5,100(sp)
    881c:	180f883a 	mov	r7,r3
    8820:	b009883a 	mov	r4,r22
    8824:	100d883a 	mov	r6,r2
    8828:	000dd580 	call	dd58 <__gtdf2>
    882c:	00bda216 	blt	zero,r2,7eb8 <_dtoa_r+0x6dc>
    8830:	d8c00317 	ldw	r3,12(sp)
    8834:	00800044 	movi	r2,1
    8838:	10c01216 	blt	r2,r3,8884 <_dtoa_r+0x10a8>
    883c:	003d4506 	br	7d54 <_dtoa_r+0x578>
    8840:	d9801417 	ldw	r6,80(sp)
    8844:	0005883a 	mov	r2,zero
    8848:	00cffc34 	movhi	r3,16368
    884c:	180b883a 	mov	r5,r3
    8850:	880f883a 	mov	r7,r17
    8854:	1009883a 	mov	r4,r2
    8858:	000d5380 	call	d538 <__subdf3>
    885c:	d9c01b17 	ldw	r7,108(sp)
    8860:	180b883a 	mov	r5,r3
    8864:	1009883a 	mov	r4,r2
    8868:	b00d883a 	mov	r6,r22
    886c:	000de680 	call	de68 <__ltdf2>
    8870:	103d9116 	blt	r2,zero,7eb8 <_dtoa_r+0x6dc>
    8874:	d9800517 	ldw	r6,20(sp)
    8878:	d9000317 	ldw	r4,12(sp)
    887c:	3105883a 	add	r2,r6,r4
    8880:	e0bd3426 	beq	fp,r2,7d54 <_dtoa_r+0x578>
    8884:	04500934 	movhi	r17,16420
    8888:	0021883a 	mov	r16,zero
    888c:	b80b883a 	mov	r5,r23
    8890:	b009883a 	mov	r4,r22
    8894:	800d883a 	mov	r6,r16
    8898:	880f883a 	mov	r7,r17
    889c:	000d62c0 	call	d62c <__muldf3>
    88a0:	d9401517 	ldw	r5,84(sp)
    88a4:	d9001417 	ldw	r4,80(sp)
    88a8:	880f883a 	mov	r7,r17
    88ac:	000d883a 	mov	r6,zero
    88b0:	d8801a15 	stw	r2,104(sp)
    88b4:	d8c01b15 	stw	r3,108(sp)
    88b8:	000d62c0 	call	d62c <__muldf3>
    88bc:	180b883a 	mov	r5,r3
    88c0:	1009883a 	mov	r4,r2
    88c4:	1823883a 	mov	r17,r3
    88c8:	1021883a 	mov	r16,r2
    88cc:	000dfe80 	call	dfe8 <__fixdfsi>
    88d0:	1009883a 	mov	r4,r2
    88d4:	102b883a 	mov	r21,r2
    88d8:	000def00 	call	def0 <__floatsidf>
    88dc:	880b883a 	mov	r5,r17
    88e0:	8009883a 	mov	r4,r16
    88e4:	180f883a 	mov	r7,r3
    88e8:	100d883a 	mov	r6,r2
    88ec:	000d5380 	call	d538 <__subdf3>
    88f0:	1021883a 	mov	r16,r2
    88f4:	d9001b17 	ldw	r4,108(sp)
    88f8:	1823883a 	mov	r17,r3
    88fc:	dc001415 	stw	r16,80(sp)
    8900:	ad400c04 	addi	r21,r21,48
    8904:	dc401515 	stw	r17,84(sp)
    8908:	d8801a17 	ldw	r2,104(sp)
    890c:	e5400005 	stb	r21,0(fp)
    8910:	202f883a 	mov	r23,r4
    8914:	d9c01b17 	ldw	r7,108(sp)
    8918:	d9001417 	ldw	r4,80(sp)
    891c:	880b883a 	mov	r5,r17
    8920:	100d883a 	mov	r6,r2
    8924:	102d883a 	mov	r22,r2
    8928:	e7000044 	addi	fp,fp,1
    892c:	000de680 	call	de68 <__ltdf2>
    8930:	103fc30e 	bge	r2,zero,8840 <_dtoa_r+0x1064>
    8934:	d9000417 	ldw	r4,16(sp)
    8938:	d9000d15 	stw	r4,52(sp)
    893c:	003d7106 	br	7f04 <_dtoa_r+0x728>
    8940:	d9801717 	ldw	r6,92(sp)
    8944:	00800084 	movi	r2,2
    8948:	11bde60e 	bge	r2,r6,80e4 <_dtoa_r+0x908>
    894c:	203cfb1e 	bne	r4,zero,7d3c <_dtoa_r+0x560>
    8950:	d9001617 	ldw	r4,88(sp)
    8954:	900b883a 	mov	r5,r18
    8958:	01800144 	movi	r6,5
    895c:	000f883a 	mov	r7,zero
    8960:	000b4ec0 	call	b4ec <__multadd>
    8964:	d9000717 	ldw	r4,28(sp)
    8968:	100b883a 	mov	r5,r2
    896c:	1025883a 	mov	r18,r2
    8970:	000a9940 	call	a994 <__mcmp>
    8974:	00bcf10e 	bge	zero,r2,7d3c <_dtoa_r+0x560>
    8978:	d8c00d17 	ldw	r3,52(sp)
    897c:	d9000517 	ldw	r4,20(sp)
    8980:	d8000615 	stw	zero,24(sp)
    8984:	18c00044 	addi	r3,r3,1
    8988:	d8c00d15 	stw	r3,52(sp)
    898c:	00800c44 	movi	r2,49
    8990:	27000044 	addi	fp,r4,1
    8994:	20800005 	stb	r2,0(r4)
    8998:	003e8906 	br	83c0 <_dtoa_r+0xbe4>
    899c:	d8c00517 	ldw	r3,20(sp)
    89a0:	003bc206 	br	78ac <_dtoa_r+0xd0>
    89a4:	01820034 	movhi	r6,2048
    89a8:	31808604 	addi	r6,r6,536
    89ac:	30c00917 	ldw	r3,36(r6)
    89b0:	30800817 	ldw	r2,32(r6)
    89b4:	d9001217 	ldw	r4,72(sp)
    89b8:	d9401317 	ldw	r5,76(sp)
    89bc:	180f883a 	mov	r7,r3
    89c0:	100d883a 	mov	r6,r2
    89c4:	000d9f00 	call	d9f0 <__divdf3>
    89c8:	948003cc 	andi	r18,r18,15
    89cc:	058000c4 	movi	r22,3
    89d0:	1029883a 	mov	r20,r2
    89d4:	182b883a 	mov	r21,r3
    89d8:	003c8906 	br	7c00 <_dtoa_r+0x424>
    89dc:	d9001017 	ldw	r4,64(sp)
    89e0:	d9800917 	ldw	r6,36(sp)
    89e4:	0025883a 	mov	r18,zero
    89e8:	1105c83a 	sub	r2,r2,r4
    89ec:	2089883a 	add	r4,r4,r2
    89f0:	308d883a 	add	r6,r6,r2
    89f4:	d9001015 	stw	r4,64(sp)
    89f8:	d9800915 	stw	r6,36(sp)
    89fc:	003e3206 	br	82c8 <_dtoa_r+0xaec>
    8a00:	28800044 	addi	r2,r5,1
    8a04:	27000044 	addi	fp,r4,1
    8a08:	20800005 	stb	r2,0(r4)
    8a0c:	003e6c06 	br	83c0 <_dtoa_r+0xbe4>
    8a10:	d8800f17 	ldw	r2,60(sp)
    8a14:	00bce016 	blt	zero,r2,7d98 <_dtoa_r+0x5bc>
    8a18:	d9800f17 	ldw	r6,60(sp)
    8a1c:	303cc51e 	bne	r6,zero,7d34 <_dtoa_r+0x558>
    8a20:	0005883a 	mov	r2,zero
    8a24:	00d00534 	movhi	r3,16404
    8a28:	980b883a 	mov	r5,r19
    8a2c:	180f883a 	mov	r7,r3
    8a30:	9009883a 	mov	r4,r18
    8a34:	100d883a 	mov	r6,r2
    8a38:	000d62c0 	call	d62c <__muldf3>
    8a3c:	180b883a 	mov	r5,r3
    8a40:	a80f883a 	mov	r7,r21
    8a44:	1009883a 	mov	r4,r2
    8a48:	a00d883a 	mov	r6,r20
    8a4c:	000dde00 	call	dde0 <__gedf2>
    8a50:	103cb80e 	bge	r2,zero,7d34 <_dtoa_r+0x558>
    8a54:	0027883a 	mov	r19,zero
    8a58:	0025883a 	mov	r18,zero
    8a5c:	003fc606 	br	8978 <_dtoa_r+0x119c>
    8a60:	99400117 	ldw	r5,4(r19)
    8a64:	d9001617 	ldw	r4,88(sp)
    8a68:	000adb80 	call	adb8 <_Balloc>
    8a6c:	99800417 	ldw	r6,16(r19)
    8a70:	11000304 	addi	r4,r2,12
    8a74:	99400304 	addi	r5,r19,12
    8a78:	318d883a 	add	r6,r6,r6
    8a7c:	318d883a 	add	r6,r6,r6
    8a80:	31800204 	addi	r6,r6,8
    8a84:	1023883a 	mov	r17,r2
    8a88:	00052880 	call	5288 <memcpy>
    8a8c:	d9001617 	ldw	r4,88(sp)
    8a90:	880b883a 	mov	r5,r17
    8a94:	01800044 	movi	r6,1
    8a98:	000b17c0 	call	b17c <__lshift>
    8a9c:	100b883a 	mov	r5,r2
    8aa0:	003d9c06 	br	8114 <_dtoa_r+0x938>
    8aa4:	00800e44 	movi	r2,57
    8aa8:	b8807026 	beq	r23,r2,8c6c <_dtoa_r+0x1490>
    8aac:	b8800044 	addi	r2,r23,1
    8ab0:	b7000044 	addi	fp,r22,1
    8ab4:	b0800005 	stb	r2,0(r22)
    8ab8:	003e4106 	br	83c0 <_dtoa_r+0xbe4>
    8abc:	d8800317 	ldw	r2,12(sp)
    8ac0:	01820034 	movhi	r6,2048
    8ac4:	31805404 	addi	r6,r6,336
    8ac8:	b009883a 	mov	r4,r22
    8acc:	100e90fa 	slli	r7,r2,3
    8ad0:	b80b883a 	mov	r5,r23
    8ad4:	398f883a 	add	r7,r7,r6
    8ad8:	38bffe17 	ldw	r2,-8(r7)
    8adc:	d9800517 	ldw	r6,20(sp)
    8ae0:	38ffff17 	ldw	r3,-4(r7)
    8ae4:	37000044 	addi	fp,r6,1
    8ae8:	180f883a 	mov	r7,r3
    8aec:	100d883a 	mov	r6,r2
    8af0:	000d62c0 	call	d62c <__muldf3>
    8af4:	a80b883a 	mov	r5,r21
    8af8:	a009883a 	mov	r4,r20
    8afc:	182f883a 	mov	r23,r3
    8b00:	102d883a 	mov	r22,r2
    8b04:	000dfe80 	call	dfe8 <__fixdfsi>
    8b08:	1009883a 	mov	r4,r2
    8b0c:	1027883a 	mov	r19,r2
    8b10:	000def00 	call	def0 <__floatsidf>
    8b14:	a80b883a 	mov	r5,r21
    8b18:	a009883a 	mov	r4,r20
    8b1c:	180f883a 	mov	r7,r3
    8b20:	100d883a 	mov	r6,r2
    8b24:	000d5380 	call	d538 <__subdf3>
    8b28:	180b883a 	mov	r5,r3
    8b2c:	d8c00517 	ldw	r3,20(sp)
    8b30:	9cc00c04 	addi	r19,r19,48
    8b34:	1009883a 	mov	r4,r2
    8b38:	1cc00005 	stb	r19,0(r3)
    8b3c:	2021883a 	mov	r16,r4
    8b40:	d9000317 	ldw	r4,12(sp)
    8b44:	00800044 	movi	r2,1
    8b48:	2823883a 	mov	r17,r5
    8b4c:	20802226 	beq	r4,r2,8bd8 <_dtoa_r+0x13fc>
    8b50:	1029883a 	mov	r20,r2
    8b54:	0005883a 	mov	r2,zero
    8b58:	00d00934 	movhi	r3,16420
    8b5c:	180f883a 	mov	r7,r3
    8b60:	100d883a 	mov	r6,r2
    8b64:	880b883a 	mov	r5,r17
    8b68:	8009883a 	mov	r4,r16
    8b6c:	000d62c0 	call	d62c <__muldf3>
    8b70:	180b883a 	mov	r5,r3
    8b74:	1009883a 	mov	r4,r2
    8b78:	1823883a 	mov	r17,r3
    8b7c:	1021883a 	mov	r16,r2
    8b80:	000dfe80 	call	dfe8 <__fixdfsi>
    8b84:	1009883a 	mov	r4,r2
    8b88:	102b883a 	mov	r21,r2
    8b8c:	000def00 	call	def0 <__floatsidf>
    8b90:	880b883a 	mov	r5,r17
    8b94:	8009883a 	mov	r4,r16
    8b98:	180f883a 	mov	r7,r3
    8b9c:	100d883a 	mov	r6,r2
    8ba0:	000d5380 	call	d538 <__subdf3>
    8ba4:	180b883a 	mov	r5,r3
    8ba8:	d8c00517 	ldw	r3,20(sp)
    8bac:	1009883a 	mov	r4,r2
    8bb0:	ad400c04 	addi	r21,r21,48
    8bb4:	1d05883a 	add	r2,r3,r20
    8bb8:	15400005 	stb	r21,0(r2)
    8bbc:	2021883a 	mov	r16,r4
    8bc0:	d9000317 	ldw	r4,12(sp)
    8bc4:	a5000044 	addi	r20,r20,1
    8bc8:	2823883a 	mov	r17,r5
    8bcc:	a13fe11e 	bne	r20,r4,8b54 <_dtoa_r+0x1378>
    8bd0:	e505883a 	add	r2,fp,r20
    8bd4:	173fffc4 	addi	fp,r2,-1
    8bd8:	0025883a 	mov	r18,zero
    8bdc:	04cff834 	movhi	r19,16352
    8be0:	b009883a 	mov	r4,r22
    8be4:	b80b883a 	mov	r5,r23
    8be8:	900d883a 	mov	r6,r18
    8bec:	980f883a 	mov	r7,r19
    8bf0:	000d5b80 	call	d5b8 <__adddf3>
    8bf4:	180b883a 	mov	r5,r3
    8bf8:	1009883a 	mov	r4,r2
    8bfc:	800d883a 	mov	r6,r16
    8c00:	880f883a 	mov	r7,r17
    8c04:	000de680 	call	de68 <__ltdf2>
    8c08:	103cab16 	blt	r2,zero,7eb8 <_dtoa_r+0x6dc>
    8c0c:	0009883a 	mov	r4,zero
    8c10:	980b883a 	mov	r5,r19
    8c14:	b80f883a 	mov	r7,r23
    8c18:	b00d883a 	mov	r6,r22
    8c1c:	000d5380 	call	d538 <__subdf3>
    8c20:	180b883a 	mov	r5,r3
    8c24:	880f883a 	mov	r7,r17
    8c28:	1009883a 	mov	r4,r2
    8c2c:	800d883a 	mov	r6,r16
    8c30:	000dd580 	call	dd58 <__gtdf2>
    8c34:	00bc470e 	bge	zero,r2,7d54 <_dtoa_r+0x578>
    8c38:	00c00c04 	movi	r3,48
    8c3c:	e73fffc4 	addi	fp,fp,-1
    8c40:	e0800007 	ldb	r2,0(fp)
    8c44:	10fffd26 	beq	r2,r3,8c3c <_dtoa_r+0x1460>
    8c48:	d9800417 	ldw	r6,16(sp)
    8c4c:	e7000044 	addi	fp,fp,1
    8c50:	d9800d15 	stw	r6,52(sp)
    8c54:	003cab06 	br	7f04 <_dtoa_r+0x728>
    8c58:	d8c00f17 	ldw	r3,60(sp)
    8c5c:	d9001117 	ldw	r4,68(sp)
    8c60:	20e1c83a 	sub	r16,r4,r3
    8c64:	0007883a 	mov	r3,zero
    8c68:	003d9b06 	br	82d8 <_dtoa_r+0xafc>
    8c6c:	00800e44 	movi	r2,57
    8c70:	b0800005 	stb	r2,0(r22)
    8c74:	b5800044 	addi	r22,r22,1
    8c78:	003dc106 	br	8380 <_dtoa_r+0xba4>
    8c7c:	05800084 	movi	r22,2
    8c80:	003bf706 	br	7c60 <_dtoa_r+0x484>
    8c84:	d9000f17 	ldw	r4,60(sp)
    8c88:	013c000e 	bge	zero,r4,7c8c <_dtoa_r+0x4b0>
    8c8c:	d9800e17 	ldw	r6,56(sp)
    8c90:	01bc300e 	bge	zero,r6,7d54 <_dtoa_r+0x578>
    8c94:	0005883a 	mov	r2,zero
    8c98:	00d00934 	movhi	r3,16420
    8c9c:	a80b883a 	mov	r5,r21
    8ca0:	180f883a 	mov	r7,r3
    8ca4:	a009883a 	mov	r4,r20
    8ca8:	100d883a 	mov	r6,r2
    8cac:	000d62c0 	call	d62c <__muldf3>
    8cb0:	b1000044 	addi	r4,r22,1
    8cb4:	1021883a 	mov	r16,r2
    8cb8:	1823883a 	mov	r17,r3
    8cbc:	000def00 	call	def0 <__floatsidf>
    8cc0:	880b883a 	mov	r5,r17
    8cc4:	8009883a 	mov	r4,r16
    8cc8:	180f883a 	mov	r7,r3
    8ccc:	100d883a 	mov	r6,r2
    8cd0:	000d62c0 	call	d62c <__muldf3>
    8cd4:	0011883a 	mov	r8,zero
    8cd8:	02500734 	movhi	r9,16412
    8cdc:	180b883a 	mov	r5,r3
    8ce0:	480f883a 	mov	r7,r9
    8ce4:	1009883a 	mov	r4,r2
    8ce8:	400d883a 	mov	r6,r8
    8cec:	000d5b80 	call	d5b8 <__adddf3>
    8cf0:	102d883a 	mov	r22,r2
    8cf4:	00bf3034 	movhi	r2,64704
    8cf8:	10ef883a 	add	r23,r2,r3
    8cfc:	d8800d17 	ldw	r2,52(sp)
    8d00:	d8c00e17 	ldw	r3,56(sp)
    8d04:	8029883a 	mov	r20,r16
    8d08:	10bfffc4 	addi	r2,r2,-1
    8d0c:	882b883a 	mov	r21,r17
    8d10:	d8800415 	stw	r2,16(sp)
    8d14:	d8c00315 	stw	r3,12(sp)
    8d18:	003e8306 	br	8728 <_dtoa_r+0xf4c>
    8d1c:	d8800117 	ldw	r2,4(sp)
    8d20:	dc001117 	ldw	r16,68(sp)
    8d24:	dc801017 	ldw	r18,64(sp)
    8d28:	00c00d84 	movi	r3,54
    8d2c:	1887c83a 	sub	r3,r3,r2
    8d30:	003d6906 	br	82d8 <_dtoa_r+0xafc>
    8d34:	01800044 	movi	r6,1
    8d38:	3021883a 	mov	r16,r6
    8d3c:	d9800f15 	stw	r6,60(sp)
    8d40:	d9802615 	stw	r6,152(sp)
    8d44:	d9800e15 	stw	r6,56(sp)
    8d48:	003b9306 	br	7b98 <_dtoa_r+0x3bc>
    8d4c:	b021883a 	mov	r16,r22
    8d50:	dd800f15 	stw	r22,60(sp)
    8d54:	003b9006 	br	7b98 <_dtoa_r+0x3bc>
    8d58:	103e221e 	bne	r2,zero,85e4 <_dtoa_r+0xe08>
    8d5c:	b880004c 	andi	r2,r23,1
    8d60:	1005003a 	cmpeq	r2,r2,zero
    8d64:	103e1f1e 	bne	r2,zero,85e4 <_dtoa_r+0xe08>
    8d68:	003e1b06 	br	85d8 <_dtoa_r+0xdfc>
    8d6c:	d9001617 	ldw	r4,88(sp)
    8d70:	980b883a 	mov	r5,r19
    8d74:	01800284 	movi	r6,10
    8d78:	000f883a 	mov	r7,zero
    8d7c:	000b4ec0 	call	b4ec <__multadd>
    8d80:	d8c00e17 	ldw	r3,56(sp)
    8d84:	1027883a 	mov	r19,r2
    8d88:	d8c00f15 	stw	r3,60(sp)
    8d8c:	003cd306 	br	80dc <_dtoa_r+0x900>

00008d90 <_fflush_r>:
    8d90:	defffb04 	addi	sp,sp,-20
    8d94:	dcc00315 	stw	r19,12(sp)
    8d98:	dc800215 	stw	r18,8(sp)
    8d9c:	dfc00415 	stw	ra,16(sp)
    8da0:	dc400115 	stw	r17,4(sp)
    8da4:	dc000015 	stw	r16,0(sp)
    8da8:	2027883a 	mov	r19,r4
    8dac:	2825883a 	mov	r18,r5
    8db0:	20000226 	beq	r4,zero,8dbc <_fflush_r+0x2c>
    8db4:	20800e17 	ldw	r2,56(r4)
    8db8:	10005626 	beq	r2,zero,8f14 <_fflush_r+0x184>
    8dbc:	9100030b 	ldhu	r4,12(r18)
    8dc0:	20ffffcc 	andi	r3,r4,65535
    8dc4:	18e0001c 	xori	r3,r3,32768
    8dc8:	18e00004 	addi	r3,r3,-32768
    8dcc:	1880020c 	andi	r2,r3,8
    8dd0:	1000261e 	bne	r2,zero,8e6c <_fflush_r+0xdc>
    8dd4:	90c00117 	ldw	r3,4(r18)
    8dd8:	20820014 	ori	r2,r4,2048
    8ddc:	9080030d 	sth	r2,12(r18)
    8de0:	1009883a 	mov	r4,r2
    8de4:	00c0400e 	bge	zero,r3,8ee8 <_fflush_r+0x158>
    8de8:	92000a17 	ldw	r8,40(r18)
    8dec:	40004026 	beq	r8,zero,8ef0 <_fflush_r+0x160>
    8df0:	2084000c 	andi	r2,r4,4096
    8df4:	10005326 	beq	r2,zero,8f44 <_fflush_r+0x1b4>
    8df8:	94001417 	ldw	r16,80(r18)
    8dfc:	9080030b 	ldhu	r2,12(r18)
    8e00:	1080010c 	andi	r2,r2,4
    8e04:	1000481e 	bne	r2,zero,8f28 <_fflush_r+0x198>
    8e08:	91400717 	ldw	r5,28(r18)
    8e0c:	9809883a 	mov	r4,r19
    8e10:	800d883a 	mov	r6,r16
    8e14:	000f883a 	mov	r7,zero
    8e18:	403ee83a 	callr	r8
    8e1c:	8080261e 	bne	r16,r2,8eb8 <_fflush_r+0x128>
    8e20:	9080030b 	ldhu	r2,12(r18)
    8e24:	91000417 	ldw	r4,16(r18)
    8e28:	90000115 	stw	zero,4(r18)
    8e2c:	10bdffcc 	andi	r2,r2,63487
    8e30:	10ffffcc 	andi	r3,r2,65535
    8e34:	18c4000c 	andi	r3,r3,4096
    8e38:	9080030d 	sth	r2,12(r18)
    8e3c:	91000015 	stw	r4,0(r18)
    8e40:	18002b26 	beq	r3,zero,8ef0 <_fflush_r+0x160>
    8e44:	0007883a 	mov	r3,zero
    8e48:	1805883a 	mov	r2,r3
    8e4c:	94001415 	stw	r16,80(r18)
    8e50:	dfc00417 	ldw	ra,16(sp)
    8e54:	dcc00317 	ldw	r19,12(sp)
    8e58:	dc800217 	ldw	r18,8(sp)
    8e5c:	dc400117 	ldw	r17,4(sp)
    8e60:	dc000017 	ldw	r16,0(sp)
    8e64:	dec00504 	addi	sp,sp,20
    8e68:	f800283a 	ret
    8e6c:	94400417 	ldw	r17,16(r18)
    8e70:	88001f26 	beq	r17,zero,8ef0 <_fflush_r+0x160>
    8e74:	90800017 	ldw	r2,0(r18)
    8e78:	18c000cc 	andi	r3,r3,3
    8e7c:	94400015 	stw	r17,0(r18)
    8e80:	1461c83a 	sub	r16,r2,r17
    8e84:	18002526 	beq	r3,zero,8f1c <_fflush_r+0x18c>
    8e88:	0005883a 	mov	r2,zero
    8e8c:	90800215 	stw	r2,8(r18)
    8e90:	0400170e 	bge	zero,r16,8ef0 <_fflush_r+0x160>
    8e94:	90c00917 	ldw	r3,36(r18)
    8e98:	91400717 	ldw	r5,28(r18)
    8e9c:	880d883a 	mov	r6,r17
    8ea0:	800f883a 	mov	r7,r16
    8ea4:	9809883a 	mov	r4,r19
    8ea8:	183ee83a 	callr	r3
    8eac:	88a3883a 	add	r17,r17,r2
    8eb0:	80a1c83a 	sub	r16,r16,r2
    8eb4:	00bff616 	blt	zero,r2,8e90 <_fflush_r+0x100>
    8eb8:	9080030b 	ldhu	r2,12(r18)
    8ebc:	00ffffc4 	movi	r3,-1
    8ec0:	10801014 	ori	r2,r2,64
    8ec4:	9080030d 	sth	r2,12(r18)
    8ec8:	1805883a 	mov	r2,r3
    8ecc:	dfc00417 	ldw	ra,16(sp)
    8ed0:	dcc00317 	ldw	r19,12(sp)
    8ed4:	dc800217 	ldw	r18,8(sp)
    8ed8:	dc400117 	ldw	r17,4(sp)
    8edc:	dc000017 	ldw	r16,0(sp)
    8ee0:	dec00504 	addi	sp,sp,20
    8ee4:	f800283a 	ret
    8ee8:	90800f17 	ldw	r2,60(r18)
    8eec:	00bfbe16 	blt	zero,r2,8de8 <_fflush_r+0x58>
    8ef0:	0007883a 	mov	r3,zero
    8ef4:	1805883a 	mov	r2,r3
    8ef8:	dfc00417 	ldw	ra,16(sp)
    8efc:	dcc00317 	ldw	r19,12(sp)
    8f00:	dc800217 	ldw	r18,8(sp)
    8f04:	dc400117 	ldw	r17,4(sp)
    8f08:	dc000017 	ldw	r16,0(sp)
    8f0c:	dec00504 	addi	sp,sp,20
    8f10:	f800283a 	ret
    8f14:	00090280 	call	9028 <__sinit>
    8f18:	003fa806 	br	8dbc <_fflush_r+0x2c>
    8f1c:	90800517 	ldw	r2,20(r18)
    8f20:	90800215 	stw	r2,8(r18)
    8f24:	003fda06 	br	8e90 <_fflush_r+0x100>
    8f28:	90800117 	ldw	r2,4(r18)
    8f2c:	90c00c17 	ldw	r3,48(r18)
    8f30:	80a1c83a 	sub	r16,r16,r2
    8f34:	183fb426 	beq	r3,zero,8e08 <_fflush_r+0x78>
    8f38:	90800f17 	ldw	r2,60(r18)
    8f3c:	80a1c83a 	sub	r16,r16,r2
    8f40:	003fb106 	br	8e08 <_fflush_r+0x78>
    8f44:	91400717 	ldw	r5,28(r18)
    8f48:	9809883a 	mov	r4,r19
    8f4c:	000d883a 	mov	r6,zero
    8f50:	01c00044 	movi	r7,1
    8f54:	403ee83a 	callr	r8
    8f58:	1021883a 	mov	r16,r2
    8f5c:	00bfffc4 	movi	r2,-1
    8f60:	80800226 	beq	r16,r2,8f6c <_fflush_r+0x1dc>
    8f64:	92000a17 	ldw	r8,40(r18)
    8f68:	003fa406 	br	8dfc <_fflush_r+0x6c>
    8f6c:	98c00017 	ldw	r3,0(r19)
    8f70:	00800744 	movi	r2,29
    8f74:	18bfde26 	beq	r3,r2,8ef0 <_fflush_r+0x160>
    8f78:	9080030b 	ldhu	r2,12(r18)
    8f7c:	8007883a 	mov	r3,r16
    8f80:	10801014 	ori	r2,r2,64
    8f84:	9080030d 	sth	r2,12(r18)
    8f88:	003fcf06 	br	8ec8 <_fflush_r+0x138>

00008f8c <fflush>:
    8f8c:	01400074 	movhi	r5,1
    8f90:	29636404 	addi	r5,r5,-29296
    8f94:	2007883a 	mov	r3,r4
    8f98:	20000526 	beq	r4,zero,8fb0 <fflush+0x24>
    8f9c:	00820034 	movhi	r2,2048
    8fa0:	10892c04 	addi	r2,r2,9392
    8fa4:	11000017 	ldw	r4,0(r2)
    8fa8:	180b883a 	mov	r5,r3
    8fac:	0008d901 	jmpi	8d90 <_fflush_r>
    8fb0:	00820034 	movhi	r2,2048
    8fb4:	10892d04 	addi	r2,r2,9396
    8fb8:	11000017 	ldw	r4,0(r2)
    8fbc:	0009b5c1 	jmpi	9b5c <_fwalk_reent>

00008fc0 <std>:
    8fc0:	00800074 	movhi	r2,1
    8fc4:	10afc004 	addi	r2,r2,-16640
    8fc8:	20800b15 	stw	r2,44(r4)
    8fcc:	00800074 	movhi	r2,1
    8fd0:	10affb04 	addi	r2,r2,-16404
    8fd4:	20800815 	stw	r2,32(r4)
    8fd8:	00c00074 	movhi	r3,1
    8fdc:	18efdc04 	addi	r3,r3,-16528
    8fe0:	00800074 	movhi	r2,1
    8fe4:	10afc204 	addi	r2,r2,-16632
    8fe8:	2140030d 	sth	r5,12(r4)
    8fec:	2180038d 	sth	r6,14(r4)
    8ff0:	20c00915 	stw	r3,36(r4)
    8ff4:	20800a15 	stw	r2,40(r4)
    8ff8:	20000015 	stw	zero,0(r4)
    8ffc:	20000115 	stw	zero,4(r4)
    9000:	20000215 	stw	zero,8(r4)
    9004:	20000415 	stw	zero,16(r4)
    9008:	20000515 	stw	zero,20(r4)
    900c:	20000615 	stw	zero,24(r4)
    9010:	21000715 	stw	r4,28(r4)
    9014:	f800283a 	ret

00009018 <__sfp_lock_acquire>:
    9018:	f800283a 	ret

0000901c <__sfp_lock_release>:
    901c:	f800283a 	ret

00009020 <__sinit_lock_acquire>:
    9020:	f800283a 	ret

00009024 <__sinit_lock_release>:
    9024:	f800283a 	ret

00009028 <__sinit>:
    9028:	20800e17 	ldw	r2,56(r4)
    902c:	defffd04 	addi	sp,sp,-12
    9030:	dc400115 	stw	r17,4(sp)
    9034:	dc000015 	stw	r16,0(sp)
    9038:	dfc00215 	stw	ra,8(sp)
    903c:	04400044 	movi	r17,1
    9040:	01400104 	movi	r5,4
    9044:	000d883a 	mov	r6,zero
    9048:	2021883a 	mov	r16,r4
    904c:	2200bb04 	addi	r8,r4,748
    9050:	200f883a 	mov	r7,r4
    9054:	10000526 	beq	r2,zero,906c <__sinit+0x44>
    9058:	dfc00217 	ldw	ra,8(sp)
    905c:	dc400117 	ldw	r17,4(sp)
    9060:	dc000017 	ldw	r16,0(sp)
    9064:	dec00304 	addi	sp,sp,12
    9068:	f800283a 	ret
    906c:	21000117 	ldw	r4,4(r4)
    9070:	00800074 	movhi	r2,1
    9074:	10a44304 	addi	r2,r2,-28404
    9078:	00c000c4 	movi	r3,3
    907c:	80800f15 	stw	r2,60(r16)
    9080:	80c0b915 	stw	r3,740(r16)
    9084:	8200ba15 	stw	r8,744(r16)
    9088:	84400e15 	stw	r17,56(r16)
    908c:	8000b815 	stw	zero,736(r16)
    9090:	0008fc00 	call	8fc0 <std>
    9094:	81000217 	ldw	r4,8(r16)
    9098:	880d883a 	mov	r6,r17
    909c:	800f883a 	mov	r7,r16
    90a0:	01400284 	movi	r5,10
    90a4:	0008fc00 	call	8fc0 <std>
    90a8:	81000317 	ldw	r4,12(r16)
    90ac:	800f883a 	mov	r7,r16
    90b0:	01400484 	movi	r5,18
    90b4:	01800084 	movi	r6,2
    90b8:	dfc00217 	ldw	ra,8(sp)
    90bc:	dc400117 	ldw	r17,4(sp)
    90c0:	dc000017 	ldw	r16,0(sp)
    90c4:	dec00304 	addi	sp,sp,12
    90c8:	0008fc01 	jmpi	8fc0 <std>

000090cc <__fp_lock>:
    90cc:	0005883a 	mov	r2,zero
    90d0:	f800283a 	ret

000090d4 <__fp_unlock>:
    90d4:	0005883a 	mov	r2,zero
    90d8:	f800283a 	ret

000090dc <__fp_unlock_all>:
    90dc:	00820034 	movhi	r2,2048
    90e0:	10892c04 	addi	r2,r2,9392
    90e4:	11000017 	ldw	r4,0(r2)
    90e8:	01400074 	movhi	r5,1
    90ec:	29643504 	addi	r5,r5,-28460
    90f0:	0009c241 	jmpi	9c24 <_fwalk>

000090f4 <__fp_lock_all>:
    90f4:	00820034 	movhi	r2,2048
    90f8:	10892c04 	addi	r2,r2,9392
    90fc:	11000017 	ldw	r4,0(r2)
    9100:	01400074 	movhi	r5,1
    9104:	29643304 	addi	r5,r5,-28468
    9108:	0009c241 	jmpi	9c24 <_fwalk>

0000910c <_cleanup_r>:
    910c:	01400074 	movhi	r5,1
    9110:	2970ed04 	addi	r5,r5,-15436
    9114:	0009c241 	jmpi	9c24 <_fwalk>

00009118 <_cleanup>:
    9118:	00820034 	movhi	r2,2048
    911c:	10892d04 	addi	r2,r2,9396
    9120:	11000017 	ldw	r4,0(r2)
    9124:	000910c1 	jmpi	910c <_cleanup_r>

00009128 <__sfmoreglue>:
    9128:	defffc04 	addi	sp,sp,-16
    912c:	dc400115 	stw	r17,4(sp)
    9130:	2c401724 	muli	r17,r5,92
    9134:	dc800215 	stw	r18,8(sp)
    9138:	2825883a 	mov	r18,r5
    913c:	89400304 	addi	r5,r17,12
    9140:	dc000015 	stw	r16,0(sp)
    9144:	dfc00315 	stw	ra,12(sp)
    9148:	0009f340 	call	9f34 <_malloc_r>
    914c:	0021883a 	mov	r16,zero
    9150:	880d883a 	mov	r6,r17
    9154:	000b883a 	mov	r5,zero
    9158:	10000626 	beq	r2,zero,9174 <__sfmoreglue+0x4c>
    915c:	11000304 	addi	r4,r2,12
    9160:	14800115 	stw	r18,4(r2)
    9164:	10000015 	stw	zero,0(r2)
    9168:	11000215 	stw	r4,8(r2)
    916c:	1021883a 	mov	r16,r2
    9170:	00053280 	call	5328 <memset>
    9174:	8005883a 	mov	r2,r16
    9178:	dfc00317 	ldw	ra,12(sp)
    917c:	dc800217 	ldw	r18,8(sp)
    9180:	dc400117 	ldw	r17,4(sp)
    9184:	dc000017 	ldw	r16,0(sp)
    9188:	dec00404 	addi	sp,sp,16
    918c:	f800283a 	ret

00009190 <__sfp>:
    9190:	defffd04 	addi	sp,sp,-12
    9194:	00820034 	movhi	r2,2048
    9198:	10892d04 	addi	r2,r2,9396
    919c:	dc000015 	stw	r16,0(sp)
    91a0:	14000017 	ldw	r16,0(r2)
    91a4:	dc400115 	stw	r17,4(sp)
    91a8:	dfc00215 	stw	ra,8(sp)
    91ac:	80800e17 	ldw	r2,56(r16)
    91b0:	2023883a 	mov	r17,r4
    91b4:	10002626 	beq	r2,zero,9250 <__sfp+0xc0>
    91b8:	8400b804 	addi	r16,r16,736
    91bc:	80800117 	ldw	r2,4(r16)
    91c0:	81000217 	ldw	r4,8(r16)
    91c4:	10ffffc4 	addi	r3,r2,-1
    91c8:	18000916 	blt	r3,zero,91f0 <__sfp+0x60>
    91cc:	2080030f 	ldh	r2,12(r4)
    91d0:	10000b26 	beq	r2,zero,9200 <__sfp+0x70>
    91d4:	017fffc4 	movi	r5,-1
    91d8:	00000206 	br	91e4 <__sfp+0x54>
    91dc:	2080030f 	ldh	r2,12(r4)
    91e0:	10000726 	beq	r2,zero,9200 <__sfp+0x70>
    91e4:	18ffffc4 	addi	r3,r3,-1
    91e8:	21001704 	addi	r4,r4,92
    91ec:	197ffb1e 	bne	r3,r5,91dc <__sfp+0x4c>
    91f0:	80800017 	ldw	r2,0(r16)
    91f4:	10001926 	beq	r2,zero,925c <__sfp+0xcc>
    91f8:	1021883a 	mov	r16,r2
    91fc:	003fef06 	br	91bc <__sfp+0x2c>
    9200:	00bfffc4 	movi	r2,-1
    9204:	00c00044 	movi	r3,1
    9208:	2080038d 	sth	r2,14(r4)
    920c:	20c0030d 	sth	r3,12(r4)
    9210:	20000015 	stw	zero,0(r4)
    9214:	20000215 	stw	zero,8(r4)
    9218:	20000115 	stw	zero,4(r4)
    921c:	20000415 	stw	zero,16(r4)
    9220:	20000515 	stw	zero,20(r4)
    9224:	20000615 	stw	zero,24(r4)
    9228:	20000c15 	stw	zero,48(r4)
    922c:	20000d15 	stw	zero,52(r4)
    9230:	20001115 	stw	zero,68(r4)
    9234:	20001215 	stw	zero,72(r4)
    9238:	2005883a 	mov	r2,r4
    923c:	dfc00217 	ldw	ra,8(sp)
    9240:	dc400117 	ldw	r17,4(sp)
    9244:	dc000017 	ldw	r16,0(sp)
    9248:	dec00304 	addi	sp,sp,12
    924c:	f800283a 	ret
    9250:	8009883a 	mov	r4,r16
    9254:	00090280 	call	9028 <__sinit>
    9258:	003fd706 	br	91b8 <__sfp+0x28>
    925c:	8809883a 	mov	r4,r17
    9260:	01400104 	movi	r5,4
    9264:	00091280 	call	9128 <__sfmoreglue>
    9268:	80800015 	stw	r2,0(r16)
    926c:	103fe21e 	bne	r2,zero,91f8 <__sfp+0x68>
    9270:	00800304 	movi	r2,12
    9274:	0009883a 	mov	r4,zero
    9278:	88800015 	stw	r2,0(r17)
    927c:	003fee06 	br	9238 <__sfp+0xa8>

00009280 <_malloc_trim_r>:
    9280:	defffb04 	addi	sp,sp,-20
    9284:	dcc00315 	stw	r19,12(sp)
    9288:	04c20034 	movhi	r19,2048
    928c:	9cc2c004 	addi	r19,r19,2816
    9290:	dc800215 	stw	r18,8(sp)
    9294:	dc400115 	stw	r17,4(sp)
    9298:	dc000015 	stw	r16,0(sp)
    929c:	2823883a 	mov	r17,r5
    92a0:	2025883a 	mov	r18,r4
    92a4:	dfc00415 	stw	ra,16(sp)
    92a8:	000ef640 	call	ef64 <__malloc_lock>
    92ac:	98800217 	ldw	r2,8(r19)
    92b0:	9009883a 	mov	r4,r18
    92b4:	000b883a 	mov	r5,zero
    92b8:	10c00117 	ldw	r3,4(r2)
    92bc:	00bfff04 	movi	r2,-4
    92c0:	18a0703a 	and	r16,r3,r2
    92c4:	8463c83a 	sub	r17,r16,r17
    92c8:	8c43fbc4 	addi	r17,r17,4079
    92cc:	8822d33a 	srli	r17,r17,12
    92d0:	0083ffc4 	movi	r2,4095
    92d4:	8c7fffc4 	addi	r17,r17,-1
    92d8:	8822933a 	slli	r17,r17,12
    92dc:	1440060e 	bge	r2,r17,92f8 <_malloc_trim_r+0x78>
    92e0:	000be900 	call	be90 <_sbrk_r>
    92e4:	98c00217 	ldw	r3,8(r19)
    92e8:	9009883a 	mov	r4,r18
    92ec:	044bc83a 	sub	r5,zero,r17
    92f0:	80c7883a 	add	r3,r16,r3
    92f4:	10c00926 	beq	r2,r3,931c <_malloc_trim_r+0x9c>
    92f8:	000ef840 	call	ef84 <__malloc_unlock>
    92fc:	0005883a 	mov	r2,zero
    9300:	dfc00417 	ldw	ra,16(sp)
    9304:	dcc00317 	ldw	r19,12(sp)
    9308:	dc800217 	ldw	r18,8(sp)
    930c:	dc400117 	ldw	r17,4(sp)
    9310:	dc000017 	ldw	r16,0(sp)
    9314:	dec00504 	addi	sp,sp,20
    9318:	f800283a 	ret
    931c:	9009883a 	mov	r4,r18
    9320:	000be900 	call	be90 <_sbrk_r>
    9324:	844dc83a 	sub	r6,r16,r17
    9328:	00ffffc4 	movi	r3,-1
    932c:	9009883a 	mov	r4,r18
    9330:	000b883a 	mov	r5,zero
    9334:	01c20234 	movhi	r7,2056
    9338:	39fddb04 	addi	r7,r7,-2196
    933c:	31800054 	ori	r6,r6,1
    9340:	10c00926 	beq	r2,r3,9368 <_malloc_trim_r+0xe8>
    9344:	38800017 	ldw	r2,0(r7)
    9348:	98c00217 	ldw	r3,8(r19)
    934c:	9009883a 	mov	r4,r18
    9350:	1445c83a 	sub	r2,r2,r17
    9354:	38800015 	stw	r2,0(r7)
    9358:	19800115 	stw	r6,4(r3)
    935c:	000ef840 	call	ef84 <__malloc_unlock>
    9360:	00800044 	movi	r2,1
    9364:	003fe606 	br	9300 <_malloc_trim_r+0x80>
    9368:	000be900 	call	be90 <_sbrk_r>
    936c:	99800217 	ldw	r6,8(r19)
    9370:	100f883a 	mov	r7,r2
    9374:	9009883a 	mov	r4,r18
    9378:	1187c83a 	sub	r3,r2,r6
    937c:	008003c4 	movi	r2,15
    9380:	19400054 	ori	r5,r3,1
    9384:	10ffdc0e 	bge	r2,r3,92f8 <_malloc_trim_r+0x78>
    9388:	00820034 	movhi	r2,2048
    938c:	10893104 	addi	r2,r2,9412
    9390:	10c00017 	ldw	r3,0(r2)
    9394:	00820234 	movhi	r2,2056
    9398:	10bddb04 	addi	r2,r2,-2196
    939c:	31400115 	stw	r5,4(r6)
    93a0:	38c7c83a 	sub	r3,r7,r3
    93a4:	10c00015 	stw	r3,0(r2)
    93a8:	003fd306 	br	92f8 <_malloc_trim_r+0x78>

000093ac <_free_r>:
    93ac:	defffd04 	addi	sp,sp,-12
    93b0:	dc400115 	stw	r17,4(sp)
    93b4:	dc000015 	stw	r16,0(sp)
    93b8:	dfc00215 	stw	ra,8(sp)
    93bc:	2821883a 	mov	r16,r5
    93c0:	2023883a 	mov	r17,r4
    93c4:	28005a26 	beq	r5,zero,9530 <_free_r+0x184>
    93c8:	000ef640 	call	ef64 <__malloc_lock>
    93cc:	823ffe04 	addi	r8,r16,-8
    93d0:	41400117 	ldw	r5,4(r8)
    93d4:	00bfff84 	movi	r2,-2
    93d8:	02820034 	movhi	r10,2048
    93dc:	5282c004 	addi	r10,r10,2816
    93e0:	288e703a 	and	r7,r5,r2
    93e4:	41cd883a 	add	r6,r8,r7
    93e8:	30c00117 	ldw	r3,4(r6)
    93ec:	51000217 	ldw	r4,8(r10)
    93f0:	00bfff04 	movi	r2,-4
    93f4:	1892703a 	and	r9,r3,r2
    93f8:	5017883a 	mov	r11,r10
    93fc:	31006726 	beq	r6,r4,959c <_free_r+0x1f0>
    9400:	2880004c 	andi	r2,r5,1
    9404:	1005003a 	cmpeq	r2,r2,zero
    9408:	32400115 	stw	r9,4(r6)
    940c:	10001a1e 	bne	r2,zero,9478 <_free_r+0xcc>
    9410:	000b883a 	mov	r5,zero
    9414:	3247883a 	add	r3,r6,r9
    9418:	18800117 	ldw	r2,4(r3)
    941c:	1080004c 	andi	r2,r2,1
    9420:	1000231e 	bne	r2,zero,94b0 <_free_r+0x104>
    9424:	280ac03a 	cmpne	r5,r5,zero
    9428:	3a4f883a 	add	r7,r7,r9
    942c:	2800451e 	bne	r5,zero,9544 <_free_r+0x198>
    9430:	31000217 	ldw	r4,8(r6)
    9434:	00820034 	movhi	r2,2048
    9438:	1082c204 	addi	r2,r2,2824
    943c:	20807b26 	beq	r4,r2,962c <_free_r+0x280>
    9440:	30800317 	ldw	r2,12(r6)
    9444:	3a07883a 	add	r3,r7,r8
    9448:	19c00015 	stw	r7,0(r3)
    944c:	11000215 	stw	r4,8(r2)
    9450:	20800315 	stw	r2,12(r4)
    9454:	38800054 	ori	r2,r7,1
    9458:	40800115 	stw	r2,4(r8)
    945c:	28001a26 	beq	r5,zero,94c8 <_free_r+0x11c>
    9460:	8809883a 	mov	r4,r17
    9464:	dfc00217 	ldw	ra,8(sp)
    9468:	dc400117 	ldw	r17,4(sp)
    946c:	dc000017 	ldw	r16,0(sp)
    9470:	dec00304 	addi	sp,sp,12
    9474:	000ef841 	jmpi	ef84 <__malloc_unlock>
    9478:	80bffe17 	ldw	r2,-8(r16)
    947c:	50c00204 	addi	r3,r10,8
    9480:	4091c83a 	sub	r8,r8,r2
    9484:	41000217 	ldw	r4,8(r8)
    9488:	388f883a 	add	r7,r7,r2
    948c:	20c06126 	beq	r4,r3,9614 <_free_r+0x268>
    9490:	40800317 	ldw	r2,12(r8)
    9494:	3247883a 	add	r3,r6,r9
    9498:	000b883a 	mov	r5,zero
    949c:	11000215 	stw	r4,8(r2)
    94a0:	20800315 	stw	r2,12(r4)
    94a4:	18800117 	ldw	r2,4(r3)
    94a8:	1080004c 	andi	r2,r2,1
    94ac:	103fdd26 	beq	r2,zero,9424 <_free_r+0x78>
    94b0:	38800054 	ori	r2,r7,1
    94b4:	3a07883a 	add	r3,r7,r8
    94b8:	280ac03a 	cmpne	r5,r5,zero
    94bc:	40800115 	stw	r2,4(r8)
    94c0:	19c00015 	stw	r7,0(r3)
    94c4:	283fe61e 	bne	r5,zero,9460 <_free_r+0xb4>
    94c8:	00807fc4 	movi	r2,511
    94cc:	11c01f2e 	bgeu	r2,r7,954c <_free_r+0x1a0>
    94d0:	3806d27a 	srli	r3,r7,9
    94d4:	1800481e 	bne	r3,zero,95f8 <_free_r+0x24c>
    94d8:	3804d0fa 	srli	r2,r7,3
    94dc:	100690fa 	slli	r3,r2,3
    94e0:	1acd883a 	add	r6,r3,r11
    94e4:	31400217 	ldw	r5,8(r6)
    94e8:	31405926 	beq	r6,r5,9650 <_free_r+0x2a4>
    94ec:	28800117 	ldw	r2,4(r5)
    94f0:	00ffff04 	movi	r3,-4
    94f4:	10c4703a 	and	r2,r2,r3
    94f8:	3880022e 	bgeu	r7,r2,9504 <_free_r+0x158>
    94fc:	29400217 	ldw	r5,8(r5)
    9500:	317ffa1e 	bne	r6,r5,94ec <_free_r+0x140>
    9504:	29800317 	ldw	r6,12(r5)
    9508:	41800315 	stw	r6,12(r8)
    950c:	41400215 	stw	r5,8(r8)
    9510:	8809883a 	mov	r4,r17
    9514:	2a000315 	stw	r8,12(r5)
    9518:	32000215 	stw	r8,8(r6)
    951c:	dfc00217 	ldw	ra,8(sp)
    9520:	dc400117 	ldw	r17,4(sp)
    9524:	dc000017 	ldw	r16,0(sp)
    9528:	dec00304 	addi	sp,sp,12
    952c:	000ef841 	jmpi	ef84 <__malloc_unlock>
    9530:	dfc00217 	ldw	ra,8(sp)
    9534:	dc400117 	ldw	r17,4(sp)
    9538:	dc000017 	ldw	r16,0(sp)
    953c:	dec00304 	addi	sp,sp,12
    9540:	f800283a 	ret
    9544:	31000217 	ldw	r4,8(r6)
    9548:	003fbd06 	br	9440 <_free_r+0x94>
    954c:	3806d0fa 	srli	r3,r7,3
    9550:	00800044 	movi	r2,1
    9554:	51400117 	ldw	r5,4(r10)
    9558:	180890fa 	slli	r4,r3,3
    955c:	1807d0ba 	srai	r3,r3,2
    9560:	22c9883a 	add	r4,r4,r11
    9564:	21800217 	ldw	r6,8(r4)
    9568:	10c4983a 	sll	r2,r2,r3
    956c:	41000315 	stw	r4,12(r8)
    9570:	41800215 	stw	r6,8(r8)
    9574:	288ab03a 	or	r5,r5,r2
    9578:	22000215 	stw	r8,8(r4)
    957c:	8809883a 	mov	r4,r17
    9580:	51400115 	stw	r5,4(r10)
    9584:	32000315 	stw	r8,12(r6)
    9588:	dfc00217 	ldw	ra,8(sp)
    958c:	dc400117 	ldw	r17,4(sp)
    9590:	dc000017 	ldw	r16,0(sp)
    9594:	dec00304 	addi	sp,sp,12
    9598:	000ef841 	jmpi	ef84 <__malloc_unlock>
    959c:	2880004c 	andi	r2,r5,1
    95a0:	3a4d883a 	add	r6,r7,r9
    95a4:	1000071e 	bne	r2,zero,95c4 <_free_r+0x218>
    95a8:	80bffe17 	ldw	r2,-8(r16)
    95ac:	4091c83a 	sub	r8,r8,r2
    95b0:	41000317 	ldw	r4,12(r8)
    95b4:	40c00217 	ldw	r3,8(r8)
    95b8:	308d883a 	add	r6,r6,r2
    95bc:	20c00215 	stw	r3,8(r4)
    95c0:	19000315 	stw	r4,12(r3)
    95c4:	00820034 	movhi	r2,2048
    95c8:	10893004 	addi	r2,r2,9408
    95cc:	11000017 	ldw	r4,0(r2)
    95d0:	30c00054 	ori	r3,r6,1
    95d4:	52000215 	stw	r8,8(r10)
    95d8:	40c00115 	stw	r3,4(r8)
    95dc:	313fa036 	bltu	r6,r4,9460 <_free_r+0xb4>
    95e0:	00820034 	movhi	r2,2048
    95e4:	10895e04 	addi	r2,r2,9592
    95e8:	11400017 	ldw	r5,0(r2)
    95ec:	8809883a 	mov	r4,r17
    95f0:	00092800 	call	9280 <_malloc_trim_r>
    95f4:	003f9a06 	br	9460 <_free_r+0xb4>
    95f8:	00800104 	movi	r2,4
    95fc:	10c0072e 	bgeu	r2,r3,961c <_free_r+0x270>
    9600:	00800504 	movi	r2,20
    9604:	10c01936 	bltu	r2,r3,966c <_free_r+0x2c0>
    9608:	188016c4 	addi	r2,r3,91
    960c:	100690fa 	slli	r3,r2,3
    9610:	003fb306 	br	94e0 <_free_r+0x134>
    9614:	01400044 	movi	r5,1
    9618:	003f7e06 	br	9414 <_free_r+0x68>
    961c:	3804d1ba 	srli	r2,r7,6
    9620:	10800e04 	addi	r2,r2,56
    9624:	100690fa 	slli	r3,r2,3
    9628:	003fad06 	br	94e0 <_free_r+0x134>
    962c:	22000315 	stw	r8,12(r4)
    9630:	22000215 	stw	r8,8(r4)
    9634:	3a05883a 	add	r2,r7,r8
    9638:	38c00054 	ori	r3,r7,1
    963c:	11c00015 	stw	r7,0(r2)
    9640:	41000215 	stw	r4,8(r8)
    9644:	40c00115 	stw	r3,4(r8)
    9648:	41000315 	stw	r4,12(r8)
    964c:	003f8406 	br	9460 <_free_r+0xb4>
    9650:	1005d0ba 	srai	r2,r2,2
    9654:	00c00044 	movi	r3,1
    9658:	51000117 	ldw	r4,4(r10)
    965c:	1886983a 	sll	r3,r3,r2
    9660:	20c8b03a 	or	r4,r4,r3
    9664:	51000115 	stw	r4,4(r10)
    9668:	003fa706 	br	9508 <_free_r+0x15c>
    966c:	00801504 	movi	r2,84
    9670:	10c00436 	bltu	r2,r3,9684 <_free_r+0x2d8>
    9674:	3804d33a 	srli	r2,r7,12
    9678:	10801b84 	addi	r2,r2,110
    967c:	100690fa 	slli	r3,r2,3
    9680:	003f9706 	br	94e0 <_free_r+0x134>
    9684:	00805504 	movi	r2,340
    9688:	10c00436 	bltu	r2,r3,969c <_free_r+0x2f0>
    968c:	3804d3fa 	srli	r2,r7,15
    9690:	10801dc4 	addi	r2,r2,119
    9694:	100690fa 	slli	r3,r2,3
    9698:	003f9106 	br	94e0 <_free_r+0x134>
    969c:	00815504 	movi	r2,1364
    96a0:	10c0032e 	bgeu	r2,r3,96b0 <_free_r+0x304>
    96a4:	00801f84 	movi	r2,126
    96a8:	00c0fc04 	movi	r3,1008
    96ac:	003f8c06 	br	94e0 <_free_r+0x134>
    96b0:	3804d4ba 	srli	r2,r7,18
    96b4:	10801f04 	addi	r2,r2,124
    96b8:	100690fa 	slli	r3,r2,3
    96bc:	003f8806 	br	94e0 <_free_r+0x134>

000096c0 <__sfvwrite_r>:
    96c0:	30800217 	ldw	r2,8(r6)
    96c4:	defff504 	addi	sp,sp,-44
    96c8:	df000915 	stw	fp,36(sp)
    96cc:	dd800715 	stw	r22,28(sp)
    96d0:	dc800315 	stw	r18,12(sp)
    96d4:	dfc00a15 	stw	ra,40(sp)
    96d8:	ddc00815 	stw	r23,32(sp)
    96dc:	dd400615 	stw	r21,24(sp)
    96e0:	dd000515 	stw	r20,20(sp)
    96e4:	dcc00415 	stw	r19,16(sp)
    96e8:	dc400215 	stw	r17,8(sp)
    96ec:	dc000115 	stw	r16,4(sp)
    96f0:	302d883a 	mov	r22,r6
    96f4:	2039883a 	mov	fp,r4
    96f8:	2825883a 	mov	r18,r5
    96fc:	10001c26 	beq	r2,zero,9770 <__sfvwrite_r+0xb0>
    9700:	29c0030b 	ldhu	r7,12(r5)
    9704:	3880020c 	andi	r2,r7,8
    9708:	10002726 	beq	r2,zero,97a8 <__sfvwrite_r+0xe8>
    970c:	28800417 	ldw	r2,16(r5)
    9710:	10002526 	beq	r2,zero,97a8 <__sfvwrite_r+0xe8>
    9714:	3880008c 	andi	r2,r7,2
    9718:	b5400017 	ldw	r21,0(r22)
    971c:	10002826 	beq	r2,zero,97c0 <__sfvwrite_r+0x100>
    9720:	0021883a 	mov	r16,zero
    9724:	0023883a 	mov	r17,zero
    9728:	880d883a 	mov	r6,r17
    972c:	e009883a 	mov	r4,fp
    9730:	00810004 	movi	r2,1024
    9734:	80006e26 	beq	r16,zero,98f0 <__sfvwrite_r+0x230>
    9738:	800f883a 	mov	r7,r16
    973c:	91400717 	ldw	r5,28(r18)
    9740:	1400012e 	bgeu	r2,r16,9748 <__sfvwrite_r+0x88>
    9744:	100f883a 	mov	r7,r2
    9748:	90c00917 	ldw	r3,36(r18)
    974c:	183ee83a 	callr	r3
    9750:	1007883a 	mov	r3,r2
    9754:	80a1c83a 	sub	r16,r16,r2
    9758:	88a3883a 	add	r17,r17,r2
    975c:	00806d0e 	bge	zero,r2,9914 <__sfvwrite_r+0x254>
    9760:	b0800217 	ldw	r2,8(r22)
    9764:	10c5c83a 	sub	r2,r2,r3
    9768:	b0800215 	stw	r2,8(r22)
    976c:	103fee1e 	bne	r2,zero,9728 <__sfvwrite_r+0x68>
    9770:	0009883a 	mov	r4,zero
    9774:	2005883a 	mov	r2,r4
    9778:	dfc00a17 	ldw	ra,40(sp)
    977c:	df000917 	ldw	fp,36(sp)
    9780:	ddc00817 	ldw	r23,32(sp)
    9784:	dd800717 	ldw	r22,28(sp)
    9788:	dd400617 	ldw	r21,24(sp)
    978c:	dd000517 	ldw	r20,20(sp)
    9790:	dcc00417 	ldw	r19,16(sp)
    9794:	dc800317 	ldw	r18,12(sp)
    9798:	dc400217 	ldw	r17,8(sp)
    979c:	dc000117 	ldw	r16,4(sp)
    97a0:	dec00b04 	addi	sp,sp,44
    97a4:	f800283a 	ret
    97a8:	00074880 	call	7488 <__swsetup_r>
    97ac:	1000e41e 	bne	r2,zero,9b40 <__sfvwrite_r+0x480>
    97b0:	91c0030b 	ldhu	r7,12(r18)
    97b4:	b5400017 	ldw	r21,0(r22)
    97b8:	3880008c 	andi	r2,r7,2
    97bc:	103fd81e 	bne	r2,zero,9720 <__sfvwrite_r+0x60>
    97c0:	3880004c 	andi	r2,r7,1
    97c4:	1005003a 	cmpeq	r2,r2,zero
    97c8:	10005726 	beq	r2,zero,9928 <__sfvwrite_r+0x268>
    97cc:	0029883a 	mov	r20,zero
    97d0:	002f883a 	mov	r23,zero
    97d4:	a0004226 	beq	r20,zero,98e0 <__sfvwrite_r+0x220>
    97d8:	3880800c 	andi	r2,r7,512
    97dc:	94000217 	ldw	r16,8(r18)
    97e0:	10008b26 	beq	r2,zero,9a10 <__sfvwrite_r+0x350>
    97e4:	800d883a 	mov	r6,r16
    97e8:	a400a536 	bltu	r20,r16,9a80 <__sfvwrite_r+0x3c0>
    97ec:	3881200c 	andi	r2,r7,1152
    97f0:	10002726 	beq	r2,zero,9890 <__sfvwrite_r+0x1d0>
    97f4:	90800517 	ldw	r2,20(r18)
    97f8:	92000417 	ldw	r8,16(r18)
    97fc:	91400017 	ldw	r5,0(r18)
    9800:	1087883a 	add	r3,r2,r2
    9804:	1887883a 	add	r3,r3,r2
    9808:	1808d7fa 	srli	r4,r3,31
    980c:	2a21c83a 	sub	r16,r5,r8
    9810:	80800044 	addi	r2,r16,1
    9814:	20c9883a 	add	r4,r4,r3
    9818:	2027d07a 	srai	r19,r4,1
    981c:	a085883a 	add	r2,r20,r2
    9820:	980d883a 	mov	r6,r19
    9824:	9880022e 	bgeu	r19,r2,9830 <__sfvwrite_r+0x170>
    9828:	1027883a 	mov	r19,r2
    982c:	100d883a 	mov	r6,r2
    9830:	3881000c 	andi	r2,r7,1024
    9834:	1000b826 	beq	r2,zero,9b18 <__sfvwrite_r+0x458>
    9838:	300b883a 	mov	r5,r6
    983c:	e009883a 	mov	r4,fp
    9840:	0009f340 	call	9f34 <_malloc_r>
    9844:	10003126 	beq	r2,zero,990c <__sfvwrite_r+0x24c>
    9848:	91400417 	ldw	r5,16(r18)
    984c:	1009883a 	mov	r4,r2
    9850:	800d883a 	mov	r6,r16
    9854:	1023883a 	mov	r17,r2
    9858:	00052880 	call	5288 <memcpy>
    985c:	90c0030b 	ldhu	r3,12(r18)
    9860:	00beffc4 	movi	r2,-1025
    9864:	1886703a 	and	r3,r3,r2
    9868:	18c02014 	ori	r3,r3,128
    986c:	90c0030d 	sth	r3,12(r18)
    9870:	9c07c83a 	sub	r3,r19,r16
    9874:	8c05883a 	add	r2,r17,r16
    9878:	a00d883a 	mov	r6,r20
    987c:	a021883a 	mov	r16,r20
    9880:	90800015 	stw	r2,0(r18)
    9884:	90c00215 	stw	r3,8(r18)
    9888:	94400415 	stw	r17,16(r18)
    988c:	94c00515 	stw	r19,20(r18)
    9890:	91000017 	ldw	r4,0(r18)
    9894:	b80b883a 	mov	r5,r23
    9898:	a023883a 	mov	r17,r20
    989c:	000a7580 	call	a758 <memmove>
    98a0:	90c00217 	ldw	r3,8(r18)
    98a4:	90800017 	ldw	r2,0(r18)
    98a8:	a027883a 	mov	r19,r20
    98ac:	1c07c83a 	sub	r3,r3,r16
    98b0:	1405883a 	add	r2,r2,r16
    98b4:	90c00215 	stw	r3,8(r18)
    98b8:	a021883a 	mov	r16,r20
    98bc:	90800015 	stw	r2,0(r18)
    98c0:	b0800217 	ldw	r2,8(r22)
    98c4:	1405c83a 	sub	r2,r2,r16
    98c8:	b0800215 	stw	r2,8(r22)
    98cc:	103fa826 	beq	r2,zero,9770 <__sfvwrite_r+0xb0>
    98d0:	a469c83a 	sub	r20,r20,r17
    98d4:	91c0030b 	ldhu	r7,12(r18)
    98d8:	bcef883a 	add	r23,r23,r19
    98dc:	a03fbe1e 	bne	r20,zero,97d8 <__sfvwrite_r+0x118>
    98e0:	adc00017 	ldw	r23,0(r21)
    98e4:	ad000117 	ldw	r20,4(r21)
    98e8:	ad400204 	addi	r21,r21,8
    98ec:	003fb906 	br	97d4 <__sfvwrite_r+0x114>
    98f0:	ac400017 	ldw	r17,0(r21)
    98f4:	ac000117 	ldw	r16,4(r21)
    98f8:	ad400204 	addi	r21,r21,8
    98fc:	003f8a06 	br	9728 <__sfvwrite_r+0x68>
    9900:	91400417 	ldw	r5,16(r18)
    9904:	e009883a 	mov	r4,fp
    9908:	00093ac0 	call	93ac <_free_r>
    990c:	00800304 	movi	r2,12
    9910:	e0800015 	stw	r2,0(fp)
    9914:	9080030b 	ldhu	r2,12(r18)
    9918:	013fffc4 	movi	r4,-1
    991c:	10801014 	ori	r2,r2,64
    9920:	9080030d 	sth	r2,12(r18)
    9924:	003f9306 	br	9774 <__sfvwrite_r+0xb4>
    9928:	0027883a 	mov	r19,zero
    992c:	002f883a 	mov	r23,zero
    9930:	d8000015 	stw	zero,0(sp)
    9934:	0029883a 	mov	r20,zero
    9938:	98001e26 	beq	r19,zero,99b4 <__sfvwrite_r+0x2f4>
    993c:	d8c00017 	ldw	r3,0(sp)
    9940:	1804c03a 	cmpne	r2,r3,zero
    9944:	10005e26 	beq	r2,zero,9ac0 <__sfvwrite_r+0x400>
    9948:	9821883a 	mov	r16,r19
    994c:	a4c0012e 	bgeu	r20,r19,9954 <__sfvwrite_r+0x294>
    9950:	a021883a 	mov	r16,r20
    9954:	91000017 	ldw	r4,0(r18)
    9958:	90800417 	ldw	r2,16(r18)
    995c:	91800217 	ldw	r6,8(r18)
    9960:	91c00517 	ldw	r7,20(r18)
    9964:	1100022e 	bgeu	r2,r4,9970 <__sfvwrite_r+0x2b0>
    9968:	31e3883a 	add	r17,r6,r7
    996c:	8c001616 	blt	r17,r16,99c8 <__sfvwrite_r+0x308>
    9970:	81c03816 	blt	r16,r7,9a54 <__sfvwrite_r+0x394>
    9974:	90c00917 	ldw	r3,36(r18)
    9978:	91400717 	ldw	r5,28(r18)
    997c:	e009883a 	mov	r4,fp
    9980:	b80d883a 	mov	r6,r23
    9984:	183ee83a 	callr	r3
    9988:	1023883a 	mov	r17,r2
    998c:	00bfe10e 	bge	zero,r2,9914 <__sfvwrite_r+0x254>
    9990:	a469c83a 	sub	r20,r20,r17
    9994:	a0001826 	beq	r20,zero,99f8 <__sfvwrite_r+0x338>
    9998:	b0800217 	ldw	r2,8(r22)
    999c:	1445c83a 	sub	r2,r2,r17
    99a0:	b0800215 	stw	r2,8(r22)
    99a4:	103f7226 	beq	r2,zero,9770 <__sfvwrite_r+0xb0>
    99a8:	9c67c83a 	sub	r19,r19,r17
    99ac:	bc6f883a 	add	r23,r23,r17
    99b0:	983fe21e 	bne	r19,zero,993c <__sfvwrite_r+0x27c>
    99b4:	adc00017 	ldw	r23,0(r21)
    99b8:	acc00117 	ldw	r19,4(r21)
    99bc:	ad400204 	addi	r21,r21,8
    99c0:	d8000015 	stw	zero,0(sp)
    99c4:	003fdc06 	br	9938 <__sfvwrite_r+0x278>
    99c8:	b80b883a 	mov	r5,r23
    99cc:	880d883a 	mov	r6,r17
    99d0:	000a7580 	call	a758 <memmove>
    99d4:	90c00017 	ldw	r3,0(r18)
    99d8:	e009883a 	mov	r4,fp
    99dc:	900b883a 	mov	r5,r18
    99e0:	1c47883a 	add	r3,r3,r17
    99e4:	90c00015 	stw	r3,0(r18)
    99e8:	0008d900 	call	8d90 <_fflush_r>
    99ec:	103fc91e 	bne	r2,zero,9914 <__sfvwrite_r+0x254>
    99f0:	a469c83a 	sub	r20,r20,r17
    99f4:	a03fe81e 	bne	r20,zero,9998 <__sfvwrite_r+0x2d8>
    99f8:	e009883a 	mov	r4,fp
    99fc:	900b883a 	mov	r5,r18
    9a00:	0008d900 	call	8d90 <_fflush_r>
    9a04:	103fc31e 	bne	r2,zero,9914 <__sfvwrite_r+0x254>
    9a08:	d8000015 	stw	zero,0(sp)
    9a0c:	003fe206 	br	9998 <__sfvwrite_r+0x2d8>
    9a10:	91000017 	ldw	r4,0(r18)
    9a14:	90800417 	ldw	r2,16(r18)
    9a18:	1100022e 	bgeu	r2,r4,9a24 <__sfvwrite_r+0x364>
    9a1c:	8023883a 	mov	r17,r16
    9a20:	85003136 	bltu	r16,r20,9ae8 <__sfvwrite_r+0x428>
    9a24:	91c00517 	ldw	r7,20(r18)
    9a28:	a1c01836 	bltu	r20,r7,9a8c <__sfvwrite_r+0x3cc>
    9a2c:	90c00917 	ldw	r3,36(r18)
    9a30:	91400717 	ldw	r5,28(r18)
    9a34:	e009883a 	mov	r4,fp
    9a38:	b80d883a 	mov	r6,r23
    9a3c:	183ee83a 	callr	r3
    9a40:	1021883a 	mov	r16,r2
    9a44:	00bfb30e 	bge	zero,r2,9914 <__sfvwrite_r+0x254>
    9a48:	1023883a 	mov	r17,r2
    9a4c:	1027883a 	mov	r19,r2
    9a50:	003f9b06 	br	98c0 <__sfvwrite_r+0x200>
    9a54:	b80b883a 	mov	r5,r23
    9a58:	800d883a 	mov	r6,r16
    9a5c:	000a7580 	call	a758 <memmove>
    9a60:	90c00217 	ldw	r3,8(r18)
    9a64:	90800017 	ldw	r2,0(r18)
    9a68:	8023883a 	mov	r17,r16
    9a6c:	1c07c83a 	sub	r3,r3,r16
    9a70:	1405883a 	add	r2,r2,r16
    9a74:	90c00215 	stw	r3,8(r18)
    9a78:	90800015 	stw	r2,0(r18)
    9a7c:	003fc406 	br	9990 <__sfvwrite_r+0x2d0>
    9a80:	a00d883a 	mov	r6,r20
    9a84:	a021883a 	mov	r16,r20
    9a88:	003f8106 	br	9890 <__sfvwrite_r+0x1d0>
    9a8c:	b80b883a 	mov	r5,r23
    9a90:	a00d883a 	mov	r6,r20
    9a94:	000a7580 	call	a758 <memmove>
    9a98:	90c00217 	ldw	r3,8(r18)
    9a9c:	90800017 	ldw	r2,0(r18)
    9aa0:	a021883a 	mov	r16,r20
    9aa4:	1d07c83a 	sub	r3,r3,r20
    9aa8:	1505883a 	add	r2,r2,r20
    9aac:	a023883a 	mov	r17,r20
    9ab0:	a027883a 	mov	r19,r20
    9ab4:	90c00215 	stw	r3,8(r18)
    9ab8:	90800015 	stw	r2,0(r18)
    9abc:	003f8006 	br	98c0 <__sfvwrite_r+0x200>
    9ac0:	b809883a 	mov	r4,r23
    9ac4:	01400284 	movi	r5,10
    9ac8:	980d883a 	mov	r6,r19
    9acc:	000a6740 	call	a674 <memchr>
    9ad0:	10001726 	beq	r2,zero,9b30 <__sfvwrite_r+0x470>
    9ad4:	15c5c83a 	sub	r2,r2,r23
    9ad8:	15000044 	addi	r20,r2,1
    9adc:	00800044 	movi	r2,1
    9ae0:	d8800015 	stw	r2,0(sp)
    9ae4:	003f9806 	br	9948 <__sfvwrite_r+0x288>
    9ae8:	b80b883a 	mov	r5,r23
    9aec:	800d883a 	mov	r6,r16
    9af0:	000a7580 	call	a758 <memmove>
    9af4:	90c00017 	ldw	r3,0(r18)
    9af8:	e009883a 	mov	r4,fp
    9afc:	900b883a 	mov	r5,r18
    9b00:	1c07883a 	add	r3,r3,r16
    9b04:	90c00015 	stw	r3,0(r18)
    9b08:	8027883a 	mov	r19,r16
    9b0c:	0008d900 	call	8d90 <_fflush_r>
    9b10:	103f6b26 	beq	r2,zero,98c0 <__sfvwrite_r+0x200>
    9b14:	003f7f06 	br	9914 <__sfvwrite_r+0x254>
    9b18:	400b883a 	mov	r5,r8
    9b1c:	e009883a 	mov	r4,fp
    9b20:	000b82c0 	call	b82c <_realloc_r>
    9b24:	103f7626 	beq	r2,zero,9900 <__sfvwrite_r+0x240>
    9b28:	1023883a 	mov	r17,r2
    9b2c:	003f5006 	br	9870 <__sfvwrite_r+0x1b0>
    9b30:	00c00044 	movi	r3,1
    9b34:	9d000044 	addi	r20,r19,1
    9b38:	d8c00015 	stw	r3,0(sp)
    9b3c:	003f8206 	br	9948 <__sfvwrite_r+0x288>
    9b40:	9080030b 	ldhu	r2,12(r18)
    9b44:	00c00244 	movi	r3,9
    9b48:	013fffc4 	movi	r4,-1
    9b4c:	10801014 	ori	r2,r2,64
    9b50:	9080030d 	sth	r2,12(r18)
    9b54:	e0c00015 	stw	r3,0(fp)
    9b58:	003f0606 	br	9774 <__sfvwrite_r+0xb4>

00009b5c <_fwalk_reent>:
    9b5c:	defff704 	addi	sp,sp,-36
    9b60:	dcc00315 	stw	r19,12(sp)
    9b64:	24c0b804 	addi	r19,r4,736
    9b68:	dd800615 	stw	r22,24(sp)
    9b6c:	dd400515 	stw	r21,20(sp)
    9b70:	dfc00815 	stw	ra,32(sp)
    9b74:	ddc00715 	stw	r23,28(sp)
    9b78:	dd000415 	stw	r20,16(sp)
    9b7c:	dc800215 	stw	r18,8(sp)
    9b80:	dc400115 	stw	r17,4(sp)
    9b84:	dc000015 	stw	r16,0(sp)
    9b88:	202b883a 	mov	r21,r4
    9b8c:	282d883a 	mov	r22,r5
    9b90:	00090180 	call	9018 <__sfp_lock_acquire>
    9b94:	98002126 	beq	r19,zero,9c1c <_fwalk_reent+0xc0>
    9b98:	002f883a 	mov	r23,zero
    9b9c:	9c800117 	ldw	r18,4(r19)
    9ba0:	9c000217 	ldw	r16,8(r19)
    9ba4:	90bfffc4 	addi	r2,r18,-1
    9ba8:	10000d16 	blt	r2,zero,9be0 <_fwalk_reent+0x84>
    9bac:	0023883a 	mov	r17,zero
    9bb0:	053fffc4 	movi	r20,-1
    9bb4:	8080030f 	ldh	r2,12(r16)
    9bb8:	8c400044 	addi	r17,r17,1
    9bbc:	10000626 	beq	r2,zero,9bd8 <_fwalk_reent+0x7c>
    9bc0:	8080038f 	ldh	r2,14(r16)
    9bc4:	800b883a 	mov	r5,r16
    9bc8:	a809883a 	mov	r4,r21
    9bcc:	15000226 	beq	r2,r20,9bd8 <_fwalk_reent+0x7c>
    9bd0:	b03ee83a 	callr	r22
    9bd4:	b8aeb03a 	or	r23,r23,r2
    9bd8:	84001704 	addi	r16,r16,92
    9bdc:	947ff51e 	bne	r18,r17,9bb4 <_fwalk_reent+0x58>
    9be0:	9cc00017 	ldw	r19,0(r19)
    9be4:	983fed1e 	bne	r19,zero,9b9c <_fwalk_reent+0x40>
    9be8:	000901c0 	call	901c <__sfp_lock_release>
    9bec:	b805883a 	mov	r2,r23
    9bf0:	dfc00817 	ldw	ra,32(sp)
    9bf4:	ddc00717 	ldw	r23,28(sp)
    9bf8:	dd800617 	ldw	r22,24(sp)
    9bfc:	dd400517 	ldw	r21,20(sp)
    9c00:	dd000417 	ldw	r20,16(sp)
    9c04:	dcc00317 	ldw	r19,12(sp)
    9c08:	dc800217 	ldw	r18,8(sp)
    9c0c:	dc400117 	ldw	r17,4(sp)
    9c10:	dc000017 	ldw	r16,0(sp)
    9c14:	dec00904 	addi	sp,sp,36
    9c18:	f800283a 	ret
    9c1c:	002f883a 	mov	r23,zero
    9c20:	003ff106 	br	9be8 <_fwalk_reent+0x8c>

00009c24 <_fwalk>:
    9c24:	defff804 	addi	sp,sp,-32
    9c28:	dcc00315 	stw	r19,12(sp)
    9c2c:	24c0b804 	addi	r19,r4,736
    9c30:	dd400515 	stw	r21,20(sp)
    9c34:	dfc00715 	stw	ra,28(sp)
    9c38:	dd800615 	stw	r22,24(sp)
    9c3c:	dd000415 	stw	r20,16(sp)
    9c40:	dc800215 	stw	r18,8(sp)
    9c44:	dc400115 	stw	r17,4(sp)
    9c48:	dc000015 	stw	r16,0(sp)
    9c4c:	282b883a 	mov	r21,r5
    9c50:	00090180 	call	9018 <__sfp_lock_acquire>
    9c54:	98001f26 	beq	r19,zero,9cd4 <_fwalk+0xb0>
    9c58:	002d883a 	mov	r22,zero
    9c5c:	9c800117 	ldw	r18,4(r19)
    9c60:	9c000217 	ldw	r16,8(r19)
    9c64:	90bfffc4 	addi	r2,r18,-1
    9c68:	10000c16 	blt	r2,zero,9c9c <_fwalk+0x78>
    9c6c:	0023883a 	mov	r17,zero
    9c70:	053fffc4 	movi	r20,-1
    9c74:	8080030f 	ldh	r2,12(r16)
    9c78:	8c400044 	addi	r17,r17,1
    9c7c:	10000526 	beq	r2,zero,9c94 <_fwalk+0x70>
    9c80:	8080038f 	ldh	r2,14(r16)
    9c84:	8009883a 	mov	r4,r16
    9c88:	15000226 	beq	r2,r20,9c94 <_fwalk+0x70>
    9c8c:	a83ee83a 	callr	r21
    9c90:	b0acb03a 	or	r22,r22,r2
    9c94:	84001704 	addi	r16,r16,92
    9c98:	947ff61e 	bne	r18,r17,9c74 <_fwalk+0x50>
    9c9c:	9cc00017 	ldw	r19,0(r19)
    9ca0:	983fee1e 	bne	r19,zero,9c5c <_fwalk+0x38>
    9ca4:	000901c0 	call	901c <__sfp_lock_release>
    9ca8:	b005883a 	mov	r2,r22
    9cac:	dfc00717 	ldw	ra,28(sp)
    9cb0:	dd800617 	ldw	r22,24(sp)
    9cb4:	dd400517 	ldw	r21,20(sp)
    9cb8:	dd000417 	ldw	r20,16(sp)
    9cbc:	dcc00317 	ldw	r19,12(sp)
    9cc0:	dc800217 	ldw	r18,8(sp)
    9cc4:	dc400117 	ldw	r17,4(sp)
    9cc8:	dc000017 	ldw	r16,0(sp)
    9ccc:	dec00804 	addi	sp,sp,32
    9cd0:	f800283a 	ret
    9cd4:	002d883a 	mov	r22,zero
    9cd8:	003ff206 	br	9ca4 <_fwalk+0x80>

00009cdc <__locale_charset>:
    9cdc:	d0a00717 	ldw	r2,-32740(gp)
    9ce0:	f800283a 	ret

00009ce4 <_localeconv_r>:
    9ce4:	00820034 	movhi	r2,2048
    9ce8:	10804804 	addi	r2,r2,288
    9cec:	f800283a 	ret

00009cf0 <localeconv>:
    9cf0:	00820034 	movhi	r2,2048
    9cf4:	10892c04 	addi	r2,r2,9392
    9cf8:	11000017 	ldw	r4,0(r2)
    9cfc:	0009ce41 	jmpi	9ce4 <_localeconv_r>

00009d00 <_setlocale_r>:
    9d00:	defffc04 	addi	sp,sp,-16
    9d04:	00c20034 	movhi	r3,2048
    9d08:	18c04304 	addi	r3,r3,268
    9d0c:	dc800215 	stw	r18,8(sp)
    9d10:	dc400115 	stw	r17,4(sp)
    9d14:	dc000015 	stw	r16,0(sp)
    9d18:	2023883a 	mov	r17,r4
    9d1c:	2825883a 	mov	r18,r5
    9d20:	dfc00315 	stw	ra,12(sp)
    9d24:	3021883a 	mov	r16,r6
    9d28:	3009883a 	mov	r4,r6
    9d2c:	180b883a 	mov	r5,r3
    9d30:	30000926 	beq	r6,zero,9d58 <_setlocale_r+0x58>
    9d34:	000c04c0 	call	c04c <strcmp>
    9d38:	8009883a 	mov	r4,r16
    9d3c:	01420034 	movhi	r5,2048
    9d40:	29402e04 	addi	r5,r5,184
    9d44:	10000b1e 	bne	r2,zero,9d74 <_setlocale_r+0x74>
    9d48:	8c000d15 	stw	r16,52(r17)
    9d4c:	8c800c15 	stw	r18,48(r17)
    9d50:	00c20034 	movhi	r3,2048
    9d54:	18c04304 	addi	r3,r3,268
    9d58:	1805883a 	mov	r2,r3
    9d5c:	dfc00317 	ldw	ra,12(sp)
    9d60:	dc800217 	ldw	r18,8(sp)
    9d64:	dc400117 	ldw	r17,4(sp)
    9d68:	dc000017 	ldw	r16,0(sp)
    9d6c:	dec00404 	addi	sp,sp,16
    9d70:	f800283a 	ret
    9d74:	000c04c0 	call	c04c <strcmp>
    9d78:	0007883a 	mov	r3,zero
    9d7c:	103ff226 	beq	r2,zero,9d48 <_setlocale_r+0x48>
    9d80:	003ff506 	br	9d58 <_setlocale_r+0x58>

00009d84 <setlocale>:
    9d84:	01820034 	movhi	r6,2048
    9d88:	31892c04 	addi	r6,r6,9392
    9d8c:	2007883a 	mov	r3,r4
    9d90:	31000017 	ldw	r4,0(r6)
    9d94:	280d883a 	mov	r6,r5
    9d98:	180b883a 	mov	r5,r3
    9d9c:	0009d001 	jmpi	9d00 <_setlocale_r>

00009da0 <__smakebuf_r>:
    9da0:	2880030b 	ldhu	r2,12(r5)
    9da4:	deffed04 	addi	sp,sp,-76
    9da8:	dc401015 	stw	r17,64(sp)
    9dac:	1080008c 	andi	r2,r2,2
    9db0:	dc000f15 	stw	r16,60(sp)
    9db4:	dfc01215 	stw	ra,72(sp)
    9db8:	dc801115 	stw	r18,68(sp)
    9dbc:	2821883a 	mov	r16,r5
    9dc0:	2023883a 	mov	r17,r4
    9dc4:	10000b26 	beq	r2,zero,9df4 <__smakebuf_r+0x54>
    9dc8:	28c010c4 	addi	r3,r5,67
    9dcc:	00800044 	movi	r2,1
    9dd0:	28800515 	stw	r2,20(r5)
    9dd4:	28c00415 	stw	r3,16(r5)
    9dd8:	28c00015 	stw	r3,0(r5)
    9ddc:	dfc01217 	ldw	ra,72(sp)
    9de0:	dc801117 	ldw	r18,68(sp)
    9de4:	dc401017 	ldw	r17,64(sp)
    9de8:	dc000f17 	ldw	r16,60(sp)
    9dec:	dec01304 	addi	sp,sp,76
    9df0:	f800283a 	ret
    9df4:	2940038f 	ldh	r5,14(r5)
    9df8:	28002116 	blt	r5,zero,9e80 <__smakebuf_r+0xe0>
    9dfc:	d80d883a 	mov	r6,sp
    9e00:	000c3c80 	call	c3c8 <_fstat_r>
    9e04:	10001e16 	blt	r2,zero,9e80 <__smakebuf_r+0xe0>
    9e08:	d8800117 	ldw	r2,4(sp)
    9e0c:	00e00014 	movui	r3,32768
    9e10:	113c000c 	andi	r4,r2,61440
    9e14:	20c03126 	beq	r4,r3,9edc <__smakebuf_r+0x13c>
    9e18:	8080030b 	ldhu	r2,12(r16)
    9e1c:	00c80004 	movi	r3,8192
    9e20:	10820014 	ori	r2,r2,2048
    9e24:	8080030d 	sth	r2,12(r16)
    9e28:	20c01e26 	beq	r4,r3,9ea4 <__smakebuf_r+0x104>
    9e2c:	04810004 	movi	r18,1024
    9e30:	8809883a 	mov	r4,r17
    9e34:	900b883a 	mov	r5,r18
    9e38:	0009f340 	call	9f34 <_malloc_r>
    9e3c:	1009883a 	mov	r4,r2
    9e40:	10003126 	beq	r2,zero,9f08 <__smakebuf_r+0x168>
    9e44:	80c0030b 	ldhu	r3,12(r16)
    9e48:	00800074 	movhi	r2,1
    9e4c:	10a44304 	addi	r2,r2,-28404
    9e50:	88800f15 	stw	r2,60(r17)
    9e54:	18c02014 	ori	r3,r3,128
    9e58:	84800515 	stw	r18,20(r16)
    9e5c:	80c0030d 	sth	r3,12(r16)
    9e60:	81000415 	stw	r4,16(r16)
    9e64:	81000015 	stw	r4,0(r16)
    9e68:	dfc01217 	ldw	ra,72(sp)
    9e6c:	dc801117 	ldw	r18,68(sp)
    9e70:	dc401017 	ldw	r17,64(sp)
    9e74:	dc000f17 	ldw	r16,60(sp)
    9e78:	dec01304 	addi	sp,sp,76
    9e7c:	f800283a 	ret
    9e80:	80c0030b 	ldhu	r3,12(r16)
    9e84:	1880200c 	andi	r2,r3,128
    9e88:	10000426 	beq	r2,zero,9e9c <__smakebuf_r+0xfc>
    9e8c:	04801004 	movi	r18,64
    9e90:	18820014 	ori	r2,r3,2048
    9e94:	8080030d 	sth	r2,12(r16)
    9e98:	003fe506 	br	9e30 <__smakebuf_r+0x90>
    9e9c:	04810004 	movi	r18,1024
    9ea0:	003ffb06 	br	9e90 <__smakebuf_r+0xf0>
    9ea4:	8140038f 	ldh	r5,14(r16)
    9ea8:	8809883a 	mov	r4,r17
    9eac:	000c43c0 	call	c43c <_isatty_r>
    9eb0:	103fde26 	beq	r2,zero,9e2c <__smakebuf_r+0x8c>
    9eb4:	8080030b 	ldhu	r2,12(r16)
    9eb8:	80c010c4 	addi	r3,r16,67
    9ebc:	04810004 	movi	r18,1024
    9ec0:	10800054 	ori	r2,r2,1
    9ec4:	8080030d 	sth	r2,12(r16)
    9ec8:	00800044 	movi	r2,1
    9ecc:	80c00415 	stw	r3,16(r16)
    9ed0:	80800515 	stw	r2,20(r16)
    9ed4:	80c00015 	stw	r3,0(r16)
    9ed8:	003fd506 	br	9e30 <__smakebuf_r+0x90>
    9edc:	80c00a17 	ldw	r3,40(r16)
    9ee0:	00800074 	movhi	r2,1
    9ee4:	10afc204 	addi	r2,r2,-16632
    9ee8:	18bfcb1e 	bne	r3,r2,9e18 <__smakebuf_r+0x78>
    9eec:	8080030b 	ldhu	r2,12(r16)
    9ef0:	00c10004 	movi	r3,1024
    9ef4:	1825883a 	mov	r18,r3
    9ef8:	10c4b03a 	or	r2,r2,r3
    9efc:	8080030d 	sth	r2,12(r16)
    9f00:	80c01315 	stw	r3,76(r16)
    9f04:	003fca06 	br	9e30 <__smakebuf_r+0x90>
    9f08:	8100030b 	ldhu	r4,12(r16)
    9f0c:	2080800c 	andi	r2,r4,512
    9f10:	103fb21e 	bne	r2,zero,9ddc <__smakebuf_r+0x3c>
    9f14:	80c010c4 	addi	r3,r16,67
    9f18:	21000094 	ori	r4,r4,2
    9f1c:	00800044 	movi	r2,1
    9f20:	80800515 	stw	r2,20(r16)
    9f24:	8100030d 	sth	r4,12(r16)
    9f28:	80c00415 	stw	r3,16(r16)
    9f2c:	80c00015 	stw	r3,0(r16)
    9f30:	003faa06 	br	9ddc <__smakebuf_r+0x3c>

00009f34 <_malloc_r>:
    9f34:	defff604 	addi	sp,sp,-40
    9f38:	28c002c4 	addi	r3,r5,11
    9f3c:	00800584 	movi	r2,22
    9f40:	dc800215 	stw	r18,8(sp)
    9f44:	dfc00915 	stw	ra,36(sp)
    9f48:	df000815 	stw	fp,32(sp)
    9f4c:	ddc00715 	stw	r23,28(sp)
    9f50:	dd800615 	stw	r22,24(sp)
    9f54:	dd400515 	stw	r21,20(sp)
    9f58:	dd000415 	stw	r20,16(sp)
    9f5c:	dcc00315 	stw	r19,12(sp)
    9f60:	dc400115 	stw	r17,4(sp)
    9f64:	dc000015 	stw	r16,0(sp)
    9f68:	2025883a 	mov	r18,r4
    9f6c:	10c01236 	bltu	r2,r3,9fb8 <_malloc_r+0x84>
    9f70:	04400404 	movi	r17,16
    9f74:	8940142e 	bgeu	r17,r5,9fc8 <_malloc_r+0x94>
    9f78:	00800304 	movi	r2,12
    9f7c:	0007883a 	mov	r3,zero
    9f80:	90800015 	stw	r2,0(r18)
    9f84:	1805883a 	mov	r2,r3
    9f88:	dfc00917 	ldw	ra,36(sp)
    9f8c:	df000817 	ldw	fp,32(sp)
    9f90:	ddc00717 	ldw	r23,28(sp)
    9f94:	dd800617 	ldw	r22,24(sp)
    9f98:	dd400517 	ldw	r21,20(sp)
    9f9c:	dd000417 	ldw	r20,16(sp)
    9fa0:	dcc00317 	ldw	r19,12(sp)
    9fa4:	dc800217 	ldw	r18,8(sp)
    9fa8:	dc400117 	ldw	r17,4(sp)
    9fac:	dc000017 	ldw	r16,0(sp)
    9fb0:	dec00a04 	addi	sp,sp,40
    9fb4:	f800283a 	ret
    9fb8:	00bffe04 	movi	r2,-8
    9fbc:	18a2703a 	and	r17,r3,r2
    9fc0:	883fed16 	blt	r17,zero,9f78 <_malloc_r+0x44>
    9fc4:	897fec36 	bltu	r17,r5,9f78 <_malloc_r+0x44>
    9fc8:	9009883a 	mov	r4,r18
    9fcc:	000ef640 	call	ef64 <__malloc_lock>
    9fd0:	00807dc4 	movi	r2,503
    9fd4:	14402b2e 	bgeu	r2,r17,a084 <_malloc_r+0x150>
    9fd8:	8806d27a 	srli	r3,r17,9
    9fdc:	18003f1e 	bne	r3,zero,a0dc <_malloc_r+0x1a8>
    9fe0:	880cd0fa 	srli	r6,r17,3
    9fe4:	300490fa 	slli	r2,r6,3
    9fe8:	02c20034 	movhi	r11,2048
    9fec:	5ac2c004 	addi	r11,r11,2816
    9ff0:	12cb883a 	add	r5,r2,r11
    9ff4:	2c000317 	ldw	r16,12(r5)
    9ff8:	580f883a 	mov	r7,r11
    9ffc:	2c00041e 	bne	r5,r16,a010 <_malloc_r+0xdc>
    a000:	00000a06 	br	a02c <_malloc_r+0xf8>
    a004:	1800860e 	bge	r3,zero,a220 <_malloc_r+0x2ec>
    a008:	84000317 	ldw	r16,12(r16)
    a00c:	2c000726 	beq	r5,r16,a02c <_malloc_r+0xf8>
    a010:	80800117 	ldw	r2,4(r16)
    a014:	00ffff04 	movi	r3,-4
    a018:	10c8703a 	and	r4,r2,r3
    a01c:	2447c83a 	sub	r3,r4,r17
    a020:	008003c4 	movi	r2,15
    a024:	10fff70e 	bge	r2,r3,a004 <_malloc_r+0xd0>
    a028:	31bfffc4 	addi	r6,r6,-1
    a02c:	32400044 	addi	r9,r6,1
    a030:	02820034 	movhi	r10,2048
    a034:	5282c204 	addi	r10,r10,2824
    a038:	54000217 	ldw	r16,8(r10)
    a03c:	8280a026 	beq	r16,r10,a2c0 <_malloc_r+0x38c>
    a040:	80800117 	ldw	r2,4(r16)
    a044:	00ffff04 	movi	r3,-4
    a048:	10ca703a 	and	r5,r2,r3
    a04c:	2c4dc83a 	sub	r6,r5,r17
    a050:	008003c4 	movi	r2,15
    a054:	11808316 	blt	r2,r6,a264 <_malloc_r+0x330>
    a058:	52800315 	stw	r10,12(r10)
    a05c:	52800215 	stw	r10,8(r10)
    a060:	30002916 	blt	r6,zero,a108 <_malloc_r+0x1d4>
    a064:	8147883a 	add	r3,r16,r5
    a068:	18800117 	ldw	r2,4(r3)
    a06c:	9009883a 	mov	r4,r18
    a070:	10800054 	ori	r2,r2,1
    a074:	18800115 	stw	r2,4(r3)
    a078:	000ef840 	call	ef84 <__malloc_unlock>
    a07c:	80c00204 	addi	r3,r16,8
    a080:	003fc006 	br	9f84 <_malloc_r+0x50>
    a084:	02c20034 	movhi	r11,2048
    a088:	5ac2c004 	addi	r11,r11,2816
    a08c:	8ac5883a 	add	r2,r17,r11
    a090:	14000317 	ldw	r16,12(r2)
    a094:	580f883a 	mov	r7,r11
    a098:	8806d0fa 	srli	r3,r17,3
    a09c:	14006c26 	beq	r2,r16,a250 <_malloc_r+0x31c>
    a0a0:	80c00117 	ldw	r3,4(r16)
    a0a4:	00bfff04 	movi	r2,-4
    a0a8:	81800317 	ldw	r6,12(r16)
    a0ac:	1886703a 	and	r3,r3,r2
    a0b0:	80c7883a 	add	r3,r16,r3
    a0b4:	18800117 	ldw	r2,4(r3)
    a0b8:	81400217 	ldw	r5,8(r16)
    a0bc:	9009883a 	mov	r4,r18
    a0c0:	10800054 	ori	r2,r2,1
    a0c4:	18800115 	stw	r2,4(r3)
    a0c8:	31400215 	stw	r5,8(r6)
    a0cc:	29800315 	stw	r6,12(r5)
    a0d0:	000ef840 	call	ef84 <__malloc_unlock>
    a0d4:	80c00204 	addi	r3,r16,8
    a0d8:	003faa06 	br	9f84 <_malloc_r+0x50>
    a0dc:	00800104 	movi	r2,4
    a0e0:	10c0052e 	bgeu	r2,r3,a0f8 <_malloc_r+0x1c4>
    a0e4:	00800504 	movi	r2,20
    a0e8:	10c07836 	bltu	r2,r3,a2cc <_malloc_r+0x398>
    a0ec:	198016c4 	addi	r6,r3,91
    a0f0:	300490fa 	slli	r2,r6,3
    a0f4:	003fbc06 	br	9fe8 <_malloc_r+0xb4>
    a0f8:	8804d1ba 	srli	r2,r17,6
    a0fc:	11800e04 	addi	r6,r2,56
    a100:	300490fa 	slli	r2,r6,3
    a104:	003fb806 	br	9fe8 <_malloc_r+0xb4>
    a108:	00807fc4 	movi	r2,511
    a10c:	1140bb36 	bltu	r2,r5,a3fc <_malloc_r+0x4c8>
    a110:	2806d0fa 	srli	r3,r5,3
    a114:	573ffe04 	addi	fp,r10,-8
    a118:	00800044 	movi	r2,1
    a11c:	180890fa 	slli	r4,r3,3
    a120:	1807d0ba 	srai	r3,r3,2
    a124:	e1c00117 	ldw	r7,4(fp)
    a128:	5909883a 	add	r4,r11,r4
    a12c:	21400217 	ldw	r5,8(r4)
    a130:	10c4983a 	sll	r2,r2,r3
    a134:	81000315 	stw	r4,12(r16)
    a138:	81400215 	stw	r5,8(r16)
    a13c:	388eb03a 	or	r7,r7,r2
    a140:	2c000315 	stw	r16,12(r5)
    a144:	24000215 	stw	r16,8(r4)
    a148:	e1c00115 	stw	r7,4(fp)
    a14c:	4807883a 	mov	r3,r9
    a150:	4800cd16 	blt	r9,zero,a488 <_malloc_r+0x554>
    a154:	1807d0ba 	srai	r3,r3,2
    a158:	00800044 	movi	r2,1
    a15c:	10c8983a 	sll	r4,r2,r3
    a160:	39004436 	bltu	r7,r4,a274 <_malloc_r+0x340>
    a164:	21c4703a 	and	r2,r4,r7
    a168:	10000a1e 	bne	r2,zero,a194 <_malloc_r+0x260>
    a16c:	2109883a 	add	r4,r4,r4
    a170:	00bfff04 	movi	r2,-4
    a174:	4884703a 	and	r2,r9,r2
    a178:	3906703a 	and	r3,r7,r4
    a17c:	12400104 	addi	r9,r2,4
    a180:	1800041e 	bne	r3,zero,a194 <_malloc_r+0x260>
    a184:	2109883a 	add	r4,r4,r4
    a188:	3904703a 	and	r2,r7,r4
    a18c:	4a400104 	addi	r9,r9,4
    a190:	103ffc26 	beq	r2,zero,a184 <_malloc_r+0x250>
    a194:	480490fa 	slli	r2,r9,3
    a198:	4819883a 	mov	r12,r9
    a19c:	023fff04 	movi	r8,-4
    a1a0:	589b883a 	add	r13,r11,r2
    a1a4:	6807883a 	mov	r3,r13
    a1a8:	014003c4 	movi	r5,15
    a1ac:	1c000317 	ldw	r16,12(r3)
    a1b0:	1c00041e 	bne	r3,r16,a1c4 <_malloc_r+0x290>
    a1b4:	0000a706 	br	a454 <_malloc_r+0x520>
    a1b8:	3000ab0e 	bge	r6,zero,a468 <_malloc_r+0x534>
    a1bc:	84000317 	ldw	r16,12(r16)
    a1c0:	1c00a426 	beq	r3,r16,a454 <_malloc_r+0x520>
    a1c4:	80800117 	ldw	r2,4(r16)
    a1c8:	1204703a 	and	r2,r2,r8
    a1cc:	144dc83a 	sub	r6,r2,r17
    a1d0:	29bff90e 	bge	r5,r6,a1b8 <_malloc_r+0x284>
    a1d4:	81000317 	ldw	r4,12(r16)
    a1d8:	80c00217 	ldw	r3,8(r16)
    a1dc:	89400054 	ori	r5,r17,1
    a1e0:	8445883a 	add	r2,r16,r17
    a1e4:	20c00215 	stw	r3,8(r4)
    a1e8:	19000315 	stw	r4,12(r3)
    a1ec:	81400115 	stw	r5,4(r16)
    a1f0:	1187883a 	add	r3,r2,r6
    a1f4:	31000054 	ori	r4,r6,1
    a1f8:	50800315 	stw	r2,12(r10)
    a1fc:	50800215 	stw	r2,8(r10)
    a200:	19800015 	stw	r6,0(r3)
    a204:	11000115 	stw	r4,4(r2)
    a208:	12800215 	stw	r10,8(r2)
    a20c:	12800315 	stw	r10,12(r2)
    a210:	9009883a 	mov	r4,r18
    a214:	000ef840 	call	ef84 <__malloc_unlock>
    a218:	80c00204 	addi	r3,r16,8
    a21c:	003f5906 	br	9f84 <_malloc_r+0x50>
    a220:	8109883a 	add	r4,r16,r4
    a224:	20800117 	ldw	r2,4(r4)
    a228:	80c00217 	ldw	r3,8(r16)
    a22c:	81400317 	ldw	r5,12(r16)
    a230:	10800054 	ori	r2,r2,1
    a234:	20800115 	stw	r2,4(r4)
    a238:	28c00215 	stw	r3,8(r5)
    a23c:	19400315 	stw	r5,12(r3)
    a240:	9009883a 	mov	r4,r18
    a244:	000ef840 	call	ef84 <__malloc_unlock>
    a248:	80c00204 	addi	r3,r16,8
    a24c:	003f4d06 	br	9f84 <_malloc_r+0x50>
    a250:	80800204 	addi	r2,r16,8
    a254:	14000317 	ldw	r16,12(r2)
    a258:	143f911e 	bne	r2,r16,a0a0 <_malloc_r+0x16c>
    a25c:	1a400084 	addi	r9,r3,2
    a260:	003f7306 	br	a030 <_malloc_r+0xfc>
    a264:	88c00054 	ori	r3,r17,1
    a268:	8445883a 	add	r2,r16,r17
    a26c:	80c00115 	stw	r3,4(r16)
    a270:	003fdf06 	br	a1f0 <_malloc_r+0x2bc>
    a274:	e4000217 	ldw	r16,8(fp)
    a278:	00bfff04 	movi	r2,-4
    a27c:	80c00117 	ldw	r3,4(r16)
    a280:	802d883a 	mov	r22,r16
    a284:	18aa703a 	and	r21,r3,r2
    a288:	ac401636 	bltu	r21,r17,a2e4 <_malloc_r+0x3b0>
    a28c:	ac49c83a 	sub	r4,r21,r17
    a290:	008003c4 	movi	r2,15
    a294:	1100130e 	bge	r2,r4,a2e4 <_malloc_r+0x3b0>
    a298:	88800054 	ori	r2,r17,1
    a29c:	8447883a 	add	r3,r16,r17
    a2a0:	80800115 	stw	r2,4(r16)
    a2a4:	20800054 	ori	r2,r4,1
    a2a8:	18800115 	stw	r2,4(r3)
    a2ac:	e0c00215 	stw	r3,8(fp)
    a2b0:	9009883a 	mov	r4,r18
    a2b4:	000ef840 	call	ef84 <__malloc_unlock>
    a2b8:	80c00204 	addi	r3,r16,8
    a2bc:	003f3106 	br	9f84 <_malloc_r+0x50>
    a2c0:	39c00117 	ldw	r7,4(r7)
    a2c4:	573ffe04 	addi	fp,r10,-8
    a2c8:	003fa006 	br	a14c <_malloc_r+0x218>
    a2cc:	00801504 	movi	r2,84
    a2d0:	10c06736 	bltu	r2,r3,a470 <_malloc_r+0x53c>
    a2d4:	8804d33a 	srli	r2,r17,12
    a2d8:	11801b84 	addi	r6,r2,110
    a2dc:	300490fa 	slli	r2,r6,3
    a2e0:	003f4106 	br	9fe8 <_malloc_r+0xb4>
    a2e4:	d0a03617 	ldw	r2,-32552(gp)
    a2e8:	d0e00917 	ldw	r3,-32732(gp)
    a2ec:	053fffc4 	movi	r20,-1
    a2f0:	10800404 	addi	r2,r2,16
    a2f4:	88a7883a 	add	r19,r17,r2
    a2f8:	1d000326 	beq	r3,r20,a308 <_malloc_r+0x3d4>
    a2fc:	98c3ffc4 	addi	r3,r19,4095
    a300:	00bc0004 	movi	r2,-4096
    a304:	18a6703a 	and	r19,r3,r2
    a308:	9009883a 	mov	r4,r18
    a30c:	980b883a 	mov	r5,r19
    a310:	000be900 	call	be90 <_sbrk_r>
    a314:	1009883a 	mov	r4,r2
    a318:	15000426 	beq	r2,r20,a32c <_malloc_r+0x3f8>
    a31c:	854b883a 	add	r5,r16,r21
    a320:	1029883a 	mov	r20,r2
    a324:	11405a2e 	bgeu	r2,r5,a490 <_malloc_r+0x55c>
    a328:	87000c26 	beq	r16,fp,a35c <_malloc_r+0x428>
    a32c:	e4000217 	ldw	r16,8(fp)
    a330:	80c00117 	ldw	r3,4(r16)
    a334:	00bfff04 	movi	r2,-4
    a338:	1884703a 	and	r2,r3,r2
    a33c:	14400336 	bltu	r2,r17,a34c <_malloc_r+0x418>
    a340:	1449c83a 	sub	r4,r2,r17
    a344:	008003c4 	movi	r2,15
    a348:	113fd316 	blt	r2,r4,a298 <_malloc_r+0x364>
    a34c:	9009883a 	mov	r4,r18
    a350:	000ef840 	call	ef84 <__malloc_unlock>
    a354:	0007883a 	mov	r3,zero
    a358:	003f0a06 	br	9f84 <_malloc_r+0x50>
    a35c:	05c20234 	movhi	r23,2056
    a360:	bdfddb04 	addi	r23,r23,-2196
    a364:	b8800017 	ldw	r2,0(r23)
    a368:	988d883a 	add	r6,r19,r2
    a36c:	b9800015 	stw	r6,0(r23)
    a370:	d0e00917 	ldw	r3,-32732(gp)
    a374:	00bfffc4 	movi	r2,-1
    a378:	18808e26 	beq	r3,r2,a5b4 <_malloc_r+0x680>
    a37c:	2145c83a 	sub	r2,r4,r5
    a380:	3085883a 	add	r2,r6,r2
    a384:	b8800015 	stw	r2,0(r23)
    a388:	20c001cc 	andi	r3,r4,7
    a38c:	18005f1e 	bne	r3,zero,a50c <_malloc_r+0x5d8>
    a390:	000b883a 	mov	r5,zero
    a394:	a4c5883a 	add	r2,r20,r19
    a398:	1083ffcc 	andi	r2,r2,4095
    a39c:	00c40004 	movi	r3,4096
    a3a0:	1887c83a 	sub	r3,r3,r2
    a3a4:	28e7883a 	add	r19,r5,r3
    a3a8:	9009883a 	mov	r4,r18
    a3ac:	980b883a 	mov	r5,r19
    a3b0:	000be900 	call	be90 <_sbrk_r>
    a3b4:	1007883a 	mov	r3,r2
    a3b8:	00bfffc4 	movi	r2,-1
    a3bc:	18807a26 	beq	r3,r2,a5a8 <_malloc_r+0x674>
    a3c0:	1d05c83a 	sub	r2,r3,r20
    a3c4:	9885883a 	add	r2,r19,r2
    a3c8:	10c00054 	ori	r3,r2,1
    a3cc:	b8800017 	ldw	r2,0(r23)
    a3d0:	a021883a 	mov	r16,r20
    a3d4:	a0c00115 	stw	r3,4(r20)
    a3d8:	9885883a 	add	r2,r19,r2
    a3dc:	b8800015 	stw	r2,0(r23)
    a3e0:	e5000215 	stw	r20,8(fp)
    a3e4:	b7003626 	beq	r22,fp,a4c0 <_malloc_r+0x58c>
    a3e8:	018003c4 	movi	r6,15
    a3ec:	35404b36 	bltu	r6,r21,a51c <_malloc_r+0x5e8>
    a3f0:	00800044 	movi	r2,1
    a3f4:	a0800115 	stw	r2,4(r20)
    a3f8:	003fcd06 	br	a330 <_malloc_r+0x3fc>
    a3fc:	2808d27a 	srli	r4,r5,9
    a400:	2000371e 	bne	r4,zero,a4e0 <_malloc_r+0x5ac>
    a404:	2808d0fa 	srli	r4,r5,3
    a408:	200690fa 	slli	r3,r4,3
    a40c:	1ad1883a 	add	r8,r3,r11
    a410:	41800217 	ldw	r6,8(r8)
    a414:	41805b26 	beq	r8,r6,a584 <_malloc_r+0x650>
    a418:	30800117 	ldw	r2,4(r6)
    a41c:	00ffff04 	movi	r3,-4
    a420:	10c4703a 	and	r2,r2,r3
    a424:	2880022e 	bgeu	r5,r2,a430 <_malloc_r+0x4fc>
    a428:	31800217 	ldw	r6,8(r6)
    a42c:	41bffa1e 	bne	r8,r6,a418 <_malloc_r+0x4e4>
    a430:	32000317 	ldw	r8,12(r6)
    a434:	39c00117 	ldw	r7,4(r7)
    a438:	82000315 	stw	r8,12(r16)
    a43c:	81800215 	stw	r6,8(r16)
    a440:	07020034 	movhi	fp,2048
    a444:	e702c004 	addi	fp,fp,2816
    a448:	34000315 	stw	r16,12(r6)
    a44c:	44000215 	stw	r16,8(r8)
    a450:	003f3e06 	br	a14c <_malloc_r+0x218>
    a454:	63000044 	addi	r12,r12,1
    a458:	608000cc 	andi	r2,r12,3
    a45c:	10005d26 	beq	r2,zero,a5d4 <_malloc_r+0x6a0>
    a460:	18c00204 	addi	r3,r3,8
    a464:	003f5106 	br	a1ac <_malloc_r+0x278>
    a468:	8089883a 	add	r4,r16,r2
    a46c:	003f6d06 	br	a224 <_malloc_r+0x2f0>
    a470:	00805504 	movi	r2,340
    a474:	10c02036 	bltu	r2,r3,a4f8 <_malloc_r+0x5c4>
    a478:	8804d3fa 	srli	r2,r17,15
    a47c:	11801dc4 	addi	r6,r2,119
    a480:	300490fa 	slli	r2,r6,3
    a484:	003ed806 	br	9fe8 <_malloc_r+0xb4>
    a488:	48c000c4 	addi	r3,r9,3
    a48c:	003f3106 	br	a154 <_malloc_r+0x220>
    a490:	05c20234 	movhi	r23,2056
    a494:	bdfddb04 	addi	r23,r23,-2196
    a498:	b8800017 	ldw	r2,0(r23)
    a49c:	988d883a 	add	r6,r19,r2
    a4a0:	b9800015 	stw	r6,0(r23)
    a4a4:	293fb21e 	bne	r5,r4,a370 <_malloc_r+0x43c>
    a4a8:	2083ffcc 	andi	r2,r4,4095
    a4ac:	103fb01e 	bne	r2,zero,a370 <_malloc_r+0x43c>
    a4b0:	e4000217 	ldw	r16,8(fp)
    a4b4:	9d45883a 	add	r2,r19,r21
    a4b8:	10800054 	ori	r2,r2,1
    a4bc:	80800115 	stw	r2,4(r16)
    a4c0:	b8c00017 	ldw	r3,0(r23)
    a4c4:	d0a03717 	ldw	r2,-32548(gp)
    a4c8:	10c0012e 	bgeu	r2,r3,a4d0 <_malloc_r+0x59c>
    a4cc:	d0e03715 	stw	r3,-32548(gp)
    a4d0:	d0a03817 	ldw	r2,-32544(gp)
    a4d4:	10ff962e 	bgeu	r2,r3,a330 <_malloc_r+0x3fc>
    a4d8:	d0e03815 	stw	r3,-32544(gp)
    a4dc:	003f9406 	br	a330 <_malloc_r+0x3fc>
    a4e0:	00800104 	movi	r2,4
    a4e4:	11001e36 	bltu	r2,r4,a560 <_malloc_r+0x62c>
    a4e8:	2804d1ba 	srli	r2,r5,6
    a4ec:	11000e04 	addi	r4,r2,56
    a4f0:	200690fa 	slli	r3,r4,3
    a4f4:	003fc506 	br	a40c <_malloc_r+0x4d8>
    a4f8:	00815504 	movi	r2,1364
    a4fc:	10c01d2e 	bgeu	r2,r3,a574 <_malloc_r+0x640>
    a500:	01801f84 	movi	r6,126
    a504:	0080fc04 	movi	r2,1008
    a508:	003eb706 	br	9fe8 <_malloc_r+0xb4>
    a50c:	00800204 	movi	r2,8
    a510:	10cbc83a 	sub	r5,r2,r3
    a514:	2169883a 	add	r20,r4,r5
    a518:	003f9e06 	br	a394 <_malloc_r+0x460>
    a51c:	00bffe04 	movi	r2,-8
    a520:	a93ffd04 	addi	r4,r21,-12
    a524:	2088703a 	and	r4,r4,r2
    a528:	b10b883a 	add	r5,r22,r4
    a52c:	00c00144 	movi	r3,5
    a530:	28c00215 	stw	r3,8(r5)
    a534:	28c00115 	stw	r3,4(r5)
    a538:	b0800117 	ldw	r2,4(r22)
    a53c:	1080004c 	andi	r2,r2,1
    a540:	2084b03a 	or	r2,r4,r2
    a544:	b0800115 	stw	r2,4(r22)
    a548:	313fdd2e 	bgeu	r6,r4,a4c0 <_malloc_r+0x58c>
    a54c:	b1400204 	addi	r5,r22,8
    a550:	9009883a 	mov	r4,r18
    a554:	00093ac0 	call	93ac <_free_r>
    a558:	e4000217 	ldw	r16,8(fp)
    a55c:	003fd806 	br	a4c0 <_malloc_r+0x58c>
    a560:	00800504 	movi	r2,20
    a564:	11001536 	bltu	r2,r4,a5bc <_malloc_r+0x688>
    a568:	210016c4 	addi	r4,r4,91
    a56c:	200690fa 	slli	r3,r4,3
    a570:	003fa606 	br	a40c <_malloc_r+0x4d8>
    a574:	8804d4ba 	srli	r2,r17,18
    a578:	11801f04 	addi	r6,r2,124
    a57c:	300490fa 	slli	r2,r6,3
    a580:	003e9906 	br	9fe8 <_malloc_r+0xb4>
    a584:	2009d0ba 	srai	r4,r4,2
    a588:	01420034 	movhi	r5,2048
    a58c:	2942c004 	addi	r5,r5,2816
    a590:	00c00044 	movi	r3,1
    a594:	28800117 	ldw	r2,4(r5)
    a598:	1906983a 	sll	r3,r3,r4
    a59c:	10c4b03a 	or	r2,r2,r3
    a5a0:	28800115 	stw	r2,4(r5)
    a5a4:	003fa306 	br	a434 <_malloc_r+0x500>
    a5a8:	0027883a 	mov	r19,zero
    a5ac:	00c00044 	movi	r3,1
    a5b0:	003f8606 	br	a3cc <_malloc_r+0x498>
    a5b4:	d1200915 	stw	r4,-32732(gp)
    a5b8:	003f7306 	br	a388 <_malloc_r+0x454>
    a5bc:	00801504 	movi	r2,84
    a5c0:	11001936 	bltu	r2,r4,a628 <_malloc_r+0x6f4>
    a5c4:	2804d33a 	srli	r2,r5,12
    a5c8:	11001b84 	addi	r4,r2,110
    a5cc:	200690fa 	slli	r3,r4,3
    a5d0:	003f8e06 	br	a40c <_malloc_r+0x4d8>
    a5d4:	480b883a 	mov	r5,r9
    a5d8:	6807883a 	mov	r3,r13
    a5dc:	288000cc 	andi	r2,r5,3
    a5e0:	18fffe04 	addi	r3,r3,-8
    a5e4:	297fffc4 	addi	r5,r5,-1
    a5e8:	10001526 	beq	r2,zero,a640 <_malloc_r+0x70c>
    a5ec:	18800217 	ldw	r2,8(r3)
    a5f0:	10fffa26 	beq	r2,r3,a5dc <_malloc_r+0x6a8>
    a5f4:	2109883a 	add	r4,r4,r4
    a5f8:	393f1e36 	bltu	r7,r4,a274 <_malloc_r+0x340>
    a5fc:	203f1d26 	beq	r4,zero,a274 <_malloc_r+0x340>
    a600:	21c4703a 	and	r2,r4,r7
    a604:	10000226 	beq	r2,zero,a610 <_malloc_r+0x6dc>
    a608:	6013883a 	mov	r9,r12
    a60c:	003ee106 	br	a194 <_malloc_r+0x260>
    a610:	2109883a 	add	r4,r4,r4
    a614:	3904703a 	and	r2,r7,r4
    a618:	63000104 	addi	r12,r12,4
    a61c:	103ffc26 	beq	r2,zero,a610 <_malloc_r+0x6dc>
    a620:	6013883a 	mov	r9,r12
    a624:	003edb06 	br	a194 <_malloc_r+0x260>
    a628:	00805504 	movi	r2,340
    a62c:	11000836 	bltu	r2,r4,a650 <_malloc_r+0x71c>
    a630:	2804d3fa 	srli	r2,r5,15
    a634:	11001dc4 	addi	r4,r2,119
    a638:	200690fa 	slli	r3,r4,3
    a63c:	003f7306 	br	a40c <_malloc_r+0x4d8>
    a640:	0104303a 	nor	r2,zero,r4
    a644:	388e703a 	and	r7,r7,r2
    a648:	e1c00115 	stw	r7,4(fp)
    a64c:	003fe906 	br	a5f4 <_malloc_r+0x6c0>
    a650:	00815504 	movi	r2,1364
    a654:	1100032e 	bgeu	r2,r4,a664 <_malloc_r+0x730>
    a658:	01001f84 	movi	r4,126
    a65c:	00c0fc04 	movi	r3,1008
    a660:	003f6a06 	br	a40c <_malloc_r+0x4d8>
    a664:	2804d4ba 	srli	r2,r5,18
    a668:	11001f04 	addi	r4,r2,124
    a66c:	200690fa 	slli	r3,r4,3
    a670:	003f6606 	br	a40c <_malloc_r+0x4d8>

0000a674 <memchr>:
    a674:	008000c4 	movi	r2,3
    a678:	29403fcc 	andi	r5,r5,255
    a67c:	2007883a 	mov	r3,r4
    a680:	1180022e 	bgeu	r2,r6,a68c <memchr+0x18>
    a684:	2084703a 	and	r2,r4,r2
    a688:	10000b26 	beq	r2,zero,a6b8 <memchr+0x44>
    a68c:	313fffc4 	addi	r4,r6,-1
    a690:	3000051e 	bne	r6,zero,a6a8 <memchr+0x34>
    a694:	00002c06 	br	a748 <memchr+0xd4>
    a698:	213fffc4 	addi	r4,r4,-1
    a69c:	00bfffc4 	movi	r2,-1
    a6a0:	18c00044 	addi	r3,r3,1
    a6a4:	20802826 	beq	r4,r2,a748 <memchr+0xd4>
    a6a8:	18800003 	ldbu	r2,0(r3)
    a6ac:	28bffa1e 	bne	r5,r2,a698 <memchr+0x24>
    a6b0:	1805883a 	mov	r2,r3
    a6b4:	f800283a 	ret
    a6b8:	0011883a 	mov	r8,zero
    a6bc:	0007883a 	mov	r3,zero
    a6c0:	01c00104 	movi	r7,4
    a6c4:	4004923a 	slli	r2,r8,8
    a6c8:	18c00044 	addi	r3,r3,1
    a6cc:	1151883a 	add	r8,r2,r5
    a6d0:	19fffc1e 	bne	r3,r7,a6c4 <memchr+0x50>
    a6d4:	02bfbff4 	movhi	r10,65279
    a6d8:	52bfbfc4 	addi	r10,r10,-257
    a6dc:	02602074 	movhi	r9,32897
    a6e0:	4a602004 	addi	r9,r9,-32640
    a6e4:	02c000c4 	movi	r11,3
    a6e8:	20800017 	ldw	r2,0(r4)
    a6ec:	31bfff04 	addi	r6,r6,-4
    a6f0:	200f883a 	mov	r7,r4
    a6f4:	1204f03a 	xor	r2,r2,r8
    a6f8:	1287883a 	add	r3,r2,r10
    a6fc:	1a46703a 	and	r3,r3,r9
    a700:	0084303a 	nor	r2,zero,r2
    a704:	10c4703a 	and	r2,r2,r3
    a708:	10000b26 	beq	r2,zero,a738 <memchr+0xc4>
    a70c:	20800003 	ldbu	r2,0(r4)
    a710:	28800f26 	beq	r5,r2,a750 <memchr+0xdc>
    a714:	20800043 	ldbu	r2,1(r4)
    a718:	21c00044 	addi	r7,r4,1
    a71c:	28800c26 	beq	r5,r2,a750 <memchr+0xdc>
    a720:	20800083 	ldbu	r2,2(r4)
    a724:	21c00084 	addi	r7,r4,2
    a728:	28800926 	beq	r5,r2,a750 <memchr+0xdc>
    a72c:	208000c3 	ldbu	r2,3(r4)
    a730:	21c000c4 	addi	r7,r4,3
    a734:	28800626 	beq	r5,r2,a750 <memchr+0xdc>
    a738:	21000104 	addi	r4,r4,4
    a73c:	59bfea36 	bltu	r11,r6,a6e8 <memchr+0x74>
    a740:	2007883a 	mov	r3,r4
    a744:	003fd106 	br	a68c <memchr+0x18>
    a748:	0005883a 	mov	r2,zero
    a74c:	f800283a 	ret
    a750:	3805883a 	mov	r2,r7
    a754:	f800283a 	ret

0000a758 <memmove>:
    a758:	2807883a 	mov	r3,r5
    a75c:	2011883a 	mov	r8,r4
    a760:	29000c2e 	bgeu	r5,r4,a794 <memmove+0x3c>
    a764:	298f883a 	add	r7,r5,r6
    a768:	21c00a2e 	bgeu	r4,r7,a794 <memmove+0x3c>
    a76c:	30000726 	beq	r6,zero,a78c <memmove+0x34>
    a770:	2187883a 	add	r3,r4,r6
    a774:	198dc83a 	sub	r6,r3,r6
    a778:	39ffffc4 	addi	r7,r7,-1
    a77c:	38800003 	ldbu	r2,0(r7)
    a780:	18ffffc4 	addi	r3,r3,-1
    a784:	18800005 	stb	r2,0(r3)
    a788:	19bffb1e 	bne	r3,r6,a778 <memmove+0x20>
    a78c:	2005883a 	mov	r2,r4
    a790:	f800283a 	ret
    a794:	01c003c4 	movi	r7,15
    a798:	39800a36 	bltu	r7,r6,a7c4 <memmove+0x6c>
    a79c:	303ffb26 	beq	r6,zero,a78c <memmove+0x34>
    a7a0:	400f883a 	mov	r7,r8
    a7a4:	320d883a 	add	r6,r6,r8
    a7a8:	28800003 	ldbu	r2,0(r5)
    a7ac:	29400044 	addi	r5,r5,1
    a7b0:	38800005 	stb	r2,0(r7)
    a7b4:	39c00044 	addi	r7,r7,1
    a7b8:	39bffb1e 	bne	r7,r6,a7a8 <memmove+0x50>
    a7bc:	2005883a 	mov	r2,r4
    a7c0:	f800283a 	ret
    a7c4:	1904b03a 	or	r2,r3,r4
    a7c8:	108000cc 	andi	r2,r2,3
    a7cc:	103ff31e 	bne	r2,zero,a79c <memmove+0x44>
    a7d0:	3811883a 	mov	r8,r7
    a7d4:	180b883a 	mov	r5,r3
    a7d8:	200f883a 	mov	r7,r4
    a7dc:	28c00017 	ldw	r3,0(r5)
    a7e0:	31bffc04 	addi	r6,r6,-16
    a7e4:	38c00015 	stw	r3,0(r7)
    a7e8:	28800117 	ldw	r2,4(r5)
    a7ec:	38800115 	stw	r2,4(r7)
    a7f0:	28c00217 	ldw	r3,8(r5)
    a7f4:	38c00215 	stw	r3,8(r7)
    a7f8:	28800317 	ldw	r2,12(r5)
    a7fc:	29400404 	addi	r5,r5,16
    a800:	38800315 	stw	r2,12(r7)
    a804:	39c00404 	addi	r7,r7,16
    a808:	41bff436 	bltu	r8,r6,a7dc <memmove+0x84>
    a80c:	008000c4 	movi	r2,3
    a810:	1180072e 	bgeu	r2,r6,a830 <memmove+0xd8>
    a814:	1007883a 	mov	r3,r2
    a818:	28800017 	ldw	r2,0(r5)
    a81c:	31bfff04 	addi	r6,r6,-4
    a820:	29400104 	addi	r5,r5,4
    a824:	38800015 	stw	r2,0(r7)
    a828:	39c00104 	addi	r7,r7,4
    a82c:	19bffa36 	bltu	r3,r6,a818 <memmove+0xc0>
    a830:	3811883a 	mov	r8,r7
    a834:	003fd906 	br	a79c <memmove+0x44>

0000a838 <_Bfree>:
    a838:	28000826 	beq	r5,zero,a85c <_Bfree+0x24>
    a83c:	28800117 	ldw	r2,4(r5)
    a840:	21001317 	ldw	r4,76(r4)
    a844:	1085883a 	add	r2,r2,r2
    a848:	1085883a 	add	r2,r2,r2
    a84c:	1105883a 	add	r2,r2,r4
    a850:	10c00017 	ldw	r3,0(r2)
    a854:	28c00015 	stw	r3,0(r5)
    a858:	11400015 	stw	r5,0(r2)
    a85c:	f800283a 	ret

0000a860 <__hi0bits>:
    a860:	20bfffec 	andhi	r2,r4,65535
    a864:	10001426 	beq	r2,zero,a8b8 <__hi0bits+0x58>
    a868:	0007883a 	mov	r3,zero
    a86c:	20bfc02c 	andhi	r2,r4,65280
    a870:	1000021e 	bne	r2,zero,a87c <__hi0bits+0x1c>
    a874:	2008923a 	slli	r4,r4,8
    a878:	18c00204 	addi	r3,r3,8
    a87c:	20bc002c 	andhi	r2,r4,61440
    a880:	1000021e 	bne	r2,zero,a88c <__hi0bits+0x2c>
    a884:	2008913a 	slli	r4,r4,4
    a888:	18c00104 	addi	r3,r3,4
    a88c:	20b0002c 	andhi	r2,r4,49152
    a890:	1000031e 	bne	r2,zero,a8a0 <__hi0bits+0x40>
    a894:	2105883a 	add	r2,r4,r4
    a898:	18c00084 	addi	r3,r3,2
    a89c:	1089883a 	add	r4,r2,r2
    a8a0:	20000316 	blt	r4,zero,a8b0 <__hi0bits+0x50>
    a8a4:	2090002c 	andhi	r2,r4,16384
    a8a8:	10000626 	beq	r2,zero,a8c4 <__hi0bits+0x64>
    a8ac:	18c00044 	addi	r3,r3,1
    a8b0:	1805883a 	mov	r2,r3
    a8b4:	f800283a 	ret
    a8b8:	2008943a 	slli	r4,r4,16
    a8bc:	00c00404 	movi	r3,16
    a8c0:	003fea06 	br	a86c <__hi0bits+0xc>
    a8c4:	00c00804 	movi	r3,32
    a8c8:	1805883a 	mov	r2,r3
    a8cc:	f800283a 	ret

0000a8d0 <__lo0bits>:
    a8d0:	20c00017 	ldw	r3,0(r4)
    a8d4:	188001cc 	andi	r2,r3,7
    a8d8:	10000a26 	beq	r2,zero,a904 <__lo0bits+0x34>
    a8dc:	1880004c 	andi	r2,r3,1
    a8e0:	1005003a 	cmpeq	r2,r2,zero
    a8e4:	10002126 	beq	r2,zero,a96c <__lo0bits+0x9c>
    a8e8:	1880008c 	andi	r2,r3,2
    a8ec:	1000251e 	bne	r2,zero,a984 <__lo0bits+0xb4>
    a8f0:	1804d0ba 	srli	r2,r3,2
    a8f4:	01400084 	movi	r5,2
    a8f8:	20800015 	stw	r2,0(r4)
    a8fc:	2805883a 	mov	r2,r5
    a900:	f800283a 	ret
    a904:	18bfffcc 	andi	r2,r3,65535
    a908:	10001526 	beq	r2,zero,a960 <__lo0bits+0x90>
    a90c:	000b883a 	mov	r5,zero
    a910:	18803fcc 	andi	r2,r3,255
    a914:	1000021e 	bne	r2,zero,a920 <__lo0bits+0x50>
    a918:	1806d23a 	srli	r3,r3,8
    a91c:	29400204 	addi	r5,r5,8
    a920:	188003cc 	andi	r2,r3,15
    a924:	1000021e 	bne	r2,zero,a930 <__lo0bits+0x60>
    a928:	1806d13a 	srli	r3,r3,4
    a92c:	29400104 	addi	r5,r5,4
    a930:	188000cc 	andi	r2,r3,3
    a934:	1000021e 	bne	r2,zero,a940 <__lo0bits+0x70>
    a938:	1806d0ba 	srli	r3,r3,2
    a93c:	29400084 	addi	r5,r5,2
    a940:	1880004c 	andi	r2,r3,1
    a944:	1000031e 	bne	r2,zero,a954 <__lo0bits+0x84>
    a948:	1806d07a 	srli	r3,r3,1
    a94c:	18000a26 	beq	r3,zero,a978 <__lo0bits+0xa8>
    a950:	29400044 	addi	r5,r5,1
    a954:	2805883a 	mov	r2,r5
    a958:	20c00015 	stw	r3,0(r4)
    a95c:	f800283a 	ret
    a960:	1806d43a 	srli	r3,r3,16
    a964:	01400404 	movi	r5,16
    a968:	003fe906 	br	a910 <__lo0bits+0x40>
    a96c:	000b883a 	mov	r5,zero
    a970:	2805883a 	mov	r2,r5
    a974:	f800283a 	ret
    a978:	01400804 	movi	r5,32
    a97c:	2805883a 	mov	r2,r5
    a980:	f800283a 	ret
    a984:	1804d07a 	srli	r2,r3,1
    a988:	01400044 	movi	r5,1
    a98c:	20800015 	stw	r2,0(r4)
    a990:	003fda06 	br	a8fc <__lo0bits+0x2c>

0000a994 <__mcmp>:
    a994:	20800417 	ldw	r2,16(r4)
    a998:	28c00417 	ldw	r3,16(r5)
    a99c:	10cfc83a 	sub	r7,r2,r3
    a9a0:	38000c1e 	bne	r7,zero,a9d4 <__mcmp+0x40>
    a9a4:	18c5883a 	add	r2,r3,r3
    a9a8:	1085883a 	add	r2,r2,r2
    a9ac:	10c00504 	addi	r3,r2,20
    a9b0:	21000504 	addi	r4,r4,20
    a9b4:	28cb883a 	add	r5,r5,r3
    a9b8:	2085883a 	add	r2,r4,r2
    a9bc:	10bfff04 	addi	r2,r2,-4
    a9c0:	297fff04 	addi	r5,r5,-4
    a9c4:	11800017 	ldw	r6,0(r2)
    a9c8:	28c00017 	ldw	r3,0(r5)
    a9cc:	30c0031e 	bne	r6,r3,a9dc <__mcmp+0x48>
    a9d0:	20bffa36 	bltu	r4,r2,a9bc <__mcmp+0x28>
    a9d4:	3805883a 	mov	r2,r7
    a9d8:	f800283a 	ret
    a9dc:	30c00336 	bltu	r6,r3,a9ec <__mcmp+0x58>
    a9e0:	01c00044 	movi	r7,1
    a9e4:	3805883a 	mov	r2,r7
    a9e8:	f800283a 	ret
    a9ec:	01ffffc4 	movi	r7,-1
    a9f0:	003ff806 	br	a9d4 <__mcmp+0x40>

0000a9f4 <__ulp>:
    a9f4:	295ffc2c 	andhi	r5,r5,32752
    a9f8:	013f3034 	movhi	r4,64704
    a9fc:	290b883a 	add	r5,r5,r4
    aa00:	0145c83a 	sub	r2,zero,r5
    aa04:	1007d53a 	srai	r3,r2,20
    aa08:	000d883a 	mov	r6,zero
    aa0c:	0140040e 	bge	zero,r5,aa20 <__ulp+0x2c>
    aa10:	280f883a 	mov	r7,r5
    aa14:	3807883a 	mov	r3,r7
    aa18:	3005883a 	mov	r2,r6
    aa1c:	f800283a 	ret
    aa20:	008004c4 	movi	r2,19
    aa24:	193ffb04 	addi	r4,r3,-20
    aa28:	10c00c0e 	bge	r2,r3,aa5c <__ulp+0x68>
    aa2c:	008007c4 	movi	r2,31
    aa30:	1107c83a 	sub	r3,r2,r4
    aa34:	00800784 	movi	r2,30
    aa38:	01400044 	movi	r5,1
    aa3c:	11000216 	blt	r2,r4,aa48 <__ulp+0x54>
    aa40:	00800044 	movi	r2,1
    aa44:	10ca983a 	sll	r5,r2,r3
    aa48:	000f883a 	mov	r7,zero
    aa4c:	280d883a 	mov	r6,r5
    aa50:	3807883a 	mov	r3,r7
    aa54:	3005883a 	mov	r2,r6
    aa58:	f800283a 	ret
    aa5c:	00800234 	movhi	r2,8
    aa60:	10cfd83a 	sra	r7,r2,r3
    aa64:	000d883a 	mov	r6,zero
    aa68:	3005883a 	mov	r2,r6
    aa6c:	3807883a 	mov	r3,r7
    aa70:	f800283a 	ret

0000aa74 <__b2d>:
    aa74:	20800417 	ldw	r2,16(r4)
    aa78:	defff904 	addi	sp,sp,-28
    aa7c:	dd000415 	stw	r20,16(sp)
    aa80:	1085883a 	add	r2,r2,r2
    aa84:	25000504 	addi	r20,r4,20
    aa88:	1085883a 	add	r2,r2,r2
    aa8c:	dc000015 	stw	r16,0(sp)
    aa90:	a0a1883a 	add	r16,r20,r2
    aa94:	dd400515 	stw	r21,20(sp)
    aa98:	857fff17 	ldw	r21,-4(r16)
    aa9c:	dc400115 	stw	r17,4(sp)
    aaa0:	dfc00615 	stw	ra,24(sp)
    aaa4:	a809883a 	mov	r4,r21
    aaa8:	2823883a 	mov	r17,r5
    aaac:	dcc00315 	stw	r19,12(sp)
    aab0:	dc800215 	stw	r18,8(sp)
    aab4:	000a8600 	call	a860 <__hi0bits>
    aab8:	100b883a 	mov	r5,r2
    aabc:	00800804 	movi	r2,32
    aac0:	1145c83a 	sub	r2,r2,r5
    aac4:	88800015 	stw	r2,0(r17)
    aac8:	00800284 	movi	r2,10
    aacc:	80ffff04 	addi	r3,r16,-4
    aad0:	11401416 	blt	r2,r5,ab24 <__b2d+0xb0>
    aad4:	008002c4 	movi	r2,11
    aad8:	1149c83a 	sub	r4,r2,r5
    aadc:	a0c02736 	bltu	r20,r3,ab7c <__b2d+0x108>
    aae0:	000d883a 	mov	r6,zero
    aae4:	28800544 	addi	r2,r5,21
    aae8:	a906d83a 	srl	r3,r21,r4
    aaec:	a884983a 	sll	r2,r21,r2
    aaf0:	1ccffc34 	orhi	r19,r3,16368
    aaf4:	11a4b03a 	or	r18,r2,r6
    aaf8:	9005883a 	mov	r2,r18
    aafc:	9807883a 	mov	r3,r19
    ab00:	dfc00617 	ldw	ra,24(sp)
    ab04:	dd400517 	ldw	r21,20(sp)
    ab08:	dd000417 	ldw	r20,16(sp)
    ab0c:	dcc00317 	ldw	r19,12(sp)
    ab10:	dc800217 	ldw	r18,8(sp)
    ab14:	dc400117 	ldw	r17,4(sp)
    ab18:	dc000017 	ldw	r16,0(sp)
    ab1c:	dec00704 	addi	sp,sp,28
    ab20:	f800283a 	ret
    ab24:	a0c00e36 	bltu	r20,r3,ab60 <__b2d+0xec>
    ab28:	293ffd44 	addi	r4,r5,-11
    ab2c:	000d883a 	mov	r6,zero
    ab30:	20000f26 	beq	r4,zero,ab70 <__b2d+0xfc>
    ab34:	00800804 	movi	r2,32
    ab38:	110bc83a 	sub	r5,r2,r4
    ab3c:	a0c01236 	bltu	r20,r3,ab88 <__b2d+0x114>
    ab40:	000f883a 	mov	r7,zero
    ab44:	a904983a 	sll	r2,r21,r4
    ab48:	3146d83a 	srl	r3,r6,r5
    ab4c:	3108983a 	sll	r4,r6,r4
    ab50:	108ffc34 	orhi	r2,r2,16368
    ab54:	18a6b03a 	or	r19,r3,r2
    ab58:	3924b03a 	or	r18,r7,r4
    ab5c:	003fe606 	br	aaf8 <__b2d+0x84>
    ab60:	293ffd44 	addi	r4,r5,-11
    ab64:	81bffe17 	ldw	r6,-8(r16)
    ab68:	80fffe04 	addi	r3,r16,-8
    ab6c:	203ff11e 	bne	r4,zero,ab34 <__b2d+0xc0>
    ab70:	accffc34 	orhi	r19,r21,16368
    ab74:	3025883a 	mov	r18,r6
    ab78:	003fdf06 	br	aaf8 <__b2d+0x84>
    ab7c:	18bfff17 	ldw	r2,-4(r3)
    ab80:	110cd83a 	srl	r6,r2,r4
    ab84:	003fd706 	br	aae4 <__b2d+0x70>
    ab88:	18bfff17 	ldw	r2,-4(r3)
    ab8c:	114ed83a 	srl	r7,r2,r5
    ab90:	003fec06 	br	ab44 <__b2d+0xd0>

0000ab94 <__ratio>:
    ab94:	defff904 	addi	sp,sp,-28
    ab98:	dc400215 	stw	r17,8(sp)
    ab9c:	2823883a 	mov	r17,r5
    aba0:	d80b883a 	mov	r5,sp
    aba4:	dfc00615 	stw	ra,24(sp)
    aba8:	dd000515 	stw	r20,20(sp)
    abac:	dcc00415 	stw	r19,16(sp)
    abb0:	dc800315 	stw	r18,12(sp)
    abb4:	2025883a 	mov	r18,r4
    abb8:	000aa740 	call	aa74 <__b2d>
    abbc:	8809883a 	mov	r4,r17
    abc0:	d9400104 	addi	r5,sp,4
    abc4:	1027883a 	mov	r19,r2
    abc8:	1829883a 	mov	r20,r3
    abcc:	000aa740 	call	aa74 <__b2d>
    abd0:	89000417 	ldw	r4,16(r17)
    abd4:	91c00417 	ldw	r7,16(r18)
    abd8:	d9800117 	ldw	r6,4(sp)
    abdc:	180b883a 	mov	r5,r3
    abe0:	390fc83a 	sub	r7,r7,r4
    abe4:	1009883a 	mov	r4,r2
    abe8:	d8800017 	ldw	r2,0(sp)
    abec:	380e917a 	slli	r7,r7,5
    abf0:	2011883a 	mov	r8,r4
    abf4:	1185c83a 	sub	r2,r2,r6
    abf8:	11c5883a 	add	r2,r2,r7
    abfc:	1006953a 	slli	r3,r2,20
    ac00:	2813883a 	mov	r9,r5
    ac04:	00800d0e 	bge	zero,r2,ac3c <__ratio+0xa8>
    ac08:	1d29883a 	add	r20,r3,r20
    ac0c:	a00b883a 	mov	r5,r20
    ac10:	480f883a 	mov	r7,r9
    ac14:	9809883a 	mov	r4,r19
    ac18:	400d883a 	mov	r6,r8
    ac1c:	000d9f00 	call	d9f0 <__divdf3>
    ac20:	dfc00617 	ldw	ra,24(sp)
    ac24:	dd000517 	ldw	r20,20(sp)
    ac28:	dcc00417 	ldw	r19,16(sp)
    ac2c:	dc800317 	ldw	r18,12(sp)
    ac30:	dc400217 	ldw	r17,8(sp)
    ac34:	dec00704 	addi	sp,sp,28
    ac38:	f800283a 	ret
    ac3c:	28d3c83a 	sub	r9,r5,r3
    ac40:	003ff206 	br	ac0c <__ratio+0x78>

0000ac44 <_mprec_log10>:
    ac44:	defffe04 	addi	sp,sp,-8
    ac48:	008005c4 	movi	r2,23
    ac4c:	dc000015 	stw	r16,0(sp)
    ac50:	dfc00115 	stw	ra,4(sp)
    ac54:	2021883a 	mov	r16,r4
    ac58:	11000c16 	blt	r2,r4,ac8c <_mprec_log10+0x48>
    ac5c:	200490fa 	slli	r2,r4,3
    ac60:	00c20034 	movhi	r3,2048
    ac64:	18c05404 	addi	r3,r3,336
    ac68:	10c5883a 	add	r2,r2,r3
    ac6c:	12400117 	ldw	r9,4(r2)
    ac70:	12000017 	ldw	r8,0(r2)
    ac74:	4807883a 	mov	r3,r9
    ac78:	4005883a 	mov	r2,r8
    ac7c:	dfc00117 	ldw	ra,4(sp)
    ac80:	dc000017 	ldw	r16,0(sp)
    ac84:	dec00204 	addi	sp,sp,8
    ac88:	f800283a 	ret
    ac8c:	0011883a 	mov	r8,zero
    ac90:	024ffc34 	movhi	r9,16368
    ac94:	0005883a 	mov	r2,zero
    ac98:	00d00934 	movhi	r3,16420
    ac9c:	480b883a 	mov	r5,r9
    aca0:	4009883a 	mov	r4,r8
    aca4:	180f883a 	mov	r7,r3
    aca8:	100d883a 	mov	r6,r2
    acac:	000d62c0 	call	d62c <__muldf3>
    acb0:	843fffc4 	addi	r16,r16,-1
    acb4:	1011883a 	mov	r8,r2
    acb8:	1813883a 	mov	r9,r3
    acbc:	803ff51e 	bne	r16,zero,ac94 <_mprec_log10+0x50>
    acc0:	4005883a 	mov	r2,r8
    acc4:	4807883a 	mov	r3,r9
    acc8:	dfc00117 	ldw	ra,4(sp)
    accc:	dc000017 	ldw	r16,0(sp)
    acd0:	dec00204 	addi	sp,sp,8
    acd4:	f800283a 	ret

0000acd8 <__copybits>:
    acd8:	297fffc4 	addi	r5,r5,-1
    acdc:	30800417 	ldw	r2,16(r6)
    ace0:	280bd17a 	srai	r5,r5,5
    ace4:	31800504 	addi	r6,r6,20
    ace8:	1085883a 	add	r2,r2,r2
    acec:	294b883a 	add	r5,r5,r5
    acf0:	294b883a 	add	r5,r5,r5
    acf4:	1085883a 	add	r2,r2,r2
    acf8:	290b883a 	add	r5,r5,r4
    acfc:	3087883a 	add	r3,r6,r2
    ad00:	29400104 	addi	r5,r5,4
    ad04:	30c0052e 	bgeu	r6,r3,ad1c <__copybits+0x44>
    ad08:	30800017 	ldw	r2,0(r6)
    ad0c:	31800104 	addi	r6,r6,4
    ad10:	20800015 	stw	r2,0(r4)
    ad14:	21000104 	addi	r4,r4,4
    ad18:	30fffb36 	bltu	r6,r3,ad08 <__copybits+0x30>
    ad1c:	2140032e 	bgeu	r4,r5,ad2c <__copybits+0x54>
    ad20:	20000015 	stw	zero,0(r4)
    ad24:	21000104 	addi	r4,r4,4
    ad28:	217ffd36 	bltu	r4,r5,ad20 <__copybits+0x48>
    ad2c:	f800283a 	ret

0000ad30 <__any_on>:
    ad30:	20800417 	ldw	r2,16(r4)
    ad34:	2807d17a 	srai	r3,r5,5
    ad38:	21000504 	addi	r4,r4,20
    ad3c:	10c00d0e 	bge	r2,r3,ad74 <__any_on+0x44>
    ad40:	1085883a 	add	r2,r2,r2
    ad44:	1085883a 	add	r2,r2,r2
    ad48:	208d883a 	add	r6,r4,r2
    ad4c:	2180182e 	bgeu	r4,r6,adb0 <__any_on+0x80>
    ad50:	30bfff17 	ldw	r2,-4(r6)
    ad54:	30ffff04 	addi	r3,r6,-4
    ad58:	1000041e 	bne	r2,zero,ad6c <__any_on+0x3c>
    ad5c:	20c0142e 	bgeu	r4,r3,adb0 <__any_on+0x80>
    ad60:	18ffff04 	addi	r3,r3,-4
    ad64:	18800017 	ldw	r2,0(r3)
    ad68:	103ffc26 	beq	r2,zero,ad5c <__any_on+0x2c>
    ad6c:	00800044 	movi	r2,1
    ad70:	f800283a 	ret
    ad74:	18800a0e 	bge	r3,r2,ada0 <__any_on+0x70>
    ad78:	294007cc 	andi	r5,r5,31
    ad7c:	28000826 	beq	r5,zero,ada0 <__any_on+0x70>
    ad80:	18c5883a 	add	r2,r3,r3
    ad84:	1085883a 	add	r2,r2,r2
    ad88:	208d883a 	add	r6,r4,r2
    ad8c:	30c00017 	ldw	r3,0(r6)
    ad90:	1944d83a 	srl	r2,r3,r5
    ad94:	1144983a 	sll	r2,r2,r5
    ad98:	18bff41e 	bne	r3,r2,ad6c <__any_on+0x3c>
    ad9c:	003feb06 	br	ad4c <__any_on+0x1c>
    ada0:	18c5883a 	add	r2,r3,r3
    ada4:	1085883a 	add	r2,r2,r2
    ada8:	208d883a 	add	r6,r4,r2
    adac:	003fe706 	br	ad4c <__any_on+0x1c>
    adb0:	0005883a 	mov	r2,zero
    adb4:	f800283a 	ret

0000adb8 <_Balloc>:
    adb8:	20c01317 	ldw	r3,76(r4)
    adbc:	defffb04 	addi	sp,sp,-20
    adc0:	dcc00315 	stw	r19,12(sp)
    adc4:	dc800215 	stw	r18,8(sp)
    adc8:	dfc00415 	stw	ra,16(sp)
    adcc:	2825883a 	mov	r18,r5
    add0:	dc400115 	stw	r17,4(sp)
    add4:	dc000015 	stw	r16,0(sp)
    add8:	2027883a 	mov	r19,r4
    addc:	01800404 	movi	r6,16
    ade0:	01400104 	movi	r5,4
    ade4:	18001726 	beq	r3,zero,ae44 <_Balloc+0x8c>
    ade8:	01400044 	movi	r5,1
    adec:	9485883a 	add	r2,r18,r18
    adf0:	2ca2983a 	sll	r17,r5,r18
    adf4:	1085883a 	add	r2,r2,r2
    adf8:	10c7883a 	add	r3,r2,r3
    adfc:	1c000017 	ldw	r16,0(r3)
    ae00:	8c4d883a 	add	r6,r17,r17
    ae04:	318d883a 	add	r6,r6,r6
    ae08:	9809883a 	mov	r4,r19
    ae0c:	31800504 	addi	r6,r6,20
    ae10:	80001226 	beq	r16,zero,ae5c <_Balloc+0xa4>
    ae14:	80800017 	ldw	r2,0(r16)
    ae18:	18800015 	stw	r2,0(r3)
    ae1c:	80000415 	stw	zero,16(r16)
    ae20:	80000315 	stw	zero,12(r16)
    ae24:	8005883a 	mov	r2,r16
    ae28:	dfc00417 	ldw	ra,16(sp)
    ae2c:	dcc00317 	ldw	r19,12(sp)
    ae30:	dc800217 	ldw	r18,8(sp)
    ae34:	dc400117 	ldw	r17,4(sp)
    ae38:	dc000017 	ldw	r16,0(sp)
    ae3c:	dec00504 	addi	sp,sp,20
    ae40:	f800283a 	ret
    ae44:	000c1800 	call	c180 <_calloc_r>
    ae48:	1007883a 	mov	r3,r2
    ae4c:	0021883a 	mov	r16,zero
    ae50:	98801315 	stw	r2,76(r19)
    ae54:	103fe41e 	bne	r2,zero,ade8 <_Balloc+0x30>
    ae58:	003ff206 	br	ae24 <_Balloc+0x6c>
    ae5c:	000c1800 	call	c180 <_calloc_r>
    ae60:	103ff026 	beq	r2,zero,ae24 <_Balloc+0x6c>
    ae64:	1021883a 	mov	r16,r2
    ae68:	14800115 	stw	r18,4(r2)
    ae6c:	14400215 	stw	r17,8(r2)
    ae70:	003fea06 	br	ae1c <_Balloc+0x64>

0000ae74 <__d2b>:
    ae74:	defff504 	addi	sp,sp,-44
    ae78:	dcc00515 	stw	r19,20(sp)
    ae7c:	04c00044 	movi	r19,1
    ae80:	dc000215 	stw	r16,8(sp)
    ae84:	2821883a 	mov	r16,r5
    ae88:	980b883a 	mov	r5,r19
    ae8c:	ddc00915 	stw	r23,36(sp)
    ae90:	dd800815 	stw	r22,32(sp)
    ae94:	dd400715 	stw	r21,28(sp)
    ae98:	dd000615 	stw	r20,24(sp)
    ae9c:	dc800415 	stw	r18,16(sp)
    aea0:	dc400315 	stw	r17,12(sp)
    aea4:	dfc00a15 	stw	ra,40(sp)
    aea8:	3023883a 	mov	r17,r6
    aeac:	382d883a 	mov	r22,r7
    aeb0:	ddc00b17 	ldw	r23,44(sp)
    aeb4:	000adb80 	call	adb8 <_Balloc>
    aeb8:	1025883a 	mov	r18,r2
    aebc:	00a00034 	movhi	r2,32768
    aec0:	10bfffc4 	addi	r2,r2,-1
    aec4:	8888703a 	and	r4,r17,r2
    aec8:	202ad53a 	srli	r21,r4,20
    aecc:	00800434 	movhi	r2,16
    aed0:	10bfffc4 	addi	r2,r2,-1
    aed4:	8886703a 	and	r3,r17,r2
    aed8:	a829003a 	cmpeq	r20,r21,zero
    aedc:	800b883a 	mov	r5,r16
    aee0:	d8c00115 	stw	r3,4(sp)
    aee4:	94000504 	addi	r16,r18,20
    aee8:	a000021e 	bne	r20,zero,aef4 <__d2b+0x80>
    aeec:	18c00434 	orhi	r3,r3,16
    aef0:	d8c00115 	stw	r3,4(sp)
    aef4:	28002726 	beq	r5,zero,af94 <__d2b+0x120>
    aef8:	d809883a 	mov	r4,sp
    aefc:	d9400015 	stw	r5,0(sp)
    af00:	000a8d00 	call	a8d0 <__lo0bits>
    af04:	100d883a 	mov	r6,r2
    af08:	10003526 	beq	r2,zero,afe0 <__d2b+0x16c>
    af0c:	d8c00117 	ldw	r3,4(sp)
    af10:	00800804 	movi	r2,32
    af14:	1185c83a 	sub	r2,r2,r6
    af18:	d9000017 	ldw	r4,0(sp)
    af1c:	1886983a 	sll	r3,r3,r2
    af20:	1906b03a 	or	r3,r3,r4
    af24:	90c00515 	stw	r3,20(r18)
    af28:	d8c00117 	ldw	r3,4(sp)
    af2c:	1986d83a 	srl	r3,r3,r6
    af30:	d8c00115 	stw	r3,4(sp)
    af34:	180b003a 	cmpeq	r5,r3,zero
    af38:	00800084 	movi	r2,2
    af3c:	114bc83a 	sub	r5,r2,r5
    af40:	80c00115 	stw	r3,4(r16)
    af44:	91400415 	stw	r5,16(r18)
    af48:	a0001a1e 	bne	r20,zero,afb4 <__d2b+0x140>
    af4c:	3545883a 	add	r2,r6,r21
    af50:	10bef344 	addi	r2,r2,-1075
    af54:	00c00d44 	movi	r3,53
    af58:	b0800015 	stw	r2,0(r22)
    af5c:	1987c83a 	sub	r3,r3,r6
    af60:	b8c00015 	stw	r3,0(r23)
    af64:	9005883a 	mov	r2,r18
    af68:	dfc00a17 	ldw	ra,40(sp)
    af6c:	ddc00917 	ldw	r23,36(sp)
    af70:	dd800817 	ldw	r22,32(sp)
    af74:	dd400717 	ldw	r21,28(sp)
    af78:	dd000617 	ldw	r20,24(sp)
    af7c:	dcc00517 	ldw	r19,20(sp)
    af80:	dc800417 	ldw	r18,16(sp)
    af84:	dc400317 	ldw	r17,12(sp)
    af88:	dc000217 	ldw	r16,8(sp)
    af8c:	dec00b04 	addi	sp,sp,44
    af90:	f800283a 	ret
    af94:	d9000104 	addi	r4,sp,4
    af98:	000a8d00 	call	a8d0 <__lo0bits>
    af9c:	11800804 	addi	r6,r2,32
    afa0:	d8800117 	ldw	r2,4(sp)
    afa4:	94c00415 	stw	r19,16(r18)
    afa8:	980b883a 	mov	r5,r19
    afac:	90800515 	stw	r2,20(r18)
    afb0:	a03fe626 	beq	r20,zero,af4c <__d2b+0xd8>
    afb4:	2945883a 	add	r2,r5,r5
    afb8:	1085883a 	add	r2,r2,r2
    afbc:	1405883a 	add	r2,r2,r16
    afc0:	113fff17 	ldw	r4,-4(r2)
    afc4:	30fef384 	addi	r3,r6,-1074
    afc8:	2820917a 	slli	r16,r5,5
    afcc:	b0c00015 	stw	r3,0(r22)
    afd0:	000a8600 	call	a860 <__hi0bits>
    afd4:	80a1c83a 	sub	r16,r16,r2
    afd8:	bc000015 	stw	r16,0(r23)
    afdc:	003fe106 	br	af64 <__d2b+0xf0>
    afe0:	d8800017 	ldw	r2,0(sp)
    afe4:	90800515 	stw	r2,20(r18)
    afe8:	d8c00117 	ldw	r3,4(sp)
    afec:	003fd106 	br	af34 <__d2b+0xc0>

0000aff0 <__mdiff>:
    aff0:	defffb04 	addi	sp,sp,-20
    aff4:	dc000015 	stw	r16,0(sp)
    aff8:	2821883a 	mov	r16,r5
    affc:	dc800215 	stw	r18,8(sp)
    b000:	300b883a 	mov	r5,r6
    b004:	2025883a 	mov	r18,r4
    b008:	8009883a 	mov	r4,r16
    b00c:	dc400115 	stw	r17,4(sp)
    b010:	dfc00415 	stw	ra,16(sp)
    b014:	dcc00315 	stw	r19,12(sp)
    b018:	3023883a 	mov	r17,r6
    b01c:	000a9940 	call	a994 <__mcmp>
    b020:	10004226 	beq	r2,zero,b12c <__mdiff+0x13c>
    b024:	10005016 	blt	r2,zero,b168 <__mdiff+0x178>
    b028:	0027883a 	mov	r19,zero
    b02c:	81400117 	ldw	r5,4(r16)
    b030:	9009883a 	mov	r4,r18
    b034:	000adb80 	call	adb8 <_Balloc>
    b038:	1019883a 	mov	r12,r2
    b03c:	82800417 	ldw	r10,16(r16)
    b040:	88800417 	ldw	r2,16(r17)
    b044:	81800504 	addi	r6,r16,20
    b048:	5287883a 	add	r3,r10,r10
    b04c:	1085883a 	add	r2,r2,r2
    b050:	18c7883a 	add	r3,r3,r3
    b054:	1085883a 	add	r2,r2,r2
    b058:	8a000504 	addi	r8,r17,20
    b05c:	64c00315 	stw	r19,12(r12)
    b060:	30db883a 	add	r13,r6,r3
    b064:	4097883a 	add	r11,r8,r2
    b068:	61c00504 	addi	r7,r12,20
    b06c:	0013883a 	mov	r9,zero
    b070:	31000017 	ldw	r4,0(r6)
    b074:	41400017 	ldw	r5,0(r8)
    b078:	42000104 	addi	r8,r8,4
    b07c:	20bfffcc 	andi	r2,r4,65535
    b080:	28ffffcc 	andi	r3,r5,65535
    b084:	10c5c83a 	sub	r2,r2,r3
    b088:	1245883a 	add	r2,r2,r9
    b08c:	2008d43a 	srli	r4,r4,16
    b090:	280ad43a 	srli	r5,r5,16
    b094:	1007d43a 	srai	r3,r2,16
    b098:	3880000d 	sth	r2,0(r7)
    b09c:	2149c83a 	sub	r4,r4,r5
    b0a0:	20c9883a 	add	r4,r4,r3
    b0a4:	3900008d 	sth	r4,2(r7)
    b0a8:	31800104 	addi	r6,r6,4
    b0ac:	39c00104 	addi	r7,r7,4
    b0b0:	2013d43a 	srai	r9,r4,16
    b0b4:	42ffee36 	bltu	r8,r11,b070 <__mdiff+0x80>
    b0b8:	33400c2e 	bgeu	r6,r13,b0ec <__mdiff+0xfc>
    b0bc:	30800017 	ldw	r2,0(r6)
    b0c0:	31800104 	addi	r6,r6,4
    b0c4:	10ffffcc 	andi	r3,r2,65535
    b0c8:	1a47883a 	add	r3,r3,r9
    b0cc:	1004d43a 	srli	r2,r2,16
    b0d0:	1809d43a 	srai	r4,r3,16
    b0d4:	38c0000d 	sth	r3,0(r7)
    b0d8:	1105883a 	add	r2,r2,r4
    b0dc:	3880008d 	sth	r2,2(r7)
    b0e0:	1013d43a 	srai	r9,r2,16
    b0e4:	39c00104 	addi	r7,r7,4
    b0e8:	337ff436 	bltu	r6,r13,b0bc <__mdiff+0xcc>
    b0ec:	38bfff17 	ldw	r2,-4(r7)
    b0f0:	38ffff04 	addi	r3,r7,-4
    b0f4:	1000041e 	bne	r2,zero,b108 <__mdiff+0x118>
    b0f8:	18ffff04 	addi	r3,r3,-4
    b0fc:	18800017 	ldw	r2,0(r3)
    b100:	52bfffc4 	addi	r10,r10,-1
    b104:	103ffc26 	beq	r2,zero,b0f8 <__mdiff+0x108>
    b108:	6005883a 	mov	r2,r12
    b10c:	62800415 	stw	r10,16(r12)
    b110:	dfc00417 	ldw	ra,16(sp)
    b114:	dcc00317 	ldw	r19,12(sp)
    b118:	dc800217 	ldw	r18,8(sp)
    b11c:	dc400117 	ldw	r17,4(sp)
    b120:	dc000017 	ldw	r16,0(sp)
    b124:	dec00504 	addi	sp,sp,20
    b128:	f800283a 	ret
    b12c:	9009883a 	mov	r4,r18
    b130:	000b883a 	mov	r5,zero
    b134:	000adb80 	call	adb8 <_Balloc>
    b138:	1019883a 	mov	r12,r2
    b13c:	00800044 	movi	r2,1
    b140:	60800415 	stw	r2,16(r12)
    b144:	6005883a 	mov	r2,r12
    b148:	60000515 	stw	zero,20(r12)
    b14c:	dfc00417 	ldw	ra,16(sp)
    b150:	dcc00317 	ldw	r19,12(sp)
    b154:	dc800217 	ldw	r18,8(sp)
    b158:	dc400117 	ldw	r17,4(sp)
    b15c:	dc000017 	ldw	r16,0(sp)
    b160:	dec00504 	addi	sp,sp,20
    b164:	f800283a 	ret
    b168:	880d883a 	mov	r6,r17
    b16c:	04c00044 	movi	r19,1
    b170:	8023883a 	mov	r17,r16
    b174:	3021883a 	mov	r16,r6
    b178:	003fac06 	br	b02c <__mdiff+0x3c>

0000b17c <__lshift>:
    b17c:	defff904 	addi	sp,sp,-28
    b180:	28800417 	ldw	r2,16(r5)
    b184:	dc000015 	stw	r16,0(sp)
    b188:	3021d17a 	srai	r16,r6,5
    b18c:	28c00217 	ldw	r3,8(r5)
    b190:	10800044 	addi	r2,r2,1
    b194:	dc400115 	stw	r17,4(sp)
    b198:	80a3883a 	add	r17,r16,r2
    b19c:	dd400515 	stw	r21,20(sp)
    b1a0:	dd000415 	stw	r20,16(sp)
    b1a4:	dc800215 	stw	r18,8(sp)
    b1a8:	dfc00615 	stw	ra,24(sp)
    b1ac:	2825883a 	mov	r18,r5
    b1b0:	dcc00315 	stw	r19,12(sp)
    b1b4:	3029883a 	mov	r20,r6
    b1b8:	202b883a 	mov	r21,r4
    b1bc:	29400117 	ldw	r5,4(r5)
    b1c0:	1c40030e 	bge	r3,r17,b1d0 <__lshift+0x54>
    b1c4:	18c7883a 	add	r3,r3,r3
    b1c8:	29400044 	addi	r5,r5,1
    b1cc:	1c7ffd16 	blt	r3,r17,b1c4 <__lshift+0x48>
    b1d0:	a809883a 	mov	r4,r21
    b1d4:	000adb80 	call	adb8 <_Balloc>
    b1d8:	1027883a 	mov	r19,r2
    b1dc:	11400504 	addi	r5,r2,20
    b1e0:	0400090e 	bge	zero,r16,b208 <__lshift+0x8c>
    b1e4:	2805883a 	mov	r2,r5
    b1e8:	0007883a 	mov	r3,zero
    b1ec:	18c00044 	addi	r3,r3,1
    b1f0:	10000015 	stw	zero,0(r2)
    b1f4:	10800104 	addi	r2,r2,4
    b1f8:	80fffc1e 	bne	r16,r3,b1ec <__lshift+0x70>
    b1fc:	8405883a 	add	r2,r16,r16
    b200:	1085883a 	add	r2,r2,r2
    b204:	288b883a 	add	r5,r5,r2
    b208:	90800417 	ldw	r2,16(r18)
    b20c:	91000504 	addi	r4,r18,20
    b210:	a18007cc 	andi	r6,r20,31
    b214:	1085883a 	add	r2,r2,r2
    b218:	1085883a 	add	r2,r2,r2
    b21c:	208f883a 	add	r7,r4,r2
    b220:	30001e26 	beq	r6,zero,b29c <__lshift+0x120>
    b224:	00800804 	movi	r2,32
    b228:	1191c83a 	sub	r8,r2,r6
    b22c:	0007883a 	mov	r3,zero
    b230:	20800017 	ldw	r2,0(r4)
    b234:	1184983a 	sll	r2,r2,r6
    b238:	1884b03a 	or	r2,r3,r2
    b23c:	28800015 	stw	r2,0(r5)
    b240:	20c00017 	ldw	r3,0(r4)
    b244:	21000104 	addi	r4,r4,4
    b248:	29400104 	addi	r5,r5,4
    b24c:	1a06d83a 	srl	r3,r3,r8
    b250:	21fff736 	bltu	r4,r7,b230 <__lshift+0xb4>
    b254:	28c00015 	stw	r3,0(r5)
    b258:	18000126 	beq	r3,zero,b260 <__lshift+0xe4>
    b25c:	8c400044 	addi	r17,r17,1
    b260:	88bfffc4 	addi	r2,r17,-1
    b264:	98800415 	stw	r2,16(r19)
    b268:	a809883a 	mov	r4,r21
    b26c:	900b883a 	mov	r5,r18
    b270:	000a8380 	call	a838 <_Bfree>
    b274:	9805883a 	mov	r2,r19
    b278:	dfc00617 	ldw	ra,24(sp)
    b27c:	dd400517 	ldw	r21,20(sp)
    b280:	dd000417 	ldw	r20,16(sp)
    b284:	dcc00317 	ldw	r19,12(sp)
    b288:	dc800217 	ldw	r18,8(sp)
    b28c:	dc400117 	ldw	r17,4(sp)
    b290:	dc000017 	ldw	r16,0(sp)
    b294:	dec00704 	addi	sp,sp,28
    b298:	f800283a 	ret
    b29c:	20800017 	ldw	r2,0(r4)
    b2a0:	21000104 	addi	r4,r4,4
    b2a4:	28800015 	stw	r2,0(r5)
    b2a8:	29400104 	addi	r5,r5,4
    b2ac:	21ffec2e 	bgeu	r4,r7,b260 <__lshift+0xe4>
    b2b0:	20800017 	ldw	r2,0(r4)
    b2b4:	21000104 	addi	r4,r4,4
    b2b8:	28800015 	stw	r2,0(r5)
    b2bc:	29400104 	addi	r5,r5,4
    b2c0:	21fff636 	bltu	r4,r7,b29c <__lshift+0x120>
    b2c4:	003fe606 	br	b260 <__lshift+0xe4>

0000b2c8 <__multiply>:
    b2c8:	defff904 	addi	sp,sp,-28
    b2cc:	dcc00315 	stw	r19,12(sp)
    b2d0:	dc800215 	stw	r18,8(sp)
    b2d4:	2cc00417 	ldw	r19,16(r5)
    b2d8:	34800417 	ldw	r18,16(r6)
    b2dc:	dd000415 	stw	r20,16(sp)
    b2e0:	dc400115 	stw	r17,4(sp)
    b2e4:	dfc00615 	stw	ra,24(sp)
    b2e8:	dd400515 	stw	r21,20(sp)
    b2ec:	dc000015 	stw	r16,0(sp)
    b2f0:	2823883a 	mov	r17,r5
    b2f4:	3029883a 	mov	r20,r6
    b2f8:	9c80040e 	bge	r19,r18,b30c <__multiply+0x44>
    b2fc:	9027883a 	mov	r19,r18
    b300:	2c800417 	ldw	r18,16(r5)
    b304:	2829883a 	mov	r20,r5
    b308:	3023883a 	mov	r17,r6
    b30c:	88800217 	ldw	r2,8(r17)
    b310:	9ca1883a 	add	r16,r19,r18
    b314:	89400117 	ldw	r5,4(r17)
    b318:	1400010e 	bge	r2,r16,b320 <__multiply+0x58>
    b31c:	29400044 	addi	r5,r5,1
    b320:	000adb80 	call	adb8 <_Balloc>
    b324:	102b883a 	mov	r21,r2
    b328:	8405883a 	add	r2,r16,r16
    b32c:	1085883a 	add	r2,r2,r2
    b330:	a9000504 	addi	r4,r21,20
    b334:	209d883a 	add	r14,r4,r2
    b338:	2380042e 	bgeu	r4,r14,b34c <__multiply+0x84>
    b33c:	2005883a 	mov	r2,r4
    b340:	10000015 	stw	zero,0(r2)
    b344:	10800104 	addi	r2,r2,4
    b348:	13bffd36 	bltu	r2,r14,b340 <__multiply+0x78>
    b34c:	9485883a 	add	r2,r18,r18
    b350:	9cc7883a 	add	r3,r19,r19
    b354:	a1800504 	addi	r6,r20,20
    b358:	1085883a 	add	r2,r2,r2
    b35c:	8b400504 	addi	r13,r17,20
    b360:	18c7883a 	add	r3,r3,r3
    b364:	309f883a 	add	r15,r6,r2
    b368:	68d7883a 	add	r11,r13,r3
    b36c:	33c03b2e 	bgeu	r6,r15,b45c <__multiply+0x194>
    b370:	2019883a 	mov	r12,r4
    b374:	30800017 	ldw	r2,0(r6)
    b378:	127fffcc 	andi	r9,r2,65535
    b37c:	48001826 	beq	r9,zero,b3e0 <__multiply+0x118>
    b380:	6811883a 	mov	r8,r13
    b384:	600f883a 	mov	r7,r12
    b388:	0015883a 	mov	r10,zero
    b38c:	40c00017 	ldw	r3,0(r8)
    b390:	39400017 	ldw	r5,0(r7)
    b394:	42000104 	addi	r8,r8,4
    b398:	193fffcc 	andi	r4,r3,65535
    b39c:	4909383a 	mul	r4,r9,r4
    b3a0:	1806d43a 	srli	r3,r3,16
    b3a4:	28bfffcc 	andi	r2,r5,65535
    b3a8:	5085883a 	add	r2,r10,r2
    b3ac:	2089883a 	add	r4,r4,r2
    b3b0:	48c7383a 	mul	r3,r9,r3
    b3b4:	280ad43a 	srli	r5,r5,16
    b3b8:	2004d43a 	srli	r2,r4,16
    b3bc:	3900000d 	sth	r4,0(r7)
    b3c0:	1947883a 	add	r3,r3,r5
    b3c4:	10c5883a 	add	r2,r2,r3
    b3c8:	3880008d 	sth	r2,2(r7)
    b3cc:	1014d43a 	srli	r10,r2,16
    b3d0:	39c00104 	addi	r7,r7,4
    b3d4:	42ffed36 	bltu	r8,r11,b38c <__multiply+0xc4>
    b3d8:	3a800015 	stw	r10,0(r7)
    b3dc:	30800017 	ldw	r2,0(r6)
    b3e0:	1012d43a 	srli	r9,r2,16
    b3e4:	48001926 	beq	r9,zero,b44c <__multiply+0x184>
    b3e8:	60800017 	ldw	r2,0(r12)
    b3ec:	6811883a 	mov	r8,r13
    b3f0:	600f883a 	mov	r7,r12
    b3f4:	0015883a 	mov	r10,zero
    b3f8:	100b883a 	mov	r5,r2
    b3fc:	41000017 	ldw	r4,0(r8)
    b400:	2806d43a 	srli	r3,r5,16
    b404:	3880000d 	sth	r2,0(r7)
    b408:	20bfffcc 	andi	r2,r4,65535
    b40c:	4885383a 	mul	r2,r9,r2
    b410:	50c7883a 	add	r3,r10,r3
    b414:	2008d43a 	srli	r4,r4,16
    b418:	10c5883a 	add	r2,r2,r3
    b41c:	3880008d 	sth	r2,2(r7)
    b420:	39c00104 	addi	r7,r7,4
    b424:	39400017 	ldw	r5,0(r7)
    b428:	4909383a 	mul	r4,r9,r4
    b42c:	1004d43a 	srli	r2,r2,16
    b430:	28ffffcc 	andi	r3,r5,65535
    b434:	20c9883a 	add	r4,r4,r3
    b438:	1105883a 	add	r2,r2,r4
    b43c:	42000104 	addi	r8,r8,4
    b440:	1014d43a 	srli	r10,r2,16
    b444:	42ffed36 	bltu	r8,r11,b3fc <__multiply+0x134>
    b448:	38800015 	stw	r2,0(r7)
    b44c:	31800104 	addi	r6,r6,4
    b450:	33c0022e 	bgeu	r6,r15,b45c <__multiply+0x194>
    b454:	63000104 	addi	r12,r12,4
    b458:	003fc606 	br	b374 <__multiply+0xac>
    b45c:	0400090e 	bge	zero,r16,b484 <__multiply+0x1bc>
    b460:	70bfff17 	ldw	r2,-4(r14)
    b464:	70ffff04 	addi	r3,r14,-4
    b468:	10000326 	beq	r2,zero,b478 <__multiply+0x1b0>
    b46c:	00000506 	br	b484 <__multiply+0x1bc>
    b470:	18800017 	ldw	r2,0(r3)
    b474:	1000031e 	bne	r2,zero,b484 <__multiply+0x1bc>
    b478:	843fffc4 	addi	r16,r16,-1
    b47c:	18ffff04 	addi	r3,r3,-4
    b480:	803ffb1e 	bne	r16,zero,b470 <__multiply+0x1a8>
    b484:	a805883a 	mov	r2,r21
    b488:	ac000415 	stw	r16,16(r21)
    b48c:	dfc00617 	ldw	ra,24(sp)
    b490:	dd400517 	ldw	r21,20(sp)
    b494:	dd000417 	ldw	r20,16(sp)
    b498:	dcc00317 	ldw	r19,12(sp)
    b49c:	dc800217 	ldw	r18,8(sp)
    b4a0:	dc400117 	ldw	r17,4(sp)
    b4a4:	dc000017 	ldw	r16,0(sp)
    b4a8:	dec00704 	addi	sp,sp,28
    b4ac:	f800283a 	ret

0000b4b0 <__i2b>:
    b4b0:	defffd04 	addi	sp,sp,-12
    b4b4:	dc000015 	stw	r16,0(sp)
    b4b8:	04000044 	movi	r16,1
    b4bc:	dc800115 	stw	r18,4(sp)
    b4c0:	2825883a 	mov	r18,r5
    b4c4:	800b883a 	mov	r5,r16
    b4c8:	dfc00215 	stw	ra,8(sp)
    b4cc:	000adb80 	call	adb8 <_Balloc>
    b4d0:	14000415 	stw	r16,16(r2)
    b4d4:	14800515 	stw	r18,20(r2)
    b4d8:	dfc00217 	ldw	ra,8(sp)
    b4dc:	dc800117 	ldw	r18,4(sp)
    b4e0:	dc000017 	ldw	r16,0(sp)
    b4e4:	dec00304 	addi	sp,sp,12
    b4e8:	f800283a 	ret

0000b4ec <__multadd>:
    b4ec:	defffa04 	addi	sp,sp,-24
    b4f0:	dc800215 	stw	r18,8(sp)
    b4f4:	2c800417 	ldw	r18,16(r5)
    b4f8:	dd000415 	stw	r20,16(sp)
    b4fc:	dcc00315 	stw	r19,12(sp)
    b500:	dc000015 	stw	r16,0(sp)
    b504:	dfc00515 	stw	ra,20(sp)
    b508:	3821883a 	mov	r16,r7
    b50c:	dc400115 	stw	r17,4(sp)
    b510:	2827883a 	mov	r19,r5
    b514:	2029883a 	mov	r20,r4
    b518:	2a000504 	addi	r8,r5,20
    b51c:	000f883a 	mov	r7,zero
    b520:	40800017 	ldw	r2,0(r8)
    b524:	39c00044 	addi	r7,r7,1
    b528:	10ffffcc 	andi	r3,r2,65535
    b52c:	1987383a 	mul	r3,r3,r6
    b530:	1004d43a 	srli	r2,r2,16
    b534:	1c07883a 	add	r3,r3,r16
    b538:	180ad43a 	srli	r5,r3,16
    b53c:	1185383a 	mul	r2,r2,r6
    b540:	18ffffcc 	andi	r3,r3,65535
    b544:	1145883a 	add	r2,r2,r5
    b548:	1008943a 	slli	r4,r2,16
    b54c:	1020d43a 	srli	r16,r2,16
    b550:	20c9883a 	add	r4,r4,r3
    b554:	41000015 	stw	r4,0(r8)
    b558:	42000104 	addi	r8,r8,4
    b55c:	3cbff016 	blt	r7,r18,b520 <__multadd+0x34>
    b560:	80000826 	beq	r16,zero,b584 <__multadd+0x98>
    b564:	98800217 	ldw	r2,8(r19)
    b568:	90800f0e 	bge	r18,r2,b5a8 <__multadd+0xbc>
    b56c:	9485883a 	add	r2,r18,r18
    b570:	1085883a 	add	r2,r2,r2
    b574:	14c5883a 	add	r2,r2,r19
    b578:	90c00044 	addi	r3,r18,1
    b57c:	14000515 	stw	r16,20(r2)
    b580:	98c00415 	stw	r3,16(r19)
    b584:	9805883a 	mov	r2,r19
    b588:	dfc00517 	ldw	ra,20(sp)
    b58c:	dd000417 	ldw	r20,16(sp)
    b590:	dcc00317 	ldw	r19,12(sp)
    b594:	dc800217 	ldw	r18,8(sp)
    b598:	dc400117 	ldw	r17,4(sp)
    b59c:	dc000017 	ldw	r16,0(sp)
    b5a0:	dec00604 	addi	sp,sp,24
    b5a4:	f800283a 	ret
    b5a8:	99400117 	ldw	r5,4(r19)
    b5ac:	a009883a 	mov	r4,r20
    b5b0:	29400044 	addi	r5,r5,1
    b5b4:	000adb80 	call	adb8 <_Balloc>
    b5b8:	99800417 	ldw	r6,16(r19)
    b5bc:	99400304 	addi	r5,r19,12
    b5c0:	11000304 	addi	r4,r2,12
    b5c4:	318d883a 	add	r6,r6,r6
    b5c8:	318d883a 	add	r6,r6,r6
    b5cc:	31800204 	addi	r6,r6,8
    b5d0:	1023883a 	mov	r17,r2
    b5d4:	00052880 	call	5288 <memcpy>
    b5d8:	980b883a 	mov	r5,r19
    b5dc:	a009883a 	mov	r4,r20
    b5e0:	000a8380 	call	a838 <_Bfree>
    b5e4:	8827883a 	mov	r19,r17
    b5e8:	003fe006 	br	b56c <__multadd+0x80>

0000b5ec <__pow5mult>:
    b5ec:	defffa04 	addi	sp,sp,-24
    b5f0:	308000cc 	andi	r2,r6,3
    b5f4:	dd000415 	stw	r20,16(sp)
    b5f8:	dcc00315 	stw	r19,12(sp)
    b5fc:	dc000015 	stw	r16,0(sp)
    b600:	dfc00515 	stw	ra,20(sp)
    b604:	dc800215 	stw	r18,8(sp)
    b608:	dc400115 	stw	r17,4(sp)
    b60c:	3021883a 	mov	r16,r6
    b610:	2027883a 	mov	r19,r4
    b614:	2829883a 	mov	r20,r5
    b618:	10002b1e 	bne	r2,zero,b6c8 <__pow5mult+0xdc>
    b61c:	8025d0ba 	srai	r18,r16,2
    b620:	90001b26 	beq	r18,zero,b690 <__pow5mult+0xa4>
    b624:	9c001217 	ldw	r16,72(r19)
    b628:	8000081e 	bne	r16,zero,b64c <__pow5mult+0x60>
    b62c:	00003006 	br	b6f0 <__pow5mult+0x104>
    b630:	800b883a 	mov	r5,r16
    b634:	800d883a 	mov	r6,r16
    b638:	9809883a 	mov	r4,r19
    b63c:	90001426 	beq	r18,zero,b690 <__pow5mult+0xa4>
    b640:	80800017 	ldw	r2,0(r16)
    b644:	10001b26 	beq	r2,zero,b6b4 <__pow5mult+0xc8>
    b648:	1021883a 	mov	r16,r2
    b64c:	9080004c 	andi	r2,r18,1
    b650:	1005003a 	cmpeq	r2,r2,zero
    b654:	9025d07a 	srai	r18,r18,1
    b658:	800d883a 	mov	r6,r16
    b65c:	9809883a 	mov	r4,r19
    b660:	a00b883a 	mov	r5,r20
    b664:	103ff21e 	bne	r2,zero,b630 <__pow5mult+0x44>
    b668:	000b2c80 	call	b2c8 <__multiply>
    b66c:	a00b883a 	mov	r5,r20
    b670:	9809883a 	mov	r4,r19
    b674:	1023883a 	mov	r17,r2
    b678:	000a8380 	call	a838 <_Bfree>
    b67c:	8829883a 	mov	r20,r17
    b680:	800b883a 	mov	r5,r16
    b684:	800d883a 	mov	r6,r16
    b688:	9809883a 	mov	r4,r19
    b68c:	903fec1e 	bne	r18,zero,b640 <__pow5mult+0x54>
    b690:	a005883a 	mov	r2,r20
    b694:	dfc00517 	ldw	ra,20(sp)
    b698:	dd000417 	ldw	r20,16(sp)
    b69c:	dcc00317 	ldw	r19,12(sp)
    b6a0:	dc800217 	ldw	r18,8(sp)
    b6a4:	dc400117 	ldw	r17,4(sp)
    b6a8:	dc000017 	ldw	r16,0(sp)
    b6ac:	dec00604 	addi	sp,sp,24
    b6b0:	f800283a 	ret
    b6b4:	000b2c80 	call	b2c8 <__multiply>
    b6b8:	80800015 	stw	r2,0(r16)
    b6bc:	1021883a 	mov	r16,r2
    b6c0:	10000015 	stw	zero,0(r2)
    b6c4:	003fe106 	br	b64c <__pow5mult+0x60>
    b6c8:	1085883a 	add	r2,r2,r2
    b6cc:	00c20034 	movhi	r3,2048
    b6d0:	18c09a04 	addi	r3,r3,616
    b6d4:	1085883a 	add	r2,r2,r2
    b6d8:	10c5883a 	add	r2,r2,r3
    b6dc:	11bfff17 	ldw	r6,-4(r2)
    b6e0:	000f883a 	mov	r7,zero
    b6e4:	000b4ec0 	call	b4ec <__multadd>
    b6e8:	1029883a 	mov	r20,r2
    b6ec:	003fcb06 	br	b61c <__pow5mult+0x30>
    b6f0:	9809883a 	mov	r4,r19
    b6f4:	01409c44 	movi	r5,625
    b6f8:	000b4b00 	call	b4b0 <__i2b>
    b6fc:	98801215 	stw	r2,72(r19)
    b700:	1021883a 	mov	r16,r2
    b704:	10000015 	stw	zero,0(r2)
    b708:	003fd006 	br	b64c <__pow5mult+0x60>

0000b70c <__s2b>:
    b70c:	defff904 	addi	sp,sp,-28
    b710:	dcc00315 	stw	r19,12(sp)
    b714:	dc800215 	stw	r18,8(sp)
    b718:	2827883a 	mov	r19,r5
    b71c:	2025883a 	mov	r18,r4
    b720:	01400244 	movi	r5,9
    b724:	39000204 	addi	r4,r7,8
    b728:	dd000415 	stw	r20,16(sp)
    b72c:	dc400115 	stw	r17,4(sp)
    b730:	dfc00615 	stw	ra,24(sp)
    b734:	dd400515 	stw	r21,20(sp)
    b738:	dc000015 	stw	r16,0(sp)
    b73c:	3829883a 	mov	r20,r7
    b740:	3023883a 	mov	r17,r6
    b744:	000e2d00 	call	e2d0 <__divsi3>
    b748:	00c00044 	movi	r3,1
    b74c:	1880350e 	bge	r3,r2,b824 <__s2b+0x118>
    b750:	000b883a 	mov	r5,zero
    b754:	18c7883a 	add	r3,r3,r3
    b758:	29400044 	addi	r5,r5,1
    b75c:	18bffd16 	blt	r3,r2,b754 <__s2b+0x48>
    b760:	9009883a 	mov	r4,r18
    b764:	000adb80 	call	adb8 <_Balloc>
    b768:	1011883a 	mov	r8,r2
    b76c:	d8800717 	ldw	r2,28(sp)
    b770:	00c00044 	movi	r3,1
    b774:	01800244 	movi	r6,9
    b778:	40800515 	stw	r2,20(r8)
    b77c:	40c00415 	stw	r3,16(r8)
    b780:	3440260e 	bge	r6,r17,b81c <__s2b+0x110>
    b784:	3021883a 	mov	r16,r6
    b788:	99ab883a 	add	r21,r19,r6
    b78c:	9c05883a 	add	r2,r19,r16
    b790:	11c00007 	ldb	r7,0(r2)
    b794:	400b883a 	mov	r5,r8
    b798:	9009883a 	mov	r4,r18
    b79c:	39fff404 	addi	r7,r7,-48
    b7a0:	01800284 	movi	r6,10
    b7a4:	000b4ec0 	call	b4ec <__multadd>
    b7a8:	84000044 	addi	r16,r16,1
    b7ac:	1011883a 	mov	r8,r2
    b7b0:	8c3ff61e 	bne	r17,r16,b78c <__s2b+0x80>
    b7b4:	ac45883a 	add	r2,r21,r17
    b7b8:	117ffe04 	addi	r5,r2,-8
    b7bc:	880d883a 	mov	r6,r17
    b7c0:	35000c0e 	bge	r6,r20,b7f4 <__s2b+0xe8>
    b7c4:	a185c83a 	sub	r2,r20,r6
    b7c8:	2821883a 	mov	r16,r5
    b7cc:	28a3883a 	add	r17,r5,r2
    b7d0:	81c00007 	ldb	r7,0(r16)
    b7d4:	400b883a 	mov	r5,r8
    b7d8:	9009883a 	mov	r4,r18
    b7dc:	39fff404 	addi	r7,r7,-48
    b7e0:	01800284 	movi	r6,10
    b7e4:	000b4ec0 	call	b4ec <__multadd>
    b7e8:	84000044 	addi	r16,r16,1
    b7ec:	1011883a 	mov	r8,r2
    b7f0:	847ff71e 	bne	r16,r17,b7d0 <__s2b+0xc4>
    b7f4:	4005883a 	mov	r2,r8
    b7f8:	dfc00617 	ldw	ra,24(sp)
    b7fc:	dd400517 	ldw	r21,20(sp)
    b800:	dd000417 	ldw	r20,16(sp)
    b804:	dcc00317 	ldw	r19,12(sp)
    b808:	dc800217 	ldw	r18,8(sp)
    b80c:	dc400117 	ldw	r17,4(sp)
    b810:	dc000017 	ldw	r16,0(sp)
    b814:	dec00704 	addi	sp,sp,28
    b818:	f800283a 	ret
    b81c:	99400284 	addi	r5,r19,10
    b820:	003fe706 	br	b7c0 <__s2b+0xb4>
    b824:	000b883a 	mov	r5,zero
    b828:	003fcd06 	br	b760 <__s2b+0x54>

0000b82c <_realloc_r>:
    b82c:	defff404 	addi	sp,sp,-48
    b830:	dd800815 	stw	r22,32(sp)
    b834:	dc800415 	stw	r18,16(sp)
    b838:	dc400315 	stw	r17,12(sp)
    b83c:	dfc00b15 	stw	ra,44(sp)
    b840:	df000a15 	stw	fp,40(sp)
    b844:	ddc00915 	stw	r23,36(sp)
    b848:	dd400715 	stw	r21,28(sp)
    b84c:	dd000615 	stw	r20,24(sp)
    b850:	dcc00515 	stw	r19,20(sp)
    b854:	dc000215 	stw	r16,8(sp)
    b858:	2825883a 	mov	r18,r5
    b85c:	3023883a 	mov	r17,r6
    b860:	202d883a 	mov	r22,r4
    b864:	2800c926 	beq	r5,zero,bb8c <_realloc_r+0x360>
    b868:	000ef640 	call	ef64 <__malloc_lock>
    b86c:	943ffe04 	addi	r16,r18,-8
    b870:	88c002c4 	addi	r3,r17,11
    b874:	00800584 	movi	r2,22
    b878:	82000117 	ldw	r8,4(r16)
    b87c:	10c01b2e 	bgeu	r2,r3,b8ec <_realloc_r+0xc0>
    b880:	00bffe04 	movi	r2,-8
    b884:	188e703a 	and	r7,r3,r2
    b888:	3839883a 	mov	fp,r7
    b88c:	38001a16 	blt	r7,zero,b8f8 <_realloc_r+0xcc>
    b890:	e4401936 	bltu	fp,r17,b8f8 <_realloc_r+0xcc>
    b894:	013fff04 	movi	r4,-4
    b898:	4126703a 	and	r19,r8,r4
    b89c:	99c02616 	blt	r19,r7,b938 <_realloc_r+0x10c>
    b8a0:	802b883a 	mov	r21,r16
    b8a4:	9829883a 	mov	r20,r19
    b8a8:	84000204 	addi	r16,r16,8
    b8ac:	a80f883a 	mov	r7,r21
    b8b0:	a70dc83a 	sub	r6,r20,fp
    b8b4:	008003c4 	movi	r2,15
    b8b8:	1180c136 	bltu	r2,r6,bbc0 <_realloc_r+0x394>
    b8bc:	38800117 	ldw	r2,4(r7)
    b8c0:	a549883a 	add	r4,r20,r21
    b8c4:	1080004c 	andi	r2,r2,1
    b8c8:	a084b03a 	or	r2,r20,r2
    b8cc:	38800115 	stw	r2,4(r7)
    b8d0:	20c00117 	ldw	r3,4(r4)
    b8d4:	18c00054 	ori	r3,r3,1
    b8d8:	20c00115 	stw	r3,4(r4)
    b8dc:	b009883a 	mov	r4,r22
    b8e0:	000ef840 	call	ef84 <__malloc_unlock>
    b8e4:	8023883a 	mov	r17,r16
    b8e8:	00000606 	br	b904 <_realloc_r+0xd8>
    b8ec:	01c00404 	movi	r7,16
    b8f0:	3839883a 	mov	fp,r7
    b8f4:	e47fe72e 	bgeu	fp,r17,b894 <_realloc_r+0x68>
    b8f8:	00800304 	movi	r2,12
    b8fc:	0023883a 	mov	r17,zero
    b900:	b0800015 	stw	r2,0(r22)
    b904:	8805883a 	mov	r2,r17
    b908:	dfc00b17 	ldw	ra,44(sp)
    b90c:	df000a17 	ldw	fp,40(sp)
    b910:	ddc00917 	ldw	r23,36(sp)
    b914:	dd800817 	ldw	r22,32(sp)
    b918:	dd400717 	ldw	r21,28(sp)
    b91c:	dd000617 	ldw	r20,24(sp)
    b920:	dcc00517 	ldw	r19,20(sp)
    b924:	dc800417 	ldw	r18,16(sp)
    b928:	dc400317 	ldw	r17,12(sp)
    b92c:	dc000217 	ldw	r16,8(sp)
    b930:	dec00c04 	addi	sp,sp,48
    b934:	f800283a 	ret
    b938:	00820034 	movhi	r2,2048
    b93c:	1082c004 	addi	r2,r2,2816
    b940:	12400217 	ldw	r9,8(r2)
    b944:	84cd883a 	add	r6,r16,r19
    b948:	802b883a 	mov	r21,r16
    b94c:	3240b926 	beq	r6,r9,bc34 <_realloc_r+0x408>
    b950:	31400117 	ldw	r5,4(r6)
    b954:	00bfff84 	movi	r2,-2
    b958:	2884703a 	and	r2,r5,r2
    b95c:	1185883a 	add	r2,r2,r6
    b960:	10c00117 	ldw	r3,4(r2)
    b964:	18c0004c 	andi	r3,r3,1
    b968:	1807003a 	cmpeq	r3,r3,zero
    b96c:	1800a326 	beq	r3,zero,bbfc <_realloc_r+0x3d0>
    b970:	2908703a 	and	r4,r5,r4
    b974:	9929883a 	add	r20,r19,r4
    b978:	a1c0a30e 	bge	r20,r7,bc08 <_realloc_r+0x3dc>
    b97c:	4080004c 	andi	r2,r8,1
    b980:	1000551e 	bne	r2,zero,bad8 <_realloc_r+0x2ac>
    b984:	80800017 	ldw	r2,0(r16)
    b988:	80afc83a 	sub	r23,r16,r2
    b98c:	b8c00117 	ldw	r3,4(r23)
    b990:	00bfff04 	movi	r2,-4
    b994:	1884703a 	and	r2,r3,r2
    b998:	30002e26 	beq	r6,zero,ba54 <_realloc_r+0x228>
    b99c:	3240b926 	beq	r6,r9,bc84 <_realloc_r+0x458>
    b9a0:	98a9883a 	add	r20,r19,r2
    b9a4:	2509883a 	add	r4,r4,r20
    b9a8:	d9000015 	stw	r4,0(sp)
    b9ac:	21c02a16 	blt	r4,r7,ba58 <_realloc_r+0x22c>
    b9b0:	30800317 	ldw	r2,12(r6)
    b9b4:	30c00217 	ldw	r3,8(r6)
    b9b8:	01400904 	movi	r5,36
    b9bc:	99bfff04 	addi	r6,r19,-4
    b9c0:	18800315 	stw	r2,12(r3)
    b9c4:	10c00215 	stw	r3,8(r2)
    b9c8:	b9000317 	ldw	r4,12(r23)
    b9cc:	b8800217 	ldw	r2,8(r23)
    b9d0:	b82b883a 	mov	r21,r23
    b9d4:	bc000204 	addi	r16,r23,8
    b9d8:	20800215 	stw	r2,8(r4)
    b9dc:	11000315 	stw	r4,12(r2)
    b9e0:	2980e436 	bltu	r5,r6,bd74 <_realloc_r+0x548>
    b9e4:	008004c4 	movi	r2,19
    b9e8:	9009883a 	mov	r4,r18
    b9ec:	8011883a 	mov	r8,r16
    b9f0:	11800f2e 	bgeu	r2,r6,ba30 <_realloc_r+0x204>
    b9f4:	90800017 	ldw	r2,0(r18)
    b9f8:	ba000404 	addi	r8,r23,16
    b9fc:	91000204 	addi	r4,r18,8
    ba00:	b8800215 	stw	r2,8(r23)
    ba04:	90c00117 	ldw	r3,4(r18)
    ba08:	008006c4 	movi	r2,27
    ba0c:	b8c00315 	stw	r3,12(r23)
    ba10:	1180072e 	bgeu	r2,r6,ba30 <_realloc_r+0x204>
    ba14:	90c00217 	ldw	r3,8(r18)
    ba18:	ba000604 	addi	r8,r23,24
    ba1c:	91000404 	addi	r4,r18,16
    ba20:	b8c00415 	stw	r3,16(r23)
    ba24:	90800317 	ldw	r2,12(r18)
    ba28:	b8800515 	stw	r2,20(r23)
    ba2c:	3140e726 	beq	r6,r5,bdcc <_realloc_r+0x5a0>
    ba30:	20800017 	ldw	r2,0(r4)
    ba34:	dd000017 	ldw	r20,0(sp)
    ba38:	b80f883a 	mov	r7,r23
    ba3c:	40800015 	stw	r2,0(r8)
    ba40:	20c00117 	ldw	r3,4(r4)
    ba44:	40c00115 	stw	r3,4(r8)
    ba48:	20800217 	ldw	r2,8(r4)
    ba4c:	40800215 	stw	r2,8(r8)
    ba50:	003f9706 	br	b8b0 <_realloc_r+0x84>
    ba54:	98a9883a 	add	r20,r19,r2
    ba58:	a1c01f16 	blt	r20,r7,bad8 <_realloc_r+0x2ac>
    ba5c:	b8c00317 	ldw	r3,12(r23)
    ba60:	b8800217 	ldw	r2,8(r23)
    ba64:	99bfff04 	addi	r6,r19,-4
    ba68:	01400904 	movi	r5,36
    ba6c:	b82b883a 	mov	r21,r23
    ba70:	18800215 	stw	r2,8(r3)
    ba74:	10c00315 	stw	r3,12(r2)
    ba78:	bc000204 	addi	r16,r23,8
    ba7c:	2980c336 	bltu	r5,r6,bd8c <_realloc_r+0x560>
    ba80:	008004c4 	movi	r2,19
    ba84:	9009883a 	mov	r4,r18
    ba88:	8011883a 	mov	r8,r16
    ba8c:	11800f2e 	bgeu	r2,r6,bacc <_realloc_r+0x2a0>
    ba90:	90800017 	ldw	r2,0(r18)
    ba94:	ba000404 	addi	r8,r23,16
    ba98:	91000204 	addi	r4,r18,8
    ba9c:	b8800215 	stw	r2,8(r23)
    baa0:	90c00117 	ldw	r3,4(r18)
    baa4:	008006c4 	movi	r2,27
    baa8:	b8c00315 	stw	r3,12(r23)
    baac:	1180072e 	bgeu	r2,r6,bacc <_realloc_r+0x2a0>
    bab0:	90c00217 	ldw	r3,8(r18)
    bab4:	ba000604 	addi	r8,r23,24
    bab8:	91000404 	addi	r4,r18,16
    babc:	b8c00415 	stw	r3,16(r23)
    bac0:	90800317 	ldw	r2,12(r18)
    bac4:	b8800515 	stw	r2,20(r23)
    bac8:	3140c726 	beq	r6,r5,bde8 <_realloc_r+0x5bc>
    bacc:	20800017 	ldw	r2,0(r4)
    bad0:	b80f883a 	mov	r7,r23
    bad4:	003fd906 	br	ba3c <_realloc_r+0x210>
    bad8:	880b883a 	mov	r5,r17
    badc:	b009883a 	mov	r4,r22
    bae0:	0009f340 	call	9f34 <_malloc_r>
    bae4:	1023883a 	mov	r17,r2
    bae8:	10002526 	beq	r2,zero,bb80 <_realloc_r+0x354>
    baec:	80800117 	ldw	r2,4(r16)
    baf0:	00ffff84 	movi	r3,-2
    baf4:	893ffe04 	addi	r4,r17,-8
    baf8:	10c4703a 	and	r2,r2,r3
    bafc:	8085883a 	add	r2,r16,r2
    bb00:	20809526 	beq	r4,r2,bd58 <_realloc_r+0x52c>
    bb04:	99bfff04 	addi	r6,r19,-4
    bb08:	01c00904 	movi	r7,36
    bb0c:	39804536 	bltu	r7,r6,bc24 <_realloc_r+0x3f8>
    bb10:	008004c4 	movi	r2,19
    bb14:	9009883a 	mov	r4,r18
    bb18:	880b883a 	mov	r5,r17
    bb1c:	11800f2e 	bgeu	r2,r6,bb5c <_realloc_r+0x330>
    bb20:	90800017 	ldw	r2,0(r18)
    bb24:	89400204 	addi	r5,r17,8
    bb28:	91000204 	addi	r4,r18,8
    bb2c:	88800015 	stw	r2,0(r17)
    bb30:	90c00117 	ldw	r3,4(r18)
    bb34:	008006c4 	movi	r2,27
    bb38:	88c00115 	stw	r3,4(r17)
    bb3c:	1180072e 	bgeu	r2,r6,bb5c <_realloc_r+0x330>
    bb40:	90c00217 	ldw	r3,8(r18)
    bb44:	89400404 	addi	r5,r17,16
    bb48:	91000404 	addi	r4,r18,16
    bb4c:	88c00215 	stw	r3,8(r17)
    bb50:	90800317 	ldw	r2,12(r18)
    bb54:	88800315 	stw	r2,12(r17)
    bb58:	31c09126 	beq	r6,r7,bda0 <_realloc_r+0x574>
    bb5c:	20800017 	ldw	r2,0(r4)
    bb60:	28800015 	stw	r2,0(r5)
    bb64:	20c00117 	ldw	r3,4(r4)
    bb68:	28c00115 	stw	r3,4(r5)
    bb6c:	20800217 	ldw	r2,8(r4)
    bb70:	28800215 	stw	r2,8(r5)
    bb74:	900b883a 	mov	r5,r18
    bb78:	b009883a 	mov	r4,r22
    bb7c:	00093ac0 	call	93ac <_free_r>
    bb80:	b009883a 	mov	r4,r22
    bb84:	000ef840 	call	ef84 <__malloc_unlock>
    bb88:	003f5e06 	br	b904 <_realloc_r+0xd8>
    bb8c:	300b883a 	mov	r5,r6
    bb90:	dfc00b17 	ldw	ra,44(sp)
    bb94:	df000a17 	ldw	fp,40(sp)
    bb98:	ddc00917 	ldw	r23,36(sp)
    bb9c:	dd800817 	ldw	r22,32(sp)
    bba0:	dd400717 	ldw	r21,28(sp)
    bba4:	dd000617 	ldw	r20,24(sp)
    bba8:	dcc00517 	ldw	r19,20(sp)
    bbac:	dc800417 	ldw	r18,16(sp)
    bbb0:	dc400317 	ldw	r17,12(sp)
    bbb4:	dc000217 	ldw	r16,8(sp)
    bbb8:	dec00c04 	addi	sp,sp,48
    bbbc:	0009f341 	jmpi	9f34 <_malloc_r>
    bbc0:	38800117 	ldw	r2,4(r7)
    bbc4:	e54b883a 	add	r5,fp,r21
    bbc8:	31000054 	ori	r4,r6,1
    bbcc:	1080004c 	andi	r2,r2,1
    bbd0:	1704b03a 	or	r2,r2,fp
    bbd4:	38800115 	stw	r2,4(r7)
    bbd8:	29000115 	stw	r4,4(r5)
    bbdc:	2987883a 	add	r3,r5,r6
    bbe0:	18800117 	ldw	r2,4(r3)
    bbe4:	29400204 	addi	r5,r5,8
    bbe8:	b009883a 	mov	r4,r22
    bbec:	10800054 	ori	r2,r2,1
    bbf0:	18800115 	stw	r2,4(r3)
    bbf4:	00093ac0 	call	93ac <_free_r>
    bbf8:	003f3806 	br	b8dc <_realloc_r+0xb0>
    bbfc:	000d883a 	mov	r6,zero
    bc00:	0009883a 	mov	r4,zero
    bc04:	003f5d06 	br	b97c <_realloc_r+0x150>
    bc08:	30c00217 	ldw	r3,8(r6)
    bc0c:	30800317 	ldw	r2,12(r6)
    bc10:	800f883a 	mov	r7,r16
    bc14:	84000204 	addi	r16,r16,8
    bc18:	10c00215 	stw	r3,8(r2)
    bc1c:	18800315 	stw	r2,12(r3)
    bc20:	003f2306 	br	b8b0 <_realloc_r+0x84>
    bc24:	8809883a 	mov	r4,r17
    bc28:	900b883a 	mov	r5,r18
    bc2c:	000a7580 	call	a758 <memmove>
    bc30:	003fd006 	br	bb74 <_realloc_r+0x348>
    bc34:	30800117 	ldw	r2,4(r6)
    bc38:	e0c00404 	addi	r3,fp,16
    bc3c:	1108703a 	and	r4,r2,r4
    bc40:	9905883a 	add	r2,r19,r4
    bc44:	10ff4d16 	blt	r2,r3,b97c <_realloc_r+0x150>
    bc48:	1705c83a 	sub	r2,r2,fp
    bc4c:	870b883a 	add	r5,r16,fp
    bc50:	10800054 	ori	r2,r2,1
    bc54:	28800115 	stw	r2,4(r5)
    bc58:	80c00117 	ldw	r3,4(r16)
    bc5c:	00820034 	movhi	r2,2048
    bc60:	1082c004 	addi	r2,r2,2816
    bc64:	b009883a 	mov	r4,r22
    bc68:	18c0004c 	andi	r3,r3,1
    bc6c:	e0c6b03a 	or	r3,fp,r3
    bc70:	11400215 	stw	r5,8(r2)
    bc74:	80c00115 	stw	r3,4(r16)
    bc78:	000ef840 	call	ef84 <__malloc_unlock>
    bc7c:	84400204 	addi	r17,r16,8
    bc80:	003f2006 	br	b904 <_realloc_r+0xd8>
    bc84:	98a9883a 	add	r20,r19,r2
    bc88:	2509883a 	add	r4,r4,r20
    bc8c:	e0800404 	addi	r2,fp,16
    bc90:	d9000115 	stw	r4,4(sp)
    bc94:	20bf7016 	blt	r4,r2,ba58 <_realloc_r+0x22c>
    bc98:	b8c00317 	ldw	r3,12(r23)
    bc9c:	b8800217 	ldw	r2,8(r23)
    bca0:	99bfff04 	addi	r6,r19,-4
    bca4:	01400904 	movi	r5,36
    bca8:	18800215 	stw	r2,8(r3)
    bcac:	10c00315 	stw	r3,12(r2)
    bcb0:	bc400204 	addi	r17,r23,8
    bcb4:	29804136 	bltu	r5,r6,bdbc <_realloc_r+0x590>
    bcb8:	008004c4 	movi	r2,19
    bcbc:	9009883a 	mov	r4,r18
    bcc0:	880f883a 	mov	r7,r17
    bcc4:	11800f2e 	bgeu	r2,r6,bd04 <_realloc_r+0x4d8>
    bcc8:	90800017 	ldw	r2,0(r18)
    bccc:	b9c00404 	addi	r7,r23,16
    bcd0:	91000204 	addi	r4,r18,8
    bcd4:	b8800215 	stw	r2,8(r23)
    bcd8:	90c00117 	ldw	r3,4(r18)
    bcdc:	008006c4 	movi	r2,27
    bce0:	b8c00315 	stw	r3,12(r23)
    bce4:	1180072e 	bgeu	r2,r6,bd04 <_realloc_r+0x4d8>
    bce8:	90c00217 	ldw	r3,8(r18)
    bcec:	b9c00604 	addi	r7,r23,24
    bcf0:	91000404 	addi	r4,r18,16
    bcf4:	b8c00415 	stw	r3,16(r23)
    bcf8:	90800317 	ldw	r2,12(r18)
    bcfc:	b8800515 	stw	r2,20(r23)
    bd00:	31404026 	beq	r6,r5,be04 <_realloc_r+0x5d8>
    bd04:	20800017 	ldw	r2,0(r4)
    bd08:	38800015 	stw	r2,0(r7)
    bd0c:	20c00117 	ldw	r3,4(r4)
    bd10:	38c00115 	stw	r3,4(r7)
    bd14:	20800217 	ldw	r2,8(r4)
    bd18:	38800215 	stw	r2,8(r7)
    bd1c:	d8c00117 	ldw	r3,4(sp)
    bd20:	bf0b883a 	add	r5,r23,fp
    bd24:	b009883a 	mov	r4,r22
    bd28:	1f05c83a 	sub	r2,r3,fp
    bd2c:	10800054 	ori	r2,r2,1
    bd30:	28800115 	stw	r2,4(r5)
    bd34:	b8c00117 	ldw	r3,4(r23)
    bd38:	00820034 	movhi	r2,2048
    bd3c:	1082c004 	addi	r2,r2,2816
    bd40:	11400215 	stw	r5,8(r2)
    bd44:	18c0004c 	andi	r3,r3,1
    bd48:	e0c6b03a 	or	r3,fp,r3
    bd4c:	b8c00115 	stw	r3,4(r23)
    bd50:	000ef840 	call	ef84 <__malloc_unlock>
    bd54:	003eeb06 	br	b904 <_realloc_r+0xd8>
    bd58:	20800117 	ldw	r2,4(r4)
    bd5c:	00ffff04 	movi	r3,-4
    bd60:	800f883a 	mov	r7,r16
    bd64:	10c4703a 	and	r2,r2,r3
    bd68:	98a9883a 	add	r20,r19,r2
    bd6c:	84000204 	addi	r16,r16,8
    bd70:	003ecf06 	br	b8b0 <_realloc_r+0x84>
    bd74:	900b883a 	mov	r5,r18
    bd78:	8009883a 	mov	r4,r16
    bd7c:	000a7580 	call	a758 <memmove>
    bd80:	dd000017 	ldw	r20,0(sp)
    bd84:	b80f883a 	mov	r7,r23
    bd88:	003ec906 	br	b8b0 <_realloc_r+0x84>
    bd8c:	900b883a 	mov	r5,r18
    bd90:	8009883a 	mov	r4,r16
    bd94:	000a7580 	call	a758 <memmove>
    bd98:	b80f883a 	mov	r7,r23
    bd9c:	003ec406 	br	b8b0 <_realloc_r+0x84>
    bda0:	90c00417 	ldw	r3,16(r18)
    bda4:	89400604 	addi	r5,r17,24
    bda8:	91000604 	addi	r4,r18,24
    bdac:	88c00415 	stw	r3,16(r17)
    bdb0:	90800517 	ldw	r2,20(r18)
    bdb4:	88800515 	stw	r2,20(r17)
    bdb8:	003f6806 	br	bb5c <_realloc_r+0x330>
    bdbc:	900b883a 	mov	r5,r18
    bdc0:	8809883a 	mov	r4,r17
    bdc4:	000a7580 	call	a758 <memmove>
    bdc8:	003fd406 	br	bd1c <_realloc_r+0x4f0>
    bdcc:	90c00417 	ldw	r3,16(r18)
    bdd0:	91000604 	addi	r4,r18,24
    bdd4:	ba000804 	addi	r8,r23,32
    bdd8:	b8c00615 	stw	r3,24(r23)
    bddc:	90800517 	ldw	r2,20(r18)
    bde0:	b8800715 	stw	r2,28(r23)
    bde4:	003f1206 	br	ba30 <_realloc_r+0x204>
    bde8:	90c00417 	ldw	r3,16(r18)
    bdec:	91000604 	addi	r4,r18,24
    bdf0:	ba000804 	addi	r8,r23,32
    bdf4:	b8c00615 	stw	r3,24(r23)
    bdf8:	90800517 	ldw	r2,20(r18)
    bdfc:	b8800715 	stw	r2,28(r23)
    be00:	003f3206 	br	bacc <_realloc_r+0x2a0>
    be04:	90c00417 	ldw	r3,16(r18)
    be08:	91000604 	addi	r4,r18,24
    be0c:	b9c00804 	addi	r7,r23,32
    be10:	b8c00615 	stw	r3,24(r23)
    be14:	90800517 	ldw	r2,20(r18)
    be18:	b8800715 	stw	r2,28(r23)
    be1c:	003fb906 	br	bd04 <_realloc_r+0x4d8>

0000be20 <__isinfd>:
    be20:	200d883a 	mov	r6,r4
    be24:	0109c83a 	sub	r4,zero,r4
    be28:	2188b03a 	or	r4,r4,r6
    be2c:	2008d7fa 	srli	r4,r4,31
    be30:	00a00034 	movhi	r2,32768
    be34:	10bfffc4 	addi	r2,r2,-1
    be38:	1144703a 	and	r2,r2,r5
    be3c:	2088b03a 	or	r4,r4,r2
    be40:	009ffc34 	movhi	r2,32752
    be44:	1105c83a 	sub	r2,r2,r4
    be48:	0087c83a 	sub	r3,zero,r2
    be4c:	10c4b03a 	or	r2,r2,r3
    be50:	1004d7fa 	srli	r2,r2,31
    be54:	00c00044 	movi	r3,1
    be58:	1885c83a 	sub	r2,r3,r2
    be5c:	f800283a 	ret

0000be60 <__isnand>:
    be60:	200d883a 	mov	r6,r4
    be64:	0109c83a 	sub	r4,zero,r4
    be68:	2188b03a 	or	r4,r4,r6
    be6c:	2008d7fa 	srli	r4,r4,31
    be70:	00a00034 	movhi	r2,32768
    be74:	10bfffc4 	addi	r2,r2,-1
    be78:	1144703a 	and	r2,r2,r5
    be7c:	2088b03a 	or	r4,r4,r2
    be80:	009ffc34 	movhi	r2,32752
    be84:	1105c83a 	sub	r2,r2,r4
    be88:	1004d7fa 	srli	r2,r2,31
    be8c:	f800283a 	ret

0000be90 <_sbrk_r>:
    be90:	defffd04 	addi	sp,sp,-12
    be94:	dc000015 	stw	r16,0(sp)
    be98:	04020034 	movhi	r16,2048
    be9c:	84096104 	addi	r16,r16,9604
    bea0:	dc400115 	stw	r17,4(sp)
    bea4:	80000015 	stw	zero,0(r16)
    bea8:	2023883a 	mov	r17,r4
    beac:	2809883a 	mov	r4,r5
    beb0:	dfc00215 	stw	ra,8(sp)
    beb4:	000f1840 	call	f184 <sbrk>
    beb8:	1007883a 	mov	r3,r2
    bebc:	00bfffc4 	movi	r2,-1
    bec0:	18800626 	beq	r3,r2,bedc <_sbrk_r+0x4c>
    bec4:	1805883a 	mov	r2,r3
    bec8:	dfc00217 	ldw	ra,8(sp)
    becc:	dc400117 	ldw	r17,4(sp)
    bed0:	dc000017 	ldw	r16,0(sp)
    bed4:	dec00304 	addi	sp,sp,12
    bed8:	f800283a 	ret
    bedc:	80800017 	ldw	r2,0(r16)
    bee0:	103ff826 	beq	r2,zero,bec4 <_sbrk_r+0x34>
    bee4:	88800015 	stw	r2,0(r17)
    bee8:	1805883a 	mov	r2,r3
    beec:	dfc00217 	ldw	ra,8(sp)
    bef0:	dc400117 	ldw	r17,4(sp)
    bef4:	dc000017 	ldw	r16,0(sp)
    bef8:	dec00304 	addi	sp,sp,12
    befc:	f800283a 	ret

0000bf00 <__sclose>:
    bf00:	2940038f 	ldh	r5,14(r5)
    bf04:	000c2341 	jmpi	c234 <_close_r>

0000bf08 <__sseek>:
    bf08:	defffe04 	addi	sp,sp,-8
    bf0c:	dc000015 	stw	r16,0(sp)
    bf10:	2821883a 	mov	r16,r5
    bf14:	2940038f 	ldh	r5,14(r5)
    bf18:	dfc00115 	stw	ra,4(sp)
    bf1c:	000c4ac0 	call	c4ac <_lseek_r>
    bf20:	1007883a 	mov	r3,r2
    bf24:	00bfffc4 	movi	r2,-1
    bf28:	18800926 	beq	r3,r2,bf50 <__sseek+0x48>
    bf2c:	8080030b 	ldhu	r2,12(r16)
    bf30:	80c01415 	stw	r3,80(r16)
    bf34:	10840014 	ori	r2,r2,4096
    bf38:	8080030d 	sth	r2,12(r16)
    bf3c:	1805883a 	mov	r2,r3
    bf40:	dfc00117 	ldw	ra,4(sp)
    bf44:	dc000017 	ldw	r16,0(sp)
    bf48:	dec00204 	addi	sp,sp,8
    bf4c:	f800283a 	ret
    bf50:	8080030b 	ldhu	r2,12(r16)
    bf54:	10bbffcc 	andi	r2,r2,61439
    bf58:	8080030d 	sth	r2,12(r16)
    bf5c:	1805883a 	mov	r2,r3
    bf60:	dfc00117 	ldw	ra,4(sp)
    bf64:	dc000017 	ldw	r16,0(sp)
    bf68:	dec00204 	addi	sp,sp,8
    bf6c:	f800283a 	ret

0000bf70 <__swrite>:
    bf70:	2880030b 	ldhu	r2,12(r5)
    bf74:	defffb04 	addi	sp,sp,-20
    bf78:	dcc00315 	stw	r19,12(sp)
    bf7c:	1080400c 	andi	r2,r2,256
    bf80:	dc800215 	stw	r18,8(sp)
    bf84:	dc400115 	stw	r17,4(sp)
    bf88:	dc000015 	stw	r16,0(sp)
    bf8c:	3027883a 	mov	r19,r6
    bf90:	3825883a 	mov	r18,r7
    bf94:	dfc00415 	stw	ra,16(sp)
    bf98:	2821883a 	mov	r16,r5
    bf9c:	000d883a 	mov	r6,zero
    bfa0:	01c00084 	movi	r7,2
    bfa4:	2023883a 	mov	r17,r4
    bfa8:	10000226 	beq	r2,zero,bfb4 <__swrite+0x44>
    bfac:	2940038f 	ldh	r5,14(r5)
    bfb0:	000c4ac0 	call	c4ac <_lseek_r>
    bfb4:	8080030b 	ldhu	r2,12(r16)
    bfb8:	8140038f 	ldh	r5,14(r16)
    bfbc:	8809883a 	mov	r4,r17
    bfc0:	10bbffcc 	andi	r2,r2,61439
    bfc4:	980d883a 	mov	r6,r19
    bfc8:	900f883a 	mov	r7,r18
    bfcc:	8080030d 	sth	r2,12(r16)
    bfd0:	dfc00417 	ldw	ra,16(sp)
    bfd4:	dcc00317 	ldw	r19,12(sp)
    bfd8:	dc800217 	ldw	r18,8(sp)
    bfdc:	dc400117 	ldw	r17,4(sp)
    bfe0:	dc000017 	ldw	r16,0(sp)
    bfe4:	dec00504 	addi	sp,sp,20
    bfe8:	000c1081 	jmpi	c108 <_write_r>

0000bfec <__sread>:
    bfec:	defffe04 	addi	sp,sp,-8
    bff0:	dc000015 	stw	r16,0(sp)
    bff4:	2821883a 	mov	r16,r5
    bff8:	2940038f 	ldh	r5,14(r5)
    bffc:	dfc00115 	stw	ra,4(sp)
    c000:	000c5240 	call	c524 <_read_r>
    c004:	1007883a 	mov	r3,r2
    c008:	10000816 	blt	r2,zero,c02c <__sread+0x40>
    c00c:	80801417 	ldw	r2,80(r16)
    c010:	10c5883a 	add	r2,r2,r3
    c014:	80801415 	stw	r2,80(r16)
    c018:	1805883a 	mov	r2,r3
    c01c:	dfc00117 	ldw	ra,4(sp)
    c020:	dc000017 	ldw	r16,0(sp)
    c024:	dec00204 	addi	sp,sp,8
    c028:	f800283a 	ret
    c02c:	8080030b 	ldhu	r2,12(r16)
    c030:	10bbffcc 	andi	r2,r2,61439
    c034:	8080030d 	sth	r2,12(r16)
    c038:	1805883a 	mov	r2,r3
    c03c:	dfc00117 	ldw	ra,4(sp)
    c040:	dc000017 	ldw	r16,0(sp)
    c044:	dec00204 	addi	sp,sp,8
    c048:	f800283a 	ret

0000c04c <strcmp>:
    c04c:	2144b03a 	or	r2,r4,r5
    c050:	108000cc 	andi	r2,r2,3
    c054:	10001d1e 	bne	r2,zero,c0cc <strcmp+0x80>
    c058:	200f883a 	mov	r7,r4
    c05c:	28800017 	ldw	r2,0(r5)
    c060:	21000017 	ldw	r4,0(r4)
    c064:	280d883a 	mov	r6,r5
    c068:	2080161e 	bne	r4,r2,c0c4 <strcmp+0x78>
    c06c:	023fbff4 	movhi	r8,65279
    c070:	423fbfc4 	addi	r8,r8,-257
    c074:	2207883a 	add	r3,r4,r8
    c078:	01602074 	movhi	r5,32897
    c07c:	29602004 	addi	r5,r5,-32640
    c080:	1946703a 	and	r3,r3,r5
    c084:	0104303a 	nor	r2,zero,r4
    c088:	10c4703a 	and	r2,r2,r3
    c08c:	10001c1e 	bne	r2,zero,c100 <strcmp+0xb4>
    c090:	4013883a 	mov	r9,r8
    c094:	2811883a 	mov	r8,r5
    c098:	00000106 	br	c0a0 <strcmp+0x54>
    c09c:	1800181e 	bne	r3,zero,c100 <strcmp+0xb4>
    c0a0:	39c00104 	addi	r7,r7,4
    c0a4:	39000017 	ldw	r4,0(r7)
    c0a8:	31800104 	addi	r6,r6,4
    c0ac:	31400017 	ldw	r5,0(r6)
    c0b0:	2245883a 	add	r2,r4,r9
    c0b4:	1204703a 	and	r2,r2,r8
    c0b8:	0106303a 	nor	r3,zero,r4
    c0bc:	1886703a 	and	r3,r3,r2
    c0c0:	217ff626 	beq	r4,r5,c09c <strcmp+0x50>
    c0c4:	3809883a 	mov	r4,r7
    c0c8:	300b883a 	mov	r5,r6
    c0cc:	20c00007 	ldb	r3,0(r4)
    c0d0:	1800051e 	bne	r3,zero,c0e8 <strcmp+0x9c>
    c0d4:	00000606 	br	c0f0 <strcmp+0xa4>
    c0d8:	21000044 	addi	r4,r4,1
    c0dc:	20c00007 	ldb	r3,0(r4)
    c0e0:	29400044 	addi	r5,r5,1
    c0e4:	18000226 	beq	r3,zero,c0f0 <strcmp+0xa4>
    c0e8:	28800007 	ldb	r2,0(r5)
    c0ec:	18bffa26 	beq	r3,r2,c0d8 <strcmp+0x8c>
    c0f0:	20c00003 	ldbu	r3,0(r4)
    c0f4:	28800003 	ldbu	r2,0(r5)
    c0f8:	1885c83a 	sub	r2,r3,r2
    c0fc:	f800283a 	ret
    c100:	0005883a 	mov	r2,zero
    c104:	f800283a 	ret

0000c108 <_write_r>:
    c108:	defffd04 	addi	sp,sp,-12
    c10c:	dc000015 	stw	r16,0(sp)
    c110:	04020034 	movhi	r16,2048
    c114:	84096104 	addi	r16,r16,9604
    c118:	dc400115 	stw	r17,4(sp)
    c11c:	80000015 	stw	zero,0(r16)
    c120:	2023883a 	mov	r17,r4
    c124:	2809883a 	mov	r4,r5
    c128:	300b883a 	mov	r5,r6
    c12c:	380d883a 	mov	r6,r7
    c130:	dfc00215 	stw	ra,8(sp)
    c134:	000f2400 	call	f240 <write>
    c138:	1007883a 	mov	r3,r2
    c13c:	00bfffc4 	movi	r2,-1
    c140:	18800626 	beq	r3,r2,c15c <_write_r+0x54>
    c144:	1805883a 	mov	r2,r3
    c148:	dfc00217 	ldw	ra,8(sp)
    c14c:	dc400117 	ldw	r17,4(sp)
    c150:	dc000017 	ldw	r16,0(sp)
    c154:	dec00304 	addi	sp,sp,12
    c158:	f800283a 	ret
    c15c:	80800017 	ldw	r2,0(r16)
    c160:	103ff826 	beq	r2,zero,c144 <_write_r+0x3c>
    c164:	88800015 	stw	r2,0(r17)
    c168:	1805883a 	mov	r2,r3
    c16c:	dfc00217 	ldw	ra,8(sp)
    c170:	dc400117 	ldw	r17,4(sp)
    c174:	dc000017 	ldw	r16,0(sp)
    c178:	dec00304 	addi	sp,sp,12
    c17c:	f800283a 	ret

0000c180 <_calloc_r>:
    c180:	298b383a 	mul	r5,r5,r6
    c184:	defffe04 	addi	sp,sp,-8
    c188:	dc000015 	stw	r16,0(sp)
    c18c:	dfc00115 	stw	ra,4(sp)
    c190:	0009f340 	call	9f34 <_malloc_r>
    c194:	1021883a 	mov	r16,r2
    c198:	01c00904 	movi	r7,36
    c19c:	10000d26 	beq	r2,zero,c1d4 <_calloc_r+0x54>
    c1a0:	10ffff17 	ldw	r3,-4(r2)
    c1a4:	1009883a 	mov	r4,r2
    c1a8:	00bfff04 	movi	r2,-4
    c1ac:	1886703a 	and	r3,r3,r2
    c1b0:	1887883a 	add	r3,r3,r2
    c1b4:	180d883a 	mov	r6,r3
    c1b8:	000b883a 	mov	r5,zero
    c1bc:	38c01736 	bltu	r7,r3,c21c <_calloc_r+0x9c>
    c1c0:	008004c4 	movi	r2,19
    c1c4:	10c00836 	bltu	r2,r3,c1e8 <_calloc_r+0x68>
    c1c8:	20000215 	stw	zero,8(r4)
    c1cc:	20000015 	stw	zero,0(r4)
    c1d0:	20000115 	stw	zero,4(r4)
    c1d4:	8005883a 	mov	r2,r16
    c1d8:	dfc00117 	ldw	ra,4(sp)
    c1dc:	dc000017 	ldw	r16,0(sp)
    c1e0:	dec00204 	addi	sp,sp,8
    c1e4:	f800283a 	ret
    c1e8:	008006c4 	movi	r2,27
    c1ec:	80000015 	stw	zero,0(r16)
    c1f0:	80000115 	stw	zero,4(r16)
    c1f4:	81000204 	addi	r4,r16,8
    c1f8:	10fff32e 	bgeu	r2,r3,c1c8 <_calloc_r+0x48>
    c1fc:	80000215 	stw	zero,8(r16)
    c200:	80000315 	stw	zero,12(r16)
    c204:	81000404 	addi	r4,r16,16
    c208:	19ffef1e 	bne	r3,r7,c1c8 <_calloc_r+0x48>
    c20c:	81000604 	addi	r4,r16,24
    c210:	80000415 	stw	zero,16(r16)
    c214:	80000515 	stw	zero,20(r16)
    c218:	003feb06 	br	c1c8 <_calloc_r+0x48>
    c21c:	00053280 	call	5328 <memset>
    c220:	8005883a 	mov	r2,r16
    c224:	dfc00117 	ldw	ra,4(sp)
    c228:	dc000017 	ldw	r16,0(sp)
    c22c:	dec00204 	addi	sp,sp,8
    c230:	f800283a 	ret

0000c234 <_close_r>:
    c234:	defffd04 	addi	sp,sp,-12
    c238:	dc000015 	stw	r16,0(sp)
    c23c:	04020034 	movhi	r16,2048
    c240:	84096104 	addi	r16,r16,9604
    c244:	dc400115 	stw	r17,4(sp)
    c248:	80000015 	stw	zero,0(r16)
    c24c:	2023883a 	mov	r17,r4
    c250:	2809883a 	mov	r4,r5
    c254:	dfc00215 	stw	ra,8(sp)
    c258:	000e9cc0 	call	e9cc <close>
    c25c:	1007883a 	mov	r3,r2
    c260:	00bfffc4 	movi	r2,-1
    c264:	18800626 	beq	r3,r2,c280 <_close_r+0x4c>
    c268:	1805883a 	mov	r2,r3
    c26c:	dfc00217 	ldw	ra,8(sp)
    c270:	dc400117 	ldw	r17,4(sp)
    c274:	dc000017 	ldw	r16,0(sp)
    c278:	dec00304 	addi	sp,sp,12
    c27c:	f800283a 	ret
    c280:	80800017 	ldw	r2,0(r16)
    c284:	103ff826 	beq	r2,zero,c268 <_close_r+0x34>
    c288:	88800015 	stw	r2,0(r17)
    c28c:	1805883a 	mov	r2,r3
    c290:	dfc00217 	ldw	ra,8(sp)
    c294:	dc400117 	ldw	r17,4(sp)
    c298:	dc000017 	ldw	r16,0(sp)
    c29c:	dec00304 	addi	sp,sp,12
    c2a0:	f800283a 	ret

0000c2a4 <_fclose_r>:
    c2a4:	defffc04 	addi	sp,sp,-16
    c2a8:	dc400115 	stw	r17,4(sp)
    c2ac:	dc000015 	stw	r16,0(sp)
    c2b0:	dfc00315 	stw	ra,12(sp)
    c2b4:	dc800215 	stw	r18,8(sp)
    c2b8:	2821883a 	mov	r16,r5
    c2bc:	2023883a 	mov	r17,r4
    c2c0:	28002926 	beq	r5,zero,c368 <_fclose_r+0xc4>
    c2c4:	00090180 	call	9018 <__sfp_lock_acquire>
    c2c8:	88000226 	beq	r17,zero,c2d4 <_fclose_r+0x30>
    c2cc:	88800e17 	ldw	r2,56(r17)
    c2d0:	10002d26 	beq	r2,zero,c388 <_fclose_r+0xe4>
    c2d4:	8080030f 	ldh	r2,12(r16)
    c2d8:	10002226 	beq	r2,zero,c364 <_fclose_r+0xc0>
    c2dc:	8809883a 	mov	r4,r17
    c2e0:	800b883a 	mov	r5,r16
    c2e4:	0008d900 	call	8d90 <_fflush_r>
    c2e8:	1025883a 	mov	r18,r2
    c2ec:	80800b17 	ldw	r2,44(r16)
    c2f0:	10000426 	beq	r2,zero,c304 <_fclose_r+0x60>
    c2f4:	81400717 	ldw	r5,28(r16)
    c2f8:	8809883a 	mov	r4,r17
    c2fc:	103ee83a 	callr	r2
    c300:	10002a16 	blt	r2,zero,c3ac <_fclose_r+0x108>
    c304:	8080030b 	ldhu	r2,12(r16)
    c308:	1080200c 	andi	r2,r2,128
    c30c:	1000231e 	bne	r2,zero,c39c <_fclose_r+0xf8>
    c310:	81400c17 	ldw	r5,48(r16)
    c314:	28000526 	beq	r5,zero,c32c <_fclose_r+0x88>
    c318:	80801004 	addi	r2,r16,64
    c31c:	28800226 	beq	r5,r2,c328 <_fclose_r+0x84>
    c320:	8809883a 	mov	r4,r17
    c324:	00093ac0 	call	93ac <_free_r>
    c328:	80000c15 	stw	zero,48(r16)
    c32c:	81401117 	ldw	r5,68(r16)
    c330:	28000326 	beq	r5,zero,c340 <_fclose_r+0x9c>
    c334:	8809883a 	mov	r4,r17
    c338:	00093ac0 	call	93ac <_free_r>
    c33c:	80001115 	stw	zero,68(r16)
    c340:	8000030d 	sth	zero,12(r16)
    c344:	000901c0 	call	901c <__sfp_lock_release>
    c348:	9005883a 	mov	r2,r18
    c34c:	dfc00317 	ldw	ra,12(sp)
    c350:	dc800217 	ldw	r18,8(sp)
    c354:	dc400117 	ldw	r17,4(sp)
    c358:	dc000017 	ldw	r16,0(sp)
    c35c:	dec00404 	addi	sp,sp,16
    c360:	f800283a 	ret
    c364:	000901c0 	call	901c <__sfp_lock_release>
    c368:	0025883a 	mov	r18,zero
    c36c:	9005883a 	mov	r2,r18
    c370:	dfc00317 	ldw	ra,12(sp)
    c374:	dc800217 	ldw	r18,8(sp)
    c378:	dc400117 	ldw	r17,4(sp)
    c37c:	dc000017 	ldw	r16,0(sp)
    c380:	dec00404 	addi	sp,sp,16
    c384:	f800283a 	ret
    c388:	8809883a 	mov	r4,r17
    c38c:	00090280 	call	9028 <__sinit>
    c390:	8080030f 	ldh	r2,12(r16)
    c394:	103fd11e 	bne	r2,zero,c2dc <_fclose_r+0x38>
    c398:	003ff206 	br	c364 <_fclose_r+0xc0>
    c39c:	81400417 	ldw	r5,16(r16)
    c3a0:	8809883a 	mov	r4,r17
    c3a4:	00093ac0 	call	93ac <_free_r>
    c3a8:	003fd906 	br	c310 <_fclose_r+0x6c>
    c3ac:	04bfffc4 	movi	r18,-1
    c3b0:	003fd406 	br	c304 <_fclose_r+0x60>

0000c3b4 <fclose>:
    c3b4:	00820034 	movhi	r2,2048
    c3b8:	10892c04 	addi	r2,r2,9392
    c3bc:	200b883a 	mov	r5,r4
    c3c0:	11000017 	ldw	r4,0(r2)
    c3c4:	000c2a41 	jmpi	c2a4 <_fclose_r>

0000c3c8 <_fstat_r>:
    c3c8:	defffd04 	addi	sp,sp,-12
    c3cc:	dc000015 	stw	r16,0(sp)
    c3d0:	04020034 	movhi	r16,2048
    c3d4:	84096104 	addi	r16,r16,9604
    c3d8:	dc400115 	stw	r17,4(sp)
    c3dc:	80000015 	stw	zero,0(r16)
    c3e0:	2023883a 	mov	r17,r4
    c3e4:	2809883a 	mov	r4,r5
    c3e8:	300b883a 	mov	r5,r6
    c3ec:	dfc00215 	stw	ra,8(sp)
    c3f0:	000eb540 	call	eb54 <fstat>
    c3f4:	1007883a 	mov	r3,r2
    c3f8:	00bfffc4 	movi	r2,-1
    c3fc:	18800626 	beq	r3,r2,c418 <_fstat_r+0x50>
    c400:	1805883a 	mov	r2,r3
    c404:	dfc00217 	ldw	ra,8(sp)
    c408:	dc400117 	ldw	r17,4(sp)
    c40c:	dc000017 	ldw	r16,0(sp)
    c410:	dec00304 	addi	sp,sp,12
    c414:	f800283a 	ret
    c418:	80800017 	ldw	r2,0(r16)
    c41c:	103ff826 	beq	r2,zero,c400 <_fstat_r+0x38>
    c420:	88800015 	stw	r2,0(r17)
    c424:	1805883a 	mov	r2,r3
    c428:	dfc00217 	ldw	ra,8(sp)
    c42c:	dc400117 	ldw	r17,4(sp)
    c430:	dc000017 	ldw	r16,0(sp)
    c434:	dec00304 	addi	sp,sp,12
    c438:	f800283a 	ret

0000c43c <_isatty_r>:
    c43c:	defffd04 	addi	sp,sp,-12
    c440:	dc000015 	stw	r16,0(sp)
    c444:	04020034 	movhi	r16,2048
    c448:	84096104 	addi	r16,r16,9604
    c44c:	dc400115 	stw	r17,4(sp)
    c450:	80000015 	stw	zero,0(r16)
    c454:	2023883a 	mov	r17,r4
    c458:	2809883a 	mov	r4,r5
    c45c:	dfc00215 	stw	ra,8(sp)
    c460:	000ec880 	call	ec88 <isatty>
    c464:	1007883a 	mov	r3,r2
    c468:	00bfffc4 	movi	r2,-1
    c46c:	18800626 	beq	r3,r2,c488 <_isatty_r+0x4c>
    c470:	1805883a 	mov	r2,r3
    c474:	dfc00217 	ldw	ra,8(sp)
    c478:	dc400117 	ldw	r17,4(sp)
    c47c:	dc000017 	ldw	r16,0(sp)
    c480:	dec00304 	addi	sp,sp,12
    c484:	f800283a 	ret
    c488:	80800017 	ldw	r2,0(r16)
    c48c:	103ff826 	beq	r2,zero,c470 <_isatty_r+0x34>
    c490:	88800015 	stw	r2,0(r17)
    c494:	1805883a 	mov	r2,r3
    c498:	dfc00217 	ldw	ra,8(sp)
    c49c:	dc400117 	ldw	r17,4(sp)
    c4a0:	dc000017 	ldw	r16,0(sp)
    c4a4:	dec00304 	addi	sp,sp,12
    c4a8:	f800283a 	ret

0000c4ac <_lseek_r>:
    c4ac:	defffd04 	addi	sp,sp,-12
    c4b0:	dc000015 	stw	r16,0(sp)
    c4b4:	04020034 	movhi	r16,2048
    c4b8:	84096104 	addi	r16,r16,9604
    c4bc:	dc400115 	stw	r17,4(sp)
    c4c0:	80000015 	stw	zero,0(r16)
    c4c4:	2023883a 	mov	r17,r4
    c4c8:	2809883a 	mov	r4,r5
    c4cc:	300b883a 	mov	r5,r6
    c4d0:	380d883a 	mov	r6,r7
    c4d4:	dfc00215 	stw	ra,8(sp)
    c4d8:	000eda80 	call	eda8 <lseek>
    c4dc:	1007883a 	mov	r3,r2
    c4e0:	00bfffc4 	movi	r2,-1
    c4e4:	18800626 	beq	r3,r2,c500 <_lseek_r+0x54>
    c4e8:	1805883a 	mov	r2,r3
    c4ec:	dfc00217 	ldw	ra,8(sp)
    c4f0:	dc400117 	ldw	r17,4(sp)
    c4f4:	dc000017 	ldw	r16,0(sp)
    c4f8:	dec00304 	addi	sp,sp,12
    c4fc:	f800283a 	ret
    c500:	80800017 	ldw	r2,0(r16)
    c504:	103ff826 	beq	r2,zero,c4e8 <_lseek_r+0x3c>
    c508:	88800015 	stw	r2,0(r17)
    c50c:	1805883a 	mov	r2,r3
    c510:	dfc00217 	ldw	ra,8(sp)
    c514:	dc400117 	ldw	r17,4(sp)
    c518:	dc000017 	ldw	r16,0(sp)
    c51c:	dec00304 	addi	sp,sp,12
    c520:	f800283a 	ret

0000c524 <_read_r>:
    c524:	defffd04 	addi	sp,sp,-12
    c528:	dc000015 	stw	r16,0(sp)
    c52c:	04020034 	movhi	r16,2048
    c530:	84096104 	addi	r16,r16,9604
    c534:	dc400115 	stw	r17,4(sp)
    c538:	80000015 	stw	zero,0(r16)
    c53c:	2023883a 	mov	r17,r4
    c540:	2809883a 	mov	r4,r5
    c544:	300b883a 	mov	r5,r6
    c548:	380d883a 	mov	r6,r7
    c54c:	dfc00215 	stw	ra,8(sp)
    c550:	000efa40 	call	efa4 <read>
    c554:	1007883a 	mov	r3,r2
    c558:	00bfffc4 	movi	r2,-1
    c55c:	18800626 	beq	r3,r2,c578 <_read_r+0x54>
    c560:	1805883a 	mov	r2,r3
    c564:	dfc00217 	ldw	ra,8(sp)
    c568:	dc400117 	ldw	r17,4(sp)
    c56c:	dc000017 	ldw	r16,0(sp)
    c570:	dec00304 	addi	sp,sp,12
    c574:	f800283a 	ret
    c578:	80800017 	ldw	r2,0(r16)
    c57c:	103ff826 	beq	r2,zero,c560 <_read_r+0x3c>
    c580:	88800015 	stw	r2,0(r17)
    c584:	1805883a 	mov	r2,r3
    c588:	dfc00217 	ldw	ra,8(sp)
    c58c:	dc400117 	ldw	r17,4(sp)
    c590:	dc000017 	ldw	r16,0(sp)
    c594:	dec00304 	addi	sp,sp,12
    c598:	f800283a 	ret

0000c59c <__udivdi3>:
    c59c:	defff004 	addi	sp,sp,-64
    c5a0:	2005883a 	mov	r2,r4
    c5a4:	3011883a 	mov	r8,r6
    c5a8:	df000e15 	stw	fp,56(sp)
    c5ac:	dd000a15 	stw	r20,40(sp)
    c5b0:	dc000615 	stw	r16,24(sp)
    c5b4:	dfc00f15 	stw	ra,60(sp)
    c5b8:	ddc00d15 	stw	r23,52(sp)
    c5bc:	dd800c15 	stw	r22,48(sp)
    c5c0:	dd400b15 	stw	r21,44(sp)
    c5c4:	dcc00915 	stw	r19,36(sp)
    c5c8:	dc800815 	stw	r18,32(sp)
    c5cc:	dc400715 	stw	r17,28(sp)
    c5d0:	4021883a 	mov	r16,r8
    c5d4:	1039883a 	mov	fp,r2
    c5d8:	2829883a 	mov	r20,r5
    c5dc:	38003b1e 	bne	r7,zero,c6cc <__udivdi3+0x130>
    c5e0:	2a005c36 	bltu	r5,r8,c754 <__udivdi3+0x1b8>
    c5e4:	4000a626 	beq	r8,zero,c880 <__udivdi3+0x2e4>
    c5e8:	00bfffd4 	movui	r2,65535
    c5ec:	14009e36 	bltu	r2,r16,c868 <__udivdi3+0x2cc>
    c5f0:	00803fc4 	movi	r2,255
    c5f4:	14013d36 	bltu	r2,r16,caec <__udivdi3+0x550>
    c5f8:	000b883a 	mov	r5,zero
    c5fc:	0005883a 	mov	r2,zero
    c600:	8084d83a 	srl	r2,r16,r2
    c604:	01020034 	movhi	r4,2048
    c608:	2100a204 	addi	r4,r4,648
    c60c:	01800804 	movi	r6,32
    c610:	1105883a 	add	r2,r2,r4
    c614:	10c00003 	ldbu	r3,0(r2)
    c618:	28c7883a 	add	r3,r5,r3
    c61c:	30edc83a 	sub	r22,r6,r3
    c620:	b000ee1e 	bne	r22,zero,c9dc <__udivdi3+0x440>
    c624:	802ad43a 	srli	r21,r16,16
    c628:	00800044 	movi	r2,1
    c62c:	a423c83a 	sub	r17,r20,r16
    c630:	85ffffcc 	andi	r23,r16,65535
    c634:	d8800315 	stw	r2,12(sp)
    c638:	8809883a 	mov	r4,r17
    c63c:	a80b883a 	mov	r5,r21
    c640:	000e3900 	call	e390 <__udivsi3>
    c644:	8809883a 	mov	r4,r17
    c648:	a80b883a 	mov	r5,r21
    c64c:	102d883a 	mov	r22,r2
    c650:	000e3980 	call	e398 <__umodsi3>
    c654:	1004943a 	slli	r2,r2,16
    c658:	e006d43a 	srli	r3,fp,16
    c65c:	bda3383a 	mul	r17,r23,r22
    c660:	10c4b03a 	or	r2,r2,r3
    c664:	1440042e 	bgeu	r2,r17,c678 <__udivdi3+0xdc>
    c668:	1405883a 	add	r2,r2,r16
    c66c:	b5bfffc4 	addi	r22,r22,-1
    c670:	14000136 	bltu	r2,r16,c678 <__udivdi3+0xdc>
    c674:	14413d36 	bltu	r2,r17,cb6c <__udivdi3+0x5d0>
    c678:	1463c83a 	sub	r17,r2,r17
    c67c:	8809883a 	mov	r4,r17
    c680:	a80b883a 	mov	r5,r21
    c684:	000e3900 	call	e390 <__udivsi3>
    c688:	8809883a 	mov	r4,r17
    c68c:	a80b883a 	mov	r5,r21
    c690:	1029883a 	mov	r20,r2
    c694:	000e3980 	call	e398 <__umodsi3>
    c698:	1004943a 	slli	r2,r2,16
    c69c:	bd09383a 	mul	r4,r23,r20
    c6a0:	e0ffffcc 	andi	r3,fp,65535
    c6a4:	10c4b03a 	or	r2,r2,r3
    c6a8:	1100042e 	bgeu	r2,r4,c6bc <__udivdi3+0x120>
    c6ac:	8085883a 	add	r2,r16,r2
    c6b0:	a53fffc4 	addi	r20,r20,-1
    c6b4:	14000136 	bltu	r2,r16,c6bc <__udivdi3+0x120>
    c6b8:	11012036 	bltu	r2,r4,cb3c <__udivdi3+0x5a0>
    c6bc:	b004943a 	slli	r2,r22,16
    c6c0:	d9000317 	ldw	r4,12(sp)
    c6c4:	a084b03a 	or	r2,r20,r2
    c6c8:	00001506 	br	c720 <__udivdi3+0x184>
    c6cc:	380d883a 	mov	r6,r7
    c6d0:	29c06236 	bltu	r5,r7,c85c <__udivdi3+0x2c0>
    c6d4:	00bfffd4 	movui	r2,65535
    c6d8:	11c05a36 	bltu	r2,r7,c844 <__udivdi3+0x2a8>
    c6dc:	00803fc4 	movi	r2,255
    c6e0:	11c0fc36 	bltu	r2,r7,cad4 <__udivdi3+0x538>
    c6e4:	000b883a 	mov	r5,zero
    c6e8:	0005883a 	mov	r2,zero
    c6ec:	3084d83a 	srl	r2,r6,r2
    c6f0:	01020034 	movhi	r4,2048
    c6f4:	2100a204 	addi	r4,r4,648
    c6f8:	01c00804 	movi	r7,32
    c6fc:	1105883a 	add	r2,r2,r4
    c700:	10c00003 	ldbu	r3,0(r2)
    c704:	28c7883a 	add	r3,r5,r3
    c708:	38efc83a 	sub	r23,r7,r3
    c70c:	b800691e 	bne	r23,zero,c8b4 <__udivdi3+0x318>
    c710:	35000136 	bltu	r6,r20,c718 <__udivdi3+0x17c>
    c714:	e4005136 	bltu	fp,r16,c85c <__udivdi3+0x2c0>
    c718:	00800044 	movi	r2,1
    c71c:	0009883a 	mov	r4,zero
    c720:	2007883a 	mov	r3,r4
    c724:	dfc00f17 	ldw	ra,60(sp)
    c728:	df000e17 	ldw	fp,56(sp)
    c72c:	ddc00d17 	ldw	r23,52(sp)
    c730:	dd800c17 	ldw	r22,48(sp)
    c734:	dd400b17 	ldw	r21,44(sp)
    c738:	dd000a17 	ldw	r20,40(sp)
    c73c:	dcc00917 	ldw	r19,36(sp)
    c740:	dc800817 	ldw	r18,32(sp)
    c744:	dc400717 	ldw	r17,28(sp)
    c748:	dc000617 	ldw	r16,24(sp)
    c74c:	dec01004 	addi	sp,sp,64
    c750:	f800283a 	ret
    c754:	00bfffd4 	movui	r2,65535
    c758:	12005036 	bltu	r2,r8,c89c <__udivdi3+0x300>
    c75c:	00803fc4 	movi	r2,255
    c760:	1200e836 	bltu	r2,r8,cb04 <__udivdi3+0x568>
    c764:	000b883a 	mov	r5,zero
    c768:	0005883a 	mov	r2,zero
    c76c:	8084d83a 	srl	r2,r16,r2
    c770:	01020034 	movhi	r4,2048
    c774:	2100a204 	addi	r4,r4,648
    c778:	01800804 	movi	r6,32
    c77c:	1105883a 	add	r2,r2,r4
    c780:	10c00003 	ldbu	r3,0(r2)
    c784:	28c7883a 	add	r3,r5,r3
    c788:	30cbc83a 	sub	r5,r6,r3
    c78c:	28000626 	beq	r5,zero,c7a8 <__udivdi3+0x20c>
    c790:	3145c83a 	sub	r2,r6,r5
    c794:	e084d83a 	srl	r2,fp,r2
    c798:	a146983a 	sll	r3,r20,r5
    c79c:	e178983a 	sll	fp,fp,r5
    c7a0:	8160983a 	sll	r16,r16,r5
    c7a4:	18a8b03a 	or	r20,r3,r2
    c7a8:	802ad43a 	srli	r21,r16,16
    c7ac:	a009883a 	mov	r4,r20
    c7b0:	85ffffcc 	andi	r23,r16,65535
    c7b4:	a80b883a 	mov	r5,r21
    c7b8:	000e3900 	call	e390 <__udivsi3>
    c7bc:	a009883a 	mov	r4,r20
    c7c0:	a80b883a 	mov	r5,r21
    c7c4:	102d883a 	mov	r22,r2
    c7c8:	000e3980 	call	e398 <__umodsi3>
    c7cc:	1004943a 	slli	r2,r2,16
    c7d0:	e006d43a 	srli	r3,fp,16
    c7d4:	bda3383a 	mul	r17,r23,r22
    c7d8:	10c4b03a 	or	r2,r2,r3
    c7dc:	1440042e 	bgeu	r2,r17,c7f0 <__udivdi3+0x254>
    c7e0:	1405883a 	add	r2,r2,r16
    c7e4:	b5bfffc4 	addi	r22,r22,-1
    c7e8:	14000136 	bltu	r2,r16,c7f0 <__udivdi3+0x254>
    c7ec:	1440d536 	bltu	r2,r17,cb44 <__udivdi3+0x5a8>
    c7f0:	1463c83a 	sub	r17,r2,r17
    c7f4:	8809883a 	mov	r4,r17
    c7f8:	a80b883a 	mov	r5,r21
    c7fc:	000e3900 	call	e390 <__udivsi3>
    c800:	8809883a 	mov	r4,r17
    c804:	a80b883a 	mov	r5,r21
    c808:	1029883a 	mov	r20,r2
    c80c:	000e3980 	call	e398 <__umodsi3>
    c810:	1004943a 	slli	r2,r2,16
    c814:	bd09383a 	mul	r4,r23,r20
    c818:	e0ffffcc 	andi	r3,fp,65535
    c81c:	10c4b03a 	or	r2,r2,r3
    c820:	1100042e 	bgeu	r2,r4,c834 <__udivdi3+0x298>
    c824:	8085883a 	add	r2,r16,r2
    c828:	a53fffc4 	addi	r20,r20,-1
    c82c:	14000136 	bltu	r2,r16,c834 <__udivdi3+0x298>
    c830:	1100c736 	bltu	r2,r4,cb50 <__udivdi3+0x5b4>
    c834:	b004943a 	slli	r2,r22,16
    c838:	0009883a 	mov	r4,zero
    c83c:	a084b03a 	or	r2,r20,r2
    c840:	003fb706 	br	c720 <__udivdi3+0x184>
    c844:	00804034 	movhi	r2,256
    c848:	10bfffc4 	addi	r2,r2,-1
    c84c:	11c0a436 	bltu	r2,r7,cae0 <__udivdi3+0x544>
    c850:	01400404 	movi	r5,16
    c854:	2805883a 	mov	r2,r5
    c858:	003fa406 	br	c6ec <__udivdi3+0x150>
    c85c:	0005883a 	mov	r2,zero
    c860:	0009883a 	mov	r4,zero
    c864:	003fae06 	br	c720 <__udivdi3+0x184>
    c868:	00804034 	movhi	r2,256
    c86c:	10bfffc4 	addi	r2,r2,-1
    c870:	1400a136 	bltu	r2,r16,caf8 <__udivdi3+0x55c>
    c874:	01400404 	movi	r5,16
    c878:	2805883a 	mov	r2,r5
    c87c:	003f6006 	br	c600 <__udivdi3+0x64>
    c880:	01000044 	movi	r4,1
    c884:	000b883a 	mov	r5,zero
    c888:	000e3900 	call	e390 <__udivsi3>
    c88c:	1021883a 	mov	r16,r2
    c890:	00bfffd4 	movui	r2,65535
    c894:	143ff436 	bltu	r2,r16,c868 <__udivdi3+0x2cc>
    c898:	003f5506 	br	c5f0 <__udivdi3+0x54>
    c89c:	00804034 	movhi	r2,256
    c8a0:	10bfffc4 	addi	r2,r2,-1
    c8a4:	12009a36 	bltu	r2,r8,cb10 <__udivdi3+0x574>
    c8a8:	01400404 	movi	r5,16
    c8ac:	2805883a 	mov	r2,r5
    c8b0:	003fae06 	br	c76c <__udivdi3+0x1d0>
    c8b4:	3dc5c83a 	sub	r2,r7,r23
    c8b8:	35c8983a 	sll	r4,r6,r23
    c8bc:	8086d83a 	srl	r3,r16,r2
    c8c0:	a0a2d83a 	srl	r17,r20,r2
    c8c4:	e084d83a 	srl	r2,fp,r2
    c8c8:	20eab03a 	or	r21,r4,r3
    c8cc:	a82cd43a 	srli	r22,r21,16
    c8d0:	a5c6983a 	sll	r3,r20,r23
    c8d4:	8809883a 	mov	r4,r17
    c8d8:	b00b883a 	mov	r5,r22
    c8dc:	1886b03a 	or	r3,r3,r2
    c8e0:	d8c00215 	stw	r3,8(sp)
    c8e4:	000e3900 	call	e390 <__udivsi3>
    c8e8:	8809883a 	mov	r4,r17
    c8ec:	b00b883a 	mov	r5,r22
    c8f0:	1029883a 	mov	r20,r2
    c8f4:	000e3980 	call	e398 <__umodsi3>
    c8f8:	a8ffffcc 	andi	r3,r21,65535
    c8fc:	d8c00515 	stw	r3,20(sp)
    c900:	d9000217 	ldw	r4,8(sp)
    c904:	d9400517 	ldw	r5,20(sp)
    c908:	1004943a 	slli	r2,r2,16
    c90c:	2006d43a 	srli	r3,r4,16
    c910:	85e0983a 	sll	r16,r16,r23
    c914:	2d23383a 	mul	r17,r5,r20
    c918:	10c4b03a 	or	r2,r2,r3
    c91c:	dc000015 	stw	r16,0(sp)
    c920:	1440032e 	bgeu	r2,r17,c930 <__udivdi3+0x394>
    c924:	1545883a 	add	r2,r2,r21
    c928:	a53fffc4 	addi	r20,r20,-1
    c92c:	15407f2e 	bgeu	r2,r21,cb2c <__udivdi3+0x590>
    c930:	1463c83a 	sub	r17,r2,r17
    c934:	8809883a 	mov	r4,r17
    c938:	b00b883a 	mov	r5,r22
    c93c:	000e3900 	call	e390 <__udivsi3>
    c940:	8809883a 	mov	r4,r17
    c944:	b00b883a 	mov	r5,r22
    c948:	1021883a 	mov	r16,r2
    c94c:	000e3980 	call	e398 <__umodsi3>
    c950:	d8c00517 	ldw	r3,20(sp)
    c954:	d9000217 	ldw	r4,8(sp)
    c958:	1004943a 	slli	r2,r2,16
    c95c:	1c0f383a 	mul	r7,r3,r16
    c960:	20ffffcc 	andi	r3,r4,65535
    c964:	10e2b03a 	or	r17,r2,r3
    c968:	89c0032e 	bgeu	r17,r7,c978 <__udivdi3+0x3dc>
    c96c:	8d63883a 	add	r17,r17,r21
    c970:	843fffc4 	addi	r16,r16,-1
    c974:	8d40692e 	bgeu	r17,r21,cb1c <__udivdi3+0x580>
    c978:	a008943a 	slli	r4,r20,16
    c97c:	d9400017 	ldw	r5,0(sp)
    c980:	89e3c83a 	sub	r17,r17,r7
    c984:	8110b03a 	or	r8,r16,r4
    c988:	280cd43a 	srli	r6,r5,16
    c98c:	28ffffcc 	andi	r3,r5,65535
    c990:	40bfffcc 	andi	r2,r8,65535
    c994:	400ad43a 	srli	r5,r8,16
    c998:	10d3383a 	mul	r9,r2,r3
    c99c:	1185383a 	mul	r2,r2,r6
    c9a0:	28c7383a 	mul	r3,r5,r3
    c9a4:	4808d43a 	srli	r4,r9,16
    c9a8:	298b383a 	mul	r5,r5,r6
    c9ac:	10c5883a 	add	r2,r2,r3
    c9b0:	2089883a 	add	r4,r4,r2
    c9b4:	20c0022e 	bgeu	r4,r3,c9c0 <__udivdi3+0x424>
    c9b8:	00800074 	movhi	r2,1
    c9bc:	288b883a 	add	r5,r5,r2
    c9c0:	2004d43a 	srli	r2,r4,16
    c9c4:	288b883a 	add	r5,r5,r2
    c9c8:	89403f36 	bltu	r17,r5,cac8 <__udivdi3+0x52c>
    c9cc:	89403926 	beq	r17,r5,cab4 <__udivdi3+0x518>
    c9d0:	4005883a 	mov	r2,r8
    c9d4:	0009883a 	mov	r4,zero
    c9d8:	003f5106 	br	c720 <__udivdi3+0x184>
    c9dc:	85a0983a 	sll	r16,r16,r22
    c9e0:	3585c83a 	sub	r2,r6,r22
    c9e4:	a0a2d83a 	srl	r17,r20,r2
    c9e8:	802ad43a 	srli	r21,r16,16
    c9ec:	e084d83a 	srl	r2,fp,r2
    c9f0:	a586983a 	sll	r3,r20,r22
    c9f4:	8809883a 	mov	r4,r17
    c9f8:	a80b883a 	mov	r5,r21
    c9fc:	1886b03a 	or	r3,r3,r2
    ca00:	d8c00115 	stw	r3,4(sp)
    ca04:	000e3900 	call	e390 <__udivsi3>
    ca08:	8809883a 	mov	r4,r17
    ca0c:	a80b883a 	mov	r5,r21
    ca10:	d8800415 	stw	r2,16(sp)
    ca14:	000e3980 	call	e398 <__umodsi3>
    ca18:	d9000117 	ldw	r4,4(sp)
    ca1c:	d9400417 	ldw	r5,16(sp)
    ca20:	1004943a 	slli	r2,r2,16
    ca24:	85ffffcc 	andi	r23,r16,65535
    ca28:	2006d43a 	srli	r3,r4,16
    ca2c:	b963383a 	mul	r17,r23,r5
    ca30:	10c4b03a 	or	r2,r2,r3
    ca34:	1440042e 	bgeu	r2,r17,ca48 <__udivdi3+0x4ac>
    ca38:	297fffc4 	addi	r5,r5,-1
    ca3c:	1405883a 	add	r2,r2,r16
    ca40:	d9400415 	stw	r5,16(sp)
    ca44:	1400442e 	bgeu	r2,r16,cb58 <__udivdi3+0x5bc>
    ca48:	1463c83a 	sub	r17,r2,r17
    ca4c:	8809883a 	mov	r4,r17
    ca50:	a80b883a 	mov	r5,r21
    ca54:	000e3900 	call	e390 <__udivsi3>
    ca58:	8809883a 	mov	r4,r17
    ca5c:	a80b883a 	mov	r5,r21
    ca60:	1029883a 	mov	r20,r2
    ca64:	000e3980 	call	e398 <__umodsi3>
    ca68:	d9400117 	ldw	r5,4(sp)
    ca6c:	1004943a 	slli	r2,r2,16
    ca70:	bd09383a 	mul	r4,r23,r20
    ca74:	28ffffcc 	andi	r3,r5,65535
    ca78:	10c6b03a 	or	r3,r2,r3
    ca7c:	1900062e 	bgeu	r3,r4,ca98 <__udivdi3+0x4fc>
    ca80:	1c07883a 	add	r3,r3,r16
    ca84:	a53fffc4 	addi	r20,r20,-1
    ca88:	1c000336 	bltu	r3,r16,ca98 <__udivdi3+0x4fc>
    ca8c:	1900022e 	bgeu	r3,r4,ca98 <__udivdi3+0x4fc>
    ca90:	a53fffc4 	addi	r20,r20,-1
    ca94:	1c07883a 	add	r3,r3,r16
    ca98:	d9400417 	ldw	r5,16(sp)
    ca9c:	e5b8983a 	sll	fp,fp,r22
    caa0:	1923c83a 	sub	r17,r3,r4
    caa4:	2804943a 	slli	r2,r5,16
    caa8:	a0a8b03a 	or	r20,r20,r2
    caac:	dd000315 	stw	r20,12(sp)
    cab0:	003ee106 	br	c638 <__udivdi3+0x9c>
    cab4:	2004943a 	slli	r2,r4,16
    cab8:	e5c8983a 	sll	r4,fp,r23
    cabc:	48ffffcc 	andi	r3,r9,65535
    cac0:	10c5883a 	add	r2,r2,r3
    cac4:	20bfc22e 	bgeu	r4,r2,c9d0 <__udivdi3+0x434>
    cac8:	40bfffc4 	addi	r2,r8,-1
    cacc:	0009883a 	mov	r4,zero
    cad0:	003f1306 	br	c720 <__udivdi3+0x184>
    cad4:	01400204 	movi	r5,8
    cad8:	2805883a 	mov	r2,r5
    cadc:	003f0306 	br	c6ec <__udivdi3+0x150>
    cae0:	01400604 	movi	r5,24
    cae4:	2805883a 	mov	r2,r5
    cae8:	003f0006 	br	c6ec <__udivdi3+0x150>
    caec:	01400204 	movi	r5,8
    caf0:	2805883a 	mov	r2,r5
    caf4:	003ec206 	br	c600 <__udivdi3+0x64>
    caf8:	01400604 	movi	r5,24
    cafc:	2805883a 	mov	r2,r5
    cb00:	003ebf06 	br	c600 <__udivdi3+0x64>
    cb04:	01400204 	movi	r5,8
    cb08:	2805883a 	mov	r2,r5
    cb0c:	003f1706 	br	c76c <__udivdi3+0x1d0>
    cb10:	01400604 	movi	r5,24
    cb14:	2805883a 	mov	r2,r5
    cb18:	003f1406 	br	c76c <__udivdi3+0x1d0>
    cb1c:	89ff962e 	bgeu	r17,r7,c978 <__udivdi3+0x3dc>
    cb20:	8d63883a 	add	r17,r17,r21
    cb24:	843fffc4 	addi	r16,r16,-1
    cb28:	003f9306 	br	c978 <__udivdi3+0x3dc>
    cb2c:	147f802e 	bgeu	r2,r17,c930 <__udivdi3+0x394>
    cb30:	a53fffc4 	addi	r20,r20,-1
    cb34:	1545883a 	add	r2,r2,r21
    cb38:	003f7d06 	br	c930 <__udivdi3+0x394>
    cb3c:	a53fffc4 	addi	r20,r20,-1
    cb40:	003ede06 	br	c6bc <__udivdi3+0x120>
    cb44:	b5bfffc4 	addi	r22,r22,-1
    cb48:	1405883a 	add	r2,r2,r16
    cb4c:	003f2806 	br	c7f0 <__udivdi3+0x254>
    cb50:	a53fffc4 	addi	r20,r20,-1
    cb54:	003f3706 	br	c834 <__udivdi3+0x298>
    cb58:	147fbb2e 	bgeu	r2,r17,ca48 <__udivdi3+0x4ac>
    cb5c:	297fffc4 	addi	r5,r5,-1
    cb60:	1405883a 	add	r2,r2,r16
    cb64:	d9400415 	stw	r5,16(sp)
    cb68:	003fb706 	br	ca48 <__udivdi3+0x4ac>
    cb6c:	b5bfffc4 	addi	r22,r22,-1
    cb70:	1405883a 	add	r2,r2,r16
    cb74:	003ec006 	br	c678 <__udivdi3+0xdc>

0000cb78 <__umoddi3>:
    cb78:	defff104 	addi	sp,sp,-60
    cb7c:	dd800b15 	stw	r22,44(sp)
    cb80:	dd000915 	stw	r20,36(sp)
    cb84:	dc000515 	stw	r16,20(sp)
    cb88:	dfc00e15 	stw	ra,56(sp)
    cb8c:	df000d15 	stw	fp,52(sp)
    cb90:	ddc00c15 	stw	r23,48(sp)
    cb94:	dd400a15 	stw	r21,40(sp)
    cb98:	dcc00815 	stw	r19,32(sp)
    cb9c:	dc800715 	stw	r18,28(sp)
    cba0:	dc400615 	stw	r17,24(sp)
    cba4:	3021883a 	mov	r16,r6
    cba8:	202d883a 	mov	r22,r4
    cbac:	2829883a 	mov	r20,r5
    cbb0:	38002b1e 	bne	r7,zero,cc60 <__umoddi3+0xe8>
    cbb4:	29805036 	bltu	r5,r6,ccf8 <__umoddi3+0x180>
    cbb8:	30008a26 	beq	r6,zero,cde4 <__umoddi3+0x26c>
    cbbc:	00bfffd4 	movui	r2,65535
    cbc0:	14008236 	bltu	r2,r16,cdcc <__umoddi3+0x254>
    cbc4:	00803fc4 	movi	r2,255
    cbc8:	14013636 	bltu	r2,r16,d0a4 <__umoddi3+0x52c>
    cbcc:	000b883a 	mov	r5,zero
    cbd0:	0005883a 	mov	r2,zero
    cbd4:	8084d83a 	srl	r2,r16,r2
    cbd8:	01020034 	movhi	r4,2048
    cbdc:	2100a204 	addi	r4,r4,648
    cbe0:	01800804 	movi	r6,32
    cbe4:	1105883a 	add	r2,r2,r4
    cbe8:	10c00003 	ldbu	r3,0(r2)
    cbec:	28c7883a 	add	r3,r5,r3
    cbf0:	30efc83a 	sub	r23,r6,r3
    cbf4:	b800941e 	bne	r23,zero,ce48 <__umoddi3+0x2d0>
    cbf8:	802ad43a 	srli	r21,r16,16
    cbfc:	a423c83a 	sub	r17,r20,r16
    cc00:	0039883a 	mov	fp,zero
    cc04:	853fffcc 	andi	r20,r16,65535
    cc08:	8809883a 	mov	r4,r17
    cc0c:	a80b883a 	mov	r5,r21
    cc10:	000e3900 	call	e390 <__udivsi3>
    cc14:	8809883a 	mov	r4,r17
    cc18:	a80b883a 	mov	r5,r21
    cc1c:	a0a3383a 	mul	r17,r20,r2
    cc20:	000e3980 	call	e398 <__umodsi3>
    cc24:	1004943a 	slli	r2,r2,16
    cc28:	b006d43a 	srli	r3,r22,16
    cc2c:	10c4b03a 	or	r2,r2,r3
    cc30:	1440032e 	bgeu	r2,r17,cc40 <__umoddi3+0xc8>
    cc34:	1405883a 	add	r2,r2,r16
    cc38:	14000136 	bltu	r2,r16,cc40 <__umoddi3+0xc8>
    cc3c:	14413536 	bltu	r2,r17,d114 <__umoddi3+0x59c>
    cc40:	1463c83a 	sub	r17,r2,r17
    cc44:	8809883a 	mov	r4,r17
    cc48:	a80b883a 	mov	r5,r21
    cc4c:	000e3900 	call	e390 <__udivsi3>
    cc50:	8809883a 	mov	r4,r17
    cc54:	a0a3383a 	mul	r17,r20,r2
    cc58:	a80b883a 	mov	r5,r21
    cc5c:	00004d06 	br	cd94 <__umoddi3+0x21c>
    cc60:	380d883a 	mov	r6,r7
    cc64:	29c0102e 	bgeu	r5,r7,cca8 <__umoddi3+0x130>
    cc68:	2011883a 	mov	r8,r4
    cc6c:	2813883a 	mov	r9,r5
    cc70:	4005883a 	mov	r2,r8
    cc74:	4807883a 	mov	r3,r9
    cc78:	dfc00e17 	ldw	ra,56(sp)
    cc7c:	df000d17 	ldw	fp,52(sp)
    cc80:	ddc00c17 	ldw	r23,48(sp)
    cc84:	dd800b17 	ldw	r22,44(sp)
    cc88:	dd400a17 	ldw	r21,40(sp)
    cc8c:	dd000917 	ldw	r20,36(sp)
    cc90:	dcc00817 	ldw	r19,32(sp)
    cc94:	dc800717 	ldw	r18,28(sp)
    cc98:	dc400617 	ldw	r17,24(sp)
    cc9c:	dc000517 	ldw	r16,20(sp)
    cca0:	dec00f04 	addi	sp,sp,60
    cca4:	f800283a 	ret
    cca8:	00bfffd4 	movui	r2,65535
    ccac:	11c05a36 	bltu	r2,r7,ce18 <__umoddi3+0x2a0>
    ccb0:	00803fc4 	movi	r2,255
    ccb4:	11c0fe36 	bltu	r2,r7,d0b0 <__umoddi3+0x538>
    ccb8:	000b883a 	mov	r5,zero
    ccbc:	0005883a 	mov	r2,zero
    ccc0:	3084d83a 	srl	r2,r6,r2
    ccc4:	01020034 	movhi	r4,2048
    ccc8:	2100a204 	addi	r4,r4,648
    cccc:	01c00804 	movi	r7,32
    ccd0:	1105883a 	add	r2,r2,r4
    ccd4:	10c00003 	ldbu	r3,0(r2)
    ccd8:	28c7883a 	add	r3,r5,r3
    ccdc:	38ebc83a 	sub	r21,r7,r3
    cce0:	a800851e 	bne	r21,zero,cef8 <__umoddi3+0x380>
    cce4:	35005236 	bltu	r6,r20,ce30 <__umoddi3+0x2b8>
    cce8:	b400512e 	bgeu	r22,r16,ce30 <__umoddi3+0x2b8>
    ccec:	b011883a 	mov	r8,r22
    ccf0:	a013883a 	mov	r9,r20
    ccf4:	003fde06 	br	cc70 <__umoddi3+0xf8>
    ccf8:	00bfffd4 	movui	r2,65535
    ccfc:	11804036 	bltu	r2,r6,ce00 <__umoddi3+0x288>
    cd00:	00803fc4 	movi	r2,255
    cd04:	1180ed36 	bltu	r2,r6,d0bc <__umoddi3+0x544>
    cd08:	000b883a 	mov	r5,zero
    cd0c:	0005883a 	mov	r2,zero
    cd10:	8084d83a 	srl	r2,r16,r2
    cd14:	01020034 	movhi	r4,2048
    cd18:	2100a204 	addi	r4,r4,648
    cd1c:	01800804 	movi	r6,32
    cd20:	1105883a 	add	r2,r2,r4
    cd24:	10c00003 	ldbu	r3,0(r2)
    cd28:	28c7883a 	add	r3,r5,r3
    cd2c:	30c7c83a 	sub	r3,r6,r3
    cd30:	1800bf1e 	bne	r3,zero,d030 <__umoddi3+0x4b8>
    cd34:	0039883a 	mov	fp,zero
    cd38:	802ad43a 	srli	r21,r16,16
    cd3c:	a009883a 	mov	r4,r20
    cd40:	85ffffcc 	andi	r23,r16,65535
    cd44:	a80b883a 	mov	r5,r21
    cd48:	000e3900 	call	e390 <__udivsi3>
    cd4c:	a009883a 	mov	r4,r20
    cd50:	a80b883a 	mov	r5,r21
    cd54:	b8a3383a 	mul	r17,r23,r2
    cd58:	000e3980 	call	e398 <__umodsi3>
    cd5c:	1004943a 	slli	r2,r2,16
    cd60:	b006d43a 	srli	r3,r22,16
    cd64:	10c4b03a 	or	r2,r2,r3
    cd68:	1440032e 	bgeu	r2,r17,cd78 <__umoddi3+0x200>
    cd6c:	1405883a 	add	r2,r2,r16
    cd70:	14000136 	bltu	r2,r16,cd78 <__umoddi3+0x200>
    cd74:	1440e536 	bltu	r2,r17,d10c <__umoddi3+0x594>
    cd78:	1463c83a 	sub	r17,r2,r17
    cd7c:	8809883a 	mov	r4,r17
    cd80:	a80b883a 	mov	r5,r21
    cd84:	000e3900 	call	e390 <__udivsi3>
    cd88:	8809883a 	mov	r4,r17
    cd8c:	b8a3383a 	mul	r17,r23,r2
    cd90:	a80b883a 	mov	r5,r21
    cd94:	000e3980 	call	e398 <__umodsi3>
    cd98:	1004943a 	slli	r2,r2,16
    cd9c:	b0ffffcc 	andi	r3,r22,65535
    cda0:	10c4b03a 	or	r2,r2,r3
    cda4:	1440042e 	bgeu	r2,r17,cdb8 <__umoddi3+0x240>
    cda8:	1405883a 	add	r2,r2,r16
    cdac:	14000236 	bltu	r2,r16,cdb8 <__umoddi3+0x240>
    cdb0:	1440012e 	bgeu	r2,r17,cdb8 <__umoddi3+0x240>
    cdb4:	1405883a 	add	r2,r2,r16
    cdb8:	1445c83a 	sub	r2,r2,r17
    cdbc:	1724d83a 	srl	r18,r2,fp
    cdc0:	0013883a 	mov	r9,zero
    cdc4:	9011883a 	mov	r8,r18
    cdc8:	003fa906 	br	cc70 <__umoddi3+0xf8>
    cdcc:	00804034 	movhi	r2,256
    cdd0:	10bfffc4 	addi	r2,r2,-1
    cdd4:	1400b036 	bltu	r2,r16,d098 <__umoddi3+0x520>
    cdd8:	01400404 	movi	r5,16
    cddc:	2805883a 	mov	r2,r5
    cde0:	003f7c06 	br	cbd4 <__umoddi3+0x5c>
    cde4:	01000044 	movi	r4,1
    cde8:	000b883a 	mov	r5,zero
    cdec:	000e3900 	call	e390 <__udivsi3>
    cdf0:	1021883a 	mov	r16,r2
    cdf4:	00bfffd4 	movui	r2,65535
    cdf8:	143ff436 	bltu	r2,r16,cdcc <__umoddi3+0x254>
    cdfc:	003f7106 	br	cbc4 <__umoddi3+0x4c>
    ce00:	00804034 	movhi	r2,256
    ce04:	10bfffc4 	addi	r2,r2,-1
    ce08:	1180af36 	bltu	r2,r6,d0c8 <__umoddi3+0x550>
    ce0c:	01400404 	movi	r5,16
    ce10:	2805883a 	mov	r2,r5
    ce14:	003fbe06 	br	cd10 <__umoddi3+0x198>
    ce18:	00804034 	movhi	r2,256
    ce1c:	10bfffc4 	addi	r2,r2,-1
    ce20:	11c0ac36 	bltu	r2,r7,d0d4 <__umoddi3+0x55c>
    ce24:	01400404 	movi	r5,16
    ce28:	2805883a 	mov	r2,r5
    ce2c:	003fa406 	br	ccc0 <__umoddi3+0x148>
    ce30:	b409c83a 	sub	r4,r22,r16
    ce34:	b105803a 	cmpltu	r2,r22,r4
    ce38:	a187c83a 	sub	r3,r20,r6
    ce3c:	18a9c83a 	sub	r20,r3,r2
    ce40:	202d883a 	mov	r22,r4
    ce44:	003fa906 	br	ccec <__umoddi3+0x174>
    ce48:	85e0983a 	sll	r16,r16,r23
    ce4c:	35c5c83a 	sub	r2,r6,r23
    ce50:	a0a2d83a 	srl	r17,r20,r2
    ce54:	802ad43a 	srli	r21,r16,16
    ce58:	b084d83a 	srl	r2,r22,r2
    ce5c:	a5c6983a 	sll	r3,r20,r23
    ce60:	8809883a 	mov	r4,r17
    ce64:	a80b883a 	mov	r5,r21
    ce68:	1886b03a 	or	r3,r3,r2
    ce6c:	d8c00115 	stw	r3,4(sp)
    ce70:	853fffcc 	andi	r20,r16,65535
    ce74:	000e3900 	call	e390 <__udivsi3>
    ce78:	8809883a 	mov	r4,r17
    ce7c:	a80b883a 	mov	r5,r21
    ce80:	a0a3383a 	mul	r17,r20,r2
    ce84:	000e3980 	call	e398 <__umodsi3>
    ce88:	d9000117 	ldw	r4,4(sp)
    ce8c:	1004943a 	slli	r2,r2,16
    ce90:	b839883a 	mov	fp,r23
    ce94:	2006d43a 	srli	r3,r4,16
    ce98:	10c4b03a 	or	r2,r2,r3
    ce9c:	1440022e 	bgeu	r2,r17,cea8 <__umoddi3+0x330>
    cea0:	1405883a 	add	r2,r2,r16
    cea4:	1400962e 	bgeu	r2,r16,d100 <__umoddi3+0x588>
    cea8:	1463c83a 	sub	r17,r2,r17
    ceac:	8809883a 	mov	r4,r17
    ceb0:	a80b883a 	mov	r5,r21
    ceb4:	000e3900 	call	e390 <__udivsi3>
    ceb8:	8809883a 	mov	r4,r17
    cebc:	a80b883a 	mov	r5,r21
    cec0:	a0a3383a 	mul	r17,r20,r2
    cec4:	000e3980 	call	e398 <__umodsi3>
    cec8:	d9400117 	ldw	r5,4(sp)
    cecc:	1004943a 	slli	r2,r2,16
    ced0:	28ffffcc 	andi	r3,r5,65535
    ced4:	10c4b03a 	or	r2,r2,r3
    ced8:	1440042e 	bgeu	r2,r17,ceec <__umoddi3+0x374>
    cedc:	1405883a 	add	r2,r2,r16
    cee0:	14000236 	bltu	r2,r16,ceec <__umoddi3+0x374>
    cee4:	1440012e 	bgeu	r2,r17,ceec <__umoddi3+0x374>
    cee8:	1405883a 	add	r2,r2,r16
    ceec:	b5ec983a 	sll	r22,r22,r23
    cef0:	1463c83a 	sub	r17,r2,r17
    cef4:	003f4406 	br	cc08 <__umoddi3+0x90>
    cef8:	3d4fc83a 	sub	r7,r7,r21
    cefc:	3546983a 	sll	r3,r6,r21
    cf00:	81c4d83a 	srl	r2,r16,r7
    cf04:	a1e2d83a 	srl	r17,r20,r7
    cf08:	a54c983a 	sll	r6,r20,r21
    cf0c:	18aeb03a 	or	r23,r3,r2
    cf10:	b828d43a 	srli	r20,r23,16
    cf14:	b1c4d83a 	srl	r2,r22,r7
    cf18:	8809883a 	mov	r4,r17
    cf1c:	a00b883a 	mov	r5,r20
    cf20:	308cb03a 	or	r6,r6,r2
    cf24:	d9c00315 	stw	r7,12(sp)
    cf28:	d9800215 	stw	r6,8(sp)
    cf2c:	000e3900 	call	e390 <__udivsi3>
    cf30:	8809883a 	mov	r4,r17
    cf34:	a00b883a 	mov	r5,r20
    cf38:	1039883a 	mov	fp,r2
    cf3c:	000e3980 	call	e398 <__umodsi3>
    cf40:	b8ffffcc 	andi	r3,r23,65535
    cf44:	d8c00415 	stw	r3,16(sp)
    cf48:	d9000217 	ldw	r4,8(sp)
    cf4c:	d9400417 	ldw	r5,16(sp)
    cf50:	1004943a 	slli	r2,r2,16
    cf54:	2006d43a 	srli	r3,r4,16
    cf58:	8560983a 	sll	r16,r16,r21
    cf5c:	2f23383a 	mul	r17,r5,fp
    cf60:	10c4b03a 	or	r2,r2,r3
    cf64:	dc000015 	stw	r16,0(sp)
    cf68:	b56c983a 	sll	r22,r22,r21
    cf6c:	1440032e 	bgeu	r2,r17,cf7c <__umoddi3+0x404>
    cf70:	15c5883a 	add	r2,r2,r23
    cf74:	e73fffc4 	addi	fp,fp,-1
    cf78:	15c05d2e 	bgeu	r2,r23,d0f0 <__umoddi3+0x578>
    cf7c:	1463c83a 	sub	r17,r2,r17
    cf80:	8809883a 	mov	r4,r17
    cf84:	a00b883a 	mov	r5,r20
    cf88:	000e3900 	call	e390 <__udivsi3>
    cf8c:	8809883a 	mov	r4,r17
    cf90:	a00b883a 	mov	r5,r20
    cf94:	1021883a 	mov	r16,r2
    cf98:	000e3980 	call	e398 <__umodsi3>
    cf9c:	d8c00417 	ldw	r3,16(sp)
    cfa0:	d9000217 	ldw	r4,8(sp)
    cfa4:	1004943a 	slli	r2,r2,16
    cfa8:	1c23383a 	mul	r17,r3,r16
    cfac:	20ffffcc 	andi	r3,r4,65535
    cfb0:	10ceb03a 	or	r7,r2,r3
    cfb4:	3c40032e 	bgeu	r7,r17,cfc4 <__umoddi3+0x44c>
    cfb8:	3dcf883a 	add	r7,r7,r23
    cfbc:	843fffc4 	addi	r16,r16,-1
    cfc0:	3dc0472e 	bgeu	r7,r23,d0e0 <__umoddi3+0x568>
    cfc4:	e004943a 	slli	r2,fp,16
    cfc8:	d9400017 	ldw	r5,0(sp)
    cfcc:	3c4fc83a 	sub	r7,r7,r17
    cfd0:	8084b03a 	or	r2,r16,r2
    cfd4:	28ffffcc 	andi	r3,r5,65535
    cfd8:	280cd43a 	srli	r6,r5,16
    cfdc:	100ad43a 	srli	r5,r2,16
    cfe0:	10bfffcc 	andi	r2,r2,65535
    cfe4:	10d1383a 	mul	r8,r2,r3
    cfe8:	28c7383a 	mul	r3,r5,r3
    cfec:	1185383a 	mul	r2,r2,r6
    cff0:	4008d43a 	srli	r4,r8,16
    cff4:	298b383a 	mul	r5,r5,r6
    cff8:	10c5883a 	add	r2,r2,r3
    cffc:	2089883a 	add	r4,r4,r2
    d000:	20c0022e 	bgeu	r4,r3,d00c <__umoddi3+0x494>
    d004:	00800074 	movhi	r2,1
    d008:	288b883a 	add	r5,r5,r2
    d00c:	2004d43a 	srli	r2,r4,16
    d010:	2008943a 	slli	r4,r4,16
    d014:	40ffffcc 	andi	r3,r8,65535
    d018:	288b883a 	add	r5,r5,r2
    d01c:	20c9883a 	add	r4,r4,r3
    d020:	39400b36 	bltu	r7,r5,d050 <__umoddi3+0x4d8>
    d024:	39403d26 	beq	r7,r5,d11c <__umoddi3+0x5a4>
    d028:	394bc83a 	sub	r5,r7,r5
    d02c:	00000f06 	br	d06c <__umoddi3+0x4f4>
    d030:	30c5c83a 	sub	r2,r6,r3
    d034:	1839883a 	mov	fp,r3
    d038:	b084d83a 	srl	r2,r22,r2
    d03c:	a0c6983a 	sll	r3,r20,r3
    d040:	8720983a 	sll	r16,r16,fp
    d044:	b72c983a 	sll	r22,r22,fp
    d048:	18a8b03a 	or	r20,r3,r2
    d04c:	003f3a06 	br	cd38 <__umoddi3+0x1c0>
    d050:	d8c00017 	ldw	r3,0(sp)
    d054:	20c5c83a 	sub	r2,r4,r3
    d058:	2089803a 	cmpltu	r4,r4,r2
    d05c:	2dc7c83a 	sub	r3,r5,r23
    d060:	1907c83a 	sub	r3,r3,r4
    d064:	38cbc83a 	sub	r5,r7,r3
    d068:	1009883a 	mov	r4,r2
    d06c:	b105c83a 	sub	r2,r22,r4
    d070:	b087803a 	cmpltu	r3,r22,r2
    d074:	28c7c83a 	sub	r3,r5,r3
    d078:	d9400317 	ldw	r5,12(sp)
    d07c:	1544d83a 	srl	r2,r2,r21
    d080:	1948983a 	sll	r4,r3,r5
    d084:	1d46d83a 	srl	r3,r3,r21
    d088:	20a4b03a 	or	r18,r4,r2
    d08c:	9011883a 	mov	r8,r18
    d090:	1813883a 	mov	r9,r3
    d094:	003ef606 	br	cc70 <__umoddi3+0xf8>
    d098:	01400604 	movi	r5,24
    d09c:	2805883a 	mov	r2,r5
    d0a0:	003ecc06 	br	cbd4 <__umoddi3+0x5c>
    d0a4:	01400204 	movi	r5,8
    d0a8:	2805883a 	mov	r2,r5
    d0ac:	003ec906 	br	cbd4 <__umoddi3+0x5c>
    d0b0:	01400204 	movi	r5,8
    d0b4:	2805883a 	mov	r2,r5
    d0b8:	003f0106 	br	ccc0 <__umoddi3+0x148>
    d0bc:	01400204 	movi	r5,8
    d0c0:	2805883a 	mov	r2,r5
    d0c4:	003f1206 	br	cd10 <__umoddi3+0x198>
    d0c8:	01400604 	movi	r5,24
    d0cc:	2805883a 	mov	r2,r5
    d0d0:	003f0f06 	br	cd10 <__umoddi3+0x198>
    d0d4:	01400604 	movi	r5,24
    d0d8:	2805883a 	mov	r2,r5
    d0dc:	003ef806 	br	ccc0 <__umoddi3+0x148>
    d0e0:	3c7fb82e 	bgeu	r7,r17,cfc4 <__umoddi3+0x44c>
    d0e4:	843fffc4 	addi	r16,r16,-1
    d0e8:	3dcf883a 	add	r7,r7,r23
    d0ec:	003fb506 	br	cfc4 <__umoddi3+0x44c>
    d0f0:	147fa22e 	bgeu	r2,r17,cf7c <__umoddi3+0x404>
    d0f4:	e73fffc4 	addi	fp,fp,-1
    d0f8:	15c5883a 	add	r2,r2,r23
    d0fc:	003f9f06 	br	cf7c <__umoddi3+0x404>
    d100:	147f692e 	bgeu	r2,r17,cea8 <__umoddi3+0x330>
    d104:	1405883a 	add	r2,r2,r16
    d108:	003f6706 	br	cea8 <__umoddi3+0x330>
    d10c:	1405883a 	add	r2,r2,r16
    d110:	003f1906 	br	cd78 <__umoddi3+0x200>
    d114:	1405883a 	add	r2,r2,r16
    d118:	003ec906 	br	cc40 <__umoddi3+0xc8>
    d11c:	b13fcc36 	bltu	r22,r4,d050 <__umoddi3+0x4d8>
    d120:	000b883a 	mov	r5,zero
    d124:	003fd106 	br	d06c <__umoddi3+0x4f4>

0000d128 <_fpadd_parts>:
    d128:	defff804 	addi	sp,sp,-32
    d12c:	dcc00315 	stw	r19,12(sp)
    d130:	2027883a 	mov	r19,r4
    d134:	21000017 	ldw	r4,0(r4)
    d138:	00c00044 	movi	r3,1
    d13c:	dd400515 	stw	r21,20(sp)
    d140:	dd000415 	stw	r20,16(sp)
    d144:	ddc00715 	stw	r23,28(sp)
    d148:	dd800615 	stw	r22,24(sp)
    d14c:	dc800215 	stw	r18,8(sp)
    d150:	dc400115 	stw	r17,4(sp)
    d154:	dc000015 	stw	r16,0(sp)
    d158:	282b883a 	mov	r21,r5
    d15c:	3029883a 	mov	r20,r6
    d160:	1900632e 	bgeu	r3,r4,d2f0 <_fpadd_parts+0x1c8>
    d164:	28800017 	ldw	r2,0(r5)
    d168:	1880812e 	bgeu	r3,r2,d370 <_fpadd_parts+0x248>
    d16c:	00c00104 	movi	r3,4
    d170:	20c0dc26 	beq	r4,r3,d4e4 <_fpadd_parts+0x3bc>
    d174:	10c07e26 	beq	r2,r3,d370 <_fpadd_parts+0x248>
    d178:	00c00084 	movi	r3,2
    d17c:	10c06726 	beq	r2,r3,d31c <_fpadd_parts+0x1f4>
    d180:	20c07b26 	beq	r4,r3,d370 <_fpadd_parts+0x248>
    d184:	9dc00217 	ldw	r23,8(r19)
    d188:	28c00217 	ldw	r3,8(r5)
    d18c:	9c400317 	ldw	r17,12(r19)
    d190:	2bc00317 	ldw	r15,12(r5)
    d194:	b8cdc83a 	sub	r6,r23,r3
    d198:	9c800417 	ldw	r18,16(r19)
    d19c:	2c000417 	ldw	r16,16(r5)
    d1a0:	3009883a 	mov	r4,r6
    d1a4:	30009716 	blt	r6,zero,d404 <_fpadd_parts+0x2dc>
    d1a8:	00800fc4 	movi	r2,63
    d1ac:	11806b16 	blt	r2,r6,d35c <_fpadd_parts+0x234>
    d1b0:	0100a40e 	bge	zero,r4,d444 <_fpadd_parts+0x31c>
    d1b4:	35bff804 	addi	r22,r6,-32
    d1b8:	b000bc16 	blt	r22,zero,d4ac <_fpadd_parts+0x384>
    d1bc:	8596d83a 	srl	r11,r16,r22
    d1c0:	0019883a 	mov	r12,zero
    d1c4:	0013883a 	mov	r9,zero
    d1c8:	01000044 	movi	r4,1
    d1cc:	0015883a 	mov	r10,zero
    d1d0:	b000be16 	blt	r22,zero,d4cc <_fpadd_parts+0x3a4>
    d1d4:	2590983a 	sll	r8,r4,r22
    d1d8:	000f883a 	mov	r7,zero
    d1dc:	00bfffc4 	movi	r2,-1
    d1e0:	3889883a 	add	r4,r7,r2
    d1e4:	408b883a 	add	r5,r8,r2
    d1e8:	21cd803a 	cmpltu	r6,r4,r7
    d1ec:	314b883a 	add	r5,r6,r5
    d1f0:	7904703a 	and	r2,r15,r4
    d1f4:	8146703a 	and	r3,r16,r5
    d1f8:	10c4b03a 	or	r2,r2,r3
    d1fc:	10000226 	beq	r2,zero,d208 <_fpadd_parts+0xe0>
    d200:	02400044 	movi	r9,1
    d204:	0015883a 	mov	r10,zero
    d208:	5a5eb03a 	or	r15,r11,r9
    d20c:	62a0b03a 	or	r16,r12,r10
    d210:	99400117 	ldw	r5,4(r19)
    d214:	a8800117 	ldw	r2,4(r21)
    d218:	28806e26 	beq	r5,r2,d3d4 <_fpadd_parts+0x2ac>
    d21c:	28006626 	beq	r5,zero,d3b8 <_fpadd_parts+0x290>
    d220:	7c45c83a 	sub	r2,r15,r17
    d224:	7889803a 	cmpltu	r4,r15,r2
    d228:	8487c83a 	sub	r3,r16,r18
    d22c:	1909c83a 	sub	r4,r3,r4
    d230:	100d883a 	mov	r6,r2
    d234:	200f883a 	mov	r7,r4
    d238:	38007716 	blt	r7,zero,d418 <_fpadd_parts+0x2f0>
    d23c:	a5c00215 	stw	r23,8(r20)
    d240:	a1c00415 	stw	r7,16(r20)
    d244:	a0000115 	stw	zero,4(r20)
    d248:	a1800315 	stw	r6,12(r20)
    d24c:	a2000317 	ldw	r8,12(r20)
    d250:	a2400417 	ldw	r9,16(r20)
    d254:	00bfffc4 	movi	r2,-1
    d258:	408b883a 	add	r5,r8,r2
    d25c:	2a09803a 	cmpltu	r4,r5,r8
    d260:	488d883a 	add	r6,r9,r2
    d264:	01c40034 	movhi	r7,4096
    d268:	39ffffc4 	addi	r7,r7,-1
    d26c:	218d883a 	add	r6,r4,r6
    d270:	39801736 	bltu	r7,r6,d2d0 <_fpadd_parts+0x1a8>
    d274:	31c06526 	beq	r6,r7,d40c <_fpadd_parts+0x2e4>
    d278:	a3000217 	ldw	r12,8(r20)
    d27c:	4209883a 	add	r4,r8,r8
    d280:	00bfffc4 	movi	r2,-1
    d284:	220f803a 	cmpltu	r7,r4,r8
    d288:	4a4b883a 	add	r5,r9,r9
    d28c:	394f883a 	add	r7,r7,r5
    d290:	2095883a 	add	r10,r4,r2
    d294:	3897883a 	add	r11,r7,r2
    d298:	510d803a 	cmpltu	r6,r10,r4
    d29c:	6099883a 	add	r12,r12,r2
    d2a0:	32d7883a 	add	r11,r6,r11
    d2a4:	00840034 	movhi	r2,4096
    d2a8:	10bfffc4 	addi	r2,r2,-1
    d2ac:	2011883a 	mov	r8,r4
    d2b0:	3813883a 	mov	r9,r7
    d2b4:	a1000315 	stw	r4,12(r20)
    d2b8:	a1c00415 	stw	r7,16(r20)
    d2bc:	a3000215 	stw	r12,8(r20)
    d2c0:	12c00336 	bltu	r2,r11,d2d0 <_fpadd_parts+0x1a8>
    d2c4:	58bfed1e 	bne	r11,r2,d27c <_fpadd_parts+0x154>
    d2c8:	00bfff84 	movi	r2,-2
    d2cc:	12bfeb2e 	bgeu	r2,r10,d27c <_fpadd_parts+0x154>
    d2d0:	a2800417 	ldw	r10,16(r20)
    d2d4:	008000c4 	movi	r2,3
    d2d8:	00c80034 	movhi	r3,8192
    d2dc:	18ffffc4 	addi	r3,r3,-1
    d2e0:	a2400317 	ldw	r9,12(r20)
    d2e4:	a0800015 	stw	r2,0(r20)
    d2e8:	1a802336 	bltu	r3,r10,d378 <_fpadd_parts+0x250>
    d2ec:	a027883a 	mov	r19,r20
    d2f0:	9805883a 	mov	r2,r19
    d2f4:	ddc00717 	ldw	r23,28(sp)
    d2f8:	dd800617 	ldw	r22,24(sp)
    d2fc:	dd400517 	ldw	r21,20(sp)
    d300:	dd000417 	ldw	r20,16(sp)
    d304:	dcc00317 	ldw	r19,12(sp)
    d308:	dc800217 	ldw	r18,8(sp)
    d30c:	dc400117 	ldw	r17,4(sp)
    d310:	dc000017 	ldw	r16,0(sp)
    d314:	dec00804 	addi	sp,sp,32
    d318:	f800283a 	ret
    d31c:	20fff41e 	bne	r4,r3,d2f0 <_fpadd_parts+0x1c8>
    d320:	31000015 	stw	r4,0(r6)
    d324:	98800117 	ldw	r2,4(r19)
    d328:	30800115 	stw	r2,4(r6)
    d32c:	98c00217 	ldw	r3,8(r19)
    d330:	30c00215 	stw	r3,8(r6)
    d334:	98800317 	ldw	r2,12(r19)
    d338:	30800315 	stw	r2,12(r6)
    d33c:	98c00417 	ldw	r3,16(r19)
    d340:	30c00415 	stw	r3,16(r6)
    d344:	98800117 	ldw	r2,4(r19)
    d348:	28c00117 	ldw	r3,4(r5)
    d34c:	3027883a 	mov	r19,r6
    d350:	10c4703a 	and	r2,r2,r3
    d354:	30800115 	stw	r2,4(r6)
    d358:	003fe506 	br	d2f0 <_fpadd_parts+0x1c8>
    d35c:	1dc02616 	blt	r3,r23,d3f8 <_fpadd_parts+0x2d0>
    d360:	0023883a 	mov	r17,zero
    d364:	182f883a 	mov	r23,r3
    d368:	0025883a 	mov	r18,zero
    d36c:	003fa806 	br	d210 <_fpadd_parts+0xe8>
    d370:	a827883a 	mov	r19,r21
    d374:	003fde06 	br	d2f0 <_fpadd_parts+0x1c8>
    d378:	01800044 	movi	r6,1
    d37c:	500497fa 	slli	r2,r10,31
    d380:	4808d07a 	srli	r4,r9,1
    d384:	518ad83a 	srl	r5,r10,r6
    d388:	a2000217 	ldw	r8,8(r20)
    d38c:	1108b03a 	or	r4,r2,r4
    d390:	0007883a 	mov	r3,zero
    d394:	4984703a 	and	r2,r9,r6
    d398:	208cb03a 	or	r6,r4,r2
    d39c:	28ceb03a 	or	r7,r5,r3
    d3a0:	42000044 	addi	r8,r8,1
    d3a4:	a027883a 	mov	r19,r20
    d3a8:	a1c00415 	stw	r7,16(r20)
    d3ac:	a2000215 	stw	r8,8(r20)
    d3b0:	a1800315 	stw	r6,12(r20)
    d3b4:	003fce06 	br	d2f0 <_fpadd_parts+0x1c8>
    d3b8:	8bc5c83a 	sub	r2,r17,r15
    d3bc:	8889803a 	cmpltu	r4,r17,r2
    d3c0:	9407c83a 	sub	r3,r18,r16
    d3c4:	1909c83a 	sub	r4,r3,r4
    d3c8:	100d883a 	mov	r6,r2
    d3cc:	200f883a 	mov	r7,r4
    d3d0:	003f9906 	br	d238 <_fpadd_parts+0x110>
    d3d4:	7c45883a 	add	r2,r15,r17
    d3d8:	13c9803a 	cmpltu	r4,r2,r15
    d3dc:	8487883a 	add	r3,r16,r18
    d3e0:	20c9883a 	add	r4,r4,r3
    d3e4:	a1400115 	stw	r5,4(r20)
    d3e8:	a5c00215 	stw	r23,8(r20)
    d3ec:	a0800315 	stw	r2,12(r20)
    d3f0:	a1000415 	stw	r4,16(r20)
    d3f4:	003fb606 	br	d2d0 <_fpadd_parts+0x1a8>
    d3f8:	001f883a 	mov	r15,zero
    d3fc:	0021883a 	mov	r16,zero
    d400:	003f8306 	br	d210 <_fpadd_parts+0xe8>
    d404:	018dc83a 	sub	r6,zero,r6
    d408:	003f6706 	br	d1a8 <_fpadd_parts+0x80>
    d40c:	00bfff84 	movi	r2,-2
    d410:	117faf36 	bltu	r2,r5,d2d0 <_fpadd_parts+0x1a8>
    d414:	003f9806 	br	d278 <_fpadd_parts+0x150>
    d418:	0005883a 	mov	r2,zero
    d41c:	1189c83a 	sub	r4,r2,r6
    d420:	1105803a 	cmpltu	r2,r2,r4
    d424:	01cbc83a 	sub	r5,zero,r7
    d428:	2885c83a 	sub	r2,r5,r2
    d42c:	01800044 	movi	r6,1
    d430:	a1800115 	stw	r6,4(r20)
    d434:	a5c00215 	stw	r23,8(r20)
    d438:	a1000315 	stw	r4,12(r20)
    d43c:	a0800415 	stw	r2,16(r20)
    d440:	003f8206 	br	d24c <_fpadd_parts+0x124>
    d444:	203f7226 	beq	r4,zero,d210 <_fpadd_parts+0xe8>
    d448:	35bff804 	addi	r22,r6,-32
    d44c:	b9af883a 	add	r23,r23,r6
    d450:	b0003116 	blt	r22,zero,d518 <_fpadd_parts+0x3f0>
    d454:	959ad83a 	srl	r13,r18,r22
    d458:	001d883a 	mov	r14,zero
    d45c:	000f883a 	mov	r7,zero
    d460:	01000044 	movi	r4,1
    d464:	0011883a 	mov	r8,zero
    d468:	b0002516 	blt	r22,zero,d500 <_fpadd_parts+0x3d8>
    d46c:	2594983a 	sll	r10,r4,r22
    d470:	0013883a 	mov	r9,zero
    d474:	00bfffc4 	movi	r2,-1
    d478:	4889883a 	add	r4,r9,r2
    d47c:	508b883a 	add	r5,r10,r2
    d480:	224d803a 	cmpltu	r6,r4,r9
    d484:	314b883a 	add	r5,r6,r5
    d488:	8904703a 	and	r2,r17,r4
    d48c:	9146703a 	and	r3,r18,r5
    d490:	10c4b03a 	or	r2,r2,r3
    d494:	10000226 	beq	r2,zero,d4a0 <_fpadd_parts+0x378>
    d498:	01c00044 	movi	r7,1
    d49c:	0011883a 	mov	r8,zero
    d4a0:	69e2b03a 	or	r17,r13,r7
    d4a4:	7224b03a 	or	r18,r14,r8
    d4a8:	003f5906 	br	d210 <_fpadd_parts+0xe8>
    d4ac:	8407883a 	add	r3,r16,r16
    d4b0:	008007c4 	movi	r2,31
    d4b4:	1185c83a 	sub	r2,r2,r6
    d4b8:	1886983a 	sll	r3,r3,r2
    d4bc:	7996d83a 	srl	r11,r15,r6
    d4c0:	8198d83a 	srl	r12,r16,r6
    d4c4:	1ad6b03a 	or	r11,r3,r11
    d4c8:	003f3e06 	br	d1c4 <_fpadd_parts+0x9c>
    d4cc:	2006d07a 	srli	r3,r4,1
    d4d0:	008007c4 	movi	r2,31
    d4d4:	1185c83a 	sub	r2,r2,r6
    d4d8:	1890d83a 	srl	r8,r3,r2
    d4dc:	218e983a 	sll	r7,r4,r6
    d4e0:	003f3e06 	br	d1dc <_fpadd_parts+0xb4>
    d4e4:	113f821e 	bne	r2,r4,d2f0 <_fpadd_parts+0x1c8>
    d4e8:	28c00117 	ldw	r3,4(r5)
    d4ec:	98800117 	ldw	r2,4(r19)
    d4f0:	10ff7f26 	beq	r2,r3,d2f0 <_fpadd_parts+0x1c8>
    d4f4:	04c20034 	movhi	r19,2048
    d4f8:	9cc09d04 	addi	r19,r19,628
    d4fc:	003f7c06 	br	d2f0 <_fpadd_parts+0x1c8>
    d500:	2006d07a 	srli	r3,r4,1
    d504:	008007c4 	movi	r2,31
    d508:	1185c83a 	sub	r2,r2,r6
    d50c:	1894d83a 	srl	r10,r3,r2
    d510:	2192983a 	sll	r9,r4,r6
    d514:	003fd706 	br	d474 <_fpadd_parts+0x34c>
    d518:	9487883a 	add	r3,r18,r18
    d51c:	008007c4 	movi	r2,31
    d520:	1185c83a 	sub	r2,r2,r6
    d524:	1886983a 	sll	r3,r3,r2
    d528:	899ad83a 	srl	r13,r17,r6
    d52c:	919cd83a 	srl	r14,r18,r6
    d530:	1b5ab03a 	or	r13,r3,r13
    d534:	003fc906 	br	d45c <_fpadd_parts+0x334>

0000d538 <__subdf3>:
    d538:	deffea04 	addi	sp,sp,-88
    d53c:	dcc01415 	stw	r19,80(sp)
    d540:	dcc00404 	addi	r19,sp,16
    d544:	2011883a 	mov	r8,r4
    d548:	2813883a 	mov	r9,r5
    d54c:	dc401315 	stw	r17,76(sp)
    d550:	d809883a 	mov	r4,sp
    d554:	980b883a 	mov	r5,r19
    d558:	dc400904 	addi	r17,sp,36
    d55c:	dfc01515 	stw	ra,84(sp)
    d560:	da400115 	stw	r9,4(sp)
    d564:	d9c00315 	stw	r7,12(sp)
    d568:	da000015 	stw	r8,0(sp)
    d56c:	d9800215 	stw	r6,8(sp)
    d570:	000e7cc0 	call	e7cc <__unpack_d>
    d574:	d9000204 	addi	r4,sp,8
    d578:	880b883a 	mov	r5,r17
    d57c:	000e7cc0 	call	e7cc <__unpack_d>
    d580:	d8800a17 	ldw	r2,40(sp)
    d584:	880b883a 	mov	r5,r17
    d588:	9809883a 	mov	r4,r19
    d58c:	d9800e04 	addi	r6,sp,56
    d590:	1080005c 	xori	r2,r2,1
    d594:	d8800a15 	stw	r2,40(sp)
    d598:	000d1280 	call	d128 <_fpadd_parts>
    d59c:	1009883a 	mov	r4,r2
    d5a0:	000e4b80 	call	e4b8 <__pack_d>
    d5a4:	dfc01517 	ldw	ra,84(sp)
    d5a8:	dcc01417 	ldw	r19,80(sp)
    d5ac:	dc401317 	ldw	r17,76(sp)
    d5b0:	dec01604 	addi	sp,sp,88
    d5b4:	f800283a 	ret

0000d5b8 <__adddf3>:
    d5b8:	deffea04 	addi	sp,sp,-88
    d5bc:	dcc01415 	stw	r19,80(sp)
    d5c0:	dcc00404 	addi	r19,sp,16
    d5c4:	2011883a 	mov	r8,r4
    d5c8:	2813883a 	mov	r9,r5
    d5cc:	dc401315 	stw	r17,76(sp)
    d5d0:	d809883a 	mov	r4,sp
    d5d4:	980b883a 	mov	r5,r19
    d5d8:	dc400904 	addi	r17,sp,36
    d5dc:	dfc01515 	stw	ra,84(sp)
    d5e0:	da400115 	stw	r9,4(sp)
    d5e4:	d9c00315 	stw	r7,12(sp)
    d5e8:	da000015 	stw	r8,0(sp)
    d5ec:	d9800215 	stw	r6,8(sp)
    d5f0:	000e7cc0 	call	e7cc <__unpack_d>
    d5f4:	d9000204 	addi	r4,sp,8
    d5f8:	880b883a 	mov	r5,r17
    d5fc:	000e7cc0 	call	e7cc <__unpack_d>
    d600:	d9800e04 	addi	r6,sp,56
    d604:	9809883a 	mov	r4,r19
    d608:	880b883a 	mov	r5,r17
    d60c:	000d1280 	call	d128 <_fpadd_parts>
    d610:	1009883a 	mov	r4,r2
    d614:	000e4b80 	call	e4b8 <__pack_d>
    d618:	dfc01517 	ldw	ra,84(sp)
    d61c:	dcc01417 	ldw	r19,80(sp)
    d620:	dc401317 	ldw	r17,76(sp)
    d624:	dec01604 	addi	sp,sp,88
    d628:	f800283a 	ret

0000d62c <__muldf3>:
    d62c:	deffe004 	addi	sp,sp,-128
    d630:	dc401815 	stw	r17,96(sp)
    d634:	dc400404 	addi	r17,sp,16
    d638:	2011883a 	mov	r8,r4
    d63c:	2813883a 	mov	r9,r5
    d640:	dc001715 	stw	r16,92(sp)
    d644:	d809883a 	mov	r4,sp
    d648:	880b883a 	mov	r5,r17
    d64c:	dc000904 	addi	r16,sp,36
    d650:	dfc01f15 	stw	ra,124(sp)
    d654:	da400115 	stw	r9,4(sp)
    d658:	d9c00315 	stw	r7,12(sp)
    d65c:	da000015 	stw	r8,0(sp)
    d660:	d9800215 	stw	r6,8(sp)
    d664:	ddc01e15 	stw	r23,120(sp)
    d668:	dd801d15 	stw	r22,116(sp)
    d66c:	dd401c15 	stw	r21,112(sp)
    d670:	dd001b15 	stw	r20,108(sp)
    d674:	dcc01a15 	stw	r19,104(sp)
    d678:	dc801915 	stw	r18,100(sp)
    d67c:	000e7cc0 	call	e7cc <__unpack_d>
    d680:	d9000204 	addi	r4,sp,8
    d684:	800b883a 	mov	r5,r16
    d688:	000e7cc0 	call	e7cc <__unpack_d>
    d68c:	d9000417 	ldw	r4,16(sp)
    d690:	00800044 	movi	r2,1
    d694:	1100102e 	bgeu	r2,r4,d6d8 <__muldf3+0xac>
    d698:	d8c00917 	ldw	r3,36(sp)
    d69c:	10c0062e 	bgeu	r2,r3,d6b8 <__muldf3+0x8c>
    d6a0:	00800104 	movi	r2,4
    d6a4:	20800a26 	beq	r4,r2,d6d0 <__muldf3+0xa4>
    d6a8:	1880cc26 	beq	r3,r2,d9dc <__muldf3+0x3b0>
    d6ac:	00800084 	movi	r2,2
    d6b0:	20800926 	beq	r4,r2,d6d8 <__muldf3+0xac>
    d6b4:	1880191e 	bne	r3,r2,d71c <__muldf3+0xf0>
    d6b8:	d8c00a17 	ldw	r3,40(sp)
    d6bc:	d8800517 	ldw	r2,20(sp)
    d6c0:	8009883a 	mov	r4,r16
    d6c4:	10c4c03a 	cmpne	r2,r2,r3
    d6c8:	d8800a15 	stw	r2,40(sp)
    d6cc:	00000706 	br	d6ec <__muldf3+0xc0>
    d6d0:	00800084 	movi	r2,2
    d6d4:	1880c326 	beq	r3,r2,d9e4 <__muldf3+0x3b8>
    d6d8:	d8800517 	ldw	r2,20(sp)
    d6dc:	d8c00a17 	ldw	r3,40(sp)
    d6e0:	8809883a 	mov	r4,r17
    d6e4:	10c4c03a 	cmpne	r2,r2,r3
    d6e8:	d8800515 	stw	r2,20(sp)
    d6ec:	000e4b80 	call	e4b8 <__pack_d>
    d6f0:	dfc01f17 	ldw	ra,124(sp)
    d6f4:	ddc01e17 	ldw	r23,120(sp)
    d6f8:	dd801d17 	ldw	r22,116(sp)
    d6fc:	dd401c17 	ldw	r21,112(sp)
    d700:	dd001b17 	ldw	r20,108(sp)
    d704:	dcc01a17 	ldw	r19,104(sp)
    d708:	dc801917 	ldw	r18,100(sp)
    d70c:	dc401817 	ldw	r17,96(sp)
    d710:	dc001717 	ldw	r16,92(sp)
    d714:	dec02004 	addi	sp,sp,128
    d718:	f800283a 	ret
    d71c:	dd800717 	ldw	r22,28(sp)
    d720:	dc800c17 	ldw	r18,48(sp)
    d724:	002b883a 	mov	r21,zero
    d728:	0023883a 	mov	r17,zero
    d72c:	a80b883a 	mov	r5,r21
    d730:	b00d883a 	mov	r6,r22
    d734:	880f883a 	mov	r7,r17
    d738:	ddc00817 	ldw	r23,32(sp)
    d73c:	dcc00d17 	ldw	r19,52(sp)
    d740:	9009883a 	mov	r4,r18
    d744:	000e3a00 	call	e3a0 <__muldi3>
    d748:	001b883a 	mov	r13,zero
    d74c:	680f883a 	mov	r7,r13
    d750:	b009883a 	mov	r4,r22
    d754:	000b883a 	mov	r5,zero
    d758:	980d883a 	mov	r6,r19
    d75c:	b82d883a 	mov	r22,r23
    d760:	002f883a 	mov	r23,zero
    d764:	db401615 	stw	r13,88(sp)
    d768:	d8801315 	stw	r2,76(sp)
    d76c:	d8c01415 	stw	r3,80(sp)
    d770:	dcc01515 	stw	r19,84(sp)
    d774:	000e3a00 	call	e3a0 <__muldi3>
    d778:	b00d883a 	mov	r6,r22
    d77c:	000b883a 	mov	r5,zero
    d780:	9009883a 	mov	r4,r18
    d784:	b80f883a 	mov	r7,r23
    d788:	1021883a 	mov	r16,r2
    d78c:	1823883a 	mov	r17,r3
    d790:	000e3a00 	call	e3a0 <__muldi3>
    d794:	8085883a 	add	r2,r16,r2
    d798:	140d803a 	cmpltu	r6,r2,r16
    d79c:	88c7883a 	add	r3,r17,r3
    d7a0:	30cd883a 	add	r6,r6,r3
    d7a4:	1029883a 	mov	r20,r2
    d7a8:	302b883a 	mov	r21,r6
    d7ac:	da801317 	ldw	r10,76(sp)
    d7b0:	dac01417 	ldw	r11,80(sp)
    d7b4:	db001517 	ldw	r12,84(sp)
    d7b8:	db401617 	ldw	r13,88(sp)
    d7bc:	3440612e 	bgeu	r6,r17,d944 <__muldf3+0x318>
    d7c0:	0009883a 	mov	r4,zero
    d7c4:	5105883a 	add	r2,r10,r4
    d7c8:	128d803a 	cmpltu	r6,r2,r10
    d7cc:	5d07883a 	add	r3,r11,r20
    d7d0:	30cd883a 	add	r6,r6,r3
    d7d4:	0021883a 	mov	r16,zero
    d7d8:	04400044 	movi	r17,1
    d7dc:	1025883a 	mov	r18,r2
    d7e0:	3027883a 	mov	r19,r6
    d7e4:	32c06236 	bltu	r6,r11,d970 <__muldf3+0x344>
    d7e8:	59807a26 	beq	r11,r6,d9d4 <__muldf3+0x3a8>
    d7ec:	680b883a 	mov	r5,r13
    d7f0:	b80f883a 	mov	r7,r23
    d7f4:	6009883a 	mov	r4,r12
    d7f8:	b00d883a 	mov	r6,r22
    d7fc:	000e3a00 	call	e3a0 <__muldi3>
    d800:	1009883a 	mov	r4,r2
    d804:	000f883a 	mov	r7,zero
    d808:	1545883a 	add	r2,r2,r21
    d80c:	1111803a 	cmpltu	r8,r2,r4
    d810:	19c7883a 	add	r3,r3,r7
    d814:	40c7883a 	add	r3,r8,r3
    d818:	88cb883a 	add	r5,r17,r3
    d81c:	d8c00617 	ldw	r3,24(sp)
    d820:	8089883a 	add	r4,r16,r2
    d824:	d8800b17 	ldw	r2,44(sp)
    d828:	18c00104 	addi	r3,r3,4
    d82c:	240d803a 	cmpltu	r6,r4,r16
    d830:	10c7883a 	add	r3,r2,r3
    d834:	2013883a 	mov	r9,r4
    d838:	d8800a17 	ldw	r2,40(sp)
    d83c:	d9000517 	ldw	r4,20(sp)
    d840:	314d883a 	add	r6,r6,r5
    d844:	3015883a 	mov	r10,r6
    d848:	2088c03a 	cmpne	r4,r4,r2
    d84c:	00880034 	movhi	r2,8192
    d850:	10bfffc4 	addi	r2,r2,-1
    d854:	d9000f15 	stw	r4,60(sp)
    d858:	d8c01015 	stw	r3,64(sp)
    d85c:	1180162e 	bgeu	r2,r6,d8b8 <__muldf3+0x28c>
    d860:	1811883a 	mov	r8,r3
    d864:	101f883a 	mov	r15,r2
    d868:	980497fa 	slli	r2,r19,31
    d86c:	9016d07a 	srli	r11,r18,1
    d870:	500697fa 	slli	r3,r10,31
    d874:	480cd07a 	srli	r6,r9,1
    d878:	500ed07a 	srli	r7,r10,1
    d87c:	12d6b03a 	or	r11,r2,r11
    d880:	00800044 	movi	r2,1
    d884:	198cb03a 	or	r6,r3,r6
    d888:	4888703a 	and	r4,r9,r2
    d88c:	9818d07a 	srli	r12,r19,1
    d890:	001b883a 	mov	r13,zero
    d894:	03a00034 	movhi	r14,32768
    d898:	3013883a 	mov	r9,r6
    d89c:	3815883a 	mov	r10,r7
    d8a0:	4091883a 	add	r8,r8,r2
    d8a4:	20000226 	beq	r4,zero,d8b0 <__muldf3+0x284>
    d8a8:	5b64b03a 	or	r18,r11,r13
    d8ac:	63a6b03a 	or	r19,r12,r14
    d8b0:	7abfed36 	bltu	r15,r10,d868 <__muldf3+0x23c>
    d8b4:	da001015 	stw	r8,64(sp)
    d8b8:	00840034 	movhi	r2,4096
    d8bc:	10bfffc4 	addi	r2,r2,-1
    d8c0:	12801436 	bltu	r2,r10,d914 <__muldf3+0x2e8>
    d8c4:	da001017 	ldw	r8,64(sp)
    d8c8:	101f883a 	mov	r15,r2
    d8cc:	4a45883a 	add	r2,r9,r9
    d8d0:	124d803a 	cmpltu	r6,r2,r9
    d8d4:	5287883a 	add	r3,r10,r10
    d8d8:	9497883a 	add	r11,r18,r18
    d8dc:	5c8f803a 	cmpltu	r7,r11,r18
    d8e0:	9cd9883a 	add	r12,r19,r19
    d8e4:	01000044 	movi	r4,1
    d8e8:	30cd883a 	add	r6,r6,r3
    d8ec:	3b0f883a 	add	r7,r7,r12
    d8f0:	423fffc4 	addi	r8,r8,-1
    d8f4:	1013883a 	mov	r9,r2
    d8f8:	3015883a 	mov	r10,r6
    d8fc:	111ab03a 	or	r13,r2,r4
    d900:	98003016 	blt	r19,zero,d9c4 <__muldf3+0x398>
    d904:	5825883a 	mov	r18,r11
    d908:	3827883a 	mov	r19,r7
    d90c:	7abfef2e 	bgeu	r15,r10,d8cc <__muldf3+0x2a0>
    d910:	da001015 	stw	r8,64(sp)
    d914:	00803fc4 	movi	r2,255
    d918:	488e703a 	and	r7,r9,r2
    d91c:	00802004 	movi	r2,128
    d920:	0007883a 	mov	r3,zero
    d924:	0011883a 	mov	r8,zero
    d928:	38801826 	beq	r7,r2,d98c <__muldf3+0x360>
    d92c:	008000c4 	movi	r2,3
    d930:	d9000e04 	addi	r4,sp,56
    d934:	da801215 	stw	r10,72(sp)
    d938:	d8800e15 	stw	r2,56(sp)
    d93c:	da401115 	stw	r9,68(sp)
    d940:	003f6a06 	br	d6ec <__muldf3+0xc0>
    d944:	89802126 	beq	r17,r6,d9cc <__muldf3+0x3a0>
    d948:	0009883a 	mov	r4,zero
    d94c:	5105883a 	add	r2,r10,r4
    d950:	128d803a 	cmpltu	r6,r2,r10
    d954:	5d07883a 	add	r3,r11,r20
    d958:	30cd883a 	add	r6,r6,r3
    d95c:	0021883a 	mov	r16,zero
    d960:	0023883a 	mov	r17,zero
    d964:	1025883a 	mov	r18,r2
    d968:	3027883a 	mov	r19,r6
    d96c:	32ff9e2e 	bgeu	r6,r11,d7e8 <__muldf3+0x1bc>
    d970:	00800044 	movi	r2,1
    d974:	8089883a 	add	r4,r16,r2
    d978:	240d803a 	cmpltu	r6,r4,r16
    d97c:	344d883a 	add	r6,r6,r17
    d980:	2021883a 	mov	r16,r4
    d984:	3023883a 	mov	r17,r6
    d988:	003f9806 	br	d7ec <__muldf3+0x1c0>
    d98c:	403fe71e 	bne	r8,zero,d92c <__muldf3+0x300>
    d990:	01004004 	movi	r4,256
    d994:	4904703a 	and	r2,r9,r4
    d998:	10c4b03a 	or	r2,r2,r3
    d99c:	103fe31e 	bne	r2,zero,d92c <__muldf3+0x300>
    d9a0:	94c4b03a 	or	r2,r18,r19
    d9a4:	103fe126 	beq	r2,zero,d92c <__muldf3+0x300>
    d9a8:	49c5883a 	add	r2,r9,r7
    d9ac:	1251803a 	cmpltu	r8,r2,r9
    d9b0:	4291883a 	add	r8,r8,r10
    d9b4:	013fc004 	movi	r4,-256
    d9b8:	1112703a 	and	r9,r2,r4
    d9bc:	4015883a 	mov	r10,r8
    d9c0:	003fda06 	br	d92c <__muldf3+0x300>
    d9c4:	6813883a 	mov	r9,r13
    d9c8:	003fce06 	br	d904 <__muldf3+0x2d8>
    d9cc:	143f7c36 	bltu	r2,r16,d7c0 <__muldf3+0x194>
    d9d0:	003fdd06 	br	d948 <__muldf3+0x31c>
    d9d4:	12bf852e 	bgeu	r2,r10,d7ec <__muldf3+0x1c0>
    d9d8:	003fe506 	br	d970 <__muldf3+0x344>
    d9dc:	00800084 	movi	r2,2
    d9e0:	20bf351e 	bne	r4,r2,d6b8 <__muldf3+0x8c>
    d9e4:	01020034 	movhi	r4,2048
    d9e8:	21009d04 	addi	r4,r4,628
    d9ec:	003f3f06 	br	d6ec <__muldf3+0xc0>

0000d9f0 <__divdf3>:
    d9f0:	deffed04 	addi	sp,sp,-76
    d9f4:	dcc01115 	stw	r19,68(sp)
    d9f8:	dcc00404 	addi	r19,sp,16
    d9fc:	2011883a 	mov	r8,r4
    da00:	2813883a 	mov	r9,r5
    da04:	dc000e15 	stw	r16,56(sp)
    da08:	d809883a 	mov	r4,sp
    da0c:	980b883a 	mov	r5,r19
    da10:	dc000904 	addi	r16,sp,36
    da14:	dfc01215 	stw	ra,72(sp)
    da18:	da400115 	stw	r9,4(sp)
    da1c:	d9c00315 	stw	r7,12(sp)
    da20:	da000015 	stw	r8,0(sp)
    da24:	d9800215 	stw	r6,8(sp)
    da28:	dc801015 	stw	r18,64(sp)
    da2c:	dc400f15 	stw	r17,60(sp)
    da30:	000e7cc0 	call	e7cc <__unpack_d>
    da34:	d9000204 	addi	r4,sp,8
    da38:	800b883a 	mov	r5,r16
    da3c:	000e7cc0 	call	e7cc <__unpack_d>
    da40:	d9000417 	ldw	r4,16(sp)
    da44:	00800044 	movi	r2,1
    da48:	11000b2e 	bgeu	r2,r4,da78 <__divdf3+0x88>
    da4c:	d9400917 	ldw	r5,36(sp)
    da50:	1140762e 	bgeu	r2,r5,dc2c <__divdf3+0x23c>
    da54:	d8800517 	ldw	r2,20(sp)
    da58:	d8c00a17 	ldw	r3,40(sp)
    da5c:	01800104 	movi	r6,4
    da60:	10c4f03a 	xor	r2,r2,r3
    da64:	d8800515 	stw	r2,20(sp)
    da68:	21800226 	beq	r4,r6,da74 <__divdf3+0x84>
    da6c:	00800084 	movi	r2,2
    da70:	2080141e 	bne	r4,r2,dac4 <__divdf3+0xd4>
    da74:	29000926 	beq	r5,r4,da9c <__divdf3+0xac>
    da78:	9809883a 	mov	r4,r19
    da7c:	000e4b80 	call	e4b8 <__pack_d>
    da80:	dfc01217 	ldw	ra,72(sp)
    da84:	dcc01117 	ldw	r19,68(sp)
    da88:	dc801017 	ldw	r18,64(sp)
    da8c:	dc400f17 	ldw	r17,60(sp)
    da90:	dc000e17 	ldw	r16,56(sp)
    da94:	dec01304 	addi	sp,sp,76
    da98:	f800283a 	ret
    da9c:	01020034 	movhi	r4,2048
    daa0:	21009d04 	addi	r4,r4,628
    daa4:	000e4b80 	call	e4b8 <__pack_d>
    daa8:	dfc01217 	ldw	ra,72(sp)
    daac:	dcc01117 	ldw	r19,68(sp)
    dab0:	dc801017 	ldw	r18,64(sp)
    dab4:	dc400f17 	ldw	r17,60(sp)
    dab8:	dc000e17 	ldw	r16,56(sp)
    dabc:	dec01304 	addi	sp,sp,76
    dac0:	f800283a 	ret
    dac4:	29805b26 	beq	r5,r6,dc34 <__divdf3+0x244>
    dac8:	28802d26 	beq	r5,r2,db80 <__divdf3+0x190>
    dacc:	d8c00617 	ldw	r3,24(sp)
    dad0:	d8800b17 	ldw	r2,44(sp)
    dad4:	d9c00817 	ldw	r7,32(sp)
    dad8:	dc400d17 	ldw	r17,52(sp)
    dadc:	188bc83a 	sub	r5,r3,r2
    dae0:	d9800717 	ldw	r6,28(sp)
    dae4:	dc000c17 	ldw	r16,48(sp)
    dae8:	d9400615 	stw	r5,24(sp)
    daec:	3c403836 	bltu	r7,r17,dbd0 <__divdf3+0x1e0>
    daf0:	89c03626 	beq	r17,r7,dbcc <__divdf3+0x1dc>
    daf4:	0015883a 	mov	r10,zero
    daf8:	001d883a 	mov	r14,zero
    dafc:	02c40034 	movhi	r11,4096
    db00:	001f883a 	mov	r15,zero
    db04:	003f883a 	mov	ra,zero
    db08:	04800f44 	movi	r18,61
    db0c:	00000f06 	br	db4c <__divdf3+0x15c>
    db10:	601d883a 	mov	r14,r12
    db14:	681f883a 	mov	r15,r13
    db18:	400d883a 	mov	r6,r8
    db1c:	100f883a 	mov	r7,r2
    db20:	3191883a 	add	r8,r6,r6
    db24:	5808d07a 	srli	r4,r11,1
    db28:	4185803a 	cmpltu	r2,r8,r6
    db2c:	39d3883a 	add	r9,r7,r7
    db30:	28c6b03a 	or	r3,r5,r3
    db34:	1245883a 	add	r2,r2,r9
    db38:	1815883a 	mov	r10,r3
    db3c:	2017883a 	mov	r11,r4
    db40:	400d883a 	mov	r6,r8
    db44:	100f883a 	mov	r7,r2
    db48:	fc801726 	beq	ra,r18,dba8 <__divdf3+0x1b8>
    db4c:	580a97fa 	slli	r5,r11,31
    db50:	5006d07a 	srli	r3,r10,1
    db54:	ffc00044 	addi	ra,ra,1
    db58:	3c7ff136 	bltu	r7,r17,db20 <__divdf3+0x130>
    db5c:	3411c83a 	sub	r8,r6,r16
    db60:	3205803a 	cmpltu	r2,r6,r8
    db64:	3c53c83a 	sub	r9,r7,r17
    db68:	7298b03a 	or	r12,r14,r10
    db6c:	7adab03a 	or	r13,r15,r11
    db70:	4885c83a 	sub	r2,r9,r2
    db74:	89ffe61e 	bne	r17,r7,db10 <__divdf3+0x120>
    db78:	343fe936 	bltu	r6,r16,db20 <__divdf3+0x130>
    db7c:	003fe406 	br	db10 <__divdf3+0x120>
    db80:	9809883a 	mov	r4,r19
    db84:	d9800415 	stw	r6,16(sp)
    db88:	000e4b80 	call	e4b8 <__pack_d>
    db8c:	dfc01217 	ldw	ra,72(sp)
    db90:	dcc01117 	ldw	r19,68(sp)
    db94:	dc801017 	ldw	r18,64(sp)
    db98:	dc400f17 	ldw	r17,60(sp)
    db9c:	dc000e17 	ldw	r16,56(sp)
    dba0:	dec01304 	addi	sp,sp,76
    dba4:	f800283a 	ret
    dba8:	00803fc4 	movi	r2,255
    dbac:	7090703a 	and	r8,r14,r2
    dbb0:	00802004 	movi	r2,128
    dbb4:	0007883a 	mov	r3,zero
    dbb8:	0013883a 	mov	r9,zero
    dbbc:	40800d26 	beq	r8,r2,dbf4 <__divdf3+0x204>
    dbc0:	dbc00815 	stw	r15,32(sp)
    dbc4:	db800715 	stw	r14,28(sp)
    dbc8:	003fab06 	br	da78 <__divdf3+0x88>
    dbcc:	343fc92e 	bgeu	r6,r16,daf4 <__divdf3+0x104>
    dbd0:	3185883a 	add	r2,r6,r6
    dbd4:	1189803a 	cmpltu	r4,r2,r6
    dbd8:	39c7883a 	add	r3,r7,r7
    dbdc:	20c9883a 	add	r4,r4,r3
    dbe0:	297fffc4 	addi	r5,r5,-1
    dbe4:	100d883a 	mov	r6,r2
    dbe8:	200f883a 	mov	r7,r4
    dbec:	d9400615 	stw	r5,24(sp)
    dbf0:	003fc006 	br	daf4 <__divdf3+0x104>
    dbf4:	483ff21e 	bne	r9,zero,dbc0 <__divdf3+0x1d0>
    dbf8:	01004004 	movi	r4,256
    dbfc:	7104703a 	and	r2,r14,r4
    dc00:	10c4b03a 	or	r2,r2,r3
    dc04:	103fee1e 	bne	r2,zero,dbc0 <__divdf3+0x1d0>
    dc08:	31c4b03a 	or	r2,r6,r7
    dc0c:	103fec26 	beq	r2,zero,dbc0 <__divdf3+0x1d0>
    dc10:	7205883a 	add	r2,r14,r8
    dc14:	1391803a 	cmpltu	r8,r2,r14
    dc18:	43d1883a 	add	r8,r8,r15
    dc1c:	013fc004 	movi	r4,-256
    dc20:	111c703a 	and	r14,r2,r4
    dc24:	401f883a 	mov	r15,r8
    dc28:	003fe506 	br	dbc0 <__divdf3+0x1d0>
    dc2c:	8009883a 	mov	r4,r16
    dc30:	003f9206 	br	da7c <__divdf3+0x8c>
    dc34:	9809883a 	mov	r4,r19
    dc38:	d8000715 	stw	zero,28(sp)
    dc3c:	d8000815 	stw	zero,32(sp)
    dc40:	d8000615 	stw	zero,24(sp)
    dc44:	003f8d06 	br	da7c <__divdf3+0x8c>

0000dc48 <__eqdf2>:
    dc48:	deffef04 	addi	sp,sp,-68
    dc4c:	dc400f15 	stw	r17,60(sp)
    dc50:	dc400404 	addi	r17,sp,16
    dc54:	2005883a 	mov	r2,r4
    dc58:	2807883a 	mov	r3,r5
    dc5c:	dc000e15 	stw	r16,56(sp)
    dc60:	d809883a 	mov	r4,sp
    dc64:	880b883a 	mov	r5,r17
    dc68:	dc000904 	addi	r16,sp,36
    dc6c:	d8c00115 	stw	r3,4(sp)
    dc70:	d8800015 	stw	r2,0(sp)
    dc74:	d9800215 	stw	r6,8(sp)
    dc78:	dfc01015 	stw	ra,64(sp)
    dc7c:	d9c00315 	stw	r7,12(sp)
    dc80:	000e7cc0 	call	e7cc <__unpack_d>
    dc84:	d9000204 	addi	r4,sp,8
    dc88:	800b883a 	mov	r5,r16
    dc8c:	000e7cc0 	call	e7cc <__unpack_d>
    dc90:	d8800417 	ldw	r2,16(sp)
    dc94:	00c00044 	movi	r3,1
    dc98:	180d883a 	mov	r6,r3
    dc9c:	1880062e 	bgeu	r3,r2,dcb8 <__eqdf2+0x70>
    dca0:	d8800917 	ldw	r2,36(sp)
    dca4:	8809883a 	mov	r4,r17
    dca8:	800b883a 	mov	r5,r16
    dcac:	1880022e 	bgeu	r3,r2,dcb8 <__eqdf2+0x70>
    dcb0:	000e9040 	call	e904 <__fpcmp_parts_d>
    dcb4:	100d883a 	mov	r6,r2
    dcb8:	3005883a 	mov	r2,r6
    dcbc:	dfc01017 	ldw	ra,64(sp)
    dcc0:	dc400f17 	ldw	r17,60(sp)
    dcc4:	dc000e17 	ldw	r16,56(sp)
    dcc8:	dec01104 	addi	sp,sp,68
    dccc:	f800283a 	ret

0000dcd0 <__nedf2>:
    dcd0:	deffef04 	addi	sp,sp,-68
    dcd4:	dc400f15 	stw	r17,60(sp)
    dcd8:	dc400404 	addi	r17,sp,16
    dcdc:	2005883a 	mov	r2,r4
    dce0:	2807883a 	mov	r3,r5
    dce4:	dc000e15 	stw	r16,56(sp)
    dce8:	d809883a 	mov	r4,sp
    dcec:	880b883a 	mov	r5,r17
    dcf0:	dc000904 	addi	r16,sp,36
    dcf4:	d8c00115 	stw	r3,4(sp)
    dcf8:	d8800015 	stw	r2,0(sp)
    dcfc:	d9800215 	stw	r6,8(sp)
    dd00:	dfc01015 	stw	ra,64(sp)
    dd04:	d9c00315 	stw	r7,12(sp)
    dd08:	000e7cc0 	call	e7cc <__unpack_d>
    dd0c:	d9000204 	addi	r4,sp,8
    dd10:	800b883a 	mov	r5,r16
    dd14:	000e7cc0 	call	e7cc <__unpack_d>
    dd18:	d8800417 	ldw	r2,16(sp)
    dd1c:	00c00044 	movi	r3,1
    dd20:	180d883a 	mov	r6,r3
    dd24:	1880062e 	bgeu	r3,r2,dd40 <__nedf2+0x70>
    dd28:	d8800917 	ldw	r2,36(sp)
    dd2c:	8809883a 	mov	r4,r17
    dd30:	800b883a 	mov	r5,r16
    dd34:	1880022e 	bgeu	r3,r2,dd40 <__nedf2+0x70>
    dd38:	000e9040 	call	e904 <__fpcmp_parts_d>
    dd3c:	100d883a 	mov	r6,r2
    dd40:	3005883a 	mov	r2,r6
    dd44:	dfc01017 	ldw	ra,64(sp)
    dd48:	dc400f17 	ldw	r17,60(sp)
    dd4c:	dc000e17 	ldw	r16,56(sp)
    dd50:	dec01104 	addi	sp,sp,68
    dd54:	f800283a 	ret

0000dd58 <__gtdf2>:
    dd58:	deffef04 	addi	sp,sp,-68
    dd5c:	dc400f15 	stw	r17,60(sp)
    dd60:	dc400404 	addi	r17,sp,16
    dd64:	2005883a 	mov	r2,r4
    dd68:	2807883a 	mov	r3,r5
    dd6c:	dc000e15 	stw	r16,56(sp)
    dd70:	d809883a 	mov	r4,sp
    dd74:	880b883a 	mov	r5,r17
    dd78:	dc000904 	addi	r16,sp,36
    dd7c:	d8c00115 	stw	r3,4(sp)
    dd80:	d8800015 	stw	r2,0(sp)
    dd84:	d9800215 	stw	r6,8(sp)
    dd88:	dfc01015 	stw	ra,64(sp)
    dd8c:	d9c00315 	stw	r7,12(sp)
    dd90:	000e7cc0 	call	e7cc <__unpack_d>
    dd94:	d9000204 	addi	r4,sp,8
    dd98:	800b883a 	mov	r5,r16
    dd9c:	000e7cc0 	call	e7cc <__unpack_d>
    dda0:	d8800417 	ldw	r2,16(sp)
    dda4:	00c00044 	movi	r3,1
    dda8:	01bfffc4 	movi	r6,-1
    ddac:	1880062e 	bgeu	r3,r2,ddc8 <__gtdf2+0x70>
    ddb0:	d8800917 	ldw	r2,36(sp)
    ddb4:	8809883a 	mov	r4,r17
    ddb8:	800b883a 	mov	r5,r16
    ddbc:	1880022e 	bgeu	r3,r2,ddc8 <__gtdf2+0x70>
    ddc0:	000e9040 	call	e904 <__fpcmp_parts_d>
    ddc4:	100d883a 	mov	r6,r2
    ddc8:	3005883a 	mov	r2,r6
    ddcc:	dfc01017 	ldw	ra,64(sp)
    ddd0:	dc400f17 	ldw	r17,60(sp)
    ddd4:	dc000e17 	ldw	r16,56(sp)
    ddd8:	dec01104 	addi	sp,sp,68
    dddc:	f800283a 	ret

0000dde0 <__gedf2>:
    dde0:	deffef04 	addi	sp,sp,-68
    dde4:	dc400f15 	stw	r17,60(sp)
    dde8:	dc400404 	addi	r17,sp,16
    ddec:	2005883a 	mov	r2,r4
    ddf0:	2807883a 	mov	r3,r5
    ddf4:	dc000e15 	stw	r16,56(sp)
    ddf8:	d809883a 	mov	r4,sp
    ddfc:	880b883a 	mov	r5,r17
    de00:	dc000904 	addi	r16,sp,36
    de04:	d8c00115 	stw	r3,4(sp)
    de08:	d8800015 	stw	r2,0(sp)
    de0c:	d9800215 	stw	r6,8(sp)
    de10:	dfc01015 	stw	ra,64(sp)
    de14:	d9c00315 	stw	r7,12(sp)
    de18:	000e7cc0 	call	e7cc <__unpack_d>
    de1c:	d9000204 	addi	r4,sp,8
    de20:	800b883a 	mov	r5,r16
    de24:	000e7cc0 	call	e7cc <__unpack_d>
    de28:	d8800417 	ldw	r2,16(sp)
    de2c:	00c00044 	movi	r3,1
    de30:	01bfffc4 	movi	r6,-1
    de34:	1880062e 	bgeu	r3,r2,de50 <__gedf2+0x70>
    de38:	d8800917 	ldw	r2,36(sp)
    de3c:	8809883a 	mov	r4,r17
    de40:	800b883a 	mov	r5,r16
    de44:	1880022e 	bgeu	r3,r2,de50 <__gedf2+0x70>
    de48:	000e9040 	call	e904 <__fpcmp_parts_d>
    de4c:	100d883a 	mov	r6,r2
    de50:	3005883a 	mov	r2,r6
    de54:	dfc01017 	ldw	ra,64(sp)
    de58:	dc400f17 	ldw	r17,60(sp)
    de5c:	dc000e17 	ldw	r16,56(sp)
    de60:	dec01104 	addi	sp,sp,68
    de64:	f800283a 	ret

0000de68 <__ltdf2>:
    de68:	deffef04 	addi	sp,sp,-68
    de6c:	dc400f15 	stw	r17,60(sp)
    de70:	dc400404 	addi	r17,sp,16
    de74:	2005883a 	mov	r2,r4
    de78:	2807883a 	mov	r3,r5
    de7c:	dc000e15 	stw	r16,56(sp)
    de80:	d809883a 	mov	r4,sp
    de84:	880b883a 	mov	r5,r17
    de88:	dc000904 	addi	r16,sp,36
    de8c:	d8c00115 	stw	r3,4(sp)
    de90:	d8800015 	stw	r2,0(sp)
    de94:	d9800215 	stw	r6,8(sp)
    de98:	dfc01015 	stw	ra,64(sp)
    de9c:	d9c00315 	stw	r7,12(sp)
    dea0:	000e7cc0 	call	e7cc <__unpack_d>
    dea4:	d9000204 	addi	r4,sp,8
    dea8:	800b883a 	mov	r5,r16
    deac:	000e7cc0 	call	e7cc <__unpack_d>
    deb0:	d8800417 	ldw	r2,16(sp)
    deb4:	00c00044 	movi	r3,1
    deb8:	180d883a 	mov	r6,r3
    debc:	1880062e 	bgeu	r3,r2,ded8 <__ltdf2+0x70>
    dec0:	d8800917 	ldw	r2,36(sp)
    dec4:	8809883a 	mov	r4,r17
    dec8:	800b883a 	mov	r5,r16
    decc:	1880022e 	bgeu	r3,r2,ded8 <__ltdf2+0x70>
    ded0:	000e9040 	call	e904 <__fpcmp_parts_d>
    ded4:	100d883a 	mov	r6,r2
    ded8:	3005883a 	mov	r2,r6
    dedc:	dfc01017 	ldw	ra,64(sp)
    dee0:	dc400f17 	ldw	r17,60(sp)
    dee4:	dc000e17 	ldw	r16,56(sp)
    dee8:	dec01104 	addi	sp,sp,68
    deec:	f800283a 	ret

0000def0 <__floatsidf>:
    def0:	2006d7fa 	srli	r3,r4,31
    def4:	defff604 	addi	sp,sp,-40
    def8:	008000c4 	movi	r2,3
    defc:	dfc00915 	stw	ra,36(sp)
    df00:	dcc00815 	stw	r19,32(sp)
    df04:	dc800715 	stw	r18,28(sp)
    df08:	dc400615 	stw	r17,24(sp)
    df0c:	dc000515 	stw	r16,20(sp)
    df10:	d8800015 	stw	r2,0(sp)
    df14:	d8c00115 	stw	r3,4(sp)
    df18:	20000f1e 	bne	r4,zero,df58 <__floatsidf+0x68>
    df1c:	00800084 	movi	r2,2
    df20:	d8800015 	stw	r2,0(sp)
    df24:	d809883a 	mov	r4,sp
    df28:	000e4b80 	call	e4b8 <__pack_d>
    df2c:	1009883a 	mov	r4,r2
    df30:	180b883a 	mov	r5,r3
    df34:	2005883a 	mov	r2,r4
    df38:	2807883a 	mov	r3,r5
    df3c:	dfc00917 	ldw	ra,36(sp)
    df40:	dcc00817 	ldw	r19,32(sp)
    df44:	dc800717 	ldw	r18,28(sp)
    df48:	dc400617 	ldw	r17,24(sp)
    df4c:	dc000517 	ldw	r16,20(sp)
    df50:	dec00a04 	addi	sp,sp,40
    df54:	f800283a 	ret
    df58:	00800f04 	movi	r2,60
    df5c:	1807003a 	cmpeq	r3,r3,zero
    df60:	d8800215 	stw	r2,8(sp)
    df64:	18001126 	beq	r3,zero,dfac <__floatsidf+0xbc>
    df68:	0027883a 	mov	r19,zero
    df6c:	2025883a 	mov	r18,r4
    df70:	d9000315 	stw	r4,12(sp)
    df74:	dcc00415 	stw	r19,16(sp)
    df78:	000e4380 	call	e438 <__clzsi2>
    df7c:	11000744 	addi	r4,r2,29
    df80:	013fe80e 	bge	zero,r4,df24 <__floatsidf+0x34>
    df84:	10bfff44 	addi	r2,r2,-3
    df88:	10000c16 	blt	r2,zero,dfbc <__floatsidf+0xcc>
    df8c:	90a2983a 	sll	r17,r18,r2
    df90:	0021883a 	mov	r16,zero
    df94:	d8800217 	ldw	r2,8(sp)
    df98:	dc400415 	stw	r17,16(sp)
    df9c:	dc000315 	stw	r16,12(sp)
    dfa0:	1105c83a 	sub	r2,r2,r4
    dfa4:	d8800215 	stw	r2,8(sp)
    dfa8:	003fde06 	br	df24 <__floatsidf+0x34>
    dfac:	00a00034 	movhi	r2,32768
    dfb0:	20800a26 	beq	r4,r2,dfdc <__floatsidf+0xec>
    dfb4:	0109c83a 	sub	r4,zero,r4
    dfb8:	003feb06 	br	df68 <__floatsidf+0x78>
    dfbc:	9006d07a 	srli	r3,r18,1
    dfc0:	008007c4 	movi	r2,31
    dfc4:	1105c83a 	sub	r2,r2,r4
    dfc8:	1886d83a 	srl	r3,r3,r2
    dfcc:	9922983a 	sll	r17,r19,r4
    dfd0:	9120983a 	sll	r16,r18,r4
    dfd4:	1c62b03a 	or	r17,r3,r17
    dfd8:	003fee06 	br	df94 <__floatsidf+0xa4>
    dfdc:	0009883a 	mov	r4,zero
    dfe0:	01707834 	movhi	r5,49632
    dfe4:	003fd306 	br	df34 <__floatsidf+0x44>

0000dfe8 <__fixdfsi>:
    dfe8:	defff804 	addi	sp,sp,-32
    dfec:	2005883a 	mov	r2,r4
    dff0:	2807883a 	mov	r3,r5
    dff4:	d809883a 	mov	r4,sp
    dff8:	d9400204 	addi	r5,sp,8
    dffc:	d8c00115 	stw	r3,4(sp)
    e000:	d8800015 	stw	r2,0(sp)
    e004:	dfc00715 	stw	ra,28(sp)
    e008:	000e7cc0 	call	e7cc <__unpack_d>
    e00c:	d8c00217 	ldw	r3,8(sp)
    e010:	00800084 	movi	r2,2
    e014:	1880051e 	bne	r3,r2,e02c <__fixdfsi+0x44>
    e018:	0007883a 	mov	r3,zero
    e01c:	1805883a 	mov	r2,r3
    e020:	dfc00717 	ldw	ra,28(sp)
    e024:	dec00804 	addi	sp,sp,32
    e028:	f800283a 	ret
    e02c:	00800044 	movi	r2,1
    e030:	10fff92e 	bgeu	r2,r3,e018 <__fixdfsi+0x30>
    e034:	00800104 	movi	r2,4
    e038:	18800426 	beq	r3,r2,e04c <__fixdfsi+0x64>
    e03c:	d8c00417 	ldw	r3,16(sp)
    e040:	183ff516 	blt	r3,zero,e018 <__fixdfsi+0x30>
    e044:	00800784 	movi	r2,30
    e048:	10c0080e 	bge	r2,r3,e06c <__fixdfsi+0x84>
    e04c:	d8800317 	ldw	r2,12(sp)
    e050:	1000121e 	bne	r2,zero,e09c <__fixdfsi+0xb4>
    e054:	00e00034 	movhi	r3,32768
    e058:	18ffffc4 	addi	r3,r3,-1
    e05c:	1805883a 	mov	r2,r3
    e060:	dfc00717 	ldw	ra,28(sp)
    e064:	dec00804 	addi	sp,sp,32
    e068:	f800283a 	ret
    e06c:	00800f04 	movi	r2,60
    e070:	10d1c83a 	sub	r8,r2,r3
    e074:	40bff804 	addi	r2,r8,-32
    e078:	d9800517 	ldw	r6,20(sp)
    e07c:	d9c00617 	ldw	r7,24(sp)
    e080:	10000816 	blt	r2,zero,e0a4 <__fixdfsi+0xbc>
    e084:	3888d83a 	srl	r4,r7,r2
    e088:	d8800317 	ldw	r2,12(sp)
    e08c:	2007883a 	mov	r3,r4
    e090:	103fe226 	beq	r2,zero,e01c <__fixdfsi+0x34>
    e094:	0107c83a 	sub	r3,zero,r4
    e098:	003fe006 	br	e01c <__fixdfsi+0x34>
    e09c:	00e00034 	movhi	r3,32768
    e0a0:	003fde06 	br	e01c <__fixdfsi+0x34>
    e0a4:	39c7883a 	add	r3,r7,r7
    e0a8:	008007c4 	movi	r2,31
    e0ac:	1205c83a 	sub	r2,r2,r8
    e0b0:	1886983a 	sll	r3,r3,r2
    e0b4:	3208d83a 	srl	r4,r6,r8
    e0b8:	1908b03a 	or	r4,r3,r4
    e0bc:	003ff206 	br	e088 <__fixdfsi+0xa0>

0000e0c0 <__floatunsidf>:
    e0c0:	defff204 	addi	sp,sp,-56
    e0c4:	dfc00d15 	stw	ra,52(sp)
    e0c8:	ddc00c15 	stw	r23,48(sp)
    e0cc:	dd800b15 	stw	r22,44(sp)
    e0d0:	dd400a15 	stw	r21,40(sp)
    e0d4:	dd000915 	stw	r20,36(sp)
    e0d8:	dcc00815 	stw	r19,32(sp)
    e0dc:	dc800715 	stw	r18,28(sp)
    e0e0:	dc400615 	stw	r17,24(sp)
    e0e4:	dc000515 	stw	r16,20(sp)
    e0e8:	d8000115 	stw	zero,4(sp)
    e0ec:	20000f1e 	bne	r4,zero,e12c <__floatunsidf+0x6c>
    e0f0:	00800084 	movi	r2,2
    e0f4:	d8800015 	stw	r2,0(sp)
    e0f8:	d809883a 	mov	r4,sp
    e0fc:	000e4b80 	call	e4b8 <__pack_d>
    e100:	dfc00d17 	ldw	ra,52(sp)
    e104:	ddc00c17 	ldw	r23,48(sp)
    e108:	dd800b17 	ldw	r22,44(sp)
    e10c:	dd400a17 	ldw	r21,40(sp)
    e110:	dd000917 	ldw	r20,36(sp)
    e114:	dcc00817 	ldw	r19,32(sp)
    e118:	dc800717 	ldw	r18,28(sp)
    e11c:	dc400617 	ldw	r17,24(sp)
    e120:	dc000517 	ldw	r16,20(sp)
    e124:	dec00e04 	addi	sp,sp,56
    e128:	f800283a 	ret
    e12c:	008000c4 	movi	r2,3
    e130:	00c00f04 	movi	r3,60
    e134:	002f883a 	mov	r23,zero
    e138:	202d883a 	mov	r22,r4
    e13c:	d8800015 	stw	r2,0(sp)
    e140:	d8c00215 	stw	r3,8(sp)
    e144:	d9000315 	stw	r4,12(sp)
    e148:	ddc00415 	stw	r23,16(sp)
    e14c:	000e4380 	call	e438 <__clzsi2>
    e150:	12400744 	addi	r9,r2,29
    e154:	48000b16 	blt	r9,zero,e184 <__floatunsidf+0xc4>
    e158:	483fe726 	beq	r9,zero,e0f8 <__floatunsidf+0x38>
    e15c:	10bfff44 	addi	r2,r2,-3
    e160:	10002e16 	blt	r2,zero,e21c <__floatunsidf+0x15c>
    e164:	b0a2983a 	sll	r17,r22,r2
    e168:	0021883a 	mov	r16,zero
    e16c:	d8800217 	ldw	r2,8(sp)
    e170:	dc400415 	stw	r17,16(sp)
    e174:	dc000315 	stw	r16,12(sp)
    e178:	1245c83a 	sub	r2,r2,r9
    e17c:	d8800215 	stw	r2,8(sp)
    e180:	003fdd06 	br	e0f8 <__floatunsidf+0x38>
    e184:	0255c83a 	sub	r10,zero,r9
    e188:	51bff804 	addi	r6,r10,-32
    e18c:	30001b16 	blt	r6,zero,e1fc <__floatunsidf+0x13c>
    e190:	b9a8d83a 	srl	r20,r23,r6
    e194:	002b883a 	mov	r21,zero
    e198:	000f883a 	mov	r7,zero
    e19c:	01000044 	movi	r4,1
    e1a0:	0011883a 	mov	r8,zero
    e1a4:	30002516 	blt	r6,zero,e23c <__floatunsidf+0x17c>
    e1a8:	21a6983a 	sll	r19,r4,r6
    e1ac:	0025883a 	mov	r18,zero
    e1b0:	00bfffc4 	movi	r2,-1
    e1b4:	9089883a 	add	r4,r18,r2
    e1b8:	988b883a 	add	r5,r19,r2
    e1bc:	248d803a 	cmpltu	r6,r4,r18
    e1c0:	314b883a 	add	r5,r6,r5
    e1c4:	b104703a 	and	r2,r22,r4
    e1c8:	b946703a 	and	r3,r23,r5
    e1cc:	10c4b03a 	or	r2,r2,r3
    e1d0:	10000226 	beq	r2,zero,e1dc <__floatunsidf+0x11c>
    e1d4:	01c00044 	movi	r7,1
    e1d8:	0011883a 	mov	r8,zero
    e1dc:	d9000217 	ldw	r4,8(sp)
    e1e0:	a1c4b03a 	or	r2,r20,r7
    e1e4:	aa06b03a 	or	r3,r21,r8
    e1e8:	2249c83a 	sub	r4,r4,r9
    e1ec:	d8c00415 	stw	r3,16(sp)
    e1f0:	d9000215 	stw	r4,8(sp)
    e1f4:	d8800315 	stw	r2,12(sp)
    e1f8:	003fbf06 	br	e0f8 <__floatunsidf+0x38>
    e1fc:	bdc7883a 	add	r3,r23,r23
    e200:	008007c4 	movi	r2,31
    e204:	1285c83a 	sub	r2,r2,r10
    e208:	1886983a 	sll	r3,r3,r2
    e20c:	b2a8d83a 	srl	r20,r22,r10
    e210:	baaad83a 	srl	r21,r23,r10
    e214:	1d28b03a 	or	r20,r3,r20
    e218:	003fdf06 	br	e198 <__floatunsidf+0xd8>
    e21c:	b006d07a 	srli	r3,r22,1
    e220:	008007c4 	movi	r2,31
    e224:	1245c83a 	sub	r2,r2,r9
    e228:	1886d83a 	srl	r3,r3,r2
    e22c:	ba62983a 	sll	r17,r23,r9
    e230:	b260983a 	sll	r16,r22,r9
    e234:	1c62b03a 	or	r17,r3,r17
    e238:	003fcc06 	br	e16c <__floatunsidf+0xac>
    e23c:	2006d07a 	srli	r3,r4,1
    e240:	008007c4 	movi	r2,31
    e244:	1285c83a 	sub	r2,r2,r10
    e248:	18a6d83a 	srl	r19,r3,r2
    e24c:	22a4983a 	sll	r18,r4,r10
    e250:	003fd706 	br	e1b0 <__floatunsidf+0xf0>

0000e254 <udivmodsi4>:
    e254:	29001b2e 	bgeu	r5,r4,e2c4 <udivmodsi4+0x70>
    e258:	28001a16 	blt	r5,zero,e2c4 <udivmodsi4+0x70>
    e25c:	00800044 	movi	r2,1
    e260:	0007883a 	mov	r3,zero
    e264:	01c007c4 	movi	r7,31
    e268:	00000306 	br	e278 <udivmodsi4+0x24>
    e26c:	19c01326 	beq	r3,r7,e2bc <udivmodsi4+0x68>
    e270:	18c00044 	addi	r3,r3,1
    e274:	28000416 	blt	r5,zero,e288 <udivmodsi4+0x34>
    e278:	294b883a 	add	r5,r5,r5
    e27c:	1085883a 	add	r2,r2,r2
    e280:	293ffa36 	bltu	r5,r4,e26c <udivmodsi4+0x18>
    e284:	10000d26 	beq	r2,zero,e2bc <udivmodsi4+0x68>
    e288:	0007883a 	mov	r3,zero
    e28c:	21400236 	bltu	r4,r5,e298 <udivmodsi4+0x44>
    e290:	2149c83a 	sub	r4,r4,r5
    e294:	1886b03a 	or	r3,r3,r2
    e298:	1004d07a 	srli	r2,r2,1
    e29c:	280ad07a 	srli	r5,r5,1
    e2a0:	103ffa1e 	bne	r2,zero,e28c <udivmodsi4+0x38>
    e2a4:	30000226 	beq	r6,zero,e2b0 <udivmodsi4+0x5c>
    e2a8:	2005883a 	mov	r2,r4
    e2ac:	f800283a 	ret
    e2b0:	1809883a 	mov	r4,r3
    e2b4:	2005883a 	mov	r2,r4
    e2b8:	f800283a 	ret
    e2bc:	0007883a 	mov	r3,zero
    e2c0:	003ff806 	br	e2a4 <udivmodsi4+0x50>
    e2c4:	00800044 	movi	r2,1
    e2c8:	0007883a 	mov	r3,zero
    e2cc:	003fef06 	br	e28c <udivmodsi4+0x38>

0000e2d0 <__divsi3>:
    e2d0:	defffe04 	addi	sp,sp,-8
    e2d4:	dc000015 	stw	r16,0(sp)
    e2d8:	dfc00115 	stw	ra,4(sp)
    e2dc:	0021883a 	mov	r16,zero
    e2e0:	20000c16 	blt	r4,zero,e314 <__divsi3+0x44>
    e2e4:	000d883a 	mov	r6,zero
    e2e8:	28000e16 	blt	r5,zero,e324 <__divsi3+0x54>
    e2ec:	000e2540 	call	e254 <udivmodsi4>
    e2f0:	1007883a 	mov	r3,r2
    e2f4:	8005003a 	cmpeq	r2,r16,zero
    e2f8:	1000011e 	bne	r2,zero,e300 <__divsi3+0x30>
    e2fc:	00c7c83a 	sub	r3,zero,r3
    e300:	1805883a 	mov	r2,r3
    e304:	dfc00117 	ldw	ra,4(sp)
    e308:	dc000017 	ldw	r16,0(sp)
    e30c:	dec00204 	addi	sp,sp,8
    e310:	f800283a 	ret
    e314:	0109c83a 	sub	r4,zero,r4
    e318:	04000044 	movi	r16,1
    e31c:	000d883a 	mov	r6,zero
    e320:	283ff20e 	bge	r5,zero,e2ec <__divsi3+0x1c>
    e324:	014bc83a 	sub	r5,zero,r5
    e328:	8021003a 	cmpeq	r16,r16,zero
    e32c:	003fef06 	br	e2ec <__divsi3+0x1c>

0000e330 <__modsi3>:
    e330:	deffff04 	addi	sp,sp,-4
    e334:	dfc00015 	stw	ra,0(sp)
    e338:	01800044 	movi	r6,1
    e33c:	2807883a 	mov	r3,r5
    e340:	20000416 	blt	r4,zero,e354 <__modsi3+0x24>
    e344:	28000c16 	blt	r5,zero,e378 <__modsi3+0x48>
    e348:	dfc00017 	ldw	ra,0(sp)
    e34c:	dec00104 	addi	sp,sp,4
    e350:	000e2541 	jmpi	e254 <udivmodsi4>
    e354:	0109c83a 	sub	r4,zero,r4
    e358:	28000b16 	blt	r5,zero,e388 <__modsi3+0x58>
    e35c:	180b883a 	mov	r5,r3
    e360:	01800044 	movi	r6,1
    e364:	000e2540 	call	e254 <udivmodsi4>
    e368:	0085c83a 	sub	r2,zero,r2
    e36c:	dfc00017 	ldw	ra,0(sp)
    e370:	dec00104 	addi	sp,sp,4
    e374:	f800283a 	ret
    e378:	014bc83a 	sub	r5,zero,r5
    e37c:	dfc00017 	ldw	ra,0(sp)
    e380:	dec00104 	addi	sp,sp,4
    e384:	000e2541 	jmpi	e254 <udivmodsi4>
    e388:	0147c83a 	sub	r3,zero,r5
    e38c:	003ff306 	br	e35c <__modsi3+0x2c>

0000e390 <__udivsi3>:
    e390:	000d883a 	mov	r6,zero
    e394:	000e2541 	jmpi	e254 <udivmodsi4>

0000e398 <__umodsi3>:
    e398:	01800044 	movi	r6,1
    e39c:	000e2541 	jmpi	e254 <udivmodsi4>

0000e3a0 <__muldi3>:
    e3a0:	2011883a 	mov	r8,r4
    e3a4:	427fffcc 	andi	r9,r8,65535
    e3a8:	4018d43a 	srli	r12,r8,16
    e3ac:	32bfffcc 	andi	r10,r6,65535
    e3b0:	3016d43a 	srli	r11,r6,16
    e3b4:	4a85383a 	mul	r2,r9,r10
    e3b8:	6295383a 	mul	r10,r12,r10
    e3bc:	4ad3383a 	mul	r9,r9,r11
    e3c0:	113fffcc 	andi	r4,r2,65535
    e3c4:	1004d43a 	srli	r2,r2,16
    e3c8:	4a93883a 	add	r9,r9,r10
    e3cc:	3807883a 	mov	r3,r7
    e3d0:	1245883a 	add	r2,r2,r9
    e3d4:	280f883a 	mov	r7,r5
    e3d8:	180b883a 	mov	r5,r3
    e3dc:	1006943a 	slli	r3,r2,16
    e3e0:	defffd04 	addi	sp,sp,-12
    e3e4:	dc800215 	stw	r18,8(sp)
    e3e8:	1907883a 	add	r3,r3,r4
    e3ec:	dc400115 	stw	r17,4(sp)
    e3f0:	dc000015 	stw	r16,0(sp)
    e3f4:	4165383a 	mul	r18,r8,r5
    e3f8:	31e3383a 	mul	r17,r6,r7
    e3fc:	1012d43a 	srli	r9,r2,16
    e400:	62d9383a 	mul	r12,r12,r11
    e404:	181f883a 	mov	r15,r3
    e408:	1280022e 	bgeu	r2,r10,e414 <__muldi3+0x74>
    e40c:	00800074 	movhi	r2,1
    e410:	6099883a 	add	r12,r12,r2
    e414:	624d883a 	add	r6,r12,r9
    e418:	9187883a 	add	r3,r18,r6
    e41c:	88c7883a 	add	r3,r17,r3
    e420:	7805883a 	mov	r2,r15
    e424:	dc800217 	ldw	r18,8(sp)
    e428:	dc400117 	ldw	r17,4(sp)
    e42c:	dc000017 	ldw	r16,0(sp)
    e430:	dec00304 	addi	sp,sp,12
    e434:	f800283a 	ret

0000e438 <__clzsi2>:
    e438:	00bfffd4 	movui	r2,65535
    e43c:	11000e36 	bltu	r2,r4,e478 <__clzsi2+0x40>
    e440:	00803fc4 	movi	r2,255
    e444:	01400204 	movi	r5,8
    e448:	0007883a 	mov	r3,zero
    e44c:	11001036 	bltu	r2,r4,e490 <__clzsi2+0x58>
    e450:	000b883a 	mov	r5,zero
    e454:	20c6d83a 	srl	r3,r4,r3
    e458:	00820034 	movhi	r2,2048
    e45c:	1080a204 	addi	r2,r2,648
    e460:	1887883a 	add	r3,r3,r2
    e464:	18800003 	ldbu	r2,0(r3)
    e468:	00c00804 	movi	r3,32
    e46c:	2885883a 	add	r2,r5,r2
    e470:	1885c83a 	sub	r2,r3,r2
    e474:	f800283a 	ret
    e478:	01400404 	movi	r5,16
    e47c:	00804034 	movhi	r2,256
    e480:	10bfffc4 	addi	r2,r2,-1
    e484:	2807883a 	mov	r3,r5
    e488:	113ff22e 	bgeu	r2,r4,e454 <__clzsi2+0x1c>
    e48c:	01400604 	movi	r5,24
    e490:	2807883a 	mov	r3,r5
    e494:	20c6d83a 	srl	r3,r4,r3
    e498:	00820034 	movhi	r2,2048
    e49c:	1080a204 	addi	r2,r2,648
    e4a0:	1887883a 	add	r3,r3,r2
    e4a4:	18800003 	ldbu	r2,0(r3)
    e4a8:	00c00804 	movi	r3,32
    e4ac:	2885883a 	add	r2,r5,r2
    e4b0:	1885c83a 	sub	r2,r3,r2
    e4b4:	f800283a 	ret

0000e4b8 <__pack_d>:
    e4b8:	20c00017 	ldw	r3,0(r4)
    e4bc:	defffd04 	addi	sp,sp,-12
    e4c0:	dc000015 	stw	r16,0(sp)
    e4c4:	dc800215 	stw	r18,8(sp)
    e4c8:	dc400115 	stw	r17,4(sp)
    e4cc:	00800044 	movi	r2,1
    e4d0:	22000317 	ldw	r8,12(r4)
    e4d4:	001f883a 	mov	r15,zero
    e4d8:	22400417 	ldw	r9,16(r4)
    e4dc:	24000117 	ldw	r16,4(r4)
    e4e0:	10c0552e 	bgeu	r2,r3,e638 <__pack_d+0x180>
    e4e4:	00800104 	movi	r2,4
    e4e8:	18804f26 	beq	r3,r2,e628 <__pack_d+0x170>
    e4ec:	00800084 	movi	r2,2
    e4f0:	18800226 	beq	r3,r2,e4fc <__pack_d+0x44>
    e4f4:	4244b03a 	or	r2,r8,r9
    e4f8:	10001a1e 	bne	r2,zero,e564 <__pack_d+0xac>
    e4fc:	000d883a 	mov	r6,zero
    e500:	000f883a 	mov	r7,zero
    e504:	0011883a 	mov	r8,zero
    e508:	00800434 	movhi	r2,16
    e50c:	10bfffc4 	addi	r2,r2,-1
    e510:	301d883a 	mov	r14,r6
    e514:	3884703a 	and	r2,r7,r2
    e518:	400a953a 	slli	r5,r8,20
    e51c:	79bffc2c 	andhi	r6,r15,65520
    e520:	308cb03a 	or	r6,r6,r2
    e524:	00e00434 	movhi	r3,32784
    e528:	18ffffc4 	addi	r3,r3,-1
    e52c:	800497fa 	slli	r2,r16,31
    e530:	30c6703a 	and	r3,r6,r3
    e534:	1946b03a 	or	r3,r3,r5
    e538:	01600034 	movhi	r5,32768
    e53c:	297fffc4 	addi	r5,r5,-1
    e540:	194a703a 	and	r5,r3,r5
    e544:	288ab03a 	or	r5,r5,r2
    e548:	2807883a 	mov	r3,r5
    e54c:	7005883a 	mov	r2,r14
    e550:	dc800217 	ldw	r18,8(sp)
    e554:	dc400117 	ldw	r17,4(sp)
    e558:	dc000017 	ldw	r16,0(sp)
    e55c:	dec00304 	addi	sp,sp,12
    e560:	f800283a 	ret
    e564:	21000217 	ldw	r4,8(r4)
    e568:	00bf0084 	movi	r2,-1022
    e56c:	20803f16 	blt	r4,r2,e66c <__pack_d+0x1b4>
    e570:	0080ffc4 	movi	r2,1023
    e574:	11002c16 	blt	r2,r4,e628 <__pack_d+0x170>
    e578:	00803fc4 	movi	r2,255
    e57c:	408c703a 	and	r6,r8,r2
    e580:	00802004 	movi	r2,128
    e584:	0007883a 	mov	r3,zero
    e588:	000f883a 	mov	r7,zero
    e58c:	2280ffc4 	addi	r10,r4,1023
    e590:	30801e26 	beq	r6,r2,e60c <__pack_d+0x154>
    e594:	00801fc4 	movi	r2,127
    e598:	4089883a 	add	r4,r8,r2
    e59c:	220d803a 	cmpltu	r6,r4,r8
    e5a0:	324d883a 	add	r6,r6,r9
    e5a4:	2011883a 	mov	r8,r4
    e5a8:	3013883a 	mov	r9,r6
    e5ac:	00880034 	movhi	r2,8192
    e5b0:	10bfffc4 	addi	r2,r2,-1
    e5b4:	12400d36 	bltu	r2,r9,e5ec <__pack_d+0x134>
    e5b8:	4804963a 	slli	r2,r9,24
    e5bc:	400cd23a 	srli	r6,r8,8
    e5c0:	480ed23a 	srli	r7,r9,8
    e5c4:	013fffc4 	movi	r4,-1
    e5c8:	118cb03a 	or	r6,r2,r6
    e5cc:	01400434 	movhi	r5,16
    e5d0:	297fffc4 	addi	r5,r5,-1
    e5d4:	3104703a 	and	r2,r6,r4
    e5d8:	3946703a 	and	r3,r7,r5
    e5dc:	5201ffcc 	andi	r8,r10,2047
    e5e0:	100d883a 	mov	r6,r2
    e5e4:	180f883a 	mov	r7,r3
    e5e8:	003fc706 	br	e508 <__pack_d+0x50>
    e5ec:	480897fa 	slli	r4,r9,31
    e5f0:	4004d07a 	srli	r2,r8,1
    e5f4:	4806d07a 	srli	r3,r9,1
    e5f8:	52800044 	addi	r10,r10,1
    e5fc:	2084b03a 	or	r2,r4,r2
    e600:	1011883a 	mov	r8,r2
    e604:	1813883a 	mov	r9,r3
    e608:	003feb06 	br	e5b8 <__pack_d+0x100>
    e60c:	383fe11e 	bne	r7,zero,e594 <__pack_d+0xdc>
    e610:	01004004 	movi	r4,256
    e614:	4104703a 	and	r2,r8,r4
    e618:	10c4b03a 	or	r2,r2,r3
    e61c:	103fe326 	beq	r2,zero,e5ac <__pack_d+0xf4>
    e620:	3005883a 	mov	r2,r6
    e624:	003fdc06 	br	e598 <__pack_d+0xe0>
    e628:	000d883a 	mov	r6,zero
    e62c:	000f883a 	mov	r7,zero
    e630:	0201ffc4 	movi	r8,2047
    e634:	003fb406 	br	e508 <__pack_d+0x50>
    e638:	0005883a 	mov	r2,zero
    e63c:	00c00234 	movhi	r3,8
    e640:	408cb03a 	or	r6,r8,r2
    e644:	48ceb03a 	or	r7,r9,r3
    e648:	013fffc4 	movi	r4,-1
    e64c:	01400434 	movhi	r5,16
    e650:	297fffc4 	addi	r5,r5,-1
    e654:	3104703a 	and	r2,r6,r4
    e658:	3946703a 	and	r3,r7,r5
    e65c:	100d883a 	mov	r6,r2
    e660:	180f883a 	mov	r7,r3
    e664:	0201ffc4 	movi	r8,2047
    e668:	003fa706 	br	e508 <__pack_d+0x50>
    e66c:	1109c83a 	sub	r4,r2,r4
    e670:	00800e04 	movi	r2,56
    e674:	11004316 	blt	r2,r4,e784 <__pack_d+0x2cc>
    e678:	21fff804 	addi	r7,r4,-32
    e67c:	38004516 	blt	r7,zero,e794 <__pack_d+0x2dc>
    e680:	49d8d83a 	srl	r12,r9,r7
    e684:	001b883a 	mov	r13,zero
    e688:	0023883a 	mov	r17,zero
    e68c:	01400044 	movi	r5,1
    e690:	0025883a 	mov	r18,zero
    e694:	38004716 	blt	r7,zero,e7b4 <__pack_d+0x2fc>
    e698:	29d6983a 	sll	r11,r5,r7
    e69c:	0015883a 	mov	r10,zero
    e6a0:	00bfffc4 	movi	r2,-1
    e6a4:	5089883a 	add	r4,r10,r2
    e6a8:	588b883a 	add	r5,r11,r2
    e6ac:	228d803a 	cmpltu	r6,r4,r10
    e6b0:	314b883a 	add	r5,r6,r5
    e6b4:	4104703a 	and	r2,r8,r4
    e6b8:	4946703a 	and	r3,r9,r5
    e6bc:	10c4b03a 	or	r2,r2,r3
    e6c0:	10000226 	beq	r2,zero,e6cc <__pack_d+0x214>
    e6c4:	04400044 	movi	r17,1
    e6c8:	0025883a 	mov	r18,zero
    e6cc:	00803fc4 	movi	r2,255
    e6d0:	644eb03a 	or	r7,r12,r17
    e6d4:	3892703a 	and	r9,r7,r2
    e6d8:	00802004 	movi	r2,128
    e6dc:	6c90b03a 	or	r8,r13,r18
    e6e0:	0015883a 	mov	r10,zero
    e6e4:	48801626 	beq	r9,r2,e740 <__pack_d+0x288>
    e6e8:	01001fc4 	movi	r4,127
    e6ec:	3905883a 	add	r2,r7,r4
    e6f0:	11cd803a 	cmpltu	r6,r2,r7
    e6f4:	320d883a 	add	r6,r6,r8
    e6f8:	100f883a 	mov	r7,r2
    e6fc:	00840034 	movhi	r2,4096
    e700:	10bfffc4 	addi	r2,r2,-1
    e704:	3011883a 	mov	r8,r6
    e708:	0007883a 	mov	r3,zero
    e70c:	11801b36 	bltu	r2,r6,e77c <__pack_d+0x2c4>
    e710:	4004963a 	slli	r2,r8,24
    e714:	3808d23a 	srli	r4,r7,8
    e718:	400ad23a 	srli	r5,r8,8
    e71c:	1813883a 	mov	r9,r3
    e720:	1108b03a 	or	r4,r2,r4
    e724:	00bfffc4 	movi	r2,-1
    e728:	00c00434 	movhi	r3,16
    e72c:	18ffffc4 	addi	r3,r3,-1
    e730:	208c703a 	and	r6,r4,r2
    e734:	28ce703a 	and	r7,r5,r3
    e738:	4a01ffcc 	andi	r8,r9,2047
    e73c:	003f7206 	br	e508 <__pack_d+0x50>
    e740:	503fe91e 	bne	r10,zero,e6e8 <__pack_d+0x230>
    e744:	01004004 	movi	r4,256
    e748:	3904703a 	and	r2,r7,r4
    e74c:	0007883a 	mov	r3,zero
    e750:	10c4b03a 	or	r2,r2,r3
    e754:	10000626 	beq	r2,zero,e770 <__pack_d+0x2b8>
    e758:	3a45883a 	add	r2,r7,r9
    e75c:	11cd803a 	cmpltu	r6,r2,r7
    e760:	320d883a 	add	r6,r6,r8
    e764:	100f883a 	mov	r7,r2
    e768:	3011883a 	mov	r8,r6
    e76c:	0007883a 	mov	r3,zero
    e770:	00840034 	movhi	r2,4096
    e774:	10bfffc4 	addi	r2,r2,-1
    e778:	123fe52e 	bgeu	r2,r8,e710 <__pack_d+0x258>
    e77c:	00c00044 	movi	r3,1
    e780:	003fe306 	br	e710 <__pack_d+0x258>
    e784:	0009883a 	mov	r4,zero
    e788:	0013883a 	mov	r9,zero
    e78c:	000b883a 	mov	r5,zero
    e790:	003fe406 	br	e724 <__pack_d+0x26c>
    e794:	4a47883a 	add	r3,r9,r9
    e798:	008007c4 	movi	r2,31
    e79c:	1105c83a 	sub	r2,r2,r4
    e7a0:	1886983a 	sll	r3,r3,r2
    e7a4:	4118d83a 	srl	r12,r8,r4
    e7a8:	491ad83a 	srl	r13,r9,r4
    e7ac:	1b18b03a 	or	r12,r3,r12
    e7b0:	003fb506 	br	e688 <__pack_d+0x1d0>
    e7b4:	2806d07a 	srli	r3,r5,1
    e7b8:	008007c4 	movi	r2,31
    e7bc:	1105c83a 	sub	r2,r2,r4
    e7c0:	1896d83a 	srl	r11,r3,r2
    e7c4:	2914983a 	sll	r10,r5,r4
    e7c8:	003fb506 	br	e6a0 <__pack_d+0x1e8>

0000e7cc <__unpack_d>:
    e7cc:	20c00117 	ldw	r3,4(r4)
    e7d0:	22400017 	ldw	r9,0(r4)
    e7d4:	00800434 	movhi	r2,16
    e7d8:	10bfffc4 	addi	r2,r2,-1
    e7dc:	1808d53a 	srli	r4,r3,20
    e7e0:	180cd7fa 	srli	r6,r3,31
    e7e4:	1894703a 	and	r10,r3,r2
    e7e8:	2201ffcc 	andi	r8,r4,2047
    e7ec:	281b883a 	mov	r13,r5
    e7f0:	4817883a 	mov	r11,r9
    e7f4:	29800115 	stw	r6,4(r5)
    e7f8:	5019883a 	mov	r12,r10
    e7fc:	40001e1e 	bne	r8,zero,e878 <__unpack_d+0xac>
    e800:	4a84b03a 	or	r2,r9,r10
    e804:	10001926 	beq	r2,zero,e86c <__unpack_d+0xa0>
    e808:	4804d63a 	srli	r2,r9,24
    e80c:	500c923a 	slli	r6,r10,8
    e810:	013f0084 	movi	r4,-1022
    e814:	00c40034 	movhi	r3,4096
    e818:	18ffffc4 	addi	r3,r3,-1
    e81c:	118cb03a 	or	r6,r2,r6
    e820:	008000c4 	movi	r2,3
    e824:	480a923a 	slli	r5,r9,8
    e828:	68800015 	stw	r2,0(r13)
    e82c:	69000215 	stw	r4,8(r13)
    e830:	19800b36 	bltu	r3,r6,e860 <__unpack_d+0x94>
    e834:	200f883a 	mov	r7,r4
    e838:	1811883a 	mov	r8,r3
    e83c:	2945883a 	add	r2,r5,r5
    e840:	1149803a 	cmpltu	r4,r2,r5
    e844:	3187883a 	add	r3,r6,r6
    e848:	20c9883a 	add	r4,r4,r3
    e84c:	100b883a 	mov	r5,r2
    e850:	200d883a 	mov	r6,r4
    e854:	39ffffc4 	addi	r7,r7,-1
    e858:	413ff82e 	bgeu	r8,r4,e83c <__unpack_d+0x70>
    e85c:	69c00215 	stw	r7,8(r13)
    e860:	69800415 	stw	r6,16(r13)
    e864:	69400315 	stw	r5,12(r13)
    e868:	f800283a 	ret
    e86c:	00800084 	movi	r2,2
    e870:	28800015 	stw	r2,0(r5)
    e874:	f800283a 	ret
    e878:	0081ffc4 	movi	r2,2047
    e87c:	40800f26 	beq	r8,r2,e8bc <__unpack_d+0xf0>
    e880:	480cd63a 	srli	r6,r9,24
    e884:	5006923a 	slli	r3,r10,8
    e888:	4804923a 	slli	r2,r9,8
    e88c:	0009883a 	mov	r4,zero
    e890:	30c6b03a 	or	r3,r6,r3
    e894:	01440034 	movhi	r5,4096
    e898:	110cb03a 	or	r6,r2,r4
    e89c:	423f0044 	addi	r8,r8,-1023
    e8a0:	194eb03a 	or	r7,r3,r5
    e8a4:	008000c4 	movi	r2,3
    e8a8:	69c00415 	stw	r7,16(r13)
    e8ac:	6a000215 	stw	r8,8(r13)
    e8b0:	68800015 	stw	r2,0(r13)
    e8b4:	69800315 	stw	r6,12(r13)
    e8b8:	f800283a 	ret
    e8bc:	4a84b03a 	or	r2,r9,r10
    e8c0:	1000031e 	bne	r2,zero,e8d0 <__unpack_d+0x104>
    e8c4:	00800104 	movi	r2,4
    e8c8:	28800015 	stw	r2,0(r5)
    e8cc:	f800283a 	ret
    e8d0:	0009883a 	mov	r4,zero
    e8d4:	01400234 	movhi	r5,8
    e8d8:	4904703a 	and	r2,r9,r4
    e8dc:	5146703a 	and	r3,r10,r5
    e8e0:	10c4b03a 	or	r2,r2,r3
    e8e4:	10000526 	beq	r2,zero,e8fc <__unpack_d+0x130>
    e8e8:	00800044 	movi	r2,1
    e8ec:	68800015 	stw	r2,0(r13)
    e8f0:	6b000415 	stw	r12,16(r13)
    e8f4:	6ac00315 	stw	r11,12(r13)
    e8f8:	f800283a 	ret
    e8fc:	68000015 	stw	zero,0(r13)
    e900:	003ffb06 	br	e8f0 <__unpack_d+0x124>

0000e904 <__fpcmp_parts_d>:
    e904:	21800017 	ldw	r6,0(r4)
    e908:	00c00044 	movi	r3,1
    e90c:	19800a2e 	bgeu	r3,r6,e938 <__fpcmp_parts_d+0x34>
    e910:	28800017 	ldw	r2,0(r5)
    e914:	1880082e 	bgeu	r3,r2,e938 <__fpcmp_parts_d+0x34>
    e918:	00c00104 	movi	r3,4
    e91c:	30c02626 	beq	r6,r3,e9b8 <__fpcmp_parts_d+0xb4>
    e920:	10c02226 	beq	r2,r3,e9ac <__fpcmp_parts_d+0xa8>
    e924:	00c00084 	movi	r3,2
    e928:	30c00526 	beq	r6,r3,e940 <__fpcmp_parts_d+0x3c>
    e92c:	10c0071e 	bne	r2,r3,e94c <__fpcmp_parts_d+0x48>
    e930:	20800117 	ldw	r2,4(r4)
    e934:	1000091e 	bne	r2,zero,e95c <__fpcmp_parts_d+0x58>
    e938:	00800044 	movi	r2,1
    e93c:	f800283a 	ret
    e940:	10c01a1e 	bne	r2,r3,e9ac <__fpcmp_parts_d+0xa8>
    e944:	0005883a 	mov	r2,zero
    e948:	f800283a 	ret
    e94c:	22000117 	ldw	r8,4(r4)
    e950:	28800117 	ldw	r2,4(r5)
    e954:	40800326 	beq	r8,r2,e964 <__fpcmp_parts_d+0x60>
    e958:	403ff726 	beq	r8,zero,e938 <__fpcmp_parts_d+0x34>
    e95c:	00bfffc4 	movi	r2,-1
    e960:	f800283a 	ret
    e964:	20c00217 	ldw	r3,8(r4)
    e968:	28800217 	ldw	r2,8(r5)
    e96c:	10fffa16 	blt	r2,r3,e958 <__fpcmp_parts_d+0x54>
    e970:	18800916 	blt	r3,r2,e998 <__fpcmp_parts_d+0x94>
    e974:	21c00417 	ldw	r7,16(r4)
    e978:	28c00417 	ldw	r3,16(r5)
    e97c:	21800317 	ldw	r6,12(r4)
    e980:	28800317 	ldw	r2,12(r5)
    e984:	19fff436 	bltu	r3,r7,e958 <__fpcmp_parts_d+0x54>
    e988:	38c00526 	beq	r7,r3,e9a0 <__fpcmp_parts_d+0x9c>
    e98c:	38c00236 	bltu	r7,r3,e998 <__fpcmp_parts_d+0x94>
    e990:	19ffec1e 	bne	r3,r7,e944 <__fpcmp_parts_d+0x40>
    e994:	30bfeb2e 	bgeu	r6,r2,e944 <__fpcmp_parts_d+0x40>
    e998:	403fe71e 	bne	r8,zero,e938 <__fpcmp_parts_d+0x34>
    e99c:	003fef06 	br	e95c <__fpcmp_parts_d+0x58>
    e9a0:	11bffa2e 	bgeu	r2,r6,e98c <__fpcmp_parts_d+0x88>
    e9a4:	403fe426 	beq	r8,zero,e938 <__fpcmp_parts_d+0x34>
    e9a8:	003fec06 	br	e95c <__fpcmp_parts_d+0x58>
    e9ac:	28800117 	ldw	r2,4(r5)
    e9b0:	103fe11e 	bne	r2,zero,e938 <__fpcmp_parts_d+0x34>
    e9b4:	003fe906 	br	e95c <__fpcmp_parts_d+0x58>
    e9b8:	11bfdd1e 	bne	r2,r6,e930 <__fpcmp_parts_d+0x2c>
    e9bc:	28c00117 	ldw	r3,4(r5)
    e9c0:	20800117 	ldw	r2,4(r4)
    e9c4:	1885c83a 	sub	r2,r3,r2
    e9c8:	f800283a 	ret

0000e9cc <close>:
    e9cc:	defff804 	addi	sp,sp,-32
    e9d0:	dfc00715 	stw	ra,28(sp)
    e9d4:	df000615 	stw	fp,24(sp)
    e9d8:	df000604 	addi	fp,sp,24
    e9dc:	e13ffc15 	stw	r4,-16(fp)
    e9e0:	e0bffc17 	ldw	r2,-16(fp)
    e9e4:	1004803a 	cmplt	r2,r2,zero
    e9e8:	1000081e 	bne	r2,zero,ea0c <close+0x40>
    e9ec:	e0bffc17 	ldw	r2,-16(fp)
    e9f0:	10800324 	muli	r2,r2,12
    e9f4:	1007883a 	mov	r3,r2
    e9f8:	00820034 	movhi	r2,2048
    e9fc:	1083cc04 	addi	r2,r2,3888
    ea00:	1887883a 	add	r3,r3,r2
    ea04:	e0ffff15 	stw	r3,-4(fp)
    ea08:	00000106 	br	ea10 <close+0x44>
    ea0c:	e03fff15 	stw	zero,-4(fp)
    ea10:	e0bfff17 	ldw	r2,-4(fp)
    ea14:	e0bffb15 	stw	r2,-20(fp)
    ea18:	e0bffb17 	ldw	r2,-20(fp)
    ea1c:	1005003a 	cmpeq	r2,r2,zero
    ea20:	10001d1e 	bne	r2,zero,ea98 <close+0xcc>
    ea24:	e0bffb17 	ldw	r2,-20(fp)
    ea28:	10800017 	ldw	r2,0(r2)
    ea2c:	10800417 	ldw	r2,16(r2)
    ea30:	1005003a 	cmpeq	r2,r2,zero
    ea34:	1000071e 	bne	r2,zero,ea54 <close+0x88>
    ea38:	e0bffb17 	ldw	r2,-20(fp)
    ea3c:	10800017 	ldw	r2,0(r2)
    ea40:	10800417 	ldw	r2,16(r2)
    ea44:	e13ffb17 	ldw	r4,-20(fp)
    ea48:	103ee83a 	callr	r2
    ea4c:	e0bffe15 	stw	r2,-8(fp)
    ea50:	00000106 	br	ea58 <close+0x8c>
    ea54:	e03ffe15 	stw	zero,-8(fp)
    ea58:	e0bffe17 	ldw	r2,-8(fp)
    ea5c:	e0bffa15 	stw	r2,-24(fp)
    ea60:	e13ffc17 	ldw	r4,-16(fp)
    ea64:	000f1240 	call	f124 <alt_release_fd>
    ea68:	e0bffa17 	ldw	r2,-24(fp)
    ea6c:	1004403a 	cmpge	r2,r2,zero
    ea70:	1000071e 	bne	r2,zero,ea90 <close+0xc4>
    ea74:	000eac80 	call	eac8 <alt_get_errno>
    ea78:	e0fffa17 	ldw	r3,-24(fp)
    ea7c:	00c7c83a 	sub	r3,zero,r3
    ea80:	10c00015 	stw	r3,0(r2)
    ea84:	00bfffc4 	movi	r2,-1
    ea88:	e0bffd15 	stw	r2,-12(fp)
    ea8c:	00000806 	br	eab0 <close+0xe4>
    ea90:	e03ffd15 	stw	zero,-12(fp)
    ea94:	00000606 	br	eab0 <close+0xe4>
    ea98:	000eac80 	call	eac8 <alt_get_errno>
    ea9c:	1007883a 	mov	r3,r2
    eaa0:	00801444 	movi	r2,81
    eaa4:	18800015 	stw	r2,0(r3)
    eaa8:	00bfffc4 	movi	r2,-1
    eaac:	e0bffd15 	stw	r2,-12(fp)
    eab0:	e0bffd17 	ldw	r2,-12(fp)
    eab4:	e037883a 	mov	sp,fp
    eab8:	dfc00117 	ldw	ra,4(sp)
    eabc:	df000017 	ldw	fp,0(sp)
    eac0:	dec00204 	addi	sp,sp,8
    eac4:	f800283a 	ret

0000eac8 <alt_get_errno>:
    eac8:	defffd04 	addi	sp,sp,-12
    eacc:	dfc00215 	stw	ra,8(sp)
    ead0:	df000115 	stw	fp,4(sp)
    ead4:	df000104 	addi	fp,sp,4
    ead8:	00820034 	movhi	r2,2048
    eadc:	10893704 	addi	r2,r2,9436
    eae0:	10800017 	ldw	r2,0(r2)
    eae4:	1005003a 	cmpeq	r2,r2,zero
    eae8:	1000061e 	bne	r2,zero,eb04 <alt_get_errno+0x3c>
    eaec:	00820034 	movhi	r2,2048
    eaf0:	10893704 	addi	r2,r2,9436
    eaf4:	10800017 	ldw	r2,0(r2)
    eaf8:	103ee83a 	callr	r2
    eafc:	e0bfff15 	stw	r2,-4(fp)
    eb00:	00000306 	br	eb10 <alt_get_errno+0x48>
    eb04:	00820034 	movhi	r2,2048
    eb08:	10896104 	addi	r2,r2,9604
    eb0c:	e0bfff15 	stw	r2,-4(fp)
    eb10:	e0bfff17 	ldw	r2,-4(fp)
    eb14:	e037883a 	mov	sp,fp
    eb18:	dfc00117 	ldw	ra,4(sp)
    eb1c:	df000017 	ldw	fp,0(sp)
    eb20:	dec00204 	addi	sp,sp,8
    eb24:	f800283a 	ret

0000eb28 <alt_dev_null_write>:
    eb28:	defffc04 	addi	sp,sp,-16
    eb2c:	df000315 	stw	fp,12(sp)
    eb30:	df000304 	addi	fp,sp,12
    eb34:	e13ffd15 	stw	r4,-12(fp)
    eb38:	e17ffe15 	stw	r5,-8(fp)
    eb3c:	e1bfff15 	stw	r6,-4(fp)
    eb40:	e0bfff17 	ldw	r2,-4(fp)
    eb44:	e037883a 	mov	sp,fp
    eb48:	df000017 	ldw	fp,0(sp)
    eb4c:	dec00104 	addi	sp,sp,4
    eb50:	f800283a 	ret

0000eb54 <fstat>:
    eb54:	defff904 	addi	sp,sp,-28
    eb58:	dfc00615 	stw	ra,24(sp)
    eb5c:	df000515 	stw	fp,20(sp)
    eb60:	df000504 	addi	fp,sp,20
    eb64:	e13ffc15 	stw	r4,-16(fp)
    eb68:	e17ffd15 	stw	r5,-12(fp)
    eb6c:	e0bffc17 	ldw	r2,-16(fp)
    eb70:	1004803a 	cmplt	r2,r2,zero
    eb74:	1000081e 	bne	r2,zero,eb98 <fstat+0x44>
    eb78:	e0bffc17 	ldw	r2,-16(fp)
    eb7c:	10800324 	muli	r2,r2,12
    eb80:	1007883a 	mov	r3,r2
    eb84:	00820034 	movhi	r2,2048
    eb88:	1083cc04 	addi	r2,r2,3888
    eb8c:	1887883a 	add	r3,r3,r2
    eb90:	e0ffff15 	stw	r3,-4(fp)
    eb94:	00000106 	br	eb9c <fstat+0x48>
    eb98:	e03fff15 	stw	zero,-4(fp)
    eb9c:	e0bfff17 	ldw	r2,-4(fp)
    eba0:	e0bffb15 	stw	r2,-20(fp)
    eba4:	e0bffb17 	ldw	r2,-20(fp)
    eba8:	1005003a 	cmpeq	r2,r2,zero
    ebac:	1000121e 	bne	r2,zero,ebf8 <fstat+0xa4>
    ebb0:	e0bffb17 	ldw	r2,-20(fp)
    ebb4:	10800017 	ldw	r2,0(r2)
    ebb8:	10800817 	ldw	r2,32(r2)
    ebbc:	1005003a 	cmpeq	r2,r2,zero
    ebc0:	1000081e 	bne	r2,zero,ebe4 <fstat+0x90>
    ebc4:	e0bffb17 	ldw	r2,-20(fp)
    ebc8:	10800017 	ldw	r2,0(r2)
    ebcc:	10800817 	ldw	r2,32(r2)
    ebd0:	e13ffb17 	ldw	r4,-20(fp)
    ebd4:	e17ffd17 	ldw	r5,-12(fp)
    ebd8:	103ee83a 	callr	r2
    ebdc:	e0bffe15 	stw	r2,-8(fp)
    ebe0:	00000b06 	br	ec10 <fstat+0xbc>
    ebe4:	e0fffd17 	ldw	r3,-12(fp)
    ebe8:	00880004 	movi	r2,8192
    ebec:	18800115 	stw	r2,4(r3)
    ebf0:	e03ffe15 	stw	zero,-8(fp)
    ebf4:	00000606 	br	ec10 <fstat+0xbc>
    ebf8:	000ec280 	call	ec28 <alt_get_errno>
    ebfc:	1007883a 	mov	r3,r2
    ec00:	00801444 	movi	r2,81
    ec04:	18800015 	stw	r2,0(r3)
    ec08:	00bfffc4 	movi	r2,-1
    ec0c:	e0bffe15 	stw	r2,-8(fp)
    ec10:	e0bffe17 	ldw	r2,-8(fp)
    ec14:	e037883a 	mov	sp,fp
    ec18:	dfc00117 	ldw	ra,4(sp)
    ec1c:	df000017 	ldw	fp,0(sp)
    ec20:	dec00204 	addi	sp,sp,8
    ec24:	f800283a 	ret

0000ec28 <alt_get_errno>:
    ec28:	defffd04 	addi	sp,sp,-12
    ec2c:	dfc00215 	stw	ra,8(sp)
    ec30:	df000115 	stw	fp,4(sp)
    ec34:	df000104 	addi	fp,sp,4
    ec38:	00820034 	movhi	r2,2048
    ec3c:	10893704 	addi	r2,r2,9436
    ec40:	10800017 	ldw	r2,0(r2)
    ec44:	1005003a 	cmpeq	r2,r2,zero
    ec48:	1000061e 	bne	r2,zero,ec64 <alt_get_errno+0x3c>
    ec4c:	00820034 	movhi	r2,2048
    ec50:	10893704 	addi	r2,r2,9436
    ec54:	10800017 	ldw	r2,0(r2)
    ec58:	103ee83a 	callr	r2
    ec5c:	e0bfff15 	stw	r2,-4(fp)
    ec60:	00000306 	br	ec70 <alt_get_errno+0x48>
    ec64:	00820034 	movhi	r2,2048
    ec68:	10896104 	addi	r2,r2,9604
    ec6c:	e0bfff15 	stw	r2,-4(fp)
    ec70:	e0bfff17 	ldw	r2,-4(fp)
    ec74:	e037883a 	mov	sp,fp
    ec78:	dfc00117 	ldw	ra,4(sp)
    ec7c:	df000017 	ldw	fp,0(sp)
    ec80:	dec00204 	addi	sp,sp,8
    ec84:	f800283a 	ret

0000ec88 <isatty>:
    ec88:	deffeb04 	addi	sp,sp,-84
    ec8c:	dfc01415 	stw	ra,80(sp)
    ec90:	df001315 	stw	fp,76(sp)
    ec94:	df001304 	addi	fp,sp,76
    ec98:	e13ffd15 	stw	r4,-12(fp)
    ec9c:	e0bffd17 	ldw	r2,-12(fp)
    eca0:	1004803a 	cmplt	r2,r2,zero
    eca4:	1000081e 	bne	r2,zero,ecc8 <isatty+0x40>
    eca8:	e0bffd17 	ldw	r2,-12(fp)
    ecac:	10800324 	muli	r2,r2,12
    ecb0:	1007883a 	mov	r3,r2
    ecb4:	00820034 	movhi	r2,2048
    ecb8:	1083cc04 	addi	r2,r2,3888
    ecbc:	1887883a 	add	r3,r3,r2
    ecc0:	e0ffff15 	stw	r3,-4(fp)
    ecc4:	00000106 	br	eccc <isatty+0x44>
    ecc8:	e03fff15 	stw	zero,-4(fp)
    eccc:	e0bfff17 	ldw	r2,-4(fp)
    ecd0:	e0bfed15 	stw	r2,-76(fp)
    ecd4:	e0bfed17 	ldw	r2,-76(fp)
    ecd8:	1005003a 	cmpeq	r2,r2,zero
    ecdc:	10000f1e 	bne	r2,zero,ed1c <isatty+0x94>
    ece0:	e0bfed17 	ldw	r2,-76(fp)
    ece4:	10800017 	ldw	r2,0(r2)
    ece8:	10800817 	ldw	r2,32(r2)
    ecec:	1004c03a 	cmpne	r2,r2,zero
    ecf0:	1000031e 	bne	r2,zero,ed00 <isatty+0x78>
    ecf4:	00800044 	movi	r2,1
    ecf8:	e0bffe15 	stw	r2,-8(fp)
    ecfc:	00000c06 	br	ed30 <isatty+0xa8>
    ed00:	e17fee04 	addi	r5,fp,-72
    ed04:	e13ffd17 	ldw	r4,-12(fp)
    ed08:	000eb540 	call	eb54 <fstat>
    ed0c:	e0bfef17 	ldw	r2,-68(fp)
    ed10:	10880020 	cmpeqi	r2,r2,8192
    ed14:	e0bffe15 	stw	r2,-8(fp)
    ed18:	00000506 	br	ed30 <isatty+0xa8>
    ed1c:	000ed480 	call	ed48 <alt_get_errno>
    ed20:	1007883a 	mov	r3,r2
    ed24:	00801444 	movi	r2,81
    ed28:	18800015 	stw	r2,0(r3)
    ed2c:	e03ffe15 	stw	zero,-8(fp)
    ed30:	e0bffe17 	ldw	r2,-8(fp)
    ed34:	e037883a 	mov	sp,fp
    ed38:	dfc00117 	ldw	ra,4(sp)
    ed3c:	df000017 	ldw	fp,0(sp)
    ed40:	dec00204 	addi	sp,sp,8
    ed44:	f800283a 	ret

0000ed48 <alt_get_errno>:
    ed48:	defffd04 	addi	sp,sp,-12
    ed4c:	dfc00215 	stw	ra,8(sp)
    ed50:	df000115 	stw	fp,4(sp)
    ed54:	df000104 	addi	fp,sp,4
    ed58:	00820034 	movhi	r2,2048
    ed5c:	10893704 	addi	r2,r2,9436
    ed60:	10800017 	ldw	r2,0(r2)
    ed64:	1005003a 	cmpeq	r2,r2,zero
    ed68:	1000061e 	bne	r2,zero,ed84 <alt_get_errno+0x3c>
    ed6c:	00820034 	movhi	r2,2048
    ed70:	10893704 	addi	r2,r2,9436
    ed74:	10800017 	ldw	r2,0(r2)
    ed78:	103ee83a 	callr	r2
    ed7c:	e0bfff15 	stw	r2,-4(fp)
    ed80:	00000306 	br	ed90 <alt_get_errno+0x48>
    ed84:	00820034 	movhi	r2,2048
    ed88:	10896104 	addi	r2,r2,9604
    ed8c:	e0bfff15 	stw	r2,-4(fp)
    ed90:	e0bfff17 	ldw	r2,-4(fp)
    ed94:	e037883a 	mov	sp,fp
    ed98:	dfc00117 	ldw	ra,4(sp)
    ed9c:	df000017 	ldw	fp,0(sp)
    eda0:	dec00204 	addi	sp,sp,8
    eda4:	f800283a 	ret

0000eda8 <lseek>:
    eda8:	defff804 	addi	sp,sp,-32
    edac:	dfc00715 	stw	ra,28(sp)
    edb0:	df000615 	stw	fp,24(sp)
    edb4:	df000604 	addi	fp,sp,24
    edb8:	e13ffc15 	stw	r4,-16(fp)
    edbc:	e17ffd15 	stw	r5,-12(fp)
    edc0:	e1bffe15 	stw	r6,-8(fp)
    edc4:	e03ffa15 	stw	zero,-24(fp)
    edc8:	e0bffc17 	ldw	r2,-16(fp)
    edcc:	1004803a 	cmplt	r2,r2,zero
    edd0:	1000081e 	bne	r2,zero,edf4 <lseek+0x4c>
    edd4:	e0bffc17 	ldw	r2,-16(fp)
    edd8:	10800324 	muli	r2,r2,12
    eddc:	1007883a 	mov	r3,r2
    ede0:	00820034 	movhi	r2,2048
    ede4:	1083cc04 	addi	r2,r2,3888
    ede8:	1887883a 	add	r3,r3,r2
    edec:	e0ffff15 	stw	r3,-4(fp)
    edf0:	00000106 	br	edf8 <lseek+0x50>
    edf4:	e03fff15 	stw	zero,-4(fp)
    edf8:	e0bfff17 	ldw	r2,-4(fp)
    edfc:	e0bffb15 	stw	r2,-20(fp)
    ee00:	e0bffb17 	ldw	r2,-20(fp)
    ee04:	1005003a 	cmpeq	r2,r2,zero
    ee08:	1000111e 	bne	r2,zero,ee50 <lseek+0xa8>
    ee0c:	e0bffb17 	ldw	r2,-20(fp)
    ee10:	10800017 	ldw	r2,0(r2)
    ee14:	10800717 	ldw	r2,28(r2)
    ee18:	1005003a 	cmpeq	r2,r2,zero
    ee1c:	1000091e 	bne	r2,zero,ee44 <lseek+0x9c>
    ee20:	e0bffb17 	ldw	r2,-20(fp)
    ee24:	10800017 	ldw	r2,0(r2)
    ee28:	10800717 	ldw	r2,28(r2)
    ee2c:	e13ffb17 	ldw	r4,-20(fp)
    ee30:	e17ffd17 	ldw	r5,-12(fp)
    ee34:	e1bffe17 	ldw	r6,-8(fp)
    ee38:	103ee83a 	callr	r2
    ee3c:	e0bffa15 	stw	r2,-24(fp)
    ee40:	00000506 	br	ee58 <lseek+0xb0>
    ee44:	00bfde84 	movi	r2,-134
    ee48:	e0bffa15 	stw	r2,-24(fp)
    ee4c:	00000206 	br	ee58 <lseek+0xb0>
    ee50:	00bfebc4 	movi	r2,-81
    ee54:	e0bffa15 	stw	r2,-24(fp)
    ee58:	e0bffa17 	ldw	r2,-24(fp)
    ee5c:	1004403a 	cmpge	r2,r2,zero
    ee60:	1000071e 	bne	r2,zero,ee80 <lseek+0xd8>
    ee64:	000ee980 	call	ee98 <alt_get_errno>
    ee68:	1007883a 	mov	r3,r2
    ee6c:	e0bffa17 	ldw	r2,-24(fp)
    ee70:	0085c83a 	sub	r2,zero,r2
    ee74:	18800015 	stw	r2,0(r3)
    ee78:	00bfffc4 	movi	r2,-1
    ee7c:	e0bffa15 	stw	r2,-24(fp)
    ee80:	e0bffa17 	ldw	r2,-24(fp)
    ee84:	e037883a 	mov	sp,fp
    ee88:	dfc00117 	ldw	ra,4(sp)
    ee8c:	df000017 	ldw	fp,0(sp)
    ee90:	dec00204 	addi	sp,sp,8
    ee94:	f800283a 	ret

0000ee98 <alt_get_errno>:
    ee98:	defffd04 	addi	sp,sp,-12
    ee9c:	dfc00215 	stw	ra,8(sp)
    eea0:	df000115 	stw	fp,4(sp)
    eea4:	df000104 	addi	fp,sp,4
    eea8:	00820034 	movhi	r2,2048
    eeac:	10893704 	addi	r2,r2,9436
    eeb0:	10800017 	ldw	r2,0(r2)
    eeb4:	1005003a 	cmpeq	r2,r2,zero
    eeb8:	1000061e 	bne	r2,zero,eed4 <alt_get_errno+0x3c>
    eebc:	00820034 	movhi	r2,2048
    eec0:	10893704 	addi	r2,r2,9436
    eec4:	10800017 	ldw	r2,0(r2)
    eec8:	103ee83a 	callr	r2
    eecc:	e0bfff15 	stw	r2,-4(fp)
    eed0:	00000306 	br	eee0 <alt_get_errno+0x48>
    eed4:	00820034 	movhi	r2,2048
    eed8:	10896104 	addi	r2,r2,9604
    eedc:	e0bfff15 	stw	r2,-4(fp)
    eee0:	e0bfff17 	ldw	r2,-4(fp)
    eee4:	e037883a 	mov	sp,fp
    eee8:	dfc00117 	ldw	ra,4(sp)
    eeec:	df000017 	ldw	fp,0(sp)
    eef0:	dec00204 	addi	sp,sp,8
    eef4:	f800283a 	ret

0000eef8 <alt_main>:
    eef8:	defffd04 	addi	sp,sp,-12
    eefc:	dfc00215 	stw	ra,8(sp)
    ef00:	df000115 	stw	fp,4(sp)
    ef04:	df000104 	addi	fp,sp,4
    ef08:	0009883a 	mov	r4,zero
    ef0c:	000f3c00 	call	f3c0 <alt_irq_init>
    ef10:	000f3f40 	call	f3f4 <alt_sys_init>
    ef14:	01020034 	movhi	r4,2048
    ef18:	2100e504 	addi	r4,r4,916
    ef1c:	01420034 	movhi	r5,2048
    ef20:	2940e504 	addi	r5,r5,916
    ef24:	01820034 	movhi	r6,2048
    ef28:	3180e504 	addi	r6,r6,916
    ef2c:	00149740 	call	14974 <alt_io_redirect>
    ef30:	00146840 	call	14684 <_do_ctors>
    ef34:	01000074 	movhi	r4,1
    ef38:	2111ba04 	addi	r4,r4,18152
    ef3c:	0015a680 	call	15a68 <atexit>
    ef40:	d1203b17 	ldw	r4,-32532(gp)
    ef44:	d1603c17 	ldw	r5,-32528(gp)
    ef48:	d1a03d17 	ldw	r6,-32524(gp)
    ef4c:	000513c0 	call	513c <main>
    ef50:	e0bfff15 	stw	r2,-4(fp)
    ef54:	01000044 	movi	r4,1
    ef58:	000e9cc0 	call	e9cc <close>
    ef5c:	e13fff17 	ldw	r4,-4(fp)
    ef60:	0015a7c0 	call	15a7c <exit>

0000ef64 <__malloc_lock>:
    ef64:	defffe04 	addi	sp,sp,-8
    ef68:	df000115 	stw	fp,4(sp)
    ef6c:	df000104 	addi	fp,sp,4
    ef70:	e13fff15 	stw	r4,-4(fp)
    ef74:	e037883a 	mov	sp,fp
    ef78:	df000017 	ldw	fp,0(sp)
    ef7c:	dec00104 	addi	sp,sp,4
    ef80:	f800283a 	ret

0000ef84 <__malloc_unlock>:
    ef84:	defffe04 	addi	sp,sp,-8
    ef88:	df000115 	stw	fp,4(sp)
    ef8c:	df000104 	addi	fp,sp,4
    ef90:	e13fff15 	stw	r4,-4(fp)
    ef94:	e037883a 	mov	sp,fp
    ef98:	df000017 	ldw	fp,0(sp)
    ef9c:	dec00104 	addi	sp,sp,4
    efa0:	f800283a 	ret

0000efa4 <read>:
    efa4:	defff704 	addi	sp,sp,-36
    efa8:	dfc00815 	stw	ra,32(sp)
    efac:	df000715 	stw	fp,28(sp)
    efb0:	df000704 	addi	fp,sp,28
    efb4:	e13ffb15 	stw	r4,-20(fp)
    efb8:	e17ffc15 	stw	r5,-16(fp)
    efbc:	e1bffd15 	stw	r6,-12(fp)
    efc0:	e0bffb17 	ldw	r2,-20(fp)
    efc4:	1004803a 	cmplt	r2,r2,zero
    efc8:	1000081e 	bne	r2,zero,efec <read+0x48>
    efcc:	e0bffb17 	ldw	r2,-20(fp)
    efd0:	10800324 	muli	r2,r2,12
    efd4:	1007883a 	mov	r3,r2
    efd8:	00820034 	movhi	r2,2048
    efdc:	1083cc04 	addi	r2,r2,3888
    efe0:	1887883a 	add	r3,r3,r2
    efe4:	e0ffff15 	stw	r3,-4(fp)
    efe8:	00000106 	br	eff0 <read+0x4c>
    efec:	e03fff15 	stw	zero,-4(fp)
    eff0:	e0bfff17 	ldw	r2,-4(fp)
    eff4:	e0bffa15 	stw	r2,-24(fp)
    eff8:	e0bffa17 	ldw	r2,-24(fp)
    effc:	1005003a 	cmpeq	r2,r2,zero
    f000:	1000241e 	bne	r2,zero,f094 <read+0xf0>
    f004:	e0bffa17 	ldw	r2,-24(fp)
    f008:	10800217 	ldw	r2,8(r2)
    f00c:	108000cc 	andi	r2,r2,3
    f010:	10800060 	cmpeqi	r2,r2,1
    f014:	10001a1e 	bne	r2,zero,f080 <read+0xdc>
    f018:	e0bffa17 	ldw	r2,-24(fp)
    f01c:	10800017 	ldw	r2,0(r2)
    f020:	10800517 	ldw	r2,20(r2)
    f024:	1005003a 	cmpeq	r2,r2,zero
    f028:	1000151e 	bne	r2,zero,f080 <read+0xdc>
    f02c:	e0bffa17 	ldw	r2,-24(fp)
    f030:	10800017 	ldw	r2,0(r2)
    f034:	10800517 	ldw	r2,20(r2)
    f038:	e17ffc17 	ldw	r5,-16(fp)
    f03c:	e1bffd17 	ldw	r6,-12(fp)
    f040:	e13ffa17 	ldw	r4,-24(fp)
    f044:	103ee83a 	callr	r2
    f048:	e0bff915 	stw	r2,-28(fp)
    f04c:	e0bff917 	ldw	r2,-28(fp)
    f050:	1004403a 	cmpge	r2,r2,zero
    f054:	1000071e 	bne	r2,zero,f074 <read+0xd0>
    f058:	000f0c40 	call	f0c4 <alt_get_errno>
    f05c:	e0fff917 	ldw	r3,-28(fp)
    f060:	00c7c83a 	sub	r3,zero,r3
    f064:	10c00015 	stw	r3,0(r2)
    f068:	00bfffc4 	movi	r2,-1
    f06c:	e0bffe15 	stw	r2,-8(fp)
    f070:	00000e06 	br	f0ac <read+0x108>
    f074:	e0bff917 	ldw	r2,-28(fp)
    f078:	e0bffe15 	stw	r2,-8(fp)
    f07c:	00000b06 	br	f0ac <read+0x108>
    f080:	000f0c40 	call	f0c4 <alt_get_errno>
    f084:	1007883a 	mov	r3,r2
    f088:	00800344 	movi	r2,13
    f08c:	18800015 	stw	r2,0(r3)
    f090:	00000406 	br	f0a4 <read+0x100>
    f094:	000f0c40 	call	f0c4 <alt_get_errno>
    f098:	1007883a 	mov	r3,r2
    f09c:	00801444 	movi	r2,81
    f0a0:	18800015 	stw	r2,0(r3)
    f0a4:	00bfffc4 	movi	r2,-1
    f0a8:	e0bffe15 	stw	r2,-8(fp)
    f0ac:	e0bffe17 	ldw	r2,-8(fp)
    f0b0:	e037883a 	mov	sp,fp
    f0b4:	dfc00117 	ldw	ra,4(sp)
    f0b8:	df000017 	ldw	fp,0(sp)
    f0bc:	dec00204 	addi	sp,sp,8
    f0c0:	f800283a 	ret

0000f0c4 <alt_get_errno>:
    f0c4:	defffd04 	addi	sp,sp,-12
    f0c8:	dfc00215 	stw	ra,8(sp)
    f0cc:	df000115 	stw	fp,4(sp)
    f0d0:	df000104 	addi	fp,sp,4
    f0d4:	00820034 	movhi	r2,2048
    f0d8:	10893704 	addi	r2,r2,9436
    f0dc:	10800017 	ldw	r2,0(r2)
    f0e0:	1005003a 	cmpeq	r2,r2,zero
    f0e4:	1000061e 	bne	r2,zero,f100 <alt_get_errno+0x3c>
    f0e8:	00820034 	movhi	r2,2048
    f0ec:	10893704 	addi	r2,r2,9436
    f0f0:	10800017 	ldw	r2,0(r2)
    f0f4:	103ee83a 	callr	r2
    f0f8:	e0bfff15 	stw	r2,-4(fp)
    f0fc:	00000306 	br	f10c <alt_get_errno+0x48>
    f100:	00820034 	movhi	r2,2048
    f104:	10896104 	addi	r2,r2,9604
    f108:	e0bfff15 	stw	r2,-4(fp)
    f10c:	e0bfff17 	ldw	r2,-4(fp)
    f110:	e037883a 	mov	sp,fp
    f114:	dfc00117 	ldw	ra,4(sp)
    f118:	df000017 	ldw	fp,0(sp)
    f11c:	dec00204 	addi	sp,sp,8
    f120:	f800283a 	ret

0000f124 <alt_release_fd>:
    f124:	defffe04 	addi	sp,sp,-8
    f128:	df000115 	stw	fp,4(sp)
    f12c:	df000104 	addi	fp,sp,4
    f130:	e13fff15 	stw	r4,-4(fp)
    f134:	e0bfff17 	ldw	r2,-4(fp)
    f138:	108000d0 	cmplti	r2,r2,3
    f13c:	10000d1e 	bne	r2,zero,f174 <alt_release_fd+0x50>
    f140:	e0bfff17 	ldw	r2,-4(fp)
    f144:	00c20034 	movhi	r3,2048
    f148:	18c3cc04 	addi	r3,r3,3888
    f14c:	10800324 	muli	r2,r2,12
    f150:	10c5883a 	add	r2,r2,r3
    f154:	10800204 	addi	r2,r2,8
    f158:	10000015 	stw	zero,0(r2)
    f15c:	e0bfff17 	ldw	r2,-4(fp)
    f160:	00c20034 	movhi	r3,2048
    f164:	18c3cc04 	addi	r3,r3,3888
    f168:	10800324 	muli	r2,r2,12
    f16c:	10c5883a 	add	r2,r2,r3
    f170:	10000015 	stw	zero,0(r2)
    f174:	e037883a 	mov	sp,fp
    f178:	df000017 	ldw	fp,0(sp)
    f17c:	dec00104 	addi	sp,sp,4
    f180:	f800283a 	ret

0000f184 <sbrk>:
    f184:	defff804 	addi	sp,sp,-32
    f188:	df000715 	stw	fp,28(sp)
    f18c:	df000704 	addi	fp,sp,28
    f190:	e13ffe15 	stw	r4,-8(fp)
    f194:	0005303a 	rdctl	r2,status
    f198:	e0bffb15 	stw	r2,-20(fp)
    f19c:	e0fffb17 	ldw	r3,-20(fp)
    f1a0:	00bfff84 	movi	r2,-2
    f1a4:	1884703a 	and	r2,r3,r2
    f1a8:	1001703a 	wrctl	status,r2
    f1ac:	e0bffb17 	ldw	r2,-20(fp)
    f1b0:	e0bffd15 	stw	r2,-12(fp)
    f1b4:	d0a01117 	ldw	r2,-32700(gp)
    f1b8:	10c000c4 	addi	r3,r2,3
    f1bc:	00bfff04 	movi	r2,-4
    f1c0:	1884703a 	and	r2,r3,r2
    f1c4:	d0a01115 	stw	r2,-32700(gp)
    f1c8:	d0e01117 	ldw	r3,-32700(gp)
    f1cc:	e0bffe17 	ldw	r2,-8(fp)
    f1d0:	1887883a 	add	r3,r3,r2
    f1d4:	00840034 	movhi	r2,4096
    f1d8:	10800004 	addi	r2,r2,0
    f1dc:	10c0072e 	bgeu	r2,r3,f1fc <sbrk+0x78>
    f1e0:	e0bffd17 	ldw	r2,-12(fp)
    f1e4:	e0bffa15 	stw	r2,-24(fp)
    f1e8:	e0bffa17 	ldw	r2,-24(fp)
    f1ec:	1001703a 	wrctl	status,r2
    f1f0:	00bfffc4 	movi	r2,-1
    f1f4:	e0bfff15 	stw	r2,-4(fp)
    f1f8:	00000c06 	br	f22c <sbrk+0xa8>
    f1fc:	d0a01117 	ldw	r2,-32700(gp)
    f200:	e0bffc15 	stw	r2,-16(fp)
    f204:	d0e01117 	ldw	r3,-32700(gp)
    f208:	e0bffe17 	ldw	r2,-8(fp)
    f20c:	1885883a 	add	r2,r3,r2
    f210:	d0a01115 	stw	r2,-32700(gp)
    f214:	e0bffd17 	ldw	r2,-12(fp)
    f218:	e0bff915 	stw	r2,-28(fp)
    f21c:	e0bff917 	ldw	r2,-28(fp)
    f220:	1001703a 	wrctl	status,r2
    f224:	e0bffc17 	ldw	r2,-16(fp)
    f228:	e0bfff15 	stw	r2,-4(fp)
    f22c:	e0bfff17 	ldw	r2,-4(fp)
    f230:	e037883a 	mov	sp,fp
    f234:	df000017 	ldw	fp,0(sp)
    f238:	dec00104 	addi	sp,sp,4
    f23c:	f800283a 	ret

0000f240 <write>:
    f240:	defff704 	addi	sp,sp,-36
    f244:	dfc00815 	stw	ra,32(sp)
    f248:	df000715 	stw	fp,28(sp)
    f24c:	df000704 	addi	fp,sp,28
    f250:	e13ffb15 	stw	r4,-20(fp)
    f254:	e17ffc15 	stw	r5,-16(fp)
    f258:	e1bffd15 	stw	r6,-12(fp)
    f25c:	e0bffb17 	ldw	r2,-20(fp)
    f260:	1004803a 	cmplt	r2,r2,zero
    f264:	1000081e 	bne	r2,zero,f288 <write+0x48>
    f268:	e0bffb17 	ldw	r2,-20(fp)
    f26c:	10800324 	muli	r2,r2,12
    f270:	1007883a 	mov	r3,r2
    f274:	00820034 	movhi	r2,2048
    f278:	1083cc04 	addi	r2,r2,3888
    f27c:	1887883a 	add	r3,r3,r2
    f280:	e0ffff15 	stw	r3,-4(fp)
    f284:	00000106 	br	f28c <write+0x4c>
    f288:	e03fff15 	stw	zero,-4(fp)
    f28c:	e0bfff17 	ldw	r2,-4(fp)
    f290:	e0bffa15 	stw	r2,-24(fp)
    f294:	e0bffa17 	ldw	r2,-24(fp)
    f298:	1005003a 	cmpeq	r2,r2,zero
    f29c:	1000241e 	bne	r2,zero,f330 <write+0xf0>
    f2a0:	e0bffa17 	ldw	r2,-24(fp)
    f2a4:	10800217 	ldw	r2,8(r2)
    f2a8:	108000cc 	andi	r2,r2,3
    f2ac:	1005003a 	cmpeq	r2,r2,zero
    f2b0:	10001a1e 	bne	r2,zero,f31c <write+0xdc>
    f2b4:	e0bffa17 	ldw	r2,-24(fp)
    f2b8:	10800017 	ldw	r2,0(r2)
    f2bc:	10800617 	ldw	r2,24(r2)
    f2c0:	1005003a 	cmpeq	r2,r2,zero
    f2c4:	1000151e 	bne	r2,zero,f31c <write+0xdc>
    f2c8:	e0bffa17 	ldw	r2,-24(fp)
    f2cc:	10800017 	ldw	r2,0(r2)
    f2d0:	10800617 	ldw	r2,24(r2)
    f2d4:	e17ffc17 	ldw	r5,-16(fp)
    f2d8:	e1bffd17 	ldw	r6,-12(fp)
    f2dc:	e13ffa17 	ldw	r4,-24(fp)
    f2e0:	103ee83a 	callr	r2
    f2e4:	e0bff915 	stw	r2,-28(fp)
    f2e8:	e0bff917 	ldw	r2,-28(fp)
    f2ec:	1004403a 	cmpge	r2,r2,zero
    f2f0:	1000071e 	bne	r2,zero,f310 <write+0xd0>
    f2f4:	000f3600 	call	f360 <alt_get_errno>
    f2f8:	e0fff917 	ldw	r3,-28(fp)
    f2fc:	00c7c83a 	sub	r3,zero,r3
    f300:	10c00015 	stw	r3,0(r2)
    f304:	00bfffc4 	movi	r2,-1
    f308:	e0bffe15 	stw	r2,-8(fp)
    f30c:	00000e06 	br	f348 <write+0x108>
    f310:	e0bff917 	ldw	r2,-28(fp)
    f314:	e0bffe15 	stw	r2,-8(fp)
    f318:	00000b06 	br	f348 <write+0x108>
    f31c:	000f3600 	call	f360 <alt_get_errno>
    f320:	1007883a 	mov	r3,r2
    f324:	00800344 	movi	r2,13
    f328:	18800015 	stw	r2,0(r3)
    f32c:	00000406 	br	f340 <write+0x100>
    f330:	000f3600 	call	f360 <alt_get_errno>
    f334:	1007883a 	mov	r3,r2
    f338:	00801444 	movi	r2,81
    f33c:	18800015 	stw	r2,0(r3)
    f340:	00bfffc4 	movi	r2,-1
    f344:	e0bffe15 	stw	r2,-8(fp)
    f348:	e0bffe17 	ldw	r2,-8(fp)
    f34c:	e037883a 	mov	sp,fp
    f350:	dfc00117 	ldw	ra,4(sp)
    f354:	df000017 	ldw	fp,0(sp)
    f358:	dec00204 	addi	sp,sp,8
    f35c:	f800283a 	ret

0000f360 <alt_get_errno>:
    f360:	defffd04 	addi	sp,sp,-12
    f364:	dfc00215 	stw	ra,8(sp)
    f368:	df000115 	stw	fp,4(sp)
    f36c:	df000104 	addi	fp,sp,4
    f370:	00820034 	movhi	r2,2048
    f374:	10893704 	addi	r2,r2,9436
    f378:	10800017 	ldw	r2,0(r2)
    f37c:	1005003a 	cmpeq	r2,r2,zero
    f380:	1000061e 	bne	r2,zero,f39c <alt_get_errno+0x3c>
    f384:	00820034 	movhi	r2,2048
    f388:	10893704 	addi	r2,r2,9436
    f38c:	10800017 	ldw	r2,0(r2)
    f390:	103ee83a 	callr	r2
    f394:	e0bfff15 	stw	r2,-4(fp)
    f398:	00000306 	br	f3a8 <alt_get_errno+0x48>
    f39c:	00820034 	movhi	r2,2048
    f3a0:	10896104 	addi	r2,r2,9604
    f3a4:	e0bfff15 	stw	r2,-4(fp)
    f3a8:	e0bfff17 	ldw	r2,-4(fp)
    f3ac:	e037883a 	mov	sp,fp
    f3b0:	dfc00117 	ldw	ra,4(sp)
    f3b4:	df000017 	ldw	fp,0(sp)
    f3b8:	dec00204 	addi	sp,sp,8
    f3bc:	f800283a 	ret

0000f3c0 <alt_irq_init>:
    f3c0:	defffd04 	addi	sp,sp,-12
    f3c4:	dfc00215 	stw	ra,8(sp)
    f3c8:	df000115 	stw	fp,4(sp)
    f3cc:	df000104 	addi	fp,sp,4
    f3d0:	e13fff15 	stw	r4,-4(fp)
    f3d4:	0014e840 	call	14e84 <altera_nios2_qsys_irq_init>
    f3d8:	00800044 	movi	r2,1
    f3dc:	1001703a 	wrctl	status,r2
    f3e0:	e037883a 	mov	sp,fp
    f3e4:	dfc00117 	ldw	ra,4(sp)
    f3e8:	df000017 	ldw	fp,0(sp)
    f3ec:	dec00204 	addi	sp,sp,8
    f3f0:	f800283a 	ret

0000f3f4 <alt_sys_init>:
    f3f4:	defffd04 	addi	sp,sp,-12
    f3f8:	dfc00215 	stw	ra,8(sp)
    f3fc:	df000115 	stw	fp,4(sp)
    f400:	df000104 	addi	fp,sp,4
    f404:	01000134 	movhi	r4,4
    f408:	210c1004 	addi	r4,r4,12352
    f40c:	000b883a 	mov	r5,zero
    f410:	000d883a 	mov	r6,zero
    f414:	01c0fa04 	movi	r7,1000
    f418:	0012f6c0 	call	12f6c <alt_avalon_timer_sc_init>
    f41c:	01020034 	movhi	r4,2048
    f420:	21042c04 	addi	r4,r4,4272
    f424:	000f7980 	call	f798 <alt_flash_cfi_init>
    f428:	01020034 	movhi	r4,2048
    f42c:	21046c04 	addi	r4,r4,4528
    f430:	000b883a 	mov	r5,zero
    f434:	01800144 	movi	r6,5
    f438:	00116600 	call	11660 <altera_avalon_jtag_uart_init>
    f43c:	01020034 	movhi	r4,2048
    f440:	21046204 	addi	r4,r4,4488
    f444:	000f7600 	call	f760 <alt_dev_reg>
    f448:	01020034 	movhi	r4,2048
    f44c:	21088404 	addi	r4,r4,8720
    f450:	0012d640 	call	12d64 <altera_avalon_lcd_16207_init>
    f454:	01020034 	movhi	r4,2048
    f458:	21087a04 	addi	r4,r4,8680
    f45c:	000f7600 	call	f760 <alt_dev_reg>
    f460:	01020034 	movhi	r4,2048
    f464:	2108cc04 	addi	r4,r4,9008
    f468:	000b883a 	mov	r5,zero
    f46c:	018000c4 	movi	r6,3
    f470:	00130ec0 	call	130ec <altera_avalon_uart_init>
    f474:	01020034 	movhi	r4,2048
    f478:	2108c204 	addi	r4,r4,8968
    f47c:	000f7600 	call	f760 <alt_dev_reg>
    f480:	01020034 	movhi	r4,2048
    f484:	2108f304 	addi	r4,r4,9164
    f488:	0013acc0 	call	13acc <alt_up_ps2_init>
    f48c:	01020034 	movhi	r4,2048
    f490:	2108f304 	addi	r4,r4,9164
    f494:	000f7600 	call	f760 <alt_dev_reg>
    f498:	00820034 	movhi	r2,2048
    f49c:	10890104 	addi	r2,r2,9220
    f4a0:	10800a17 	ldw	r2,40(r2)
    f4a4:	10800104 	addi	r2,r2,4
    f4a8:	10800017 	ldw	r2,0(r2)
    f4ac:	10ffffcc 	andi	r3,r2,65535
    f4b0:	00820034 	movhi	r2,2048
    f4b4:	10890104 	addi	r2,r2,9220
    f4b8:	10c00c15 	stw	r3,48(r2)
    f4bc:	00820034 	movhi	r2,2048
    f4c0:	10890104 	addi	r2,r2,9220
    f4c4:	10800a17 	ldw	r2,40(r2)
    f4c8:	10800104 	addi	r2,r2,4
    f4cc:	10800017 	ldw	r2,0(r2)
    f4d0:	1005d43a 	srai	r2,r2,16
    f4d4:	10ffffcc 	andi	r3,r2,65535
    f4d8:	00820034 	movhi	r2,2048
    f4dc:	10890104 	addi	r2,r2,9220
    f4e0:	10c00d15 	stw	r3,52(r2)
    f4e4:	00820034 	movhi	r2,2048
    f4e8:	10890104 	addi	r2,r2,9220
    f4ec:	10800c17 	ldw	r2,48(r2)
    f4f0:	10801068 	cmpgeui	r2,r2,65
    f4f4:	1000081e 	bne	r2,zero,f518 <alt_sys_init+0x124>
    f4f8:	00c20034 	movhi	r3,2048
    f4fc:	18c90104 	addi	r3,r3,9220
    f500:	00800fc4 	movi	r2,63
    f504:	18800f15 	stw	r2,60(r3)
    f508:	00c20034 	movhi	r3,2048
    f50c:	18c90104 	addi	r3,r3,9220
    f510:	00800184 	movi	r2,6
    f514:	18801015 	stw	r2,64(r3)
    f518:	00820034 	movhi	r2,2048
    f51c:	10890104 	addi	r2,r2,9220
    f520:	10800d17 	ldw	r2,52(r2)
    f524:	10800868 	cmpgeui	r2,r2,33
    f528:	1000041e 	bne	r2,zero,f53c <alt_sys_init+0x148>
    f52c:	00c20034 	movhi	r3,2048
    f530:	18c90104 	addi	r3,r3,9220
    f534:	008007c4 	movi	r2,31
    f538:	18801115 	stw	r2,68(r3)
    f53c:	01020034 	movhi	r4,2048
    f540:	21090104 	addi	r4,r4,9220
    f544:	00140a00 	call	140a0 <alt_up_char_buffer_init>
    f548:	01020034 	movhi	r4,2048
    f54c:	21090104 	addi	r4,r4,9220
    f550:	000f7600 	call	f760 <alt_dev_reg>
    f554:	00820034 	movhi	r2,2048
    f558:	10891304 	addi	r2,r2,9292
    f55c:	10800a17 	ldw	r2,40(r2)
    f560:	10800017 	ldw	r2,0(r2)
    f564:	1007883a 	mov	r3,r2
    f568:	00820034 	movhi	r2,2048
    f56c:	10891304 	addi	r2,r2,9292
    f570:	10c00b15 	stw	r3,44(r2)
    f574:	00820034 	movhi	r2,2048
    f578:	10891304 	addi	r2,r2,9292
    f57c:	10800a17 	ldw	r2,40(r2)
    f580:	10800104 	addi	r2,r2,4
    f584:	10800017 	ldw	r2,0(r2)
    f588:	1007883a 	mov	r3,r2
    f58c:	00820034 	movhi	r2,2048
    f590:	10891304 	addi	r2,r2,9292
    f594:	10c00c15 	stw	r3,48(r2)
    f598:	00820034 	movhi	r2,2048
    f59c:	10891304 	addi	r2,r2,9292
    f5a0:	10800a17 	ldw	r2,40(r2)
    f5a4:	10800204 	addi	r2,r2,8
    f5a8:	10800017 	ldw	r2,0(r2)
    f5ac:	10ffffcc 	andi	r3,r2,65535
    f5b0:	00820034 	movhi	r2,2048
    f5b4:	10891304 	addi	r2,r2,9292
    f5b8:	10c00f15 	stw	r3,60(r2)
    f5bc:	00820034 	movhi	r2,2048
    f5c0:	10891304 	addi	r2,r2,9292
    f5c4:	10800a17 	ldw	r2,40(r2)
    f5c8:	10800204 	addi	r2,r2,8
    f5cc:	10800017 	ldw	r2,0(r2)
    f5d0:	1005d43a 	srai	r2,r2,16
    f5d4:	10ffffcc 	andi	r3,r2,65535
    f5d8:	00820034 	movhi	r2,2048
    f5dc:	10891304 	addi	r2,r2,9292
    f5e0:	10c01015 	stw	r3,64(r2)
    f5e4:	00820034 	movhi	r2,2048
    f5e8:	10891304 	addi	r2,r2,9292
    f5ec:	10800a17 	ldw	r2,40(r2)
    f5f0:	10800304 	addi	r2,r2,12
    f5f4:	10800017 	ldw	r2,0(r2)
    f5f8:	1005d07a 	srai	r2,r2,1
    f5fc:	10c0004c 	andi	r3,r2,1
    f600:	00820034 	movhi	r2,2048
    f604:	10891304 	addi	r2,r2,9292
    f608:	10c00d15 	stw	r3,52(r2)
    f60c:	00820034 	movhi	r2,2048
    f610:	10891304 	addi	r2,r2,9292
    f614:	10800a17 	ldw	r2,40(r2)
    f618:	10800304 	addi	r2,r2,12
    f61c:	10800017 	ldw	r2,0(r2)
    f620:	1005d13a 	srai	r2,r2,4
    f624:	10c003cc 	andi	r3,r2,15
    f628:	00820034 	movhi	r2,2048
    f62c:	10891304 	addi	r2,r2,9292
    f630:	10c00e15 	stw	r3,56(r2)
    f634:	00820034 	movhi	r2,2048
    f638:	10891304 	addi	r2,r2,9292
    f63c:	10800a17 	ldw	r2,40(r2)
    f640:	10800304 	addi	r2,r2,12
    f644:	10800017 	ldw	r2,0(r2)
    f648:	1005d43a 	srai	r2,r2,16
    f64c:	1007883a 	mov	r3,r2
    f650:	00bfffc4 	movi	r2,-1
    f654:	1884703a 	and	r2,r3,r2
    f658:	e0bfff45 	stb	r2,-3(fp)
    f65c:	00820034 	movhi	r2,2048
    f660:	10891304 	addi	r2,r2,9292
    f664:	10800a17 	ldw	r2,40(r2)
    f668:	10800304 	addi	r2,r2,12
    f66c:	10800017 	ldw	r2,0(r2)
    f670:	1005d63a 	srai	r2,r2,24
    f674:	1007883a 	mov	r3,r2
    f678:	00bfffc4 	movi	r2,-1
    f67c:	1884703a 	and	r2,r3,r2
    f680:	e0bfff05 	stb	r2,-4(fp)
    f684:	00820034 	movhi	r2,2048
    f688:	10891304 	addi	r2,r2,9292
    f68c:	10800e17 	ldw	r2,56(r2)
    f690:	10800058 	cmpnei	r2,r2,1
    f694:	1000041e 	bne	r2,zero,f6a8 <alt_sys_init+0x2b4>
    f698:	00820034 	movhi	r2,2048
    f69c:	10891304 	addi	r2,r2,9292
    f6a0:	10001115 	stw	zero,68(r2)
    f6a4:	00000e06 	br	f6e0 <alt_sys_init+0x2ec>
    f6a8:	00820034 	movhi	r2,2048
    f6ac:	10891304 	addi	r2,r2,9292
    f6b0:	10800e17 	ldw	r2,56(r2)
    f6b4:	10800098 	cmpnei	r2,r2,2
    f6b8:	1000051e 	bne	r2,zero,f6d0 <alt_sys_init+0x2dc>
    f6bc:	00c20034 	movhi	r3,2048
    f6c0:	18c91304 	addi	r3,r3,9292
    f6c4:	00800044 	movi	r2,1
    f6c8:	18801115 	stw	r2,68(r3)
    f6cc:	00000406 	br	f6e0 <alt_sys_init+0x2ec>
    f6d0:	00c20034 	movhi	r3,2048
    f6d4:	18c91304 	addi	r3,r3,9292
    f6d8:	00800084 	movi	r2,2
    f6dc:	18801115 	stw	r2,68(r3)
    f6e0:	e0ffff43 	ldbu	r3,-3(fp)
    f6e4:	00800804 	movi	r2,32
    f6e8:	10c7c83a 	sub	r3,r2,r3
    f6ec:	00bfffc4 	movi	r2,-1
    f6f0:	10c6d83a 	srl	r3,r2,r3
    f6f4:	00820034 	movhi	r2,2048
    f6f8:	10891304 	addi	r2,r2,9292
    f6fc:	10c01215 	stw	r3,72(r2)
    f700:	e0ffff43 	ldbu	r3,-3(fp)
    f704:	00820034 	movhi	r2,2048
    f708:	10891304 	addi	r2,r2,9292
    f70c:	10801117 	ldw	r2,68(r2)
    f710:	1887883a 	add	r3,r3,r2
    f714:	00820034 	movhi	r2,2048
    f718:	10891304 	addi	r2,r2,9292
    f71c:	10c01315 	stw	r3,76(r2)
    f720:	e0ffff03 	ldbu	r3,-4(fp)
    f724:	00800804 	movi	r2,32
    f728:	10c7c83a 	sub	r3,r2,r3
    f72c:	00bfffc4 	movi	r2,-1
    f730:	10c6d83a 	srl	r3,r2,r3
    f734:	00820034 	movhi	r2,2048
    f738:	10891304 	addi	r2,r2,9292
    f73c:	10c01415 	stw	r3,80(r2)
    f740:	01020034 	movhi	r4,2048
    f744:	21091304 	addi	r4,r4,9292
    f748:	000f7600 	call	f760 <alt_dev_reg>
    f74c:	e037883a 	mov	sp,fp
    f750:	dfc00117 	ldw	ra,4(sp)
    f754:	df000017 	ldw	fp,0(sp)
    f758:	dec00204 	addi	sp,sp,8
    f75c:	f800283a 	ret

0000f760 <alt_dev_reg>:
    f760:	defffd04 	addi	sp,sp,-12
    f764:	dfc00215 	stw	ra,8(sp)
    f768:	df000115 	stw	fp,4(sp)
    f76c:	df000104 	addi	fp,sp,4
    f770:	e13fff15 	stw	r4,-4(fp)
    f774:	e13fff17 	ldw	r4,-4(fp)
    f778:	01420034 	movhi	r5,2048
    f77c:	29493404 	addi	r5,r5,9424
    f780:	00145700 	call	14570 <alt_dev_llist_insert>
    f784:	e037883a 	mov	sp,fp
    f788:	dfc00117 	ldw	ra,4(sp)
    f78c:	df000017 	ldw	fp,0(sp)
    f790:	dec00204 	addi	sp,sp,8
    f794:	f800283a 	ret

0000f798 <alt_flash_cfi_init>:
    f798:	defffc04 	addi	sp,sp,-16
    f79c:	dfc00315 	stw	ra,12(sp)
    f7a0:	df000215 	stw	fp,8(sp)
    f7a4:	df000204 	addi	fp,sp,8
    f7a8:	e13fff15 	stw	r4,-4(fp)
    f7ac:	e03ffe15 	stw	zero,-8(fp)
    f7b0:	e13fff17 	ldw	r4,-4(fp)
    f7b4:	0010c900 	call	10c90 <alt_read_cfi_width>
    f7b8:	e0bffe15 	stw	r2,-8(fp)
    f7bc:	e0bffe17 	ldw	r2,-8(fp)
    f7c0:	1004c03a 	cmpne	r2,r2,zero
    f7c4:	1000031e 	bne	r2,zero,f7d4 <alt_flash_cfi_init+0x3c>
    f7c8:	e13fff17 	ldw	r4,-4(fp)
    f7cc:	00103a80 	call	103a8 <alt_set_flash_width_func>
    f7d0:	e0bffe15 	stw	r2,-8(fp)
    f7d4:	e0bffe17 	ldw	r2,-8(fp)
    f7d8:	1004c03a 	cmpne	r2,r2,zero
    f7dc:	1000031e 	bne	r2,zero,f7ec <alt_flash_cfi_init+0x54>
    f7e0:	e13fff17 	ldw	r4,-4(fp)
    f7e4:	00106b00 	call	106b0 <alt_read_cfi_table>
    f7e8:	e0bffe15 	stw	r2,-8(fp)
    f7ec:	e0bffe17 	ldw	r2,-8(fp)
    f7f0:	1004c03a 	cmpne	r2,r2,zero
    f7f4:	1000031e 	bne	r2,zero,f804 <alt_flash_cfi_init+0x6c>
    f7f8:	e13fff17 	ldw	r4,-4(fp)
    f7fc:	00105880 	call	10588 <alt_set_flash_algorithm_func>
    f800:	e0bffe15 	stw	r2,-8(fp)
    f804:	e0bffe17 	ldw	r2,-8(fp)
    f808:	1004c03a 	cmpne	r2,r2,zero
    f80c:	1000031e 	bne	r2,zero,f81c <alt_flash_cfi_init+0x84>
    f810:	e13fff17 	ldw	r4,-4(fp)
    f814:	000f8340 	call	f834 <alt_flash_device_register>
    f818:	e0bffe15 	stw	r2,-8(fp)
    f81c:	e0bffe17 	ldw	r2,-8(fp)
    f820:	e037883a 	mov	sp,fp
    f824:	dfc00117 	ldw	ra,4(sp)
    f828:	df000017 	ldw	fp,0(sp)
    f82c:	dec00204 	addi	sp,sp,8
    f830:	f800283a 	ret

0000f834 <alt_flash_device_register>:
    f834:	defffd04 	addi	sp,sp,-12
    f838:	dfc00215 	stw	ra,8(sp)
    f83c:	df000115 	stw	fp,4(sp)
    f840:	df000104 	addi	fp,sp,4
    f844:	e13fff15 	stw	r4,-4(fp)
    f848:	e13fff17 	ldw	r4,-4(fp)
    f84c:	01420034 	movhi	r5,2048
    f850:	29493b04 	addi	r5,r5,9452
    f854:	00145700 	call	14570 <alt_dev_llist_insert>
    f858:	e037883a 	mov	sp,fp
    f85c:	dfc00117 	ldw	ra,4(sp)
    f860:	df000017 	ldw	fp,0(sp)
    f864:	dec00204 	addi	sp,sp,8
    f868:	f800283a 	ret

0000f86c <alt_flash_cfi_write>:
    f86c:	deffef04 	addi	sp,sp,-68
    f870:	dfc01015 	stw	ra,64(sp)
    f874:	df000f15 	stw	fp,60(sp)
    f878:	df000f04 	addi	fp,sp,60
    f87c:	e13ffa15 	stw	r4,-24(fp)
    f880:	e17ffb15 	stw	r5,-20(fp)
    f884:	e1bffc15 	stw	r6,-16(fp)
    f888:	e1fffd15 	stw	r7,-12(fp)
    f88c:	e03ff915 	stw	zero,-28(fp)
    f890:	e0bffd17 	ldw	r2,-12(fp)
    f894:	e0bff515 	stw	r2,-44(fp)
    f898:	e0bffb17 	ldw	r2,-20(fp)
    f89c:	e0bff315 	stw	r2,-52(fp)
    f8a0:	e0bffa17 	ldw	r2,-24(fp)
    f8a4:	e0bff215 	stw	r2,-56(fp)
    f8a8:	e03ff815 	stw	zero,-32(fp)
    f8ac:	00008e06 	br	fae8 <alt_flash_cfi_write+0x27c>
    f8b0:	e0bff817 	ldw	r2,-32(fp)
    f8b4:	e0fff217 	ldw	r3,-56(fp)
    f8b8:	1004913a 	slli	r2,r2,4
    f8bc:	10c5883a 	add	r2,r2,r3
    f8c0:	10800d04 	addi	r2,r2,52
    f8c4:	10c00017 	ldw	r3,0(r2)
    f8c8:	e0bffb17 	ldw	r2,-20(fp)
    f8cc:	10c08316 	blt	r2,r3,fadc <alt_flash_cfi_write+0x270>
    f8d0:	e0bff817 	ldw	r2,-32(fp)
    f8d4:	e0fff217 	ldw	r3,-56(fp)
    f8d8:	1004913a 	slli	r2,r2,4
    f8dc:	10c5883a 	add	r2,r2,r3
    f8e0:	10800d04 	addi	r2,r2,52
    f8e4:	11000017 	ldw	r4,0(r2)
    f8e8:	e0bff817 	ldw	r2,-32(fp)
    f8ec:	e0fff217 	ldw	r3,-56(fp)
    f8f0:	1004913a 	slli	r2,r2,4
    f8f4:	10c5883a 	add	r2,r2,r3
    f8f8:	10800e04 	addi	r2,r2,56
    f8fc:	10800017 	ldw	r2,0(r2)
    f900:	2087883a 	add	r3,r4,r2
    f904:	e0bffb17 	ldw	r2,-20(fp)
    f908:	10c0740e 	bge	r2,r3,fadc <alt_flash_cfi_write+0x270>
    f90c:	e0bff817 	ldw	r2,-32(fp)
    f910:	e0fff217 	ldw	r3,-56(fp)
    f914:	1004913a 	slli	r2,r2,4
    f918:	10c5883a 	add	r2,r2,r3
    f91c:	10800d04 	addi	r2,r2,52
    f920:	10800017 	ldw	r2,0(r2)
    f924:	e0bff415 	stw	r2,-48(fp)
    f928:	e03ff715 	stw	zero,-36(fp)
    f92c:	00006306 	br	fabc <alt_flash_cfi_write+0x250>
    f930:	e0fffb17 	ldw	r3,-20(fp)
    f934:	e0bff417 	ldw	r2,-48(fp)
    f938:	18805416 	blt	r3,r2,fa8c <alt_flash_cfi_write+0x220>
    f93c:	e0bff817 	ldw	r2,-32(fp)
    f940:	e0fff217 	ldw	r3,-56(fp)
    f944:	1004913a 	slli	r2,r2,4
    f948:	10c5883a 	add	r2,r2,r3
    f94c:	10801004 	addi	r2,r2,64
    f950:	10c00017 	ldw	r3,0(r2)
    f954:	e0bff417 	ldw	r2,-48(fp)
    f958:	1887883a 	add	r3,r3,r2
    f95c:	e0bffb17 	ldw	r2,-20(fp)
    f960:	10c04a0e 	bge	r2,r3,fa8c <alt_flash_cfi_write+0x220>
    f964:	e0bff817 	ldw	r2,-32(fp)
    f968:	e0fff217 	ldw	r3,-56(fp)
    f96c:	1004913a 	slli	r2,r2,4
    f970:	10c5883a 	add	r2,r2,r3
    f974:	10801004 	addi	r2,r2,64
    f978:	10c00017 	ldw	r3,0(r2)
    f97c:	e0bff417 	ldw	r2,-48(fp)
    f980:	1887883a 	add	r3,r3,r2
    f984:	e0bffb17 	ldw	r2,-20(fp)
    f988:	1885c83a 	sub	r2,r3,r2
    f98c:	e0bff615 	stw	r2,-40(fp)
    f990:	e0bff617 	ldw	r2,-40(fp)
    f994:	e0bfff15 	stw	r2,-4(fp)
    f998:	e0fffd17 	ldw	r3,-12(fp)
    f99c:	e0fffe15 	stw	r3,-8(fp)
    f9a0:	e0bfff17 	ldw	r2,-4(fp)
    f9a4:	e0fffe17 	ldw	r3,-8(fp)
    f9a8:	10c0020e 	bge	r2,r3,f9b4 <alt_flash_cfi_write+0x148>
    f9ac:	e0bfff17 	ldw	r2,-4(fp)
    f9b0:	e0bffe15 	stw	r2,-8(fp)
    f9b4:	e0fffe17 	ldw	r3,-8(fp)
    f9b8:	e0fff615 	stw	r3,-40(fp)
    f9bc:	e0bff217 	ldw	r2,-56(fp)
    f9c0:	10800a17 	ldw	r2,40(r2)
    f9c4:	1007883a 	mov	r3,r2
    f9c8:	e0bffb17 	ldw	r2,-20(fp)
    f9cc:	188b883a 	add	r5,r3,r2
    f9d0:	e1bff617 	ldw	r6,-40(fp)
    f9d4:	e13ffc17 	ldw	r4,-16(fp)
    f9d8:	00052140 	call	5214 <memcmp>
    f9dc:	1005003a 	cmpeq	r2,r2,zero
    f9e0:	1000131e 	bne	r2,zero,fa30 <alt_flash_cfi_write+0x1c4>
    f9e4:	e0bff217 	ldw	r2,-56(fp)
    f9e8:	10800817 	ldw	r2,32(r2)
    f9ec:	e13ff217 	ldw	r4,-56(fp)
    f9f0:	e17ff417 	ldw	r5,-48(fp)
    f9f4:	103ee83a 	callr	r2
    f9f8:	e0bff915 	stw	r2,-28(fp)
    f9fc:	e0bff917 	ldw	r2,-28(fp)
    fa00:	1004c03a 	cmpne	r2,r2,zero
    fa04:	10000a1e 	bne	r2,zero,fa30 <alt_flash_cfi_write+0x1c4>
    fa08:	e0bff217 	ldw	r2,-56(fp)
    fa0c:	10c00917 	ldw	r3,36(r2)
    fa10:	e13ff217 	ldw	r4,-56(fp)
    fa14:	e0bff617 	ldw	r2,-40(fp)
    fa18:	d8800015 	stw	r2,0(sp)
    fa1c:	e17ff417 	ldw	r5,-48(fp)
    fa20:	e1bffb17 	ldw	r6,-20(fp)
    fa24:	e1fffc17 	ldw	r7,-16(fp)
    fa28:	183ee83a 	callr	r3
    fa2c:	e0bff915 	stw	r2,-28(fp)
    fa30:	e0fffd17 	ldw	r3,-12(fp)
    fa34:	e0bff617 	ldw	r2,-40(fp)
    fa38:	18802f26 	beq	r3,r2,faf8 <alt_flash_cfi_write+0x28c>
    fa3c:	e0bff917 	ldw	r2,-28(fp)
    fa40:	1004c03a 	cmpne	r2,r2,zero
    fa44:	10002c1e 	bne	r2,zero,faf8 <alt_flash_cfi_write+0x28c>
    fa48:	e0fffd17 	ldw	r3,-12(fp)
    fa4c:	e0bff617 	ldw	r2,-40(fp)
    fa50:	1885c83a 	sub	r2,r3,r2
    fa54:	e0bffd15 	stw	r2,-12(fp)
    fa58:	e0bff817 	ldw	r2,-32(fp)
    fa5c:	e0fff217 	ldw	r3,-56(fp)
    fa60:	1004913a 	slli	r2,r2,4
    fa64:	10c5883a 	add	r2,r2,r3
    fa68:	10801004 	addi	r2,r2,64
    fa6c:	10c00017 	ldw	r3,0(r2)
    fa70:	e0bff417 	ldw	r2,-48(fp)
    fa74:	1885883a 	add	r2,r3,r2
    fa78:	e0bffb15 	stw	r2,-20(fp)
    fa7c:	e0fffc17 	ldw	r3,-16(fp)
    fa80:	e0bff617 	ldw	r2,-40(fp)
    fa84:	1885883a 	add	r2,r3,r2
    fa88:	e0bffc15 	stw	r2,-16(fp)
    fa8c:	e0bff817 	ldw	r2,-32(fp)
    fa90:	e0fff217 	ldw	r3,-56(fp)
    fa94:	1004913a 	slli	r2,r2,4
    fa98:	10c5883a 	add	r2,r2,r3
    fa9c:	10801004 	addi	r2,r2,64
    faa0:	10c00017 	ldw	r3,0(r2)
    faa4:	e0bff417 	ldw	r2,-48(fp)
    faa8:	10c5883a 	add	r2,r2,r3
    faac:	e0bff415 	stw	r2,-48(fp)
    fab0:	e0bff717 	ldw	r2,-36(fp)
    fab4:	10800044 	addi	r2,r2,1
    fab8:	e0bff715 	stw	r2,-36(fp)
    fabc:	e0bff817 	ldw	r2,-32(fp)
    fac0:	e0fff217 	ldw	r3,-56(fp)
    fac4:	1004913a 	slli	r2,r2,4
    fac8:	10c5883a 	add	r2,r2,r3
    facc:	10800f04 	addi	r2,r2,60
    fad0:	10c00017 	ldw	r3,0(r2)
    fad4:	e0bff717 	ldw	r2,-36(fp)
    fad8:	10ff9516 	blt	r2,r3,f930 <alt_flash_cfi_write+0xc4>
    fadc:	e0bff817 	ldw	r2,-32(fp)
    fae0:	10800044 	addi	r2,r2,1
    fae4:	e0bff815 	stw	r2,-32(fp)
    fae8:	e0bff217 	ldw	r2,-56(fp)
    faec:	10c00c17 	ldw	r3,48(r2)
    faf0:	e0bff817 	ldw	r2,-32(fp)
    faf4:	10ff6e16 	blt	r2,r3,f8b0 <alt_flash_cfi_write+0x44>
    faf8:	e0bff217 	ldw	r2,-56(fp)
    fafc:	10800a17 	ldw	r2,40(r2)
    fb00:	1007883a 	mov	r3,r2
    fb04:	e0bff317 	ldw	r2,-52(fp)
    fb08:	1889883a 	add	r4,r3,r2
    fb0c:	e17ff517 	ldw	r5,-44(fp)
    fb10:	00144f80 	call	144f8 <alt_dcache_flush>
    fb14:	e0bff917 	ldw	r2,-28(fp)
    fb18:	e037883a 	mov	sp,fp
    fb1c:	dfc00117 	ldw	ra,4(sp)
    fb20:	df000017 	ldw	fp,0(sp)
    fb24:	dec00204 	addi	sp,sp,8
    fb28:	f800283a 	ret

0000fb2c <alt_flash_cfi_get_info>:
    fb2c:	defffa04 	addi	sp,sp,-24
    fb30:	df000515 	stw	fp,20(sp)
    fb34:	df000504 	addi	fp,sp,20
    fb38:	e13ffd15 	stw	r4,-12(fp)
    fb3c:	e17ffe15 	stw	r5,-8(fp)
    fb40:	e1bfff15 	stw	r6,-4(fp)
    fb44:	e03ffc15 	stw	zero,-16(fp)
    fb48:	e0bffd17 	ldw	r2,-12(fp)
    fb4c:	e0bffb15 	stw	r2,-20(fp)
    fb50:	e0bffb17 	ldw	r2,-20(fp)
    fb54:	10c00c17 	ldw	r3,48(r2)
    fb58:	e0bfff17 	ldw	r2,-4(fp)
    fb5c:	10c00015 	stw	r3,0(r2)
    fb60:	e0bffb17 	ldw	r2,-20(fp)
    fb64:	10800c17 	ldw	r2,48(r2)
    fb68:	1004c03a 	cmpne	r2,r2,zero
    fb6c:	1000031e 	bne	r2,zero,fb7c <alt_flash_cfi_get_info+0x50>
    fb70:	00bffec4 	movi	r2,-5
    fb74:	e0bffc15 	stw	r2,-16(fp)
    fb78:	00000b06 	br	fba8 <alt_flash_cfi_get_info+0x7c>
    fb7c:	e0bffb17 	ldw	r2,-20(fp)
    fb80:	10800c17 	ldw	r2,48(r2)
    fb84:	10800250 	cmplti	r2,r2,9
    fb88:	1000031e 	bne	r2,zero,fb98 <alt_flash_cfi_get_info+0x6c>
    fb8c:	00bffd04 	movi	r2,-12
    fb90:	e0bffc15 	stw	r2,-16(fp)
    fb94:	00000406 	br	fba8 <alt_flash_cfi_get_info+0x7c>
    fb98:	e0bffb17 	ldw	r2,-20(fp)
    fb9c:	10c00d04 	addi	r3,r2,52
    fba0:	e0bffe17 	ldw	r2,-8(fp)
    fba4:	10c00015 	stw	r3,0(r2)
    fba8:	e0bffc17 	ldw	r2,-16(fp)
    fbac:	e037883a 	mov	sp,fp
    fbb0:	df000017 	ldw	fp,0(sp)
    fbb4:	dec00104 	addi	sp,sp,4
    fbb8:	f800283a 	ret

0000fbbc <alt_flash_cfi_read>:
    fbbc:	defff904 	addi	sp,sp,-28
    fbc0:	dfc00615 	stw	ra,24(sp)
    fbc4:	df000515 	stw	fp,20(sp)
    fbc8:	df000504 	addi	fp,sp,20
    fbcc:	e13ffc15 	stw	r4,-16(fp)
    fbd0:	e17ffd15 	stw	r5,-12(fp)
    fbd4:	e1bffe15 	stw	r6,-8(fp)
    fbd8:	e1ffff15 	stw	r7,-4(fp)
    fbdc:	e0bffc17 	ldw	r2,-16(fp)
    fbe0:	e0bffb15 	stw	r2,-20(fp)
    fbe4:	e0bffb17 	ldw	r2,-20(fp)
    fbe8:	10800a17 	ldw	r2,40(r2)
    fbec:	1007883a 	mov	r3,r2
    fbf0:	e0bffd17 	ldw	r2,-12(fp)
    fbf4:	1887883a 	add	r3,r3,r2
    fbf8:	e1bfff17 	ldw	r6,-4(fp)
    fbfc:	e0bffe17 	ldw	r2,-8(fp)
    fc00:	1009883a 	mov	r4,r2
    fc04:	180b883a 	mov	r5,r3
    fc08:	00052880 	call	5288 <memcpy>
    fc0c:	0005883a 	mov	r2,zero
    fc10:	e037883a 	mov	sp,fp
    fc14:	dfc00117 	ldw	ra,4(sp)
    fc18:	df000017 	ldw	fp,0(sp)
    fc1c:	dec00204 	addi	sp,sp,8
    fc20:	f800283a 	ret

0000fc24 <alt_write_value_to_flash>:
    fc24:	defffa04 	addi	sp,sp,-24
    fc28:	df000515 	stw	fp,20(sp)
    fc2c:	df000504 	addi	fp,sp,20
    fc30:	e13ffd15 	stw	r4,-12(fp)
    fc34:	e17ffe15 	stw	r5,-8(fp)
    fc38:	e1bfff15 	stw	r6,-4(fp)
    fc3c:	e0bffd17 	ldw	r2,-12(fp)
    fc40:	10802e17 	ldw	r2,184(r2)
    fc44:	10800058 	cmpnei	r2,r2,1
    fc48:	10000b1e 	bne	r2,zero,fc78 <alt_write_value_to_flash+0x54>
    fc4c:	e0bffd17 	ldw	r2,-12(fp)
    fc50:	10800a17 	ldw	r2,40(r2)
    fc54:	1007883a 	mov	r3,r2
    fc58:	e0bffe17 	ldw	r2,-8(fp)
    fc5c:	1889883a 	add	r4,r3,r2
    fc60:	e0bfff17 	ldw	r2,-4(fp)
    fc64:	10800003 	ldbu	r2,0(r2)
    fc68:	10c03fcc 	andi	r3,r2,255
    fc6c:	2005883a 	mov	r2,r4
    fc70:	10c00025 	stbio	r3,0(r2)
    fc74:	00004006 	br	fd78 <alt_write_value_to_flash+0x154>
    fc78:	e0bffd17 	ldw	r2,-12(fp)
    fc7c:	10802e17 	ldw	r2,184(r2)
    fc80:	10800098 	cmpnei	r2,r2,2
    fc84:	1000151e 	bne	r2,zero,fcdc <alt_write_value_to_flash+0xb8>
    fc88:	e0bfff17 	ldw	r2,-4(fp)
    fc8c:	10800003 	ldbu	r2,0(r2)
    fc90:	10803fcc 	andi	r2,r2,255
    fc94:	e0bffc0d 	sth	r2,-16(fp)
    fc98:	e0bfff17 	ldw	r2,-4(fp)
    fc9c:	10800044 	addi	r2,r2,1
    fca0:	10800003 	ldbu	r2,0(r2)
    fca4:	10803fcc 	andi	r2,r2,255
    fca8:	1004923a 	slli	r2,r2,8
    fcac:	1007883a 	mov	r3,r2
    fcb0:	e0bffc0b 	ldhu	r2,-16(fp)
    fcb4:	1884b03a 	or	r2,r3,r2
    fcb8:	e0bffc0d 	sth	r2,-16(fp)
    fcbc:	e0bffd17 	ldw	r2,-12(fp)
    fcc0:	10800a17 	ldw	r2,40(r2)
    fcc4:	1007883a 	mov	r3,r2
    fcc8:	e0bffe17 	ldw	r2,-8(fp)
    fccc:	1885883a 	add	r2,r3,r2
    fcd0:	e0fffc0b 	ldhu	r3,-16(fp)
    fcd4:	10c0002d 	sthio	r3,0(r2)
    fcd8:	00002706 	br	fd78 <alt_write_value_to_flash+0x154>
    fcdc:	e0bffd17 	ldw	r2,-12(fp)
    fce0:	10802e17 	ldw	r2,184(r2)
    fce4:	10800118 	cmpnei	r2,r2,4
    fce8:	1000231e 	bne	r2,zero,fd78 <alt_write_value_to_flash+0x154>
    fcec:	e0bfff17 	ldw	r2,-4(fp)
    fcf0:	10800003 	ldbu	r2,0(r2)
    fcf4:	10803fcc 	andi	r2,r2,255
    fcf8:	e0bffb15 	stw	r2,-20(fp)
    fcfc:	e0bfff17 	ldw	r2,-4(fp)
    fd00:	10800044 	addi	r2,r2,1
    fd04:	10800003 	ldbu	r2,0(r2)
    fd08:	10803fcc 	andi	r2,r2,255
    fd0c:	1006923a 	slli	r3,r2,8
    fd10:	e0bffb17 	ldw	r2,-20(fp)
    fd14:	10c4b03a 	or	r2,r2,r3
    fd18:	e0bffb15 	stw	r2,-20(fp)
    fd1c:	e0bfff17 	ldw	r2,-4(fp)
    fd20:	10800084 	addi	r2,r2,2
    fd24:	10800003 	ldbu	r2,0(r2)
    fd28:	10803fcc 	andi	r2,r2,255
    fd2c:	1006943a 	slli	r3,r2,16
    fd30:	e0bffb17 	ldw	r2,-20(fp)
    fd34:	10c4b03a 	or	r2,r2,r3
    fd38:	e0bffb15 	stw	r2,-20(fp)
    fd3c:	e0bfff17 	ldw	r2,-4(fp)
    fd40:	108000c4 	addi	r2,r2,3
    fd44:	10800003 	ldbu	r2,0(r2)
    fd48:	10803fcc 	andi	r2,r2,255
    fd4c:	1006963a 	slli	r3,r2,24
    fd50:	e0bffb17 	ldw	r2,-20(fp)
    fd54:	10c4b03a 	or	r2,r2,r3
    fd58:	e0bffb15 	stw	r2,-20(fp)
    fd5c:	e0bffd17 	ldw	r2,-12(fp)
    fd60:	10800a17 	ldw	r2,40(r2)
    fd64:	1007883a 	mov	r3,r2
    fd68:	e0bffe17 	ldw	r2,-8(fp)
    fd6c:	1885883a 	add	r2,r3,r2
    fd70:	e0fffb17 	ldw	r3,-20(fp)
    fd74:	10c00035 	stwio	r3,0(r2)
    fd78:	e037883a 	mov	sp,fp
    fd7c:	df000017 	ldw	fp,0(sp)
    fd80:	dec00104 	addi	sp,sp,4
    fd84:	f800283a 	ret

0000fd88 <alt_flash_program_block>:
    fd88:	defff304 	addi	sp,sp,-52
    fd8c:	dfc00c15 	stw	ra,48(sp)
    fd90:	df000b15 	stw	fp,44(sp)
    fd94:	df000b04 	addi	fp,sp,44
    fd98:	e13ffc15 	stw	r4,-16(fp)
    fd9c:	e17ffd15 	stw	r5,-12(fp)
    fda0:	e1bffe15 	stw	r6,-8(fp)
    fda4:	e1ffff15 	stw	r7,-4(fp)
    fda8:	e03ffa15 	stw	zero,-24(fp)
    fdac:	e0bffc17 	ldw	r2,-16(fp)
    fdb0:	10800a17 	ldw	r2,40(r2)
    fdb4:	1007883a 	mov	r3,r2
    fdb8:	e0bffd17 	ldw	r2,-12(fp)
    fdbc:	1885883a 	add	r2,r3,r2
    fdc0:	1009883a 	mov	r4,r2
    fdc4:	e0bffc17 	ldw	r2,-16(fp)
    fdc8:	10c02e17 	ldw	r3,184(r2)
    fdcc:	20c5283a 	div	r2,r4,r3
    fdd0:	10c5383a 	mul	r2,r2,r3
    fdd4:	2085c83a 	sub	r2,r4,r2
    fdd8:	e0bff915 	stw	r2,-28(fp)
    fddc:	e0bff917 	ldw	r2,-28(fp)
    fde0:	1005003a 	cmpeq	r2,r2,zero
    fde4:	10003a1e 	bne	r2,zero,fed0 <alt_flash_program_block+0x148>
    fde8:	e0bffc17 	ldw	r2,-16(fp)
    fdec:	10c02e17 	ldw	r3,184(r2)
    fdf0:	e0bff917 	ldw	r2,-28(fp)
    fdf4:	1885c83a 	sub	r2,r3,r2
    fdf8:	e0bff815 	stw	r2,-32(fp)
    fdfc:	e03ff615 	stw	zero,-40(fp)
    fe00:	00001206 	br	fe4c <alt_flash_program_block+0xc4>
    fe04:	e17ff617 	ldw	r5,-40(fp)
    fe08:	e0bffc17 	ldw	r2,-16(fp)
    fe0c:	10800a17 	ldw	r2,40(r2)
    fe10:	1009883a 	mov	r4,r2
    fe14:	e0fffd17 	ldw	r3,-12(fp)
    fe18:	e0bff917 	ldw	r2,-28(fp)
    fe1c:	1887c83a 	sub	r3,r3,r2
    fe20:	e0bff617 	ldw	r2,-40(fp)
    fe24:	1885883a 	add	r2,r3,r2
    fe28:	2085883a 	add	r2,r4,r2
    fe2c:	10800023 	ldbuio	r2,0(r2)
    fe30:	1007883a 	mov	r3,r2
    fe34:	e0bffb04 	addi	r2,fp,-20
    fe38:	1145883a 	add	r2,r2,r5
    fe3c:	10c00005 	stb	r3,0(r2)
    fe40:	e0bff617 	ldw	r2,-40(fp)
    fe44:	10800044 	addi	r2,r2,1
    fe48:	e0bff615 	stw	r2,-40(fp)
    fe4c:	e0fff617 	ldw	r3,-40(fp)
    fe50:	e0bff917 	ldw	r2,-28(fp)
    fe54:	18bfeb16 	blt	r3,r2,fe04 <alt_flash_program_block+0x7c>
    fe58:	e03ff615 	stw	zero,-40(fp)
    fe5c:	00000e06 	br	fe98 <alt_flash_program_block+0x110>
    fe60:	e0fff917 	ldw	r3,-28(fp)
    fe64:	e0bff617 	ldw	r2,-40(fp)
    fe68:	1889883a 	add	r4,r3,r2
    fe6c:	e0bff617 	ldw	r2,-40(fp)
    fe70:	1007883a 	mov	r3,r2
    fe74:	e0bffe17 	ldw	r2,-8(fp)
    fe78:	1885883a 	add	r2,r3,r2
    fe7c:	10c00003 	ldbu	r3,0(r2)
    fe80:	e0bffb04 	addi	r2,fp,-20
    fe84:	1105883a 	add	r2,r2,r4
    fe88:	10c00005 	stb	r3,0(r2)
    fe8c:	e0bff617 	ldw	r2,-40(fp)
    fe90:	10800044 	addi	r2,r2,1
    fe94:	e0bff615 	stw	r2,-40(fp)
    fe98:	e0fff617 	ldw	r3,-40(fp)
    fe9c:	e0bff817 	ldw	r2,-32(fp)
    fea0:	18bfef16 	blt	r3,r2,fe60 <alt_flash_program_block+0xd8>
    fea4:	e0fffd17 	ldw	r3,-12(fp)
    fea8:	e0bff917 	ldw	r2,-28(fp)
    feac:	188bc83a 	sub	r5,r3,r2
    feb0:	e1bffb04 	addi	r6,fp,-20
    feb4:	e0800217 	ldw	r2,8(fp)
    feb8:	e13ffc17 	ldw	r4,-16(fp)
    febc:	103ee83a 	callr	r2
    fec0:	e0bffa15 	stw	r2,-24(fp)
    fec4:	e0bff817 	ldw	r2,-32(fp)
    fec8:	e0bff615 	stw	r2,-40(fp)
    fecc:	00000106 	br	fed4 <alt_flash_program_block+0x14c>
    fed0:	e03ff615 	stw	zero,-40(fp)
    fed4:	e0fffd17 	ldw	r3,-12(fp)
    fed8:	e0bfff17 	ldw	r2,-4(fp)
    fedc:	1889883a 	add	r4,r3,r2
    fee0:	e0bffc17 	ldw	r2,-16(fp)
    fee4:	10c02e17 	ldw	r3,184(r2)
    fee8:	20c5283a 	div	r2,r4,r3
    feec:	10c5383a 	mul	r2,r2,r3
    fef0:	2085c83a 	sub	r2,r4,r2
    fef4:	e0bff715 	stw	r2,-36(fp)
    fef8:	00001006 	br	ff3c <alt_flash_program_block+0x1b4>
    fefc:	e0fffd17 	ldw	r3,-12(fp)
    ff00:	e0bff617 	ldw	r2,-40(fp)
    ff04:	188b883a 	add	r5,r3,r2
    ff08:	e0bff617 	ldw	r2,-40(fp)
    ff0c:	1007883a 	mov	r3,r2
    ff10:	e0bffe17 	ldw	r2,-8(fp)
    ff14:	188d883a 	add	r6,r3,r2
    ff18:	e0800217 	ldw	r2,8(fp)
    ff1c:	e13ffc17 	ldw	r4,-16(fp)
    ff20:	103ee83a 	callr	r2
    ff24:	e0bffa15 	stw	r2,-24(fp)
    ff28:	e0bffc17 	ldw	r2,-16(fp)
    ff2c:	10c02e17 	ldw	r3,184(r2)
    ff30:	e0bff617 	ldw	r2,-40(fp)
    ff34:	10c5883a 	add	r2,r2,r3
    ff38:	e0bff615 	stw	r2,-40(fp)
    ff3c:	e0bffa17 	ldw	r2,-24(fp)
    ff40:	1004c03a 	cmpne	r2,r2,zero
    ff44:	1000051e 	bne	r2,zero,ff5c <alt_flash_program_block+0x1d4>
    ff48:	e0ffff17 	ldw	r3,-4(fp)
    ff4c:	e0bff717 	ldw	r2,-36(fp)
    ff50:	1887c83a 	sub	r3,r3,r2
    ff54:	e0bff617 	ldw	r2,-40(fp)
    ff58:	10ffe816 	blt	r2,r3,fefc <alt_flash_program_block+0x174>
    ff5c:	e0bff717 	ldw	r2,-36(fp)
    ff60:	1005003a 	cmpeq	r2,r2,zero
    ff64:	10003c1e 	bne	r2,zero,10058 <alt_flash_program_block+0x2d0>
    ff68:	e0bffa17 	ldw	r2,-24(fp)
    ff6c:	1004c03a 	cmpne	r2,r2,zero
    ff70:	1000391e 	bne	r2,zero,10058 <alt_flash_program_block+0x2d0>
    ff74:	e0bffc17 	ldw	r2,-16(fp)
    ff78:	10c02e17 	ldw	r3,184(r2)
    ff7c:	e0bff717 	ldw	r2,-36(fp)
    ff80:	1885c83a 	sub	r2,r3,r2
    ff84:	e0bff915 	stw	r2,-28(fp)
    ff88:	e03ff515 	stw	zero,-44(fp)
    ff8c:	00000e06 	br	ffc8 <alt_flash_program_block+0x240>
    ff90:	e13ff517 	ldw	r4,-44(fp)
    ff94:	e0bff617 	ldw	r2,-40(fp)
    ff98:	1007883a 	mov	r3,r2
    ff9c:	e0bffe17 	ldw	r2,-8(fp)
    ffa0:	1887883a 	add	r3,r3,r2
    ffa4:	e0bff517 	ldw	r2,-44(fp)
    ffa8:	1885883a 	add	r2,r3,r2
    ffac:	10c00003 	ldbu	r3,0(r2)
    ffb0:	e0bffb04 	addi	r2,fp,-20
    ffb4:	1105883a 	add	r2,r2,r4
    ffb8:	10c00005 	stb	r3,0(r2)
    ffbc:	e0bff517 	ldw	r2,-44(fp)
    ffc0:	10800044 	addi	r2,r2,1
    ffc4:	e0bff515 	stw	r2,-44(fp)
    ffc8:	e0fff517 	ldw	r3,-44(fp)
    ffcc:	e0bff717 	ldw	r2,-36(fp)
    ffd0:	18bfef16 	blt	r3,r2,ff90 <alt_flash_program_block+0x208>
    ffd4:	e03ff515 	stw	zero,-44(fp)
    ffd8:	00001406 	br	1002c <alt_flash_program_block+0x2a4>
    ffdc:	e0fff717 	ldw	r3,-36(fp)
    ffe0:	e0bff517 	ldw	r2,-44(fp)
    ffe4:	188b883a 	add	r5,r3,r2
    ffe8:	e0bffc17 	ldw	r2,-16(fp)
    ffec:	10800a17 	ldw	r2,40(r2)
    fff0:	1009883a 	mov	r4,r2
    fff4:	e0fffd17 	ldw	r3,-12(fp)
    fff8:	e0bfff17 	ldw	r2,-4(fp)
    fffc:	1887883a 	add	r3,r3,r2
   10000:	e0bff517 	ldw	r2,-44(fp)
   10004:	1885883a 	add	r2,r3,r2
   10008:	2085883a 	add	r2,r4,r2
   1000c:	10800023 	ldbuio	r2,0(r2)
   10010:	1007883a 	mov	r3,r2
   10014:	e0bffb04 	addi	r2,fp,-20
   10018:	1145883a 	add	r2,r2,r5
   1001c:	10c00005 	stb	r3,0(r2)
   10020:	e0bff517 	ldw	r2,-44(fp)
   10024:	10800044 	addi	r2,r2,1
   10028:	e0bff515 	stw	r2,-44(fp)
   1002c:	e0fff517 	ldw	r3,-44(fp)
   10030:	e0bff917 	ldw	r2,-28(fp)
   10034:	18bfe916 	blt	r3,r2,ffdc <alt_flash_program_block+0x254>
   10038:	e0fffd17 	ldw	r3,-12(fp)
   1003c:	e0bff617 	ldw	r2,-40(fp)
   10040:	188b883a 	add	r5,r3,r2
   10044:	e1bffb04 	addi	r6,fp,-20
   10048:	e0800217 	ldw	r2,8(fp)
   1004c:	e13ffc17 	ldw	r4,-16(fp)
   10050:	103ee83a 	callr	r2
   10054:	e0bffa15 	stw	r2,-24(fp)
   10058:	e0bffa17 	ldw	r2,-24(fp)
   1005c:	e037883a 	mov	sp,fp
   10060:	dfc00117 	ldw	ra,4(sp)
   10064:	df000017 	ldw	fp,0(sp)
   10068:	dec00204 	addi	sp,sp,8
   1006c:	f800283a 	ret

00010070 <alt_read_query_entry_8bit>:
   10070:	defffd04 	addi	sp,sp,-12
   10074:	df000215 	stw	fp,8(sp)
   10078:	df000204 	addi	fp,sp,8
   1007c:	e13ffe15 	stw	r4,-8(fp)
   10080:	e17fff15 	stw	r5,-4(fp)
   10084:	e0bffe17 	ldw	r2,-8(fp)
   10088:	10800a17 	ldw	r2,40(r2)
   1008c:	1007883a 	mov	r3,r2
   10090:	e0bfff17 	ldw	r2,-4(fp)
   10094:	1885883a 	add	r2,r3,r2
   10098:	10800023 	ldbuio	r2,0(r2)
   1009c:	10803fcc 	andi	r2,r2,255
   100a0:	e037883a 	mov	sp,fp
   100a4:	df000017 	ldw	fp,0(sp)
   100a8:	dec00104 	addi	sp,sp,4
   100ac:	f800283a 	ret

000100b0 <alt_read_query_entry_16bit>:
   100b0:	defffd04 	addi	sp,sp,-12
   100b4:	df000215 	stw	fp,8(sp)
   100b8:	df000204 	addi	fp,sp,8
   100bc:	e13ffe15 	stw	r4,-8(fp)
   100c0:	e17fff15 	stw	r5,-4(fp)
   100c4:	e0bffe17 	ldw	r2,-8(fp)
   100c8:	10800a17 	ldw	r2,40(r2)
   100cc:	1007883a 	mov	r3,r2
   100d0:	e0bfff17 	ldw	r2,-4(fp)
   100d4:	1085883a 	add	r2,r2,r2
   100d8:	1885883a 	add	r2,r3,r2
   100dc:	1080002b 	ldhuio	r2,0(r2)
   100e0:	10803fcc 	andi	r2,r2,255
   100e4:	e037883a 	mov	sp,fp
   100e8:	df000017 	ldw	fp,0(sp)
   100ec:	dec00104 	addi	sp,sp,4
   100f0:	f800283a 	ret

000100f4 <alt_read_query_entry_32bit>:
   100f4:	defffd04 	addi	sp,sp,-12
   100f8:	df000215 	stw	fp,8(sp)
   100fc:	df000204 	addi	fp,sp,8
   10100:	e13ffe15 	stw	r4,-8(fp)
   10104:	e17fff15 	stw	r5,-4(fp)
   10108:	e0bffe17 	ldw	r2,-8(fp)
   1010c:	10800a17 	ldw	r2,40(r2)
   10110:	1007883a 	mov	r3,r2
   10114:	e0bfff17 	ldw	r2,-4(fp)
   10118:	1085883a 	add	r2,r2,r2
   1011c:	1085883a 	add	r2,r2,r2
   10120:	1885883a 	add	r2,r3,r2
   10124:	10800037 	ldwio	r2,0(r2)
   10128:	10803fcc 	andi	r2,r2,255
   1012c:	e037883a 	mov	sp,fp
   10130:	df000017 	ldw	fp,0(sp)
   10134:	dec00104 	addi	sp,sp,4
   10138:	f800283a 	ret

0001013c <alt_write_flash_command_8bit_device_8bit_mode>:
   1013c:	defffc04 	addi	sp,sp,-16
   10140:	df000315 	stw	fp,12(sp)
   10144:	df000304 	addi	fp,sp,12
   10148:	e13ffd15 	stw	r4,-12(fp)
   1014c:	e17ffe15 	stw	r5,-8(fp)
   10150:	e1bfff05 	stb	r6,-4(fp)
   10154:	e0fffd17 	ldw	r3,-12(fp)
   10158:	e0bffe17 	ldw	r2,-8(fp)
   1015c:	1885883a 	add	r2,r3,r2
   10160:	e0ffff03 	ldbu	r3,-4(fp)
   10164:	10c00025 	stbio	r3,0(r2)
   10168:	e037883a 	mov	sp,fp
   1016c:	df000017 	ldw	fp,0(sp)
   10170:	dec00104 	addi	sp,sp,4
   10174:	f800283a 	ret

00010178 <alt_write_flash_command_16bit_device_8bit_mode>:
   10178:	defffc04 	addi	sp,sp,-16
   1017c:	df000315 	stw	fp,12(sp)
   10180:	df000304 	addi	fp,sp,12
   10184:	e13ffd15 	stw	r4,-12(fp)
   10188:	e17ffe15 	stw	r5,-8(fp)
   1018c:	e1bfff05 	stb	r6,-4(fp)
   10190:	e0bffe17 	ldw	r2,-8(fp)
   10194:	1080004c 	andi	r2,r2,1
   10198:	10803fcc 	andi	r2,r2,255
   1019c:	1005003a 	cmpeq	r2,r2,zero
   101a0:	1000081e 	bne	r2,zero,101c4 <alt_write_flash_command_16bit_device_8bit_mode+0x4c>
   101a4:	e0bffe17 	ldw	r2,-8(fp)
   101a8:	1085883a 	add	r2,r2,r2
   101ac:	1007883a 	mov	r3,r2
   101b0:	e0bffd17 	ldw	r2,-12(fp)
   101b4:	1885883a 	add	r2,r3,r2
   101b8:	e0ffff03 	ldbu	r3,-4(fp)
   101bc:	10c00025 	stbio	r3,0(r2)
   101c0:	00000806 	br	101e4 <alt_write_flash_command_16bit_device_8bit_mode+0x6c>
   101c4:	e0bffe17 	ldw	r2,-8(fp)
   101c8:	1085883a 	add	r2,r2,r2
   101cc:	1007883a 	mov	r3,r2
   101d0:	e0bffd17 	ldw	r2,-12(fp)
   101d4:	1885883a 	add	r2,r3,r2
   101d8:	10800044 	addi	r2,r2,1
   101dc:	e0ffff03 	ldbu	r3,-4(fp)
   101e0:	10c00025 	stbio	r3,0(r2)
   101e4:	e037883a 	mov	sp,fp
   101e8:	df000017 	ldw	fp,0(sp)
   101ec:	dec00104 	addi	sp,sp,4
   101f0:	f800283a 	ret

000101f4 <alt_write_flash_command_32bit_device_8bit_mode>:
   101f4:	defffc04 	addi	sp,sp,-16
   101f8:	df000315 	stw	fp,12(sp)
   101fc:	df000304 	addi	fp,sp,12
   10200:	e13ffd15 	stw	r4,-12(fp)
   10204:	e17ffe15 	stw	r5,-8(fp)
   10208:	e1bfff05 	stb	r6,-4(fp)
   1020c:	e0bffe17 	ldw	r2,-8(fp)
   10210:	1085883a 	add	r2,r2,r2
   10214:	1085883a 	add	r2,r2,r2
   10218:	1007883a 	mov	r3,r2
   1021c:	e0bffd17 	ldw	r2,-12(fp)
   10220:	1885883a 	add	r2,r3,r2
   10224:	e0ffff03 	ldbu	r3,-4(fp)
   10228:	10c00025 	stbio	r3,0(r2)
   1022c:	e037883a 	mov	sp,fp
   10230:	df000017 	ldw	fp,0(sp)
   10234:	dec00104 	addi	sp,sp,4
   10238:	f800283a 	ret

0001023c <alt_write_flash_command_16bit_device_16bit_mode>:
   1023c:	defffc04 	addi	sp,sp,-16
   10240:	df000315 	stw	fp,12(sp)
   10244:	df000304 	addi	fp,sp,12
   10248:	e13ffd15 	stw	r4,-12(fp)
   1024c:	e17ffe15 	stw	r5,-8(fp)
   10250:	e1bfff05 	stb	r6,-4(fp)
   10254:	e0bffe17 	ldw	r2,-8(fp)
   10258:	1085883a 	add	r2,r2,r2
   1025c:	1007883a 	mov	r3,r2
   10260:	e0bffd17 	ldw	r2,-12(fp)
   10264:	1885883a 	add	r2,r3,r2
   10268:	e0ffff03 	ldbu	r3,-4(fp)
   1026c:	10c0002d 	sthio	r3,0(r2)
   10270:	e037883a 	mov	sp,fp
   10274:	df000017 	ldw	fp,0(sp)
   10278:	dec00104 	addi	sp,sp,4
   1027c:	f800283a 	ret

00010280 <alt_write_flash_command_32bit_device_16bit_mode>:
   10280:	defffc04 	addi	sp,sp,-16
   10284:	df000315 	stw	fp,12(sp)
   10288:	df000304 	addi	fp,sp,12
   1028c:	e13ffd15 	stw	r4,-12(fp)
   10290:	e17ffe15 	stw	r5,-8(fp)
   10294:	e1bfff05 	stb	r6,-4(fp)
   10298:	e0bffe17 	ldw	r2,-8(fp)
   1029c:	1085883a 	add	r2,r2,r2
   102a0:	1085883a 	add	r2,r2,r2
   102a4:	1007883a 	mov	r3,r2
   102a8:	e0bffd17 	ldw	r2,-12(fp)
   102ac:	1885883a 	add	r2,r3,r2
   102b0:	e0ffff03 	ldbu	r3,-4(fp)
   102b4:	10c0002d 	sthio	r3,0(r2)
   102b8:	e037883a 	mov	sp,fp
   102bc:	df000017 	ldw	fp,0(sp)
   102c0:	dec00104 	addi	sp,sp,4
   102c4:	f800283a 	ret

000102c8 <alt_write_flash_command_32bit_device_32bit_mode>:
   102c8:	defffc04 	addi	sp,sp,-16
   102cc:	df000315 	stw	fp,12(sp)
   102d0:	df000304 	addi	fp,sp,12
   102d4:	e13ffd15 	stw	r4,-12(fp)
   102d8:	e17ffe15 	stw	r5,-8(fp)
   102dc:	e1bfff05 	stb	r6,-4(fp)
   102e0:	e0bffe17 	ldw	r2,-8(fp)
   102e4:	1085883a 	add	r2,r2,r2
   102e8:	1085883a 	add	r2,r2,r2
   102ec:	1007883a 	mov	r3,r2
   102f0:	e0bffd17 	ldw	r2,-12(fp)
   102f4:	1885883a 	add	r2,r3,r2
   102f8:	e0ffff03 	ldbu	r3,-4(fp)
   102fc:	10c00035 	stwio	r3,0(r2)
   10300:	e037883a 	mov	sp,fp
   10304:	df000017 	ldw	fp,0(sp)
   10308:	dec00104 	addi	sp,sp,4
   1030c:	f800283a 	ret

00010310 <alt_write_native_8bit>:
   10310:	defffd04 	addi	sp,sp,-12
   10314:	df000215 	stw	fp,8(sp)
   10318:	df000204 	addi	fp,sp,8
   1031c:	e13ffe15 	stw	r4,-8(fp)
   10320:	e17fff15 	stw	r5,-4(fp)
   10324:	e0bfff17 	ldw	r2,-4(fp)
   10328:	10c03fcc 	andi	r3,r2,255
   1032c:	e0bffe17 	ldw	r2,-8(fp)
   10330:	10c00025 	stbio	r3,0(r2)
   10334:	e037883a 	mov	sp,fp
   10338:	df000017 	ldw	fp,0(sp)
   1033c:	dec00104 	addi	sp,sp,4
   10340:	f800283a 	ret

00010344 <alt_write_native_16bit>:
   10344:	defffd04 	addi	sp,sp,-12
   10348:	df000215 	stw	fp,8(sp)
   1034c:	df000204 	addi	fp,sp,8
   10350:	e13ffe15 	stw	r4,-8(fp)
   10354:	e17fff15 	stw	r5,-4(fp)
   10358:	e0bfff17 	ldw	r2,-4(fp)
   1035c:	10ffffcc 	andi	r3,r2,65535
   10360:	e0bffe17 	ldw	r2,-8(fp)
   10364:	10c0002d 	sthio	r3,0(r2)
   10368:	e037883a 	mov	sp,fp
   1036c:	df000017 	ldw	fp,0(sp)
   10370:	dec00104 	addi	sp,sp,4
   10374:	f800283a 	ret

00010378 <alt_write_native_32bit>:
   10378:	defffd04 	addi	sp,sp,-12
   1037c:	df000215 	stw	fp,8(sp)
   10380:	df000204 	addi	fp,sp,8
   10384:	e13ffe15 	stw	r4,-8(fp)
   10388:	e17fff15 	stw	r5,-4(fp)
   1038c:	e0ffff17 	ldw	r3,-4(fp)
   10390:	e0bffe17 	ldw	r2,-8(fp)
   10394:	10c00035 	stwio	r3,0(r2)
   10398:	e037883a 	mov	sp,fp
   1039c:	df000017 	ldw	fp,0(sp)
   103a0:	dec00104 	addi	sp,sp,4
   103a4:	f800283a 	ret

000103a8 <alt_set_flash_width_func>:
   103a8:	defffb04 	addi	sp,sp,-20
   103ac:	df000415 	stw	fp,16(sp)
   103b0:	df000404 	addi	fp,sp,16
   103b4:	e13ffd15 	stw	r4,-12(fp)
   103b8:	e03ffc15 	stw	zero,-16(fp)
   103bc:	e0bffd17 	ldw	r2,-12(fp)
   103c0:	10802e17 	ldw	r2,184(r2)
   103c4:	e0bfff15 	stw	r2,-4(fp)
   103c8:	e0ffff17 	ldw	r3,-4(fp)
   103cc:	188000a0 	cmpeqi	r2,r3,2
   103d0:	1000261e 	bne	r2,zero,1046c <alt_set_flash_width_func+0xc4>
   103d4:	e0ffff17 	ldw	r3,-4(fp)
   103d8:	18800120 	cmpeqi	r2,r3,4
   103dc:	1000391e 	bne	r2,zero,104c4 <alt_set_flash_width_func+0x11c>
   103e0:	e0ffff17 	ldw	r3,-4(fp)
   103e4:	18800060 	cmpeqi	r2,r3,1
   103e8:	1000011e 	bne	r2,zero,103f0 <alt_set_flash_width_func+0x48>
   103ec:	00003e06 	br	104e8 <alt_set_flash_width_func+0x140>
   103f0:	e0fffd17 	ldw	r3,-12(fp)
   103f4:	00800074 	movhi	r2,1
   103f8:	1080c404 	addi	r2,r2,784
   103fc:	18803515 	stw	r2,212(r3)
   10400:	e0bffd17 	ldw	r2,-12(fp)
   10404:	10802f17 	ldw	r2,188(r2)
   10408:	10800058 	cmpnei	r2,r2,1
   1040c:	1000051e 	bne	r2,zero,10424 <alt_set_flash_width_func+0x7c>
   10410:	e0fffd17 	ldw	r3,-12(fp)
   10414:	00800074 	movhi	r2,1
   10418:	10804f04 	addi	r2,r2,316
   1041c:	18803315 	stw	r2,204(r3)
   10420:	00003306 	br	104f0 <alt_set_flash_width_func+0x148>
   10424:	e0bffd17 	ldw	r2,-12(fp)
   10428:	10802f17 	ldw	r2,188(r2)
   1042c:	10800098 	cmpnei	r2,r2,2
   10430:	1000051e 	bne	r2,zero,10448 <alt_set_flash_width_func+0xa0>
   10434:	e0fffd17 	ldw	r3,-12(fp)
   10438:	00800074 	movhi	r2,1
   1043c:	10805e04 	addi	r2,r2,376
   10440:	18803315 	stw	r2,204(r3)
   10444:	00002a06 	br	104f0 <alt_set_flash_width_func+0x148>
   10448:	e0bffd17 	ldw	r2,-12(fp)
   1044c:	10802f17 	ldw	r2,188(r2)
   10450:	10800118 	cmpnei	r2,r2,4
   10454:	1000261e 	bne	r2,zero,104f0 <alt_set_flash_width_func+0x148>
   10458:	e0fffd17 	ldw	r3,-12(fp)
   1045c:	00800074 	movhi	r2,1
   10460:	10807d04 	addi	r2,r2,500
   10464:	18803315 	stw	r2,204(r3)
   10468:	00002106 	br	104f0 <alt_set_flash_width_func+0x148>
   1046c:	e0fffd17 	ldw	r3,-12(fp)
   10470:	00800074 	movhi	r2,1
   10474:	1080d104 	addi	r2,r2,836
   10478:	18803515 	stw	r2,212(r3)
   1047c:	e0bffd17 	ldw	r2,-12(fp)
   10480:	10802f17 	ldw	r2,188(r2)
   10484:	10800098 	cmpnei	r2,r2,2
   10488:	1000051e 	bne	r2,zero,104a0 <alt_set_flash_width_func+0xf8>
   1048c:	e0fffd17 	ldw	r3,-12(fp)
   10490:	00800074 	movhi	r2,1
   10494:	10808f04 	addi	r2,r2,572
   10498:	18803315 	stw	r2,204(r3)
   1049c:	00001406 	br	104f0 <alt_set_flash_width_func+0x148>
   104a0:	e0bffd17 	ldw	r2,-12(fp)
   104a4:	10802f17 	ldw	r2,188(r2)
   104a8:	10800118 	cmpnei	r2,r2,4
   104ac:	1000101e 	bne	r2,zero,104f0 <alt_set_flash_width_func+0x148>
   104b0:	e0fffd17 	ldw	r3,-12(fp)
   104b4:	00800074 	movhi	r2,1
   104b8:	1080a004 	addi	r2,r2,640
   104bc:	18803315 	stw	r2,204(r3)
   104c0:	00000b06 	br	104f0 <alt_set_flash_width_func+0x148>
   104c4:	e0fffd17 	ldw	r3,-12(fp)
   104c8:	00800074 	movhi	r2,1
   104cc:	1080de04 	addi	r2,r2,888
   104d0:	18803515 	stw	r2,212(r3)
   104d4:	e0fffd17 	ldw	r3,-12(fp)
   104d8:	00800074 	movhi	r2,1
   104dc:	1080b204 	addi	r2,r2,712
   104e0:	18803315 	stw	r2,204(r3)
   104e4:	00000206 	br	104f0 <alt_set_flash_width_func+0x148>
   104e8:	00bffcc4 	movi	r2,-13
   104ec:	e0bffc15 	stw	r2,-16(fp)
   104f0:	e0bffc17 	ldw	r2,-16(fp)
   104f4:	1004c03a 	cmpne	r2,r2,zero
   104f8:	10001e1e 	bne	r2,zero,10574 <alt_set_flash_width_func+0x1cc>
   104fc:	e0bffd17 	ldw	r2,-12(fp)
   10500:	10802f17 	ldw	r2,188(r2)
   10504:	e0bffe15 	stw	r2,-8(fp)
   10508:	e0fffe17 	ldw	r3,-8(fp)
   1050c:	188000a0 	cmpeqi	r2,r3,2
   10510:	10000c1e 	bne	r2,zero,10544 <alt_set_flash_width_func+0x19c>
   10514:	e0fffe17 	ldw	r3,-8(fp)
   10518:	18800120 	cmpeqi	r2,r3,4
   1051c:	10000e1e 	bne	r2,zero,10558 <alt_set_flash_width_func+0x1b0>
   10520:	e0fffe17 	ldw	r3,-8(fp)
   10524:	18800060 	cmpeqi	r2,r3,1
   10528:	1000011e 	bne	r2,zero,10530 <alt_set_flash_width_func+0x188>
   1052c:	00000f06 	br	1056c <alt_set_flash_width_func+0x1c4>
   10530:	e0fffd17 	ldw	r3,-12(fp)
   10534:	00800074 	movhi	r2,1
   10538:	10801c04 	addi	r2,r2,112
   1053c:	18803415 	stw	r2,208(r3)
   10540:	00000c06 	br	10574 <alt_set_flash_width_func+0x1cc>
   10544:	e0fffd17 	ldw	r3,-12(fp)
   10548:	00800074 	movhi	r2,1
   1054c:	10802c04 	addi	r2,r2,176
   10550:	18803415 	stw	r2,208(r3)
   10554:	00000706 	br	10574 <alt_set_flash_width_func+0x1cc>
   10558:	e0fffd17 	ldw	r3,-12(fp)
   1055c:	00800074 	movhi	r2,1
   10560:	10803d04 	addi	r2,r2,244
   10564:	18803415 	stw	r2,208(r3)
   10568:	00000206 	br	10574 <alt_set_flash_width_func+0x1cc>
   1056c:	00bffcc4 	movi	r2,-13
   10570:	e0bffc15 	stw	r2,-16(fp)
   10574:	e0bffc17 	ldw	r2,-16(fp)
   10578:	e037883a 	mov	sp,fp
   1057c:	df000017 	ldw	fp,0(sp)
   10580:	dec00104 	addi	sp,sp,4
   10584:	f800283a 	ret

00010588 <alt_set_flash_algorithm_func>:
   10588:	defffc04 	addi	sp,sp,-16
   1058c:	df000315 	stw	fp,12(sp)
   10590:	df000304 	addi	fp,sp,12
   10594:	e13ffe15 	stw	r4,-8(fp)
   10598:	e03ffd15 	stw	zero,-12(fp)
   1059c:	e0bffe17 	ldw	r2,-8(fp)
   105a0:	10802d17 	ldw	r2,180(r2)
   105a4:	e0bfff15 	stw	r2,-4(fp)
   105a8:	e0ffff17 	ldw	r3,-4(fp)
   105ac:	188000a0 	cmpeqi	r2,r3,2
   105b0:	1000071e 	bne	r2,zero,105d0 <alt_set_flash_algorithm_func+0x48>
   105b4:	e0ffff17 	ldw	r3,-4(fp)
   105b8:	188000e0 	cmpeqi	r2,r3,3
   105bc:	10000d1e 	bne	r2,zero,105f4 <alt_set_flash_algorithm_func+0x6c>
   105c0:	e0ffff17 	ldw	r3,-4(fp)
   105c4:	18800060 	cmpeqi	r2,r3,1
   105c8:	10000a1e 	bne	r2,zero,105f4 <alt_set_flash_algorithm_func+0x6c>
   105cc:	00001206 	br	10618 <alt_set_flash_algorithm_func+0x90>
   105d0:	e0fffe17 	ldw	r3,-8(fp)
   105d4:	00800074 	movhi	r2,1
   105d8:	1093c304 	addi	r2,r2,20236
   105dc:	18800815 	stw	r2,32(r3)
   105e0:	e0fffe17 	ldw	r3,-8(fp)
   105e4:	00800074 	movhi	r2,1
   105e8:	1093a904 	addi	r2,r2,20132
   105ec:	18800915 	stw	r2,36(r3)
   105f0:	00000b06 	br	10620 <alt_set_flash_algorithm_func+0x98>
   105f4:	e0fffe17 	ldw	r3,-8(fp)
   105f8:	00800074 	movhi	r2,1
   105fc:	1094e204 	addi	r2,r2,21384
   10600:	18800815 	stw	r2,32(r3)
   10604:	e0fffe17 	ldw	r3,-8(fp)
   10608:	00800074 	movhi	r2,1
   1060c:	1094c104 	addi	r2,r2,21252
   10610:	18800915 	stw	r2,36(r3)
   10614:	00000206 	br	10620 <alt_set_flash_algorithm_func+0x98>
   10618:	00bffec4 	movi	r2,-5
   1061c:	e0bffd15 	stw	r2,-12(fp)
   10620:	e0bffd17 	ldw	r2,-12(fp)
   10624:	e037883a 	mov	sp,fp
   10628:	df000017 	ldw	fp,0(sp)
   1062c:	dec00104 	addi	sp,sp,4
   10630:	f800283a 	ret

00010634 <alt_read_16bit_query_entry>:
   10634:	defffb04 	addi	sp,sp,-20
   10638:	dfc00415 	stw	ra,16(sp)
   1063c:	df000315 	stw	fp,12(sp)
   10640:	df000304 	addi	fp,sp,12
   10644:	e13ffe15 	stw	r4,-8(fp)
   10648:	e17fff15 	stw	r5,-4(fp)
   1064c:	e0bffe17 	ldw	r2,-8(fp)
   10650:	10803417 	ldw	r2,208(r2)
   10654:	e13ffe17 	ldw	r4,-8(fp)
   10658:	e17fff17 	ldw	r5,-4(fp)
   1065c:	103ee83a 	callr	r2
   10660:	10803fcc 	andi	r2,r2,255
   10664:	e0bffd0d 	sth	r2,-12(fp)
   10668:	e0bffe17 	ldw	r2,-8(fp)
   1066c:	10c03417 	ldw	r3,208(r2)
   10670:	e0bfff17 	ldw	r2,-4(fp)
   10674:	11400044 	addi	r5,r2,1
   10678:	e13ffe17 	ldw	r4,-8(fp)
   1067c:	183ee83a 	callr	r3
   10680:	10803fcc 	andi	r2,r2,255
   10684:	1004923a 	slli	r2,r2,8
   10688:	1007883a 	mov	r3,r2
   1068c:	e0bffd0b 	ldhu	r2,-12(fp)
   10690:	1884b03a 	or	r2,r3,r2
   10694:	e0bffd0d 	sth	r2,-12(fp)
   10698:	e0bffd0b 	ldhu	r2,-12(fp)
   1069c:	e037883a 	mov	sp,fp
   106a0:	dfc00117 	ldw	ra,4(sp)
   106a4:	df000017 	ldw	fp,0(sp)
   106a8:	dec00204 	addi	sp,sp,8
   106ac:	f800283a 	ret

000106b0 <alt_read_cfi_table>:
   106b0:	defff104 	addi	sp,sp,-60
   106b4:	dfc00e15 	stw	ra,56(sp)
   106b8:	df000d15 	stw	fp,52(sp)
   106bc:	dc000c15 	stw	r16,48(sp)
   106c0:	df000c04 	addi	fp,sp,48
   106c4:	e13ffe15 	stw	r4,-8(fp)
   106c8:	e03ffa15 	stw	zero,-24(fp)
   106cc:	e03ff915 	stw	zero,-28(fp)
   106d0:	e03ff515 	stw	zero,-44(fp)
   106d4:	e13ffe17 	ldw	r4,-8(fp)
   106d8:	001143c0 	call	1143c <alt_check_primary_table>
   106dc:	e0bffa15 	stw	r2,-24(fp)
   106e0:	e0bffa17 	ldw	r2,-24(fp)
   106e4:	1004c03a 	cmpne	r2,r2,zero
   106e8:	1001621e 	bne	r2,zero,10c74 <alt_read_cfi_table+0x5c4>
   106ec:	e0bffe17 	ldw	r2,-8(fp)
   106f0:	10803417 	ldw	r2,208(r2)
   106f4:	e13ffe17 	ldw	r4,-8(fp)
   106f8:	014004c4 	movi	r5,19
   106fc:	103ee83a 	callr	r2
   10700:	10c03fcc 	andi	r3,r2,255
   10704:	e0bffe17 	ldw	r2,-8(fp)
   10708:	10c02d15 	stw	r3,180(r2)
   1070c:	e0bffe17 	ldw	r2,-8(fp)
   10710:	10803417 	ldw	r2,208(r2)
   10714:	e13ffe17 	ldw	r4,-8(fp)
   10718:	014007c4 	movi	r5,31
   1071c:	103ee83a 	callr	r2
   10720:	10803fcc 	andi	r2,r2,255
   10724:	e0bff715 	stw	r2,-36(fp)
   10728:	e0bffe17 	ldw	r2,-8(fp)
   1072c:	10803417 	ldw	r2,208(r2)
   10730:	e13ffe17 	ldw	r4,-8(fp)
   10734:	014008c4 	movi	r5,35
   10738:	103ee83a 	callr	r2
   1073c:	10803fcc 	andi	r2,r2,255
   10740:	e0bff615 	stw	r2,-40(fp)
   10744:	e0bff717 	ldw	r2,-36(fp)
   10748:	1005003a 	cmpeq	r2,r2,zero
   1074c:	1000031e 	bne	r2,zero,1075c <alt_read_cfi_table+0xac>
   10750:	e0bff617 	ldw	r2,-40(fp)
   10754:	1004c03a 	cmpne	r2,r2,zero
   10758:	1000041e 	bne	r2,zero,1076c <alt_read_cfi_table+0xbc>
   1075c:	e0fffe17 	ldw	r3,-8(fp)
   10760:	0080fa04 	movi	r2,1000
   10764:	18803015 	stw	r2,192(r3)
   10768:	00000706 	br	10788 <alt_read_cfi_table+0xd8>
   1076c:	00c00044 	movi	r3,1
   10770:	e0bff717 	ldw	r2,-36(fp)
   10774:	1886983a 	sll	r3,r3,r2
   10778:	e0bff617 	ldw	r2,-40(fp)
   1077c:	1886983a 	sll	r3,r3,r2
   10780:	e0bffe17 	ldw	r2,-8(fp)
   10784:	10c03015 	stw	r3,192(r2)
   10788:	e0bffe17 	ldw	r2,-8(fp)
   1078c:	10803417 	ldw	r2,208(r2)
   10790:	e13ffe17 	ldw	r4,-8(fp)
   10794:	01400844 	movi	r5,33
   10798:	103ee83a 	callr	r2
   1079c:	10803fcc 	andi	r2,r2,255
   107a0:	e0bff715 	stw	r2,-36(fp)
   107a4:	e0bffe17 	ldw	r2,-8(fp)
   107a8:	10803417 	ldw	r2,208(r2)
   107ac:	e13ffe17 	ldw	r4,-8(fp)
   107b0:	01400944 	movi	r5,37
   107b4:	103ee83a 	callr	r2
   107b8:	10803fcc 	andi	r2,r2,255
   107bc:	e0bff615 	stw	r2,-40(fp)
   107c0:	e0bff717 	ldw	r2,-36(fp)
   107c4:	1005003a 	cmpeq	r2,r2,zero
   107c8:	1000031e 	bne	r2,zero,107d8 <alt_read_cfi_table+0x128>
   107cc:	e0bff617 	ldw	r2,-40(fp)
   107d0:	1004c03a 	cmpne	r2,r2,zero
   107d4:	1000051e 	bne	r2,zero,107ec <alt_read_cfi_table+0x13c>
   107d8:	e0fffe17 	ldw	r3,-8(fp)
   107dc:	00804c74 	movhi	r2,305
   107e0:	108b4004 	addi	r2,r2,11520
   107e4:	18803115 	stw	r2,196(r3)
   107e8:	00000806 	br	1080c <alt_read_cfi_table+0x15c>
   107ec:	00c00044 	movi	r3,1
   107f0:	e0bff717 	ldw	r2,-36(fp)
   107f4:	1886983a 	sll	r3,r3,r2
   107f8:	e0bff617 	ldw	r2,-40(fp)
   107fc:	1884983a 	sll	r2,r3,r2
   10800:	10c0fa24 	muli	r3,r2,1000
   10804:	e0bffe17 	ldw	r2,-8(fp)
   10808:	10c03115 	stw	r3,196(r2)
   1080c:	e0bffe17 	ldw	r2,-8(fp)
   10810:	10803417 	ldw	r2,208(r2)
   10814:	e13ffe17 	ldw	r4,-8(fp)
   10818:	014009c4 	movi	r5,39
   1081c:	103ee83a 	callr	r2
   10820:	10c03fcc 	andi	r3,r2,255
   10824:	00800044 	movi	r2,1
   10828:	10c4983a 	sll	r2,r2,r3
   1082c:	e0bffb15 	stw	r2,-20(fp)
   10830:	e0bffe17 	ldw	r2,-8(fp)
   10834:	10803417 	ldw	r2,208(r2)
   10838:	e13ffe17 	ldw	r4,-8(fp)
   1083c:	01400b04 	movi	r5,44
   10840:	103ee83a 	callr	r2
   10844:	10c03fcc 	andi	r3,r2,255
   10848:	e0bffe17 	ldw	r2,-8(fp)
   1084c:	10c00c15 	stw	r3,48(r2)
   10850:	e0bffe17 	ldw	r2,-8(fp)
   10854:	10800c17 	ldw	r2,48(r2)
   10858:	10800250 	cmplti	r2,r2,9
   1085c:	1000031e 	bne	r2,zero,1086c <alt_read_cfi_table+0x1bc>
   10860:	00bffd04 	movi	r2,-12
   10864:	e0bffa15 	stw	r2,-24(fp)
   10868:	00005e06 	br	109e4 <alt_read_cfi_table+0x334>
   1086c:	e03ffd15 	stw	zero,-12(fp)
   10870:	00005306 	br	109c0 <alt_read_cfi_table+0x310>
   10874:	e43ffd17 	ldw	r16,-12(fp)
   10878:	e0bffd17 	ldw	r2,-12(fp)
   1087c:	1085883a 	add	r2,r2,r2
   10880:	1085883a 	add	r2,r2,r2
   10884:	11400b44 	addi	r5,r2,45
   10888:	e13ffe17 	ldw	r4,-8(fp)
   1088c:	00106340 	call	10634 <alt_read_16bit_query_entry>
   10890:	113fffcc 	andi	r4,r2,65535
   10894:	e0fffe17 	ldw	r3,-8(fp)
   10898:	8004913a 	slli	r2,r16,4
   1089c:	10c5883a 	add	r2,r2,r3
   108a0:	10800f04 	addi	r2,r2,60
   108a4:	11000015 	stw	r4,0(r2)
   108a8:	e17ffd17 	ldw	r5,-12(fp)
   108ac:	e0bffd17 	ldw	r2,-12(fp)
   108b0:	e0fffe17 	ldw	r3,-8(fp)
   108b4:	1004913a 	slli	r2,r2,4
   108b8:	10c5883a 	add	r2,r2,r3
   108bc:	10800f04 	addi	r2,r2,60
   108c0:	10800017 	ldw	r2,0(r2)
   108c4:	11000044 	addi	r4,r2,1
   108c8:	e0fffe17 	ldw	r3,-8(fp)
   108cc:	2804913a 	slli	r2,r5,4
   108d0:	10c5883a 	add	r2,r2,r3
   108d4:	10800f04 	addi	r2,r2,60
   108d8:	11000015 	stw	r4,0(r2)
   108dc:	e43ffd17 	ldw	r16,-12(fp)
   108e0:	e0bffd17 	ldw	r2,-12(fp)
   108e4:	1085883a 	add	r2,r2,r2
   108e8:	1085883a 	add	r2,r2,r2
   108ec:	11400bc4 	addi	r5,r2,47
   108f0:	e13ffe17 	ldw	r4,-8(fp)
   108f4:	00106340 	call	10634 <alt_read_16bit_query_entry>
   108f8:	113fffcc 	andi	r4,r2,65535
   108fc:	e0fffe17 	ldw	r3,-8(fp)
   10900:	8004913a 	slli	r2,r16,4
   10904:	10c5883a 	add	r2,r2,r3
   10908:	10801004 	addi	r2,r2,64
   1090c:	11000015 	stw	r4,0(r2)
   10910:	e17ffd17 	ldw	r5,-12(fp)
   10914:	e0bffd17 	ldw	r2,-12(fp)
   10918:	e0fffe17 	ldw	r3,-8(fp)
   1091c:	1004913a 	slli	r2,r2,4
   10920:	10c5883a 	add	r2,r2,r3
   10924:	10801004 	addi	r2,r2,64
   10928:	10800017 	ldw	r2,0(r2)
   1092c:	1008923a 	slli	r4,r2,8
   10930:	e0fffe17 	ldw	r3,-8(fp)
   10934:	2804913a 	slli	r2,r5,4
   10938:	10c5883a 	add	r2,r2,r3
   1093c:	10801004 	addi	r2,r2,64
   10940:	11000015 	stw	r4,0(r2)
   10944:	e17ffd17 	ldw	r5,-12(fp)
   10948:	e0bffd17 	ldw	r2,-12(fp)
   1094c:	e0fffe17 	ldw	r3,-8(fp)
   10950:	1004913a 	slli	r2,r2,4
   10954:	10c5883a 	add	r2,r2,r3
   10958:	10800f04 	addi	r2,r2,60
   1095c:	11000017 	ldw	r4,0(r2)
   10960:	e0bffd17 	ldw	r2,-12(fp)
   10964:	e0fffe17 	ldw	r3,-8(fp)
   10968:	1004913a 	slli	r2,r2,4
   1096c:	10c5883a 	add	r2,r2,r3
   10970:	10801004 	addi	r2,r2,64
   10974:	10800017 	ldw	r2,0(r2)
   10978:	2089383a 	mul	r4,r4,r2
   1097c:	e0fffe17 	ldw	r3,-8(fp)
   10980:	2804913a 	slli	r2,r5,4
   10984:	10c5883a 	add	r2,r2,r3
   10988:	10800e04 	addi	r2,r2,56
   1098c:	11000015 	stw	r4,0(r2)
   10990:	e0bffd17 	ldw	r2,-12(fp)
   10994:	e0fffe17 	ldw	r3,-8(fp)
   10998:	1004913a 	slli	r2,r2,4
   1099c:	10c5883a 	add	r2,r2,r3
   109a0:	10800e04 	addi	r2,r2,56
   109a4:	10c00017 	ldw	r3,0(r2)
   109a8:	e0bff917 	ldw	r2,-28(fp)
   109ac:	10c5883a 	add	r2,r2,r3
   109b0:	e0bff915 	stw	r2,-28(fp)
   109b4:	e0bffd17 	ldw	r2,-12(fp)
   109b8:	10800044 	addi	r2,r2,1
   109bc:	e0bffd15 	stw	r2,-12(fp)
   109c0:	e0bffe17 	ldw	r2,-8(fp)
   109c4:	10c00c17 	ldw	r3,48(r2)
   109c8:	e0bffd17 	ldw	r2,-12(fp)
   109cc:	10ffa916 	blt	r2,r3,10874 <alt_read_cfi_table+0x1c4>
   109d0:	e0fff917 	ldw	r3,-28(fp)
   109d4:	e0bffb17 	ldw	r2,-20(fp)
   109d8:	18800226 	beq	r3,r2,109e4 <alt_read_cfi_table+0x334>
   109dc:	00bffb44 	movi	r2,-19
   109e0:	e0bffa15 	stw	r2,-24(fp)
   109e4:	e0bffe17 	ldw	r2,-8(fp)
   109e8:	10c03417 	ldw	r3,208(r2)
   109ec:	e0bffe17 	ldw	r2,-8(fp)
   109f0:	10803217 	ldw	r2,200(r2)
   109f4:	114003c4 	addi	r5,r2,15
   109f8:	e13ffe17 	ldw	r4,-8(fp)
   109fc:	183ee83a 	callr	r3
   10a00:	e0bff405 	stb	r2,-48(fp)
   10a04:	e0bffe17 	ldw	r2,-8(fp)
   10a08:	10802d17 	ldw	r2,180(r2)
   10a0c:	10800098 	cmpnei	r2,r2,2
   10a10:	1000601e 	bne	r2,zero,10b94 <alt_read_cfi_table+0x4e4>
   10a14:	e0bff403 	ldbu	r2,-48(fp)
   10a18:	108000d8 	cmpnei	r2,r2,3
   10a1c:	10005d1e 	bne	r2,zero,10b94 <alt_read_cfi_table+0x4e4>
   10a20:	e0bffe17 	ldw	r2,-8(fp)
   10a24:	10800c17 	ldw	r2,48(r2)
   10a28:	10bfffc4 	addi	r2,r2,-1
   10a2c:	e0bffd15 	stw	r2,-12(fp)
   10a30:	e03ffc15 	stw	zero,-16(fp)
   10a34:	00005406 	br	10b88 <alt_read_cfi_table+0x4d8>
   10a38:	e0bffd17 	ldw	r2,-12(fp)
   10a3c:	e0fffe17 	ldw	r3,-8(fp)
   10a40:	1004913a 	slli	r2,r2,4
   10a44:	10c5883a 	add	r2,r2,r3
   10a48:	10800e04 	addi	r2,r2,56
   10a4c:	10800017 	ldw	r2,0(r2)
   10a50:	e0bff815 	stw	r2,-32(fp)
   10a54:	e17ffd17 	ldw	r5,-12(fp)
   10a58:	e0bffc17 	ldw	r2,-16(fp)
   10a5c:	e0fffe17 	ldw	r3,-8(fp)
   10a60:	1004913a 	slli	r2,r2,4
   10a64:	10c5883a 	add	r2,r2,r3
   10a68:	10800e04 	addi	r2,r2,56
   10a6c:	11000017 	ldw	r4,0(r2)
   10a70:	e0fffe17 	ldw	r3,-8(fp)
   10a74:	2804913a 	slli	r2,r5,4
   10a78:	10c5883a 	add	r2,r2,r3
   10a7c:	10800e04 	addi	r2,r2,56
   10a80:	11000015 	stw	r4,0(r2)
   10a84:	e0bffc17 	ldw	r2,-16(fp)
   10a88:	e0fffe17 	ldw	r3,-8(fp)
   10a8c:	1004913a 	slli	r2,r2,4
   10a90:	10c5883a 	add	r2,r2,r3
   10a94:	10c00e04 	addi	r3,r2,56
   10a98:	e0bff817 	ldw	r2,-32(fp)
   10a9c:	18800015 	stw	r2,0(r3)
   10aa0:	e0bffd17 	ldw	r2,-12(fp)
   10aa4:	e0fffe17 	ldw	r3,-8(fp)
   10aa8:	1004913a 	slli	r2,r2,4
   10aac:	10c5883a 	add	r2,r2,r3
   10ab0:	10801004 	addi	r2,r2,64
   10ab4:	10800017 	ldw	r2,0(r2)
   10ab8:	e0bff815 	stw	r2,-32(fp)
   10abc:	e17ffd17 	ldw	r5,-12(fp)
   10ac0:	e0bffc17 	ldw	r2,-16(fp)
   10ac4:	e0fffe17 	ldw	r3,-8(fp)
   10ac8:	1004913a 	slli	r2,r2,4
   10acc:	10c5883a 	add	r2,r2,r3
   10ad0:	10801004 	addi	r2,r2,64
   10ad4:	11000017 	ldw	r4,0(r2)
   10ad8:	e0fffe17 	ldw	r3,-8(fp)
   10adc:	2804913a 	slli	r2,r5,4
   10ae0:	10c5883a 	add	r2,r2,r3
   10ae4:	10801004 	addi	r2,r2,64
   10ae8:	11000015 	stw	r4,0(r2)
   10aec:	e0bffc17 	ldw	r2,-16(fp)
   10af0:	e0fffe17 	ldw	r3,-8(fp)
   10af4:	1004913a 	slli	r2,r2,4
   10af8:	10c5883a 	add	r2,r2,r3
   10afc:	10c01004 	addi	r3,r2,64
   10b00:	e0bff817 	ldw	r2,-32(fp)
   10b04:	18800015 	stw	r2,0(r3)
   10b08:	e0bffd17 	ldw	r2,-12(fp)
   10b0c:	e0fffe17 	ldw	r3,-8(fp)
   10b10:	1004913a 	slli	r2,r2,4
   10b14:	10c5883a 	add	r2,r2,r3
   10b18:	10800f04 	addi	r2,r2,60
   10b1c:	10800017 	ldw	r2,0(r2)
   10b20:	e0bff815 	stw	r2,-32(fp)
   10b24:	e17ffd17 	ldw	r5,-12(fp)
   10b28:	e0bffc17 	ldw	r2,-16(fp)
   10b2c:	e0fffe17 	ldw	r3,-8(fp)
   10b30:	1004913a 	slli	r2,r2,4
   10b34:	10c5883a 	add	r2,r2,r3
   10b38:	10800f04 	addi	r2,r2,60
   10b3c:	11000017 	ldw	r4,0(r2)
   10b40:	e0fffe17 	ldw	r3,-8(fp)
   10b44:	2804913a 	slli	r2,r5,4
   10b48:	10c5883a 	add	r2,r2,r3
   10b4c:	10800f04 	addi	r2,r2,60
   10b50:	11000015 	stw	r4,0(r2)
   10b54:	e0bffc17 	ldw	r2,-16(fp)
   10b58:	e0fffe17 	ldw	r3,-8(fp)
   10b5c:	1004913a 	slli	r2,r2,4
   10b60:	10c5883a 	add	r2,r2,r3
   10b64:	10c00f04 	addi	r3,r2,60
   10b68:	e0bff817 	ldw	r2,-32(fp)
   10b6c:	18800015 	stw	r2,0(r3)
   10b70:	e0bffd17 	ldw	r2,-12(fp)
   10b74:	10bfffc4 	addi	r2,r2,-1
   10b78:	e0bffd15 	stw	r2,-12(fp)
   10b7c:	e0bffc17 	ldw	r2,-16(fp)
   10b80:	10800044 	addi	r2,r2,1
   10b84:	e0bffc15 	stw	r2,-16(fp)
   10b88:	e0fffc17 	ldw	r3,-16(fp)
   10b8c:	e0bffd17 	ldw	r2,-12(fp)
   10b90:	10ffa90e 	bge	r2,r3,10a38 <alt_read_cfi_table+0x388>
   10b94:	e03ffd15 	stw	zero,-12(fp)
   10b98:	00001306 	br	10be8 <alt_read_cfi_table+0x538>
   10b9c:	e0bffd17 	ldw	r2,-12(fp)
   10ba0:	e0fffe17 	ldw	r3,-8(fp)
   10ba4:	1004913a 	slli	r2,r2,4
   10ba8:	10c5883a 	add	r2,r2,r3
   10bac:	10c00d04 	addi	r3,r2,52
   10bb0:	e0bff517 	ldw	r2,-44(fp)
   10bb4:	18800015 	stw	r2,0(r3)
   10bb8:	e0bffd17 	ldw	r2,-12(fp)
   10bbc:	e0fffe17 	ldw	r3,-8(fp)
   10bc0:	1004913a 	slli	r2,r2,4
   10bc4:	10c5883a 	add	r2,r2,r3
   10bc8:	10800e04 	addi	r2,r2,56
   10bcc:	10c00017 	ldw	r3,0(r2)
   10bd0:	e0bff517 	ldw	r2,-44(fp)
   10bd4:	10c5883a 	add	r2,r2,r3
   10bd8:	e0bff515 	stw	r2,-44(fp)
   10bdc:	e0bffd17 	ldw	r2,-12(fp)
   10be0:	10800044 	addi	r2,r2,1
   10be4:	e0bffd15 	stw	r2,-12(fp)
   10be8:	e0bffe17 	ldw	r2,-8(fp)
   10bec:	10c00c17 	ldw	r3,48(r2)
   10bf0:	e0bffd17 	ldw	r2,-12(fp)
   10bf4:	10ffe916 	blt	r2,r3,10b9c <alt_read_cfi_table+0x4ec>
   10bf8:	e0bffe17 	ldw	r2,-8(fp)
   10bfc:	10802d17 	ldw	r2,180(r2)
   10c00:	e0bfff15 	stw	r2,-4(fp)
   10c04:	e0ffff17 	ldw	r3,-4(fp)
   10c08:	188000a0 	cmpeqi	r2,r3,2
   10c0c:	1000071e 	bne	r2,zero,10c2c <alt_read_cfi_table+0x57c>
   10c10:	e0ffff17 	ldw	r3,-4(fp)
   10c14:	188000e0 	cmpeqi	r2,r3,3
   10c18:	10000c1e 	bne	r2,zero,10c4c <alt_read_cfi_table+0x59c>
   10c1c:	e0ffff17 	ldw	r3,-4(fp)
   10c20:	18800060 	cmpeqi	r2,r3,1
   10c24:	1000091e 	bne	r2,zero,10c4c <alt_read_cfi_table+0x59c>
   10c28:	00001006 	br	10c6c <alt_read_cfi_table+0x5bc>
   10c2c:	e0bffe17 	ldw	r2,-8(fp)
   10c30:	10c03317 	ldw	r3,204(r2)
   10c34:	e0bffe17 	ldw	r2,-8(fp)
   10c38:	11000a17 	ldw	r4,40(r2)
   10c3c:	01401544 	movi	r5,85
   10c40:	01803c04 	movi	r6,240
   10c44:	183ee83a 	callr	r3
   10c48:	00000a06 	br	10c74 <alt_read_cfi_table+0x5c4>
   10c4c:	e0bffe17 	ldw	r2,-8(fp)
   10c50:	10c03317 	ldw	r3,204(r2)
   10c54:	e0bffe17 	ldw	r2,-8(fp)
   10c58:	11000a17 	ldw	r4,40(r2)
   10c5c:	01401544 	movi	r5,85
   10c60:	01803fc4 	movi	r6,255
   10c64:	183ee83a 	callr	r3
   10c68:	00000206 	br	10c74 <alt_read_cfi_table+0x5c4>
   10c6c:	00bffec4 	movi	r2,-5
   10c70:	e0bffa15 	stw	r2,-24(fp)
   10c74:	e0bffa17 	ldw	r2,-24(fp)
   10c78:	e037883a 	mov	sp,fp
   10c7c:	dfc00217 	ldw	ra,8(sp)
   10c80:	df000117 	ldw	fp,4(sp)
   10c84:	dc000017 	ldw	r16,0(sp)
   10c88:	dec00304 	addi	sp,sp,12
   10c8c:	f800283a 	ret

00010c90 <alt_read_cfi_width>:
   10c90:	defff704 	addi	sp,sp,-36
   10c94:	dfc00815 	stw	ra,32(sp)
   10c98:	df000715 	stw	fp,28(sp)
   10c9c:	df000704 	addi	fp,sp,28
   10ca0:	e13fff15 	stw	r4,-4(fp)
   10ca4:	e03ff915 	stw	zero,-28(fp)
   10ca8:	e0bfff17 	ldw	r2,-4(fp)
   10cac:	11000a17 	ldw	r4,40(r2)
   10cb0:	01401544 	movi	r5,85
   10cb4:	01802604 	movi	r6,152
   10cb8:	001013c0 	call	1013c <alt_write_flash_command_8bit_device_8bit_mode>
   10cbc:	e03ffb15 	stw	zero,-20(fp)
   10cc0:	00000f06 	br	10d00 <alt_read_cfi_width+0x70>
   10cc4:	e13ffb17 	ldw	r4,-20(fp)
   10cc8:	e0bfff17 	ldw	r2,-4(fp)
   10ccc:	10800a17 	ldw	r2,40(r2)
   10cd0:	1007883a 	mov	r3,r2
   10cd4:	e0bffb17 	ldw	r2,-20(fp)
   10cd8:	1885883a 	add	r2,r3,r2
   10cdc:	10800404 	addi	r2,r2,16
   10ce0:	10800023 	ldbuio	r2,0(r2)
   10ce4:	1007883a 	mov	r3,r2
   10ce8:	e0bffc04 	addi	r2,fp,-16
   10cec:	1105883a 	add	r2,r2,r4
   10cf0:	10c00005 	stb	r3,0(r2)
   10cf4:	e0bffb17 	ldw	r2,-20(fp)
   10cf8:	10800044 	addi	r2,r2,1
   10cfc:	e0bffb15 	stw	r2,-20(fp)
   10d00:	e0bffb17 	ldw	r2,-20(fp)
   10d04:	108000d0 	cmplti	r2,r2,3
   10d08:	103fee1e 	bne	r2,zero,10cc4 <alt_read_cfi_width+0x34>
   10d0c:	e0bffc03 	ldbu	r2,-16(fp)
   10d10:	10803fcc 	andi	r2,r2,255
   10d14:	10801458 	cmpnei	r2,r2,81
   10d18:	10001d1e 	bne	r2,zero,10d90 <alt_read_cfi_width+0x100>
   10d1c:	e0bffc43 	ldbu	r2,-15(fp)
   10d20:	10803fcc 	andi	r2,r2,255
   10d24:	10801498 	cmpnei	r2,r2,82
   10d28:	1000191e 	bne	r2,zero,10d90 <alt_read_cfi_width+0x100>
   10d2c:	e0bffc83 	ldbu	r2,-14(fp)
   10d30:	10803fcc 	andi	r2,r2,255
   10d34:	10801658 	cmpnei	r2,r2,89
   10d38:	1000151e 	bne	r2,zero,10d90 <alt_read_cfi_width+0x100>
   10d3c:	e0ffff17 	ldw	r3,-4(fp)
   10d40:	00800044 	movi	r2,1
   10d44:	18802e15 	stw	r2,184(r3)
   10d48:	e0ffff17 	ldw	r3,-4(fp)
   10d4c:	00800044 	movi	r2,1
   10d50:	18802f15 	stw	r2,188(r3)
   10d54:	e0bfff17 	ldw	r2,-4(fp)
   10d58:	10800a17 	ldw	r2,40(r2)
   10d5c:	10800a04 	addi	r2,r2,40
   10d60:	1080002b 	ldhuio	r2,0(r2)
   10d64:	e0bffa0d 	sth	r2,-24(fp)
   10d68:	e0bffa0b 	ldhu	r2,-24(fp)
   10d6c:	10800044 	addi	r2,r2,1
   10d70:	e0bffa0d 	sth	r2,-24(fp)
   10d74:	e0bffa0b 	ldhu	r2,-24(fp)
   10d78:	1080004c 	andi	r2,r2,1
   10d7c:	1004c03a 	cmpne	r2,r2,zero
   10d80:	1001a81e 	bne	r2,zero,11424 <alt_read_cfi_width+0x794>
   10d84:	00bffb44 	movi	r2,-19
   10d88:	e0bff915 	stw	r2,-28(fp)
   10d8c:	0001a506 	br	11424 <alt_read_cfi_width+0x794>
   10d90:	e0bfff17 	ldw	r2,-4(fp)
   10d94:	11000a17 	ldw	r4,40(r2)
   10d98:	01401544 	movi	r5,85
   10d9c:	01802604 	movi	r6,152
   10da0:	00101780 	call	10178 <alt_write_flash_command_16bit_device_8bit_mode>
   10da4:	e03ffb15 	stw	zero,-20(fp)
   10da8:	00000f06 	br	10de8 <alt_read_cfi_width+0x158>
   10dac:	e13ffb17 	ldw	r4,-20(fp)
   10db0:	e0bfff17 	ldw	r2,-4(fp)
   10db4:	10800a17 	ldw	r2,40(r2)
   10db8:	1007883a 	mov	r3,r2
   10dbc:	e0bffb17 	ldw	r2,-20(fp)
   10dc0:	1885883a 	add	r2,r3,r2
   10dc4:	10800804 	addi	r2,r2,32
   10dc8:	10800023 	ldbuio	r2,0(r2)
   10dcc:	1007883a 	mov	r3,r2
   10dd0:	e0bffc04 	addi	r2,fp,-16
   10dd4:	1105883a 	add	r2,r2,r4
   10dd8:	10c00005 	stb	r3,0(r2)
   10ddc:	e0bffb17 	ldw	r2,-20(fp)
   10de0:	10800044 	addi	r2,r2,1
   10de4:	e0bffb15 	stw	r2,-20(fp)
   10de8:	e0bffb17 	ldw	r2,-20(fp)
   10dec:	10800190 	cmplti	r2,r2,6
   10df0:	103fee1e 	bne	r2,zero,10dac <alt_read_cfi_width+0x11c>
   10df4:	e0bffc03 	ldbu	r2,-16(fp)
   10df8:	10803fcc 	andi	r2,r2,255
   10dfc:	10801458 	cmpnei	r2,r2,81
   10e00:	1000291e 	bne	r2,zero,10ea8 <alt_read_cfi_width+0x218>
   10e04:	e0bffc43 	ldbu	r2,-15(fp)
   10e08:	10803fcc 	andi	r2,r2,255
   10e0c:	10801458 	cmpnei	r2,r2,81
   10e10:	1000251e 	bne	r2,zero,10ea8 <alt_read_cfi_width+0x218>
   10e14:	e0bffc83 	ldbu	r2,-14(fp)
   10e18:	10803fcc 	andi	r2,r2,255
   10e1c:	10801498 	cmpnei	r2,r2,82
   10e20:	1000211e 	bne	r2,zero,10ea8 <alt_read_cfi_width+0x218>
   10e24:	e0bffcc3 	ldbu	r2,-13(fp)
   10e28:	10803fcc 	andi	r2,r2,255
   10e2c:	10801498 	cmpnei	r2,r2,82
   10e30:	10001d1e 	bne	r2,zero,10ea8 <alt_read_cfi_width+0x218>
   10e34:	e0bffd03 	ldbu	r2,-12(fp)
   10e38:	10803fcc 	andi	r2,r2,255
   10e3c:	10801658 	cmpnei	r2,r2,89
   10e40:	1000191e 	bne	r2,zero,10ea8 <alt_read_cfi_width+0x218>
   10e44:	e0bffd43 	ldbu	r2,-11(fp)
   10e48:	10803fcc 	andi	r2,r2,255
   10e4c:	10801658 	cmpnei	r2,r2,89
   10e50:	1000151e 	bne	r2,zero,10ea8 <alt_read_cfi_width+0x218>
   10e54:	e0ffff17 	ldw	r3,-4(fp)
   10e58:	00800044 	movi	r2,1
   10e5c:	18802e15 	stw	r2,184(r3)
   10e60:	e0ffff17 	ldw	r3,-4(fp)
   10e64:	00800084 	movi	r2,2
   10e68:	18802f15 	stw	r2,188(r3)
   10e6c:	e0bfff17 	ldw	r2,-4(fp)
   10e70:	10800a17 	ldw	r2,40(r2)
   10e74:	10801404 	addi	r2,r2,80
   10e78:	1080002b 	ldhuio	r2,0(r2)
   10e7c:	e0bffa0d 	sth	r2,-24(fp)
   10e80:	e0bffa0b 	ldhu	r2,-24(fp)
   10e84:	10800044 	addi	r2,r2,1
   10e88:	e0bffa0d 	sth	r2,-24(fp)
   10e8c:	e0bffa0b 	ldhu	r2,-24(fp)
   10e90:	1080004c 	andi	r2,r2,1
   10e94:	1004c03a 	cmpne	r2,r2,zero
   10e98:	1001621e 	bne	r2,zero,11424 <alt_read_cfi_width+0x794>
   10e9c:	00bffb44 	movi	r2,-19
   10ea0:	e0bff915 	stw	r2,-28(fp)
   10ea4:	00015f06 	br	11424 <alt_read_cfi_width+0x794>
   10ea8:	e0bfff17 	ldw	r2,-4(fp)
   10eac:	11000a17 	ldw	r4,40(r2)
   10eb0:	01401544 	movi	r5,85
   10eb4:	01802604 	movi	r6,152
   10eb8:	001023c0 	call	1023c <alt_write_flash_command_16bit_device_16bit_mode>
   10ebc:	e03ffb15 	stw	zero,-20(fp)
   10ec0:	00000f06 	br	10f00 <alt_read_cfi_width+0x270>
   10ec4:	e13ffb17 	ldw	r4,-20(fp)
   10ec8:	e0bfff17 	ldw	r2,-4(fp)
   10ecc:	10800a17 	ldw	r2,40(r2)
   10ed0:	1007883a 	mov	r3,r2
   10ed4:	e0bffb17 	ldw	r2,-20(fp)
   10ed8:	1885883a 	add	r2,r3,r2
   10edc:	10800804 	addi	r2,r2,32
   10ee0:	10800023 	ldbuio	r2,0(r2)
   10ee4:	1007883a 	mov	r3,r2
   10ee8:	e0bffc04 	addi	r2,fp,-16
   10eec:	1105883a 	add	r2,r2,r4
   10ef0:	10c00005 	stb	r3,0(r2)
   10ef4:	e0bffb17 	ldw	r2,-20(fp)
   10ef8:	10800044 	addi	r2,r2,1
   10efc:	e0bffb15 	stw	r2,-20(fp)
   10f00:	e0bffb17 	ldw	r2,-20(fp)
   10f04:	10800190 	cmplti	r2,r2,6
   10f08:	103fee1e 	bne	r2,zero,10ec4 <alt_read_cfi_width+0x234>
   10f0c:	e0bffc03 	ldbu	r2,-16(fp)
   10f10:	10803fcc 	andi	r2,r2,255
   10f14:	10801458 	cmpnei	r2,r2,81
   10f18:	1000291e 	bne	r2,zero,10fc0 <alt_read_cfi_width+0x330>
   10f1c:	e0bffc43 	ldbu	r2,-15(fp)
   10f20:	10803fcc 	andi	r2,r2,255
   10f24:	1004c03a 	cmpne	r2,r2,zero
   10f28:	1000251e 	bne	r2,zero,10fc0 <alt_read_cfi_width+0x330>
   10f2c:	e0bffc83 	ldbu	r2,-14(fp)
   10f30:	10803fcc 	andi	r2,r2,255
   10f34:	10801498 	cmpnei	r2,r2,82
   10f38:	1000211e 	bne	r2,zero,10fc0 <alt_read_cfi_width+0x330>
   10f3c:	e0bffcc3 	ldbu	r2,-13(fp)
   10f40:	10803fcc 	andi	r2,r2,255
   10f44:	1004c03a 	cmpne	r2,r2,zero
   10f48:	10001d1e 	bne	r2,zero,10fc0 <alt_read_cfi_width+0x330>
   10f4c:	e0bffd03 	ldbu	r2,-12(fp)
   10f50:	10803fcc 	andi	r2,r2,255
   10f54:	10801658 	cmpnei	r2,r2,89
   10f58:	1000191e 	bne	r2,zero,10fc0 <alt_read_cfi_width+0x330>
   10f5c:	e0bffd43 	ldbu	r2,-11(fp)
   10f60:	10803fcc 	andi	r2,r2,255
   10f64:	1004c03a 	cmpne	r2,r2,zero
   10f68:	1000151e 	bne	r2,zero,10fc0 <alt_read_cfi_width+0x330>
   10f6c:	e0ffff17 	ldw	r3,-4(fp)
   10f70:	00800084 	movi	r2,2
   10f74:	18802e15 	stw	r2,184(r3)
   10f78:	e0ffff17 	ldw	r3,-4(fp)
   10f7c:	00800084 	movi	r2,2
   10f80:	18802f15 	stw	r2,188(r3)
   10f84:	e0bfff17 	ldw	r2,-4(fp)
   10f88:	10800a17 	ldw	r2,40(r2)
   10f8c:	10801404 	addi	r2,r2,80
   10f90:	1080002b 	ldhuio	r2,0(r2)
   10f94:	e0bffa0d 	sth	r2,-24(fp)
   10f98:	e0bffa0b 	ldhu	r2,-24(fp)
   10f9c:	10800044 	addi	r2,r2,1
   10fa0:	e0bffa0d 	sth	r2,-24(fp)
   10fa4:	e0bffa0b 	ldhu	r2,-24(fp)
   10fa8:	1080008c 	andi	r2,r2,2
   10fac:	1004c03a 	cmpne	r2,r2,zero
   10fb0:	10011c1e 	bne	r2,zero,11424 <alt_read_cfi_width+0x794>
   10fb4:	00bffb44 	movi	r2,-19
   10fb8:	e0bff915 	stw	r2,-28(fp)
   10fbc:	00011906 	br	11424 <alt_read_cfi_width+0x794>
   10fc0:	e0bfff17 	ldw	r2,-4(fp)
   10fc4:	11000a17 	ldw	r4,40(r2)
   10fc8:	01401544 	movi	r5,85
   10fcc:	01802604 	movi	r6,152
   10fd0:	00102c80 	call	102c8 <alt_write_flash_command_32bit_device_32bit_mode>
   10fd4:	e03ffb15 	stw	zero,-20(fp)
   10fd8:	00000f06 	br	11018 <alt_read_cfi_width+0x388>
   10fdc:	e13ffb17 	ldw	r4,-20(fp)
   10fe0:	e0bfff17 	ldw	r2,-4(fp)
   10fe4:	10800a17 	ldw	r2,40(r2)
   10fe8:	1007883a 	mov	r3,r2
   10fec:	e0bffb17 	ldw	r2,-20(fp)
   10ff0:	1885883a 	add	r2,r3,r2
   10ff4:	10801004 	addi	r2,r2,64
   10ff8:	10800023 	ldbuio	r2,0(r2)
   10ffc:	1007883a 	mov	r3,r2
   11000:	e0bffc04 	addi	r2,fp,-16
   11004:	1105883a 	add	r2,r2,r4
   11008:	10c00005 	stb	r3,0(r2)
   1100c:	e0bffb17 	ldw	r2,-20(fp)
   11010:	10800044 	addi	r2,r2,1
   11014:	e0bffb15 	stw	r2,-20(fp)
   11018:	e0bffb17 	ldw	r2,-20(fp)
   1101c:	10800310 	cmplti	r2,r2,12
   11020:	103fee1e 	bne	r2,zero,10fdc <alt_read_cfi_width+0x34c>
   11024:	e0bffc03 	ldbu	r2,-16(fp)
   11028:	10803fcc 	andi	r2,r2,255
   1102c:	10801458 	cmpnei	r2,r2,81
   11030:	1000411e 	bne	r2,zero,11138 <alt_read_cfi_width+0x4a8>
   11034:	e0bffc43 	ldbu	r2,-15(fp)
   11038:	10803fcc 	andi	r2,r2,255
   1103c:	1004c03a 	cmpne	r2,r2,zero
   11040:	10003d1e 	bne	r2,zero,11138 <alt_read_cfi_width+0x4a8>
   11044:	e0bffc83 	ldbu	r2,-14(fp)
   11048:	10803fcc 	andi	r2,r2,255
   1104c:	1004c03a 	cmpne	r2,r2,zero
   11050:	1000391e 	bne	r2,zero,11138 <alt_read_cfi_width+0x4a8>
   11054:	e0bffcc3 	ldbu	r2,-13(fp)
   11058:	10803fcc 	andi	r2,r2,255
   1105c:	1004c03a 	cmpne	r2,r2,zero
   11060:	1000351e 	bne	r2,zero,11138 <alt_read_cfi_width+0x4a8>
   11064:	e0bffd03 	ldbu	r2,-12(fp)
   11068:	10803fcc 	andi	r2,r2,255
   1106c:	10801498 	cmpnei	r2,r2,82
   11070:	1000311e 	bne	r2,zero,11138 <alt_read_cfi_width+0x4a8>
   11074:	e0bffd43 	ldbu	r2,-11(fp)
   11078:	10803fcc 	andi	r2,r2,255
   1107c:	1004c03a 	cmpne	r2,r2,zero
   11080:	10002d1e 	bne	r2,zero,11138 <alt_read_cfi_width+0x4a8>
   11084:	e0bffd83 	ldbu	r2,-10(fp)
   11088:	10803fcc 	andi	r2,r2,255
   1108c:	1004c03a 	cmpne	r2,r2,zero
   11090:	1000291e 	bne	r2,zero,11138 <alt_read_cfi_width+0x4a8>
   11094:	e0bffdc3 	ldbu	r2,-9(fp)
   11098:	10803fcc 	andi	r2,r2,255
   1109c:	1004c03a 	cmpne	r2,r2,zero
   110a0:	1000251e 	bne	r2,zero,11138 <alt_read_cfi_width+0x4a8>
   110a4:	e0bffe03 	ldbu	r2,-8(fp)
   110a8:	10803fcc 	andi	r2,r2,255
   110ac:	10801658 	cmpnei	r2,r2,89
   110b0:	1000211e 	bne	r2,zero,11138 <alt_read_cfi_width+0x4a8>
   110b4:	e0bffe43 	ldbu	r2,-7(fp)
   110b8:	10803fcc 	andi	r2,r2,255
   110bc:	1004c03a 	cmpne	r2,r2,zero
   110c0:	10001d1e 	bne	r2,zero,11138 <alt_read_cfi_width+0x4a8>
   110c4:	e0bffe83 	ldbu	r2,-6(fp)
   110c8:	10803fcc 	andi	r2,r2,255
   110cc:	1004c03a 	cmpne	r2,r2,zero
   110d0:	1000191e 	bne	r2,zero,11138 <alt_read_cfi_width+0x4a8>
   110d4:	e0bffec3 	ldbu	r2,-5(fp)
   110d8:	10803fcc 	andi	r2,r2,255
   110dc:	1004c03a 	cmpne	r2,r2,zero
   110e0:	1000151e 	bne	r2,zero,11138 <alt_read_cfi_width+0x4a8>
   110e4:	e0ffff17 	ldw	r3,-4(fp)
   110e8:	00800104 	movi	r2,4
   110ec:	18802e15 	stw	r2,184(r3)
   110f0:	e0ffff17 	ldw	r3,-4(fp)
   110f4:	00800104 	movi	r2,4
   110f8:	18802f15 	stw	r2,188(r3)
   110fc:	e0bfff17 	ldw	r2,-4(fp)
   11100:	10800a17 	ldw	r2,40(r2)
   11104:	10802804 	addi	r2,r2,160
   11108:	10800037 	ldwio	r2,0(r2)
   1110c:	e0bffa0d 	sth	r2,-24(fp)
   11110:	e0bffa0b 	ldhu	r2,-24(fp)
   11114:	10800044 	addi	r2,r2,1
   11118:	e0bffa0d 	sth	r2,-24(fp)
   1111c:	e0bffa0b 	ldhu	r2,-24(fp)
   11120:	1080010c 	andi	r2,r2,4
   11124:	1004c03a 	cmpne	r2,r2,zero
   11128:	1000be1e 	bne	r2,zero,11424 <alt_read_cfi_width+0x794>
   1112c:	00bffb44 	movi	r2,-19
   11130:	e0bff915 	stw	r2,-28(fp)
   11134:	0000bb06 	br	11424 <alt_read_cfi_width+0x794>
   11138:	e0bfff17 	ldw	r2,-4(fp)
   1113c:	11000a17 	ldw	r4,40(r2)
   11140:	01401544 	movi	r5,85
   11144:	01802604 	movi	r6,152
   11148:	00102800 	call	10280 <alt_write_flash_command_32bit_device_16bit_mode>
   1114c:	e03ffb15 	stw	zero,-20(fp)
   11150:	00000f06 	br	11190 <alt_read_cfi_width+0x500>
   11154:	e13ffb17 	ldw	r4,-20(fp)
   11158:	e0bfff17 	ldw	r2,-4(fp)
   1115c:	10800a17 	ldw	r2,40(r2)
   11160:	1007883a 	mov	r3,r2
   11164:	e0bffb17 	ldw	r2,-20(fp)
   11168:	1885883a 	add	r2,r3,r2
   1116c:	10801004 	addi	r2,r2,64
   11170:	10800023 	ldbuio	r2,0(r2)
   11174:	1007883a 	mov	r3,r2
   11178:	e0bffc04 	addi	r2,fp,-16
   1117c:	1105883a 	add	r2,r2,r4
   11180:	10c00005 	stb	r3,0(r2)
   11184:	e0bffb17 	ldw	r2,-20(fp)
   11188:	10800044 	addi	r2,r2,1
   1118c:	e0bffb15 	stw	r2,-20(fp)
   11190:	e0bffb17 	ldw	r2,-20(fp)
   11194:	10800310 	cmplti	r2,r2,12
   11198:	103fee1e 	bne	r2,zero,11154 <alt_read_cfi_width+0x4c4>
   1119c:	e0bffc03 	ldbu	r2,-16(fp)
   111a0:	10803fcc 	andi	r2,r2,255
   111a4:	10801458 	cmpnei	r2,r2,81
   111a8:	1000411e 	bne	r2,zero,112b0 <alt_read_cfi_width+0x620>
   111ac:	e0bffc43 	ldbu	r2,-15(fp)
   111b0:	10803fcc 	andi	r2,r2,255
   111b4:	1004c03a 	cmpne	r2,r2,zero
   111b8:	10003d1e 	bne	r2,zero,112b0 <alt_read_cfi_width+0x620>
   111bc:	e0bffc83 	ldbu	r2,-14(fp)
   111c0:	10803fcc 	andi	r2,r2,255
   111c4:	10801458 	cmpnei	r2,r2,81
   111c8:	1000391e 	bne	r2,zero,112b0 <alt_read_cfi_width+0x620>
   111cc:	e0bffcc3 	ldbu	r2,-13(fp)
   111d0:	10803fcc 	andi	r2,r2,255
   111d4:	1004c03a 	cmpne	r2,r2,zero
   111d8:	1000351e 	bne	r2,zero,112b0 <alt_read_cfi_width+0x620>
   111dc:	e0bffd03 	ldbu	r2,-12(fp)
   111e0:	10803fcc 	andi	r2,r2,255
   111e4:	10801498 	cmpnei	r2,r2,82
   111e8:	1000311e 	bne	r2,zero,112b0 <alt_read_cfi_width+0x620>
   111ec:	e0bffd43 	ldbu	r2,-11(fp)
   111f0:	10803fcc 	andi	r2,r2,255
   111f4:	1004c03a 	cmpne	r2,r2,zero
   111f8:	10002d1e 	bne	r2,zero,112b0 <alt_read_cfi_width+0x620>
   111fc:	e0bffd83 	ldbu	r2,-10(fp)
   11200:	10803fcc 	andi	r2,r2,255
   11204:	10801498 	cmpnei	r2,r2,82
   11208:	1000291e 	bne	r2,zero,112b0 <alt_read_cfi_width+0x620>
   1120c:	e0bffdc3 	ldbu	r2,-9(fp)
   11210:	10803fcc 	andi	r2,r2,255
   11214:	1004c03a 	cmpne	r2,r2,zero
   11218:	1000251e 	bne	r2,zero,112b0 <alt_read_cfi_width+0x620>
   1121c:	e0bffe03 	ldbu	r2,-8(fp)
   11220:	10803fcc 	andi	r2,r2,255
   11224:	10801658 	cmpnei	r2,r2,89
   11228:	1000211e 	bne	r2,zero,112b0 <alt_read_cfi_width+0x620>
   1122c:	e0bffe43 	ldbu	r2,-7(fp)
   11230:	10803fcc 	andi	r2,r2,255
   11234:	1004c03a 	cmpne	r2,r2,zero
   11238:	10001d1e 	bne	r2,zero,112b0 <alt_read_cfi_width+0x620>
   1123c:	e0bffe83 	ldbu	r2,-6(fp)
   11240:	10803fcc 	andi	r2,r2,255
   11244:	10801658 	cmpnei	r2,r2,89
   11248:	1000191e 	bne	r2,zero,112b0 <alt_read_cfi_width+0x620>
   1124c:	e0bffec3 	ldbu	r2,-5(fp)
   11250:	10803fcc 	andi	r2,r2,255
   11254:	1004c03a 	cmpne	r2,r2,zero
   11258:	1000151e 	bne	r2,zero,112b0 <alt_read_cfi_width+0x620>
   1125c:	e0ffff17 	ldw	r3,-4(fp)
   11260:	00800084 	movi	r2,2
   11264:	18802e15 	stw	r2,184(r3)
   11268:	e0ffff17 	ldw	r3,-4(fp)
   1126c:	00800104 	movi	r2,4
   11270:	18802f15 	stw	r2,188(r3)
   11274:	e0bfff17 	ldw	r2,-4(fp)
   11278:	10800a17 	ldw	r2,40(r2)
   1127c:	10802804 	addi	r2,r2,160
   11280:	10800037 	ldwio	r2,0(r2)
   11284:	e0bffa0d 	sth	r2,-24(fp)
   11288:	e0bffa0b 	ldhu	r2,-24(fp)
   1128c:	10800044 	addi	r2,r2,1
   11290:	e0bffa0d 	sth	r2,-24(fp)
   11294:	e0bffa0b 	ldhu	r2,-24(fp)
   11298:	1080010c 	andi	r2,r2,4
   1129c:	1004c03a 	cmpne	r2,r2,zero
   112a0:	1000601e 	bne	r2,zero,11424 <alt_read_cfi_width+0x794>
   112a4:	00bffb44 	movi	r2,-19
   112a8:	e0bff915 	stw	r2,-28(fp)
   112ac:	00005d06 	br	11424 <alt_read_cfi_width+0x794>
   112b0:	e0bfff17 	ldw	r2,-4(fp)
   112b4:	11000a17 	ldw	r4,40(r2)
   112b8:	01401544 	movi	r5,85
   112bc:	01802604 	movi	r6,152
   112c0:	00101f40 	call	101f4 <alt_write_flash_command_32bit_device_8bit_mode>
   112c4:	e03ffb15 	stw	zero,-20(fp)
   112c8:	00000f06 	br	11308 <alt_read_cfi_width+0x678>
   112cc:	e13ffb17 	ldw	r4,-20(fp)
   112d0:	e0bfff17 	ldw	r2,-4(fp)
   112d4:	10800a17 	ldw	r2,40(r2)
   112d8:	1007883a 	mov	r3,r2
   112dc:	e0bffb17 	ldw	r2,-20(fp)
   112e0:	1885883a 	add	r2,r3,r2
   112e4:	10801004 	addi	r2,r2,64
   112e8:	10800023 	ldbuio	r2,0(r2)
   112ec:	1007883a 	mov	r3,r2
   112f0:	e0bffc04 	addi	r2,fp,-16
   112f4:	1105883a 	add	r2,r2,r4
   112f8:	10c00005 	stb	r3,0(r2)
   112fc:	e0bffb17 	ldw	r2,-20(fp)
   11300:	10800044 	addi	r2,r2,1
   11304:	e0bffb15 	stw	r2,-20(fp)
   11308:	e0bffb17 	ldw	r2,-20(fp)
   1130c:	10800310 	cmplti	r2,r2,12
   11310:	103fee1e 	bne	r2,zero,112cc <alt_read_cfi_width+0x63c>
   11314:	e0bffc03 	ldbu	r2,-16(fp)
   11318:	10803fcc 	andi	r2,r2,255
   1131c:	10801458 	cmpnei	r2,r2,81
   11320:	1000401e 	bne	r2,zero,11424 <alt_read_cfi_width+0x794>
   11324:	e0bffc43 	ldbu	r2,-15(fp)
   11328:	10803fcc 	andi	r2,r2,255
   1132c:	10801458 	cmpnei	r2,r2,81
   11330:	10003c1e 	bne	r2,zero,11424 <alt_read_cfi_width+0x794>
   11334:	e0bffc83 	ldbu	r2,-14(fp)
   11338:	10803fcc 	andi	r2,r2,255
   1133c:	10801458 	cmpnei	r2,r2,81
   11340:	1000381e 	bne	r2,zero,11424 <alt_read_cfi_width+0x794>
   11344:	e0bffcc3 	ldbu	r2,-13(fp)
   11348:	10803fcc 	andi	r2,r2,255
   1134c:	10801458 	cmpnei	r2,r2,81
   11350:	1000341e 	bne	r2,zero,11424 <alt_read_cfi_width+0x794>
   11354:	e0bffd03 	ldbu	r2,-12(fp)
   11358:	10803fcc 	andi	r2,r2,255
   1135c:	10801498 	cmpnei	r2,r2,82
   11360:	1000301e 	bne	r2,zero,11424 <alt_read_cfi_width+0x794>
   11364:	e0bffd43 	ldbu	r2,-11(fp)
   11368:	10803fcc 	andi	r2,r2,255
   1136c:	10801498 	cmpnei	r2,r2,82
   11370:	10002c1e 	bne	r2,zero,11424 <alt_read_cfi_width+0x794>
   11374:	e0bffd83 	ldbu	r2,-10(fp)
   11378:	10803fcc 	andi	r2,r2,255
   1137c:	10801498 	cmpnei	r2,r2,82
   11380:	1000281e 	bne	r2,zero,11424 <alt_read_cfi_width+0x794>
   11384:	e0bffdc3 	ldbu	r2,-9(fp)
   11388:	10803fcc 	andi	r2,r2,255
   1138c:	10801498 	cmpnei	r2,r2,82
   11390:	1000241e 	bne	r2,zero,11424 <alt_read_cfi_width+0x794>
   11394:	e0bffe03 	ldbu	r2,-8(fp)
   11398:	10803fcc 	andi	r2,r2,255
   1139c:	10801658 	cmpnei	r2,r2,89
   113a0:	1000201e 	bne	r2,zero,11424 <alt_read_cfi_width+0x794>
   113a4:	e0bffe43 	ldbu	r2,-7(fp)
   113a8:	10803fcc 	andi	r2,r2,255
   113ac:	10801658 	cmpnei	r2,r2,89
   113b0:	10001c1e 	bne	r2,zero,11424 <alt_read_cfi_width+0x794>
   113b4:	e0bffe83 	ldbu	r2,-6(fp)
   113b8:	10803fcc 	andi	r2,r2,255
   113bc:	10801658 	cmpnei	r2,r2,89
   113c0:	1000181e 	bne	r2,zero,11424 <alt_read_cfi_width+0x794>
   113c4:	e0bffec3 	ldbu	r2,-5(fp)
   113c8:	10803fcc 	andi	r2,r2,255
   113cc:	10801658 	cmpnei	r2,r2,89
   113d0:	1000141e 	bne	r2,zero,11424 <alt_read_cfi_width+0x794>
   113d4:	e0ffff17 	ldw	r3,-4(fp)
   113d8:	00800044 	movi	r2,1
   113dc:	18802e15 	stw	r2,184(r3)
   113e0:	e0ffff17 	ldw	r3,-4(fp)
   113e4:	00800104 	movi	r2,4
   113e8:	18802f15 	stw	r2,188(r3)
   113ec:	e0bfff17 	ldw	r2,-4(fp)
   113f0:	10800a17 	ldw	r2,40(r2)
   113f4:	10802804 	addi	r2,r2,160
   113f8:	10800037 	ldwio	r2,0(r2)
   113fc:	e0bffa0d 	sth	r2,-24(fp)
   11400:	e0bffa0b 	ldhu	r2,-24(fp)
   11404:	10800044 	addi	r2,r2,1
   11408:	e0bffa0d 	sth	r2,-24(fp)
   1140c:	e0bffa0b 	ldhu	r2,-24(fp)
   11410:	1080010c 	andi	r2,r2,4
   11414:	1004c03a 	cmpne	r2,r2,zero
   11418:	1000021e 	bne	r2,zero,11424 <alt_read_cfi_width+0x794>
   1141c:	00bffb44 	movi	r2,-19
   11420:	e0bff915 	stw	r2,-28(fp)
   11424:	e0bff917 	ldw	r2,-28(fp)
   11428:	e037883a 	mov	sp,fp
   1142c:	dfc00117 	ldw	ra,4(sp)
   11430:	df000017 	ldw	fp,0(sp)
   11434:	dec00204 	addi	sp,sp,8
   11438:	f800283a 	ret

0001143c <alt_check_primary_table>:
   1143c:	defff904 	addi	sp,sp,-28
   11440:	dfc00615 	stw	ra,24(sp)
   11444:	df000515 	stw	fp,20(sp)
   11448:	dc000415 	stw	r16,16(sp)
   1144c:	df000404 	addi	fp,sp,16
   11450:	e13fff15 	stw	r4,-4(fp)
   11454:	e03ffc15 	stw	zero,-16(fp)
   11458:	e13fff17 	ldw	r4,-4(fp)
   1145c:	01400544 	movi	r5,21
   11460:	00106340 	call	10634 <alt_read_16bit_query_entry>
   11464:	10ffffcc 	andi	r3,r2,65535
   11468:	e0bfff17 	ldw	r2,-4(fp)
   1146c:	10c03215 	stw	r3,200(r2)
   11470:	e03ffd15 	stw	zero,-12(fp)
   11474:	00001006 	br	114b8 <alt_check_primary_table+0x7c>
   11478:	e43ffd17 	ldw	r16,-12(fp)
   1147c:	e0bfff17 	ldw	r2,-4(fp)
   11480:	11803417 	ldw	r6,208(r2)
   11484:	e0bfff17 	ldw	r2,-4(fp)
   11488:	10c03217 	ldw	r3,200(r2)
   1148c:	e0bffd17 	ldw	r2,-12(fp)
   11490:	188b883a 	add	r5,r3,r2
   11494:	e13fff17 	ldw	r4,-4(fp)
   11498:	303ee83a 	callr	r6
   1149c:	1007883a 	mov	r3,r2
   114a0:	e0bffe04 	addi	r2,fp,-8
   114a4:	1405883a 	add	r2,r2,r16
   114a8:	10c00005 	stb	r3,0(r2)
   114ac:	e0bffd17 	ldw	r2,-12(fp)
   114b0:	10800044 	addi	r2,r2,1
   114b4:	e0bffd15 	stw	r2,-12(fp)
   114b8:	e0bffd17 	ldw	r2,-12(fp)
   114bc:	108000d0 	cmplti	r2,r2,3
   114c0:	103fed1e 	bne	r2,zero,11478 <alt_check_primary_table+0x3c>
   114c4:	e0bffe03 	ldbu	r2,-8(fp)
   114c8:	10803fcc 	andi	r2,r2,255
   114cc:	10801418 	cmpnei	r2,r2,80
   114d0:	1000081e 	bne	r2,zero,114f4 <alt_check_primary_table+0xb8>
   114d4:	e0bffe43 	ldbu	r2,-7(fp)
   114d8:	10803fcc 	andi	r2,r2,255
   114dc:	10801498 	cmpnei	r2,r2,82
   114e0:	1000041e 	bne	r2,zero,114f4 <alt_check_primary_table+0xb8>
   114e4:	e0bffe83 	ldbu	r2,-6(fp)
   114e8:	10803fcc 	andi	r2,r2,255
   114ec:	10801260 	cmpeqi	r2,r2,73
   114f0:	1000021e 	bne	r2,zero,114fc <alt_check_primary_table+0xc0>
   114f4:	00bffb44 	movi	r2,-19
   114f8:	e0bffc15 	stw	r2,-16(fp)
   114fc:	e0bffc17 	ldw	r2,-16(fp)
   11500:	e037883a 	mov	sp,fp
   11504:	dfc00217 	ldw	ra,8(sp)
   11508:	df000117 	ldw	fp,4(sp)
   1150c:	dc000017 	ldw	r16,0(sp)
   11510:	dec00304 	addi	sp,sp,12
   11514:	f800283a 	ret

00011518 <altera_avalon_jtag_uart_read_fd>:
   11518:	defffa04 	addi	sp,sp,-24
   1151c:	dfc00515 	stw	ra,20(sp)
   11520:	df000415 	stw	fp,16(sp)
   11524:	df000404 	addi	fp,sp,16
   11528:	e13ffd15 	stw	r4,-12(fp)
   1152c:	e17ffe15 	stw	r5,-8(fp)
   11530:	e1bfff15 	stw	r6,-4(fp)
   11534:	e0bffd17 	ldw	r2,-12(fp)
   11538:	10800017 	ldw	r2,0(r2)
   1153c:	e0bffc15 	stw	r2,-16(fp)
   11540:	e0bffc17 	ldw	r2,-16(fp)
   11544:	11000a04 	addi	r4,r2,40
   11548:	e0bffd17 	ldw	r2,-12(fp)
   1154c:	11c00217 	ldw	r7,8(r2)
   11550:	e17ffe17 	ldw	r5,-8(fp)
   11554:	e1bfff17 	ldw	r6,-4(fp)
   11558:	0011b5c0 	call	11b5c <altera_avalon_jtag_uart_read>
   1155c:	e037883a 	mov	sp,fp
   11560:	dfc00117 	ldw	ra,4(sp)
   11564:	df000017 	ldw	fp,0(sp)
   11568:	dec00204 	addi	sp,sp,8
   1156c:	f800283a 	ret

00011570 <altera_avalon_jtag_uart_write_fd>:
   11570:	defffa04 	addi	sp,sp,-24
   11574:	dfc00515 	stw	ra,20(sp)
   11578:	df000415 	stw	fp,16(sp)
   1157c:	df000404 	addi	fp,sp,16
   11580:	e13ffd15 	stw	r4,-12(fp)
   11584:	e17ffe15 	stw	r5,-8(fp)
   11588:	e1bfff15 	stw	r6,-4(fp)
   1158c:	e0bffd17 	ldw	r2,-12(fp)
   11590:	10800017 	ldw	r2,0(r2)
   11594:	e0bffc15 	stw	r2,-16(fp)
   11598:	e0bffc17 	ldw	r2,-16(fp)
   1159c:	11000a04 	addi	r4,r2,40
   115a0:	e0bffd17 	ldw	r2,-12(fp)
   115a4:	11c00217 	ldw	r7,8(r2)
   115a8:	e17ffe17 	ldw	r5,-8(fp)
   115ac:	e1bfff17 	ldw	r6,-4(fp)
   115b0:	0011d800 	call	11d80 <altera_avalon_jtag_uart_write>
   115b4:	e037883a 	mov	sp,fp
   115b8:	dfc00117 	ldw	ra,4(sp)
   115bc:	df000017 	ldw	fp,0(sp)
   115c0:	dec00204 	addi	sp,sp,8
   115c4:	f800283a 	ret

000115c8 <altera_avalon_jtag_uart_close_fd>:
   115c8:	defffc04 	addi	sp,sp,-16
   115cc:	dfc00315 	stw	ra,12(sp)
   115d0:	df000215 	stw	fp,8(sp)
   115d4:	df000204 	addi	fp,sp,8
   115d8:	e13fff15 	stw	r4,-4(fp)
   115dc:	e0bfff17 	ldw	r2,-4(fp)
   115e0:	10800017 	ldw	r2,0(r2)
   115e4:	e0bffe15 	stw	r2,-8(fp)
   115e8:	e0bffe17 	ldw	r2,-8(fp)
   115ec:	11000a04 	addi	r4,r2,40
   115f0:	e0bfff17 	ldw	r2,-4(fp)
   115f4:	11400217 	ldw	r5,8(r2)
   115f8:	00119f40 	call	119f4 <altera_avalon_jtag_uart_close>
   115fc:	e037883a 	mov	sp,fp
   11600:	dfc00117 	ldw	ra,4(sp)
   11604:	df000017 	ldw	fp,0(sp)
   11608:	dec00204 	addi	sp,sp,8
   1160c:	f800283a 	ret

00011610 <altera_avalon_jtag_uart_ioctl_fd>:
   11610:	defffa04 	addi	sp,sp,-24
   11614:	dfc00515 	stw	ra,20(sp)
   11618:	df000415 	stw	fp,16(sp)
   1161c:	df000404 	addi	fp,sp,16
   11620:	e13ffd15 	stw	r4,-12(fp)
   11624:	e17ffe15 	stw	r5,-8(fp)
   11628:	e1bfff15 	stw	r6,-4(fp)
   1162c:	e0bffd17 	ldw	r2,-12(fp)
   11630:	10800017 	ldw	r2,0(r2)
   11634:	e0bffc15 	stw	r2,-16(fp)
   11638:	e0bffc17 	ldw	r2,-16(fp)
   1163c:	11000a04 	addi	r4,r2,40
   11640:	e17ffe17 	ldw	r5,-8(fp)
   11644:	e1bfff17 	ldw	r6,-4(fp)
   11648:	0011a680 	call	11a68 <altera_avalon_jtag_uart_ioctl>
   1164c:	e037883a 	mov	sp,fp
   11650:	dfc00117 	ldw	ra,4(sp)
   11654:	df000017 	ldw	fp,0(sp)
   11658:	dec00204 	addi	sp,sp,8
   1165c:	f800283a 	ret

00011660 <altera_avalon_jtag_uart_init>:
   11660:	defffb04 	addi	sp,sp,-20
   11664:	dfc00415 	stw	ra,16(sp)
   11668:	df000315 	stw	fp,12(sp)
   1166c:	df000304 	addi	fp,sp,12
   11670:	e13ffd15 	stw	r4,-12(fp)
   11674:	e17ffe15 	stw	r5,-8(fp)
   11678:	e1bfff15 	stw	r6,-4(fp)
   1167c:	e0fffd17 	ldw	r3,-12(fp)
   11680:	00800044 	movi	r2,1
   11684:	18800815 	stw	r2,32(r3)
   11688:	e0bffd17 	ldw	r2,-12(fp)
   1168c:	10800017 	ldw	r2,0(r2)
   11690:	11000104 	addi	r4,r2,4
   11694:	e0bffd17 	ldw	r2,-12(fp)
   11698:	10800817 	ldw	r2,32(r2)
   1169c:	1007883a 	mov	r3,r2
   116a0:	2005883a 	mov	r2,r4
   116a4:	10c00035 	stwio	r3,0(r2)
   116a8:	e13fff17 	ldw	r4,-4(fp)
   116ac:	e17ffd17 	ldw	r5,-12(fp)
   116b0:	01800074 	movhi	r6,1
   116b4:	3185c604 	addi	r6,r6,5912
   116b8:	00019140 	call	1914 <alt_irq_register>
   116bc:	e0bffd17 	ldw	r2,-12(fp)
   116c0:	10000915 	stw	zero,36(r2)
   116c4:	e0bffd17 	ldw	r2,-12(fp)
   116c8:	11000204 	addi	r4,r2,8
   116cc:	00820034 	movhi	r2,2048
   116d0:	10896604 	addi	r2,r2,9624
   116d4:	10800017 	ldw	r2,0(r2)
   116d8:	100b883a 	mov	r5,r2
   116dc:	01800074 	movhi	r6,1
   116e0:	31865104 	addi	r6,r6,6468
   116e4:	e1fffd17 	ldw	r7,-12(fp)
   116e8:	00143a40 	call	143a4 <alt_alarm_start>
   116ec:	1004403a 	cmpge	r2,r2,zero
   116f0:	1000041e 	bne	r2,zero,11704 <altera_avalon_jtag_uart_init+0xa4>
   116f4:	e0fffd17 	ldw	r3,-12(fp)
   116f8:	00a00034 	movhi	r2,32768
   116fc:	10bfffc4 	addi	r2,r2,-1
   11700:	18800115 	stw	r2,4(r3)
   11704:	e037883a 	mov	sp,fp
   11708:	dfc00117 	ldw	ra,4(sp)
   1170c:	df000017 	ldw	fp,0(sp)
   11710:	dec00204 	addi	sp,sp,8
   11714:	f800283a 	ret

00011718 <altera_avalon_jtag_uart_irq>:
   11718:	defff704 	addi	sp,sp,-36
   1171c:	df000815 	stw	fp,32(sp)
   11720:	df000804 	addi	fp,sp,32
   11724:	e13ffe15 	stw	r4,-8(fp)
   11728:	e17fff15 	stw	r5,-4(fp)
   1172c:	e0bffe17 	ldw	r2,-8(fp)
   11730:	e0bffd15 	stw	r2,-12(fp)
   11734:	e0bffd17 	ldw	r2,-12(fp)
   11738:	10800017 	ldw	r2,0(r2)
   1173c:	e0bffc15 	stw	r2,-16(fp)
   11740:	00000006 	br	11744 <altera_avalon_jtag_uart_irq+0x2c>
   11744:	e0bffc17 	ldw	r2,-16(fp)
   11748:	10800104 	addi	r2,r2,4
   1174c:	10800037 	ldwio	r2,0(r2)
   11750:	e0bffb15 	stw	r2,-20(fp)
   11754:	e0bffb17 	ldw	r2,-20(fp)
   11758:	1080c00c 	andi	r2,r2,768
   1175c:	1005003a 	cmpeq	r2,r2,zero
   11760:	1000741e 	bne	r2,zero,11934 <altera_avalon_jtag_uart_irq+0x21c>
   11764:	e0bffb17 	ldw	r2,-20(fp)
   11768:	1080400c 	andi	r2,r2,256
   1176c:	1005003a 	cmpeq	r2,r2,zero
   11770:	1000351e 	bne	r2,zero,11848 <altera_avalon_jtag_uart_irq+0x130>
   11774:	00800074 	movhi	r2,1
   11778:	e0bffa15 	stw	r2,-24(fp)
   1177c:	e0bffd17 	ldw	r2,-12(fp)
   11780:	10800a17 	ldw	r2,40(r2)
   11784:	10800044 	addi	r2,r2,1
   11788:	1081ffcc 	andi	r2,r2,2047
   1178c:	e0bff915 	stw	r2,-28(fp)
   11790:	e0bffd17 	ldw	r2,-12(fp)
   11794:	10c00b17 	ldw	r3,44(r2)
   11798:	e0bff917 	ldw	r2,-28(fp)
   1179c:	18801626 	beq	r3,r2,117f8 <altera_avalon_jtag_uart_irq+0xe0>
   117a0:	e0bffc17 	ldw	r2,-16(fp)
   117a4:	10800037 	ldwio	r2,0(r2)
   117a8:	e0bffa15 	stw	r2,-24(fp)
   117ac:	e0bffa17 	ldw	r2,-24(fp)
   117b0:	10a0000c 	andi	r2,r2,32768
   117b4:	1005003a 	cmpeq	r2,r2,zero
   117b8:	10000f1e 	bne	r2,zero,117f8 <altera_avalon_jtag_uart_irq+0xe0>
   117bc:	e0bffd17 	ldw	r2,-12(fp)
   117c0:	10c00a17 	ldw	r3,40(r2)
   117c4:	e0bffa17 	ldw	r2,-24(fp)
   117c8:	1009883a 	mov	r4,r2
   117cc:	e0bffd17 	ldw	r2,-12(fp)
   117d0:	1885883a 	add	r2,r3,r2
   117d4:	10800e04 	addi	r2,r2,56
   117d8:	11000005 	stb	r4,0(r2)
   117dc:	e0bffd17 	ldw	r2,-12(fp)
   117e0:	10800a17 	ldw	r2,40(r2)
   117e4:	10800044 	addi	r2,r2,1
   117e8:	10c1ffcc 	andi	r3,r2,2047
   117ec:	e0bffd17 	ldw	r2,-12(fp)
   117f0:	10c00a15 	stw	r3,40(r2)
   117f4:	003fe106 	br	1177c <altera_avalon_jtag_uart_irq+0x64>
   117f8:	e0bffa17 	ldw	r2,-24(fp)
   117fc:	10bfffec 	andhi	r2,r2,65535
   11800:	1005003a 	cmpeq	r2,r2,zero
   11804:	1000101e 	bne	r2,zero,11848 <altera_avalon_jtag_uart_irq+0x130>
   11808:	e0bffd17 	ldw	r2,-12(fp)
   1180c:	10c00817 	ldw	r3,32(r2)
   11810:	00bfff84 	movi	r2,-2
   11814:	1886703a 	and	r3,r3,r2
   11818:	e0bffd17 	ldw	r2,-12(fp)
   1181c:	10c00815 	stw	r3,32(r2)
   11820:	e0bffc17 	ldw	r2,-16(fp)
   11824:	11000104 	addi	r4,r2,4
   11828:	e0bffd17 	ldw	r2,-12(fp)
   1182c:	10800817 	ldw	r2,32(r2)
   11830:	1007883a 	mov	r3,r2
   11834:	2005883a 	mov	r2,r4
   11838:	10c00035 	stwio	r3,0(r2)
   1183c:	e0bffc17 	ldw	r2,-16(fp)
   11840:	10800104 	addi	r2,r2,4
   11844:	10800037 	ldwio	r2,0(r2)
   11848:	e0bffb17 	ldw	r2,-20(fp)
   1184c:	1080800c 	andi	r2,r2,512
   11850:	1005003a 	cmpeq	r2,r2,zero
   11854:	103fbb1e 	bne	r2,zero,11744 <altera_avalon_jtag_uart_irq+0x2c>
   11858:	e0bffb17 	ldw	r2,-20(fp)
   1185c:	10bfffec 	andhi	r2,r2,65535
   11860:	1004d43a 	srli	r2,r2,16
   11864:	e0bff815 	stw	r2,-32(fp)
   11868:	00001506 	br	118c0 <altera_avalon_jtag_uart_irq+0x1a8>
   1186c:	e13ffc17 	ldw	r4,-16(fp)
   11870:	e0bffd17 	ldw	r2,-12(fp)
   11874:	10c00d17 	ldw	r3,52(r2)
   11878:	e0bffd17 	ldw	r2,-12(fp)
   1187c:	1885883a 	add	r2,r3,r2
   11880:	10820e04 	addi	r2,r2,2104
   11884:	10800003 	ldbu	r2,0(r2)
   11888:	10c03fcc 	andi	r3,r2,255
   1188c:	18c0201c 	xori	r3,r3,128
   11890:	18ffe004 	addi	r3,r3,-128
   11894:	2005883a 	mov	r2,r4
   11898:	10c00035 	stwio	r3,0(r2)
   1189c:	e0bffd17 	ldw	r2,-12(fp)
   118a0:	10800d17 	ldw	r2,52(r2)
   118a4:	10800044 	addi	r2,r2,1
   118a8:	10c1ffcc 	andi	r3,r2,2047
   118ac:	e0bffd17 	ldw	r2,-12(fp)
   118b0:	10c00d15 	stw	r3,52(r2)
   118b4:	e0bff817 	ldw	r2,-32(fp)
   118b8:	10bfffc4 	addi	r2,r2,-1
   118bc:	e0bff815 	stw	r2,-32(fp)
   118c0:	e0bff817 	ldw	r2,-32(fp)
   118c4:	1005003a 	cmpeq	r2,r2,zero
   118c8:	1000051e 	bne	r2,zero,118e0 <altera_avalon_jtag_uart_irq+0x1c8>
   118cc:	e0bffd17 	ldw	r2,-12(fp)
   118d0:	10c00d17 	ldw	r3,52(r2)
   118d4:	e0bffd17 	ldw	r2,-12(fp)
   118d8:	10800c17 	ldw	r2,48(r2)
   118dc:	18bfe31e 	bne	r3,r2,1186c <altera_avalon_jtag_uart_irq+0x154>
   118e0:	e0bff817 	ldw	r2,-32(fp)
   118e4:	1005003a 	cmpeq	r2,r2,zero
   118e8:	103f961e 	bne	r2,zero,11744 <altera_avalon_jtag_uart_irq+0x2c>
   118ec:	e0bffd17 	ldw	r2,-12(fp)
   118f0:	10c00817 	ldw	r3,32(r2)
   118f4:	00bfff44 	movi	r2,-3
   118f8:	1886703a 	and	r3,r3,r2
   118fc:	e0bffd17 	ldw	r2,-12(fp)
   11900:	10c00815 	stw	r3,32(r2)
   11904:	e0bffd17 	ldw	r2,-12(fp)
   11908:	10800017 	ldw	r2,0(r2)
   1190c:	11000104 	addi	r4,r2,4
   11910:	e0bffd17 	ldw	r2,-12(fp)
   11914:	10800817 	ldw	r2,32(r2)
   11918:	1007883a 	mov	r3,r2
   1191c:	2005883a 	mov	r2,r4
   11920:	10c00035 	stwio	r3,0(r2)
   11924:	e0bffc17 	ldw	r2,-16(fp)
   11928:	10800104 	addi	r2,r2,4
   1192c:	10800037 	ldwio	r2,0(r2)
   11930:	003f8406 	br	11744 <altera_avalon_jtag_uart_irq+0x2c>
   11934:	e037883a 	mov	sp,fp
   11938:	df000017 	ldw	fp,0(sp)
   1193c:	dec00104 	addi	sp,sp,4
   11940:	f800283a 	ret

00011944 <altera_avalon_jtag_uart_timeout>:
   11944:	defffc04 	addi	sp,sp,-16
   11948:	df000315 	stw	fp,12(sp)
   1194c:	df000304 	addi	fp,sp,12
   11950:	e13fff15 	stw	r4,-4(fp)
   11954:	e0bfff17 	ldw	r2,-4(fp)
   11958:	e0bffe15 	stw	r2,-8(fp)
   1195c:	e0bffe17 	ldw	r2,-8(fp)
   11960:	10800017 	ldw	r2,0(r2)
   11964:	10800104 	addi	r2,r2,4
   11968:	10800037 	ldwio	r2,0(r2)
   1196c:	e0bffd15 	stw	r2,-12(fp)
   11970:	e0bffd17 	ldw	r2,-12(fp)
   11974:	1081000c 	andi	r2,r2,1024
   11978:	1005003a 	cmpeq	r2,r2,zero
   1197c:	10000c1e 	bne	r2,zero,119b0 <altera_avalon_jtag_uart_timeout+0x6c>
   11980:	e0bffe17 	ldw	r2,-8(fp)
   11984:	10800017 	ldw	r2,0(r2)
   11988:	11000104 	addi	r4,r2,4
   1198c:	e0bffe17 	ldw	r2,-8(fp)
   11990:	10800817 	ldw	r2,32(r2)
   11994:	10810014 	ori	r2,r2,1024
   11998:	1007883a 	mov	r3,r2
   1199c:	2005883a 	mov	r2,r4
   119a0:	10c00035 	stwio	r3,0(r2)
   119a4:	e0bffe17 	ldw	r2,-8(fp)
   119a8:	10000915 	stw	zero,36(r2)
   119ac:	00000a06 	br	119d8 <altera_avalon_jtag_uart_timeout+0x94>
   119b0:	e0bffe17 	ldw	r2,-8(fp)
   119b4:	10c00917 	ldw	r3,36(r2)
   119b8:	00a00034 	movhi	r2,32768
   119bc:	10bfff04 	addi	r2,r2,-4
   119c0:	10c00536 	bltu	r2,r3,119d8 <altera_avalon_jtag_uart_timeout+0x94>
   119c4:	e0bffe17 	ldw	r2,-8(fp)
   119c8:	10800917 	ldw	r2,36(r2)
   119cc:	10c00044 	addi	r3,r2,1
   119d0:	e0bffe17 	ldw	r2,-8(fp)
   119d4:	10c00915 	stw	r3,36(r2)
   119d8:	00820034 	movhi	r2,2048
   119dc:	10896604 	addi	r2,r2,9624
   119e0:	10800017 	ldw	r2,0(r2)
   119e4:	e037883a 	mov	sp,fp
   119e8:	df000017 	ldw	fp,0(sp)
   119ec:	dec00104 	addi	sp,sp,4
   119f0:	f800283a 	ret

000119f4 <altera_avalon_jtag_uart_close>:
   119f4:	defffc04 	addi	sp,sp,-16
   119f8:	df000315 	stw	fp,12(sp)
   119fc:	df000304 	addi	fp,sp,12
   11a00:	e13ffd15 	stw	r4,-12(fp)
   11a04:	e17ffe15 	stw	r5,-8(fp)
   11a08:	00000706 	br	11a28 <altera_avalon_jtag_uart_close+0x34>
   11a0c:	e0bffe17 	ldw	r2,-8(fp)
   11a10:	1090000c 	andi	r2,r2,16384
   11a14:	1005003a 	cmpeq	r2,r2,zero
   11a18:	1000031e 	bne	r2,zero,11a28 <altera_avalon_jtag_uart_close+0x34>
   11a1c:	00bffd44 	movi	r2,-11
   11a20:	e0bfff15 	stw	r2,-4(fp)
   11a24:	00000b06 	br	11a54 <altera_avalon_jtag_uart_close+0x60>
   11a28:	e0bffd17 	ldw	r2,-12(fp)
   11a2c:	10c00d17 	ldw	r3,52(r2)
   11a30:	e0bffd17 	ldw	r2,-12(fp)
   11a34:	10800c17 	ldw	r2,48(r2)
   11a38:	18800526 	beq	r3,r2,11a50 <altera_avalon_jtag_uart_close+0x5c>
   11a3c:	e0bffd17 	ldw	r2,-12(fp)
   11a40:	10c00917 	ldw	r3,36(r2)
   11a44:	e0bffd17 	ldw	r2,-12(fp)
   11a48:	10800117 	ldw	r2,4(r2)
   11a4c:	18bfef36 	bltu	r3,r2,11a0c <altera_avalon_jtag_uart_close+0x18>
   11a50:	e03fff15 	stw	zero,-4(fp)
   11a54:	e0bfff17 	ldw	r2,-4(fp)
   11a58:	e037883a 	mov	sp,fp
   11a5c:	df000017 	ldw	fp,0(sp)
   11a60:	dec00104 	addi	sp,sp,4
   11a64:	f800283a 	ret

00011a68 <altera_avalon_jtag_uart_ioctl>:
   11a68:	defff804 	addi	sp,sp,-32
   11a6c:	df000715 	stw	fp,28(sp)
   11a70:	df000704 	addi	fp,sp,28
   11a74:	e13ffb15 	stw	r4,-20(fp)
   11a78:	e17ffc15 	stw	r5,-16(fp)
   11a7c:	e1bffd15 	stw	r6,-12(fp)
   11a80:	00bff9c4 	movi	r2,-25
   11a84:	e0bffa15 	stw	r2,-24(fp)
   11a88:	e0bffc17 	ldw	r2,-16(fp)
   11a8c:	e0bfff15 	stw	r2,-4(fp)
   11a90:	e0ffff17 	ldw	r3,-4(fp)
   11a94:	189a8060 	cmpeqi	r2,r3,27137
   11a98:	1000041e 	bne	r2,zero,11aac <altera_avalon_jtag_uart_ioctl+0x44>
   11a9c:	e0ffff17 	ldw	r3,-4(fp)
   11aa0:	189a80a0 	cmpeqi	r2,r3,27138
   11aa4:	10001b1e 	bne	r2,zero,11b14 <altera_avalon_jtag_uart_ioctl+0xac>
   11aa8:	00002706 	br	11b48 <altera_avalon_jtag_uart_ioctl+0xe0>
   11aac:	e0bffb17 	ldw	r2,-20(fp)
   11ab0:	10c00117 	ldw	r3,4(r2)
   11ab4:	00a00034 	movhi	r2,32768
   11ab8:	10bfffc4 	addi	r2,r2,-1
   11abc:	18802226 	beq	r3,r2,11b48 <altera_avalon_jtag_uart_ioctl+0xe0>
   11ac0:	e0bffd17 	ldw	r2,-12(fp)
   11ac4:	10800017 	ldw	r2,0(r2)
   11ac8:	e0bff915 	stw	r2,-28(fp)
   11acc:	e0bff917 	ldw	r2,-28(fp)
   11ad0:	10800090 	cmplti	r2,r2,2
   11ad4:	1000071e 	bne	r2,zero,11af4 <altera_avalon_jtag_uart_ioctl+0x8c>
   11ad8:	e0fff917 	ldw	r3,-28(fp)
   11adc:	00a00034 	movhi	r2,32768
   11ae0:	10bfffc4 	addi	r2,r2,-1
   11ae4:	18800326 	beq	r3,r2,11af4 <altera_avalon_jtag_uart_ioctl+0x8c>
   11ae8:	e0bff917 	ldw	r2,-28(fp)
   11aec:	e0bffe15 	stw	r2,-8(fp)
   11af0:	00000306 	br	11b00 <altera_avalon_jtag_uart_ioctl+0x98>
   11af4:	00e00034 	movhi	r3,32768
   11af8:	18ffff84 	addi	r3,r3,-2
   11afc:	e0fffe15 	stw	r3,-8(fp)
   11b00:	e0bffb17 	ldw	r2,-20(fp)
   11b04:	e0fffe17 	ldw	r3,-8(fp)
   11b08:	10c00115 	stw	r3,4(r2)
   11b0c:	e03ffa15 	stw	zero,-24(fp)
   11b10:	00000d06 	br	11b48 <altera_avalon_jtag_uart_ioctl+0xe0>
   11b14:	e0bffb17 	ldw	r2,-20(fp)
   11b18:	10c00117 	ldw	r3,4(r2)
   11b1c:	00a00034 	movhi	r2,32768
   11b20:	10bfffc4 	addi	r2,r2,-1
   11b24:	18800826 	beq	r3,r2,11b48 <altera_avalon_jtag_uart_ioctl+0xe0>
   11b28:	e13ffd17 	ldw	r4,-12(fp)
   11b2c:	e0bffb17 	ldw	r2,-20(fp)
   11b30:	10c00917 	ldw	r3,36(r2)
   11b34:	e0bffb17 	ldw	r2,-20(fp)
   11b38:	10800117 	ldw	r2,4(r2)
   11b3c:	1885803a 	cmpltu	r2,r3,r2
   11b40:	20800015 	stw	r2,0(r4)
   11b44:	e03ffa15 	stw	zero,-24(fp)
   11b48:	e0bffa17 	ldw	r2,-24(fp)
   11b4c:	e037883a 	mov	sp,fp
   11b50:	df000017 	ldw	fp,0(sp)
   11b54:	dec00104 	addi	sp,sp,4
   11b58:	f800283a 	ret

00011b5c <altera_avalon_jtag_uart_read>:
   11b5c:	defff204 	addi	sp,sp,-56
   11b60:	dfc00d15 	stw	ra,52(sp)
   11b64:	df000c15 	stw	fp,48(sp)
   11b68:	df000c04 	addi	fp,sp,48
   11b6c:	e13ffb15 	stw	r4,-20(fp)
   11b70:	e17ffc15 	stw	r5,-16(fp)
   11b74:	e1bffd15 	stw	r6,-12(fp)
   11b78:	e1fffe15 	stw	r7,-8(fp)
   11b7c:	e0bffc17 	ldw	r2,-16(fp)
   11b80:	e0bffa15 	stw	r2,-24(fp)
   11b84:	00004806 	br	11ca8 <altera_avalon_jtag_uart_read+0x14c>
   11b88:	e0bffb17 	ldw	r2,-20(fp)
   11b8c:	10800a17 	ldw	r2,40(r2)
   11b90:	e0bff715 	stw	r2,-36(fp)
   11b94:	e0bffb17 	ldw	r2,-20(fp)
   11b98:	10800b17 	ldw	r2,44(r2)
   11b9c:	e0bff615 	stw	r2,-40(fp)
   11ba0:	e0fff717 	ldw	r3,-36(fp)
   11ba4:	e0bff617 	ldw	r2,-40(fp)
   11ba8:	18800536 	bltu	r3,r2,11bc0 <altera_avalon_jtag_uart_read+0x64>
   11bac:	e0bff717 	ldw	r2,-36(fp)
   11bb0:	e0fff617 	ldw	r3,-40(fp)
   11bb4:	10c5c83a 	sub	r2,r2,r3
   11bb8:	e0bff815 	stw	r2,-32(fp)
   11bbc:	00000406 	br	11bd0 <altera_avalon_jtag_uart_read+0x74>
   11bc0:	00820004 	movi	r2,2048
   11bc4:	e0fff617 	ldw	r3,-40(fp)
   11bc8:	10c5c83a 	sub	r2,r2,r3
   11bcc:	e0bff815 	stw	r2,-32(fp)
   11bd0:	e0bff817 	ldw	r2,-32(fp)
   11bd4:	1005003a 	cmpeq	r2,r2,zero
   11bd8:	10001f1e 	bne	r2,zero,11c58 <altera_avalon_jtag_uart_read+0xfc>
   11bdc:	e0fffd17 	ldw	r3,-12(fp)
   11be0:	e0bff817 	ldw	r2,-32(fp)
   11be4:	1880022e 	bgeu	r3,r2,11bf0 <altera_avalon_jtag_uart_read+0x94>
   11be8:	e0bffd17 	ldw	r2,-12(fp)
   11bec:	e0bff815 	stw	r2,-32(fp)
   11bf0:	e0bffb17 	ldw	r2,-20(fp)
   11bf4:	10c00e04 	addi	r3,r2,56
   11bf8:	e0bff617 	ldw	r2,-40(fp)
   11bfc:	1887883a 	add	r3,r3,r2
   11c00:	e0bffa17 	ldw	r2,-24(fp)
   11c04:	1009883a 	mov	r4,r2
   11c08:	180b883a 	mov	r5,r3
   11c0c:	e1bff817 	ldw	r6,-32(fp)
   11c10:	00052880 	call	5288 <memcpy>
   11c14:	e0fff817 	ldw	r3,-32(fp)
   11c18:	e0bffa17 	ldw	r2,-24(fp)
   11c1c:	10c5883a 	add	r2,r2,r3
   11c20:	e0bffa15 	stw	r2,-24(fp)
   11c24:	e0fffd17 	ldw	r3,-12(fp)
   11c28:	e0bff817 	ldw	r2,-32(fp)
   11c2c:	1885c83a 	sub	r2,r3,r2
   11c30:	e0bffd15 	stw	r2,-12(fp)
   11c34:	e0fff617 	ldw	r3,-40(fp)
   11c38:	e0bff817 	ldw	r2,-32(fp)
   11c3c:	1885883a 	add	r2,r3,r2
   11c40:	10c1ffcc 	andi	r3,r2,2047
   11c44:	e0bffb17 	ldw	r2,-20(fp)
   11c48:	10c00b15 	stw	r3,44(r2)
   11c4c:	e0bffd17 	ldw	r2,-12(fp)
   11c50:	10800048 	cmpgei	r2,r2,1
   11c54:	103fcc1e 	bne	r2,zero,11b88 <altera_avalon_jtag_uart_read+0x2c>
   11c58:	e0fffa17 	ldw	r3,-24(fp)
   11c5c:	e0bffc17 	ldw	r2,-16(fp)
   11c60:	1880141e 	bne	r3,r2,11cb4 <altera_avalon_jtag_uart_read+0x158>
   11c64:	e0bffe17 	ldw	r2,-8(fp)
   11c68:	1090000c 	andi	r2,r2,16384
   11c6c:	1004c03a 	cmpne	r2,r2,zero
   11c70:	1000101e 	bne	r2,zero,11cb4 <altera_avalon_jtag_uart_read+0x158>
   11c74:	e0bffb17 	ldw	r2,-20(fp)
   11c78:	10c00a17 	ldw	r3,40(r2)
   11c7c:	e0bff717 	ldw	r2,-36(fp)
   11c80:	1880051e 	bne	r3,r2,11c98 <altera_avalon_jtag_uart_read+0x13c>
   11c84:	e0bffb17 	ldw	r2,-20(fp)
   11c88:	10c00917 	ldw	r3,36(r2)
   11c8c:	e0bffb17 	ldw	r2,-20(fp)
   11c90:	10800117 	ldw	r2,4(r2)
   11c94:	18bff736 	bltu	r3,r2,11c74 <altera_avalon_jtag_uart_read+0x118>
   11c98:	e0bffb17 	ldw	r2,-20(fp)
   11c9c:	10c00a17 	ldw	r3,40(r2)
   11ca0:	e0bff717 	ldw	r2,-36(fp)
   11ca4:	18800326 	beq	r3,r2,11cb4 <altera_avalon_jtag_uart_read+0x158>
   11ca8:	e0bffd17 	ldw	r2,-12(fp)
   11cac:	10800048 	cmpgei	r2,r2,1
   11cb0:	103fb51e 	bne	r2,zero,11b88 <altera_avalon_jtag_uart_read+0x2c>
   11cb4:	e0fffa17 	ldw	r3,-24(fp)
   11cb8:	e0bffc17 	ldw	r2,-16(fp)
   11cbc:	18801926 	beq	r3,r2,11d24 <altera_avalon_jtag_uart_read+0x1c8>
   11cc0:	0005303a 	rdctl	r2,status
   11cc4:	e0bff515 	stw	r2,-44(fp)
   11cc8:	e0fff517 	ldw	r3,-44(fp)
   11ccc:	00bfff84 	movi	r2,-2
   11cd0:	1884703a 	and	r2,r3,r2
   11cd4:	1001703a 	wrctl	status,r2
   11cd8:	e0bff517 	ldw	r2,-44(fp)
   11cdc:	e0bff915 	stw	r2,-28(fp)
   11ce0:	e0bffb17 	ldw	r2,-20(fp)
   11ce4:	10800817 	ldw	r2,32(r2)
   11ce8:	10c00054 	ori	r3,r2,1
   11cec:	e0bffb17 	ldw	r2,-20(fp)
   11cf0:	10c00815 	stw	r3,32(r2)
   11cf4:	e0bffb17 	ldw	r2,-20(fp)
   11cf8:	10800017 	ldw	r2,0(r2)
   11cfc:	11000104 	addi	r4,r2,4
   11d00:	e0bffb17 	ldw	r2,-20(fp)
   11d04:	10800817 	ldw	r2,32(r2)
   11d08:	1007883a 	mov	r3,r2
   11d0c:	2005883a 	mov	r2,r4
   11d10:	10c00035 	stwio	r3,0(r2)
   11d14:	e0bff917 	ldw	r2,-28(fp)
   11d18:	e0bff415 	stw	r2,-48(fp)
   11d1c:	e0bff417 	ldw	r2,-48(fp)
   11d20:	1001703a 	wrctl	status,r2
   11d24:	e0fffa17 	ldw	r3,-24(fp)
   11d28:	e0bffc17 	ldw	r2,-16(fp)
   11d2c:	18800526 	beq	r3,r2,11d44 <altera_avalon_jtag_uart_read+0x1e8>
   11d30:	e0fffa17 	ldw	r3,-24(fp)
   11d34:	e0bffc17 	ldw	r2,-16(fp)
   11d38:	1887c83a 	sub	r3,r3,r2
   11d3c:	e0ffff15 	stw	r3,-4(fp)
   11d40:	00000906 	br	11d68 <altera_avalon_jtag_uart_read+0x20c>
   11d44:	e0bffe17 	ldw	r2,-8(fp)
   11d48:	1090000c 	andi	r2,r2,16384
   11d4c:	1005003a 	cmpeq	r2,r2,zero
   11d50:	1000031e 	bne	r2,zero,11d60 <altera_avalon_jtag_uart_read+0x204>
   11d54:	00bffd44 	movi	r2,-11
   11d58:	e0bfff15 	stw	r2,-4(fp)
   11d5c:	00000206 	br	11d68 <altera_avalon_jtag_uart_read+0x20c>
   11d60:	00bffec4 	movi	r2,-5
   11d64:	e0bfff15 	stw	r2,-4(fp)
   11d68:	e0bfff17 	ldw	r2,-4(fp)
   11d6c:	e037883a 	mov	sp,fp
   11d70:	dfc00117 	ldw	ra,4(sp)
   11d74:	df000017 	ldw	fp,0(sp)
   11d78:	dec00204 	addi	sp,sp,8
   11d7c:	f800283a 	ret

00011d80 <altera_avalon_jtag_uart_write>:
   11d80:	defff204 	addi	sp,sp,-56
   11d84:	dfc00d15 	stw	ra,52(sp)
   11d88:	df000c15 	stw	fp,48(sp)
   11d8c:	df000c04 	addi	fp,sp,48
   11d90:	e13ffb15 	stw	r4,-20(fp)
   11d94:	e17ffc15 	stw	r5,-16(fp)
   11d98:	e1bffd15 	stw	r6,-12(fp)
   11d9c:	e1fffe15 	stw	r7,-8(fp)
   11da0:	e03ff915 	stw	zero,-28(fp)
   11da4:	e0bffc17 	ldw	r2,-16(fp)
   11da8:	e0bff615 	stw	r2,-40(fp)
   11dac:	00003a06 	br	11e98 <altera_avalon_jtag_uart_write+0x118>
   11db0:	e0bffb17 	ldw	r2,-20(fp)
   11db4:	10800c17 	ldw	r2,48(r2)
   11db8:	e0bffa15 	stw	r2,-24(fp)
   11dbc:	e0bffb17 	ldw	r2,-20(fp)
   11dc0:	10800d17 	ldw	r2,52(r2)
   11dc4:	e0bff915 	stw	r2,-28(fp)
   11dc8:	e0fffa17 	ldw	r3,-24(fp)
   11dcc:	e0bff917 	ldw	r2,-28(fp)
   11dd0:	1880062e 	bgeu	r3,r2,11dec <altera_avalon_jtag_uart_write+0x6c>
   11dd4:	e0fff917 	ldw	r3,-28(fp)
   11dd8:	e0bffa17 	ldw	r2,-24(fp)
   11ddc:	1885c83a 	sub	r2,r3,r2
   11de0:	10bfffc4 	addi	r2,r2,-1
   11de4:	e0bff815 	stw	r2,-32(fp)
   11de8:	00000c06 	br	11e1c <altera_avalon_jtag_uart_write+0x9c>
   11dec:	e0bff917 	ldw	r2,-28(fp)
   11df0:	1005003a 	cmpeq	r2,r2,zero
   11df4:	1000051e 	bne	r2,zero,11e0c <altera_avalon_jtag_uart_write+0x8c>
   11df8:	00820004 	movi	r2,2048
   11dfc:	e0fffa17 	ldw	r3,-24(fp)
   11e00:	10c5c83a 	sub	r2,r2,r3
   11e04:	e0bff815 	stw	r2,-32(fp)
   11e08:	00000406 	br	11e1c <altera_avalon_jtag_uart_write+0x9c>
   11e0c:	0081ffc4 	movi	r2,2047
   11e10:	e0fffa17 	ldw	r3,-24(fp)
   11e14:	10c5c83a 	sub	r2,r2,r3
   11e18:	e0bff815 	stw	r2,-32(fp)
   11e1c:	e0bff817 	ldw	r2,-32(fp)
   11e20:	1005003a 	cmpeq	r2,r2,zero
   11e24:	10001f1e 	bne	r2,zero,11ea4 <altera_avalon_jtag_uart_write+0x124>
   11e28:	e0fffd17 	ldw	r3,-12(fp)
   11e2c:	e0bff817 	ldw	r2,-32(fp)
   11e30:	1880022e 	bgeu	r3,r2,11e3c <altera_avalon_jtag_uart_write+0xbc>
   11e34:	e0bffd17 	ldw	r2,-12(fp)
   11e38:	e0bff815 	stw	r2,-32(fp)
   11e3c:	e0bffb17 	ldw	r2,-20(fp)
   11e40:	10c20e04 	addi	r3,r2,2104
   11e44:	e0bffa17 	ldw	r2,-24(fp)
   11e48:	1885883a 	add	r2,r3,r2
   11e4c:	e0fffc17 	ldw	r3,-16(fp)
   11e50:	1009883a 	mov	r4,r2
   11e54:	180b883a 	mov	r5,r3
   11e58:	e1bff817 	ldw	r6,-32(fp)
   11e5c:	00052880 	call	5288 <memcpy>
   11e60:	e0fff817 	ldw	r3,-32(fp)
   11e64:	e0bffc17 	ldw	r2,-16(fp)
   11e68:	10c5883a 	add	r2,r2,r3
   11e6c:	e0bffc15 	stw	r2,-16(fp)
   11e70:	e0fffd17 	ldw	r3,-12(fp)
   11e74:	e0bff817 	ldw	r2,-32(fp)
   11e78:	1885c83a 	sub	r2,r3,r2
   11e7c:	e0bffd15 	stw	r2,-12(fp)
   11e80:	e0fffa17 	ldw	r3,-24(fp)
   11e84:	e0bff817 	ldw	r2,-32(fp)
   11e88:	1885883a 	add	r2,r3,r2
   11e8c:	10c1ffcc 	andi	r3,r2,2047
   11e90:	e0bffb17 	ldw	r2,-20(fp)
   11e94:	10c00c15 	stw	r3,48(r2)
   11e98:	e0bffd17 	ldw	r2,-12(fp)
   11e9c:	10800048 	cmpgei	r2,r2,1
   11ea0:	103fc31e 	bne	r2,zero,11db0 <altera_avalon_jtag_uart_write+0x30>
   11ea4:	0005303a 	rdctl	r2,status
   11ea8:	e0bff515 	stw	r2,-44(fp)
   11eac:	e0fff517 	ldw	r3,-44(fp)
   11eb0:	00bfff84 	movi	r2,-2
   11eb4:	1884703a 	and	r2,r3,r2
   11eb8:	1001703a 	wrctl	status,r2
   11ebc:	e0bff517 	ldw	r2,-44(fp)
   11ec0:	e0bff715 	stw	r2,-36(fp)
   11ec4:	e0bffb17 	ldw	r2,-20(fp)
   11ec8:	10800817 	ldw	r2,32(r2)
   11ecc:	10c00094 	ori	r3,r2,2
   11ed0:	e0bffb17 	ldw	r2,-20(fp)
   11ed4:	10c00815 	stw	r3,32(r2)
   11ed8:	e0bffb17 	ldw	r2,-20(fp)
   11edc:	10800017 	ldw	r2,0(r2)
   11ee0:	11000104 	addi	r4,r2,4
   11ee4:	e0bffb17 	ldw	r2,-20(fp)
   11ee8:	10800817 	ldw	r2,32(r2)
   11eec:	1007883a 	mov	r3,r2
   11ef0:	2005883a 	mov	r2,r4
   11ef4:	10c00035 	stwio	r3,0(r2)
   11ef8:	e0bff717 	ldw	r2,-36(fp)
   11efc:	e0bff415 	stw	r2,-48(fp)
   11f00:	e0bff417 	ldw	r2,-48(fp)
   11f04:	1001703a 	wrctl	status,r2
   11f08:	e0bffd17 	ldw	r2,-12(fp)
   11f0c:	10800050 	cmplti	r2,r2,1
   11f10:	1000111e 	bne	r2,zero,11f58 <altera_avalon_jtag_uart_write+0x1d8>
   11f14:	e0bffe17 	ldw	r2,-8(fp)
   11f18:	1090000c 	andi	r2,r2,16384
   11f1c:	1004c03a 	cmpne	r2,r2,zero
   11f20:	1000101e 	bne	r2,zero,11f64 <altera_avalon_jtag_uart_write+0x1e4>
   11f24:	e0bffb17 	ldw	r2,-20(fp)
   11f28:	10c00d17 	ldw	r3,52(r2)
   11f2c:	e0bff917 	ldw	r2,-28(fp)
   11f30:	1880051e 	bne	r3,r2,11f48 <altera_avalon_jtag_uart_write+0x1c8>
   11f34:	e0bffb17 	ldw	r2,-20(fp)
   11f38:	10c00917 	ldw	r3,36(r2)
   11f3c:	e0bffb17 	ldw	r2,-20(fp)
   11f40:	10800117 	ldw	r2,4(r2)
   11f44:	18bff736 	bltu	r3,r2,11f24 <altera_avalon_jtag_uart_write+0x1a4>
   11f48:	e0bffb17 	ldw	r2,-20(fp)
   11f4c:	10c00d17 	ldw	r3,52(r2)
   11f50:	e0bff917 	ldw	r2,-28(fp)
   11f54:	18800326 	beq	r3,r2,11f64 <altera_avalon_jtag_uart_write+0x1e4>
   11f58:	e0bffd17 	ldw	r2,-12(fp)
   11f5c:	10800048 	cmpgei	r2,r2,1
   11f60:	103fcd1e 	bne	r2,zero,11e98 <altera_avalon_jtag_uart_write+0x118>
   11f64:	e0fffc17 	ldw	r3,-16(fp)
   11f68:	e0bff617 	ldw	r2,-40(fp)
   11f6c:	18800526 	beq	r3,r2,11f84 <altera_avalon_jtag_uart_write+0x204>
   11f70:	e0fffc17 	ldw	r3,-16(fp)
   11f74:	e0bff617 	ldw	r2,-40(fp)
   11f78:	1887c83a 	sub	r3,r3,r2
   11f7c:	e0ffff15 	stw	r3,-4(fp)
   11f80:	00000906 	br	11fa8 <altera_avalon_jtag_uart_write+0x228>
   11f84:	e0bffe17 	ldw	r2,-8(fp)
   11f88:	1090000c 	andi	r2,r2,16384
   11f8c:	1005003a 	cmpeq	r2,r2,zero
   11f90:	1000031e 	bne	r2,zero,11fa0 <altera_avalon_jtag_uart_write+0x220>
   11f94:	00bffd44 	movi	r2,-11
   11f98:	e0bfff15 	stw	r2,-4(fp)
   11f9c:	00000206 	br	11fa8 <altera_avalon_jtag_uart_write+0x228>
   11fa0:	00bffec4 	movi	r2,-5
   11fa4:	e0bfff15 	stw	r2,-4(fp)
   11fa8:	e0bfff17 	ldw	r2,-4(fp)
   11fac:	e037883a 	mov	sp,fp
   11fb0:	dfc00117 	ldw	ra,4(sp)
   11fb4:	df000017 	ldw	fp,0(sp)
   11fb8:	dec00204 	addi	sp,sp,8
   11fbc:	f800283a 	ret

00011fc0 <lcd_write_command>:
   11fc0:	defffa04 	addi	sp,sp,-24
   11fc4:	dfc00515 	stw	ra,20(sp)
   11fc8:	df000415 	stw	fp,16(sp)
   11fcc:	df000404 	addi	fp,sp,16
   11fd0:	e13ffe15 	stw	r4,-8(fp)
   11fd4:	e17fff05 	stb	r5,-4(fp)
   11fd8:	e0bffe17 	ldw	r2,-8(fp)
   11fdc:	10800017 	ldw	r2,0(r2)
   11fe0:	e0bffd15 	stw	r2,-12(fp)
   11fe4:	008003f4 	movhi	r2,15
   11fe8:	10909004 	addi	r2,r2,16960
   11fec:	e0bffc15 	stw	r2,-16(fp)
   11ff0:	e0bffe17 	ldw	r2,-8(fp)
   11ff4:	10800803 	ldbu	r2,32(r2)
   11ff8:	10803fcc 	andi	r2,r2,255
   11ffc:	1080201c 	xori	r2,r2,128
   12000:	10bfe004 	addi	r2,r2,-128
   12004:	1004c03a 	cmpne	r2,r2,zero
   12008:	1000161e 	bne	r2,zero,12064 <lcd_write_command+0xa4>
   1200c:	00000a06 	br	12038 <lcd_write_command+0x78>
   12010:	e0bffc17 	ldw	r2,-16(fp)
   12014:	10bfffc4 	addi	r2,r2,-1
   12018:	e0bffc15 	stw	r2,-16(fp)
   1201c:	e0bffc17 	ldw	r2,-16(fp)
   12020:	1004c03a 	cmpne	r2,r2,zero
   12024:	1000041e 	bne	r2,zero,12038 <lcd_write_command+0x78>
   12028:	e0fffe17 	ldw	r3,-8(fp)
   1202c:	00800044 	movi	r2,1
   12030:	18800805 	stb	r2,32(r3)
   12034:	00000b06 	br	12064 <lcd_write_command+0xa4>
   12038:	e0bffd17 	ldw	r2,-12(fp)
   1203c:	10800104 	addi	r2,r2,4
   12040:	10800037 	ldwio	r2,0(r2)
   12044:	1080200c 	andi	r2,r2,128
   12048:	1004c03a 	cmpne	r2,r2,zero
   1204c:	103ff01e 	bne	r2,zero,12010 <lcd_write_command+0x50>
   12050:	01001904 	movi	r4,100
   12054:	0014e540 	call	14e54 <usleep>
   12058:	e0bffd17 	ldw	r2,-12(fp)
   1205c:	e0ffff03 	ldbu	r3,-4(fp)
   12060:	10c00035 	stwio	r3,0(r2)
   12064:	e037883a 	mov	sp,fp
   12068:	dfc00117 	ldw	ra,4(sp)
   1206c:	df000017 	ldw	fp,0(sp)
   12070:	dec00204 	addi	sp,sp,8
   12074:	f800283a 	ret

00012078 <lcd_write_data>:
   12078:	defffa04 	addi	sp,sp,-24
   1207c:	dfc00515 	stw	ra,20(sp)
   12080:	df000415 	stw	fp,16(sp)
   12084:	df000404 	addi	fp,sp,16
   12088:	e13ffe15 	stw	r4,-8(fp)
   1208c:	e17fff05 	stb	r5,-4(fp)
   12090:	e0bffe17 	ldw	r2,-8(fp)
   12094:	10800017 	ldw	r2,0(r2)
   12098:	e0bffd15 	stw	r2,-12(fp)
   1209c:	008003f4 	movhi	r2,15
   120a0:	10909004 	addi	r2,r2,16960
   120a4:	e0bffc15 	stw	r2,-16(fp)
   120a8:	e0bffe17 	ldw	r2,-8(fp)
   120ac:	10800803 	ldbu	r2,32(r2)
   120b0:	10803fcc 	andi	r2,r2,255
   120b4:	1080201c 	xori	r2,r2,128
   120b8:	10bfe004 	addi	r2,r2,-128
   120bc:	1004c03a 	cmpne	r2,r2,zero
   120c0:	10001d1e 	bne	r2,zero,12138 <lcd_write_data+0xc0>
   120c4:	00000a06 	br	120f0 <lcd_write_data+0x78>
   120c8:	e0bffc17 	ldw	r2,-16(fp)
   120cc:	10bfffc4 	addi	r2,r2,-1
   120d0:	e0bffc15 	stw	r2,-16(fp)
   120d4:	e0bffc17 	ldw	r2,-16(fp)
   120d8:	1004c03a 	cmpne	r2,r2,zero
   120dc:	1000041e 	bne	r2,zero,120f0 <lcd_write_data+0x78>
   120e0:	e0fffe17 	ldw	r3,-8(fp)
   120e4:	00800044 	movi	r2,1
   120e8:	18800805 	stb	r2,32(r3)
   120ec:	00001206 	br	12138 <lcd_write_data+0xc0>
   120f0:	e0bffd17 	ldw	r2,-12(fp)
   120f4:	10800104 	addi	r2,r2,4
   120f8:	10800037 	ldwio	r2,0(r2)
   120fc:	1080200c 	andi	r2,r2,128
   12100:	1004c03a 	cmpne	r2,r2,zero
   12104:	103ff01e 	bne	r2,zero,120c8 <lcd_write_data+0x50>
   12108:	01001904 	movi	r4,100
   1210c:	0014e540 	call	14e54 <usleep>
   12110:	e0bffd17 	ldw	r2,-12(fp)
   12114:	10800204 	addi	r2,r2,8
   12118:	e0ffff03 	ldbu	r3,-4(fp)
   1211c:	10c00035 	stwio	r3,0(r2)
   12120:	e0bffe17 	ldw	r2,-8(fp)
   12124:	108008c3 	ldbu	r2,35(r2)
   12128:	10800044 	addi	r2,r2,1
   1212c:	1007883a 	mov	r3,r2
   12130:	e0bffe17 	ldw	r2,-8(fp)
   12134:	10c008c5 	stb	r3,35(r2)
   12138:	e037883a 	mov	sp,fp
   1213c:	dfc00117 	ldw	ra,4(sp)
   12140:	df000017 	ldw	fp,0(sp)
   12144:	dec00204 	addi	sp,sp,8
   12148:	f800283a 	ret

0001214c <lcd_clear_screen>:
   1214c:	defffc04 	addi	sp,sp,-16
   12150:	dfc00315 	stw	ra,12(sp)
   12154:	df000215 	stw	fp,8(sp)
   12158:	df000204 	addi	fp,sp,8
   1215c:	e13fff15 	stw	r4,-4(fp)
   12160:	e13fff17 	ldw	r4,-4(fp)
   12164:	01400044 	movi	r5,1
   12168:	0011fc00 	call	11fc0 <lcd_write_command>
   1216c:	e0bfff17 	ldw	r2,-4(fp)
   12170:	10000845 	stb	zero,33(r2)
   12174:	e0bfff17 	ldw	r2,-4(fp)
   12178:	10000885 	stb	zero,34(r2)
   1217c:	e0bfff17 	ldw	r2,-4(fp)
   12180:	100008c5 	stb	zero,35(r2)
   12184:	e03ffe15 	stw	zero,-8(fp)
   12188:	00001906 	br	121f0 <lcd_clear_screen+0xa4>
   1218c:	e0bffe17 	ldw	r2,-8(fp)
   12190:	10801924 	muli	r2,r2,100
   12194:	10c01004 	addi	r3,r2,64
   12198:	e0bfff17 	ldw	r2,-4(fp)
   1219c:	1889883a 	add	r4,r3,r2
   121a0:	01400804 	movi	r5,32
   121a4:	01801444 	movi	r6,81
   121a8:	00053280 	call	5328 <memset>
   121ac:	e0bffe17 	ldw	r2,-8(fp)
   121b0:	10801924 	muli	r2,r2,100
   121b4:	10c00c04 	addi	r3,r2,48
   121b8:	e0bfff17 	ldw	r2,-4(fp)
   121bc:	1889883a 	add	r4,r3,r2
   121c0:	01400804 	movi	r5,32
   121c4:	01800404 	movi	r6,16
   121c8:	00053280 	call	5328 <memset>
   121cc:	e0bffe17 	ldw	r2,-8(fp)
   121d0:	e0ffff17 	ldw	r3,-4(fp)
   121d4:	10801924 	muli	r2,r2,100
   121d8:	10c5883a 	add	r2,r2,r3
   121dc:	10802404 	addi	r2,r2,144
   121e0:	10000045 	stb	zero,1(r2)
   121e4:	e0bffe17 	ldw	r2,-8(fp)
   121e8:	10800044 	addi	r2,r2,1
   121ec:	e0bffe15 	stw	r2,-8(fp)
   121f0:	e0bffe17 	ldw	r2,-8(fp)
   121f4:	10800090 	cmplti	r2,r2,2
   121f8:	103fe41e 	bne	r2,zero,1218c <lcd_clear_screen+0x40>
   121fc:	e037883a 	mov	sp,fp
   12200:	dfc00117 	ldw	ra,4(sp)
   12204:	df000017 	ldw	fp,0(sp)
   12208:	dec00204 	addi	sp,sp,8
   1220c:	f800283a 	ret

00012210 <lcd_repaint_screen>:
   12210:	defff704 	addi	sp,sp,-36
   12214:	dfc00815 	stw	ra,32(sp)
   12218:	df000715 	stw	fp,28(sp)
   1221c:	df000704 	addi	fp,sp,28
   12220:	e13fff15 	stw	r4,-4(fp)
   12224:	e0bfff17 	ldw	r2,-4(fp)
   12228:	10800943 	ldbu	r2,37(r2)
   1222c:	10803fcc 	andi	r2,r2,255
   12230:	1080201c 	xori	r2,r2,128
   12234:	10bfe004 	addi	r2,r2,-128
   12238:	e0bffc15 	stw	r2,-16(fp)
   1223c:	e03ffe15 	stw	zero,-8(fp)
   12240:	00006606 	br	123dc <lcd_repaint_screen+0x1cc>
   12244:	e0bffe17 	ldw	r2,-8(fp)
   12248:	e0ffff17 	ldw	r3,-4(fp)
   1224c:	10801924 	muli	r2,r2,100
   12250:	10c5883a 	add	r2,r2,r3
   12254:	10802404 	addi	r2,r2,144
   12258:	10800043 	ldbu	r2,1(r2)
   1225c:	10803fcc 	andi	r2,r2,255
   12260:	1080201c 	xori	r2,r2,128
   12264:	10bfe004 	addi	r2,r2,-128
   12268:	e0bffb15 	stw	r2,-20(fp)
   1226c:	e0bffe17 	ldw	r2,-8(fp)
   12270:	e0ffff17 	ldw	r3,-4(fp)
   12274:	10801924 	muli	r2,r2,100
   12278:	10c5883a 	add	r2,r2,r3
   1227c:	10802404 	addi	r2,r2,144
   12280:	10800083 	ldbu	r2,2(r2)
   12284:	10c03fcc 	andi	r3,r2,255
   12288:	e0bffc17 	ldw	r2,-16(fp)
   1228c:	1885383a 	mul	r2,r3,r2
   12290:	1005d23a 	srai	r2,r2,8
   12294:	e0bffa15 	stw	r2,-24(fp)
   12298:	e0fffa17 	ldw	r3,-24(fp)
   1229c:	e0bffb17 	ldw	r2,-20(fp)
   122a0:	18800116 	blt	r3,r2,122a8 <lcd_repaint_screen+0x98>
   122a4:	e03ffa15 	stw	zero,-24(fp)
   122a8:	e03ffd15 	stw	zero,-12(fp)
   122ac:	00004506 	br	123c4 <lcd_repaint_screen+0x1b4>
   122b0:	e17ffe17 	ldw	r5,-8(fp)
   122b4:	e0fffd17 	ldw	r3,-12(fp)
   122b8:	e0bffa17 	ldw	r2,-24(fp)
   122bc:	1889883a 	add	r4,r3,r2
   122c0:	e0bffb17 	ldw	r2,-20(fp)
   122c4:	2087283a 	div	r3,r4,r2
   122c8:	e0bffb17 	ldw	r2,-20(fp)
   122cc:	1885383a 	mul	r2,r3,r2
   122d0:	2089c83a 	sub	r4,r4,r2
   122d4:	e0ffff17 	ldw	r3,-4(fp)
   122d8:	28801924 	muli	r2,r5,100
   122dc:	10c5883a 	add	r2,r2,r3
   122e0:	1105883a 	add	r2,r2,r4
   122e4:	10801004 	addi	r2,r2,64
   122e8:	10800003 	ldbu	r2,0(r2)
   122ec:	e0bff945 	stb	r2,-27(fp)
   122f0:	e0bffe17 	ldw	r2,-8(fp)
   122f4:	e13ffd17 	ldw	r4,-12(fp)
   122f8:	e0ffff17 	ldw	r3,-4(fp)
   122fc:	10801924 	muli	r2,r2,100
   12300:	10c5883a 	add	r2,r2,r3
   12304:	1105883a 	add	r2,r2,r4
   12308:	10800c04 	addi	r2,r2,48
   1230c:	10800003 	ldbu	r2,0(r2)
   12310:	10c03fcc 	andi	r3,r2,255
   12314:	18c0201c 	xori	r3,r3,128
   12318:	18ffe004 	addi	r3,r3,-128
   1231c:	e0bff947 	ldb	r2,-27(fp)
   12320:	18802526 	beq	r3,r2,123b8 <lcd_repaint_screen+0x1a8>
   12324:	e0fffe17 	ldw	r3,-8(fp)
   12328:	d0a01204 	addi	r2,gp,-32696
   1232c:	1885883a 	add	r2,r3,r2
   12330:	10800003 	ldbu	r2,0(r2)
   12334:	1007883a 	mov	r3,r2
   12338:	e0bffd17 	ldw	r2,-12(fp)
   1233c:	1885883a 	add	r2,r3,r2
   12340:	e0bff905 	stb	r2,-28(fp)
   12344:	e0fff903 	ldbu	r3,-28(fp)
   12348:	e0bfff17 	ldw	r2,-4(fp)
   1234c:	108008c3 	ldbu	r2,35(r2)
   12350:	10803fcc 	andi	r2,r2,255
   12354:	1080201c 	xori	r2,r2,128
   12358:	10bfe004 	addi	r2,r2,-128
   1235c:	18800926 	beq	r3,r2,12384 <lcd_repaint_screen+0x174>
   12360:	e0fff903 	ldbu	r3,-28(fp)
   12364:	00bfe004 	movi	r2,-128
   12368:	1884b03a 	or	r2,r3,r2
   1236c:	11403fcc 	andi	r5,r2,255
   12370:	e13fff17 	ldw	r4,-4(fp)
   12374:	0011fc00 	call	11fc0 <lcd_write_command>
   12378:	e0fff903 	ldbu	r3,-28(fp)
   1237c:	e0bfff17 	ldw	r2,-4(fp)
   12380:	10c008c5 	stb	r3,35(r2)
   12384:	e0bff943 	ldbu	r2,-27(fp)
   12388:	11403fcc 	andi	r5,r2,255
   1238c:	e13fff17 	ldw	r4,-4(fp)
   12390:	00120780 	call	12078 <lcd_write_data>
   12394:	e0bffe17 	ldw	r2,-8(fp)
   12398:	e13ffd17 	ldw	r4,-12(fp)
   1239c:	e0ffff17 	ldw	r3,-4(fp)
   123a0:	10801924 	muli	r2,r2,100
   123a4:	10c5883a 	add	r2,r2,r3
   123a8:	1105883a 	add	r2,r2,r4
   123ac:	10c00c04 	addi	r3,r2,48
   123b0:	e0bff943 	ldbu	r2,-27(fp)
   123b4:	18800005 	stb	r2,0(r3)
   123b8:	e0bffd17 	ldw	r2,-12(fp)
   123bc:	10800044 	addi	r2,r2,1
   123c0:	e0bffd15 	stw	r2,-12(fp)
   123c4:	e0bffd17 	ldw	r2,-12(fp)
   123c8:	10800410 	cmplti	r2,r2,16
   123cc:	103fb81e 	bne	r2,zero,122b0 <lcd_repaint_screen+0xa0>
   123d0:	e0bffe17 	ldw	r2,-8(fp)
   123d4:	10800044 	addi	r2,r2,1
   123d8:	e0bffe15 	stw	r2,-8(fp)
   123dc:	e0bffe17 	ldw	r2,-8(fp)
   123e0:	10800090 	cmplti	r2,r2,2
   123e4:	103f971e 	bne	r2,zero,12244 <lcd_repaint_screen+0x34>
   123e8:	e037883a 	mov	sp,fp
   123ec:	dfc00117 	ldw	ra,4(sp)
   123f0:	df000017 	ldw	fp,0(sp)
   123f4:	dec00204 	addi	sp,sp,8
   123f8:	f800283a 	ret

000123fc <lcd_scroll_up>:
   123fc:	defffc04 	addi	sp,sp,-16
   12400:	dfc00315 	stw	ra,12(sp)
   12404:	df000215 	stw	fp,8(sp)
   12408:	df000204 	addi	fp,sp,8
   1240c:	e13fff15 	stw	r4,-4(fp)
   12410:	e03ffe15 	stw	zero,-8(fp)
   12414:	00001d06 	br	1248c <lcd_scroll_up+0x90>
   12418:	e0bffe17 	ldw	r2,-8(fp)
   1241c:	10800048 	cmpgei	r2,r2,1
   12420:	10000f1e 	bne	r2,zero,12460 <lcd_scroll_up+0x64>
   12424:	e0bffe17 	ldw	r2,-8(fp)
   12428:	10801924 	muli	r2,r2,100
   1242c:	10c01004 	addi	r3,r2,64
   12430:	e0bfff17 	ldw	r2,-4(fp)
   12434:	1889883a 	add	r4,r3,r2
   12438:	e0bffe17 	ldw	r2,-8(fp)
   1243c:	10800044 	addi	r2,r2,1
   12440:	10801924 	muli	r2,r2,100
   12444:	10c01004 	addi	r3,r2,64
   12448:	e0bfff17 	ldw	r2,-4(fp)
   1244c:	1885883a 	add	r2,r3,r2
   12450:	100b883a 	mov	r5,r2
   12454:	01801404 	movi	r6,80
   12458:	00052880 	call	5288 <memcpy>
   1245c:	00000806 	br	12480 <lcd_scroll_up+0x84>
   12460:	e0bffe17 	ldw	r2,-8(fp)
   12464:	10801924 	muli	r2,r2,100
   12468:	10c01004 	addi	r3,r2,64
   1246c:	e0bfff17 	ldw	r2,-4(fp)
   12470:	1889883a 	add	r4,r3,r2
   12474:	01400804 	movi	r5,32
   12478:	01801404 	movi	r6,80
   1247c:	00053280 	call	5328 <memset>
   12480:	e0bffe17 	ldw	r2,-8(fp)
   12484:	10800044 	addi	r2,r2,1
   12488:	e0bffe15 	stw	r2,-8(fp)
   1248c:	e0bffe17 	ldw	r2,-8(fp)
   12490:	10800090 	cmplti	r2,r2,2
   12494:	103fe01e 	bne	r2,zero,12418 <lcd_scroll_up+0x1c>
   12498:	e0bfff17 	ldw	r2,-4(fp)
   1249c:	10800883 	ldbu	r2,34(r2)
   124a0:	10bfffc4 	addi	r2,r2,-1
   124a4:	1007883a 	mov	r3,r2
   124a8:	e0bfff17 	ldw	r2,-4(fp)
   124ac:	10c00885 	stb	r3,34(r2)
   124b0:	e037883a 	mov	sp,fp
   124b4:	dfc00117 	ldw	ra,4(sp)
   124b8:	df000017 	ldw	fp,0(sp)
   124bc:	dec00204 	addi	sp,sp,8
   124c0:	f800283a 	ret

000124c4 <lcd_handle_escape>:
   124c4:	defff804 	addi	sp,sp,-32
   124c8:	dfc00715 	stw	ra,28(sp)
   124cc:	df000615 	stw	fp,24(sp)
   124d0:	df000604 	addi	fp,sp,24
   124d4:	e13ffd15 	stw	r4,-12(fp)
   124d8:	e17ffe05 	stb	r5,-8(fp)
   124dc:	e03ffc15 	stw	zero,-16(fp)
   124e0:	e03ffb15 	stw	zero,-20(fp)
   124e4:	e0bffd17 	ldw	r2,-12(fp)
   124e8:	10800a03 	ldbu	r2,40(r2)
   124ec:	10803fcc 	andi	r2,r2,255
   124f0:	1080201c 	xori	r2,r2,128
   124f4:	10bfe004 	addi	r2,r2,-128
   124f8:	108016d8 	cmpnei	r2,r2,91
   124fc:	1000491e 	bne	r2,zero,12624 <lcd_handle_escape+0x160>
   12500:	e0bffd17 	ldw	r2,-12(fp)
   12504:	10800a04 	addi	r2,r2,40
   12508:	10800044 	addi	r2,r2,1
   1250c:	e0bffa15 	stw	r2,-24(fp)
   12510:	00000d06 	br	12548 <lcd_handle_escape+0x84>
   12514:	e0bffc17 	ldw	r2,-16(fp)
   12518:	10c002a4 	muli	r3,r2,10
   1251c:	e0bffa17 	ldw	r2,-24(fp)
   12520:	10800003 	ldbu	r2,0(r2)
   12524:	10803fcc 	andi	r2,r2,255
   12528:	1080201c 	xori	r2,r2,128
   1252c:	10bfe004 	addi	r2,r2,-128
   12530:	1885883a 	add	r2,r3,r2
   12534:	10bff404 	addi	r2,r2,-48
   12538:	e0bffc15 	stw	r2,-16(fp)
   1253c:	e0bffa17 	ldw	r2,-24(fp)
   12540:	10800044 	addi	r2,r2,1
   12544:	e0bffa15 	stw	r2,-24(fp)
   12548:	e0bffa17 	ldw	r2,-24(fp)
   1254c:	10800003 	ldbu	r2,0(r2)
   12550:	10803fcc 	andi	r2,r2,255
   12554:	1080201c 	xori	r2,r2,128
   12558:	10bfe004 	addi	r2,r2,-128
   1255c:	1007883a 	mov	r3,r2
   12560:	00820034 	movhi	r2,2048
   12564:	10893f04 	addi	r2,r2,9468
   12568:	10800017 	ldw	r2,0(r2)
   1256c:	1885883a 	add	r2,r3,r2
   12570:	10800003 	ldbu	r2,0(r2)
   12574:	10803fcc 	andi	r2,r2,255
   12578:	1080010c 	andi	r2,r2,4
   1257c:	1004c03a 	cmpne	r2,r2,zero
   12580:	103fe41e 	bne	r2,zero,12514 <lcd_handle_escape+0x50>
   12584:	e0bffa17 	ldw	r2,-24(fp)
   12588:	10800003 	ldbu	r2,0(r2)
   1258c:	10803fcc 	andi	r2,r2,255
   12590:	1080201c 	xori	r2,r2,128
   12594:	10bfe004 	addi	r2,r2,-128
   12598:	10800ed8 	cmpnei	r2,r2,59
   1259c:	1000231e 	bne	r2,zero,1262c <lcd_handle_escape+0x168>
   125a0:	e0bffa17 	ldw	r2,-24(fp)
   125a4:	10800044 	addi	r2,r2,1
   125a8:	e0bffa15 	stw	r2,-24(fp)
   125ac:	00000d06 	br	125e4 <lcd_handle_escape+0x120>
   125b0:	e0bffb17 	ldw	r2,-20(fp)
   125b4:	10c002a4 	muli	r3,r2,10
   125b8:	e0bffa17 	ldw	r2,-24(fp)
   125bc:	10800003 	ldbu	r2,0(r2)
   125c0:	10803fcc 	andi	r2,r2,255
   125c4:	1080201c 	xori	r2,r2,128
   125c8:	10bfe004 	addi	r2,r2,-128
   125cc:	1885883a 	add	r2,r3,r2
   125d0:	10bff404 	addi	r2,r2,-48
   125d4:	e0bffb15 	stw	r2,-20(fp)
   125d8:	e0bffa17 	ldw	r2,-24(fp)
   125dc:	10800044 	addi	r2,r2,1
   125e0:	e0bffa15 	stw	r2,-24(fp)
   125e4:	e0bffa17 	ldw	r2,-24(fp)
   125e8:	10800003 	ldbu	r2,0(r2)
   125ec:	10803fcc 	andi	r2,r2,255
   125f0:	1080201c 	xori	r2,r2,128
   125f4:	10bfe004 	addi	r2,r2,-128
   125f8:	1007883a 	mov	r3,r2
   125fc:	00820034 	movhi	r2,2048
   12600:	10893f04 	addi	r2,r2,9468
   12604:	10800017 	ldw	r2,0(r2)
   12608:	1885883a 	add	r2,r3,r2
   1260c:	10800003 	ldbu	r2,0(r2)
   12610:	10803fcc 	andi	r2,r2,255
   12614:	1080010c 	andi	r2,r2,4
   12618:	1004c03a 	cmpne	r2,r2,zero
   1261c:	103fe41e 	bne	r2,zero,125b0 <lcd_handle_escape+0xec>
   12620:	00000206 	br	1262c <lcd_handle_escape+0x168>
   12624:	00bfffc4 	movi	r2,-1
   12628:	e0bffc15 	stw	r2,-16(fp)
   1262c:	e0bffe07 	ldb	r2,-8(fp)
   12630:	e0bfff15 	stw	r2,-4(fp)
   12634:	e0ffff17 	ldw	r3,-4(fp)
   12638:	188012a0 	cmpeqi	r2,r3,74
   1263c:	10002f1e 	bne	r2,zero,126fc <lcd_handle_escape+0x238>
   12640:	e0ffff17 	ldw	r3,-4(fp)
   12644:	188012c8 	cmpgei	r2,r3,75
   12648:	1000041e 	bne	r2,zero,1265c <lcd_handle_escape+0x198>
   1264c:	e0ffff17 	ldw	r3,-4(fp)
   12650:	18801220 	cmpeqi	r2,r3,72
   12654:	1000081e 	bne	r2,zero,12678 <lcd_handle_escape+0x1b4>
   12658:	00004906 	br	12780 <lcd_handle_escape+0x2bc>
   1265c:	e0ffff17 	ldw	r3,-4(fp)
   12660:	188012e0 	cmpeqi	r2,r3,75
   12664:	10002b1e 	bne	r2,zero,12714 <lcd_handle_escape+0x250>
   12668:	e0ffff17 	ldw	r3,-4(fp)
   1266c:	188019a0 	cmpeqi	r2,r3,102
   12670:	1000011e 	bne	r2,zero,12678 <lcd_handle_escape+0x1b4>
   12674:	00004206 	br	12780 <lcd_handle_escape+0x2bc>
   12678:	e0bffb17 	ldw	r2,-20(fp)
   1267c:	10800050 	cmplti	r2,r2,1
   12680:	1000051e 	bne	r2,zero,12698 <lcd_handle_escape+0x1d4>
   12684:	e0bffb17 	ldw	r2,-20(fp)
   12688:	10bfffc4 	addi	r2,r2,-1
   1268c:	1007883a 	mov	r3,r2
   12690:	e0bffd17 	ldw	r2,-12(fp)
   12694:	10c00845 	stb	r3,33(r2)
   12698:	e0bffc17 	ldw	r2,-16(fp)
   1269c:	10800050 	cmplti	r2,r2,1
   126a0:	1000371e 	bne	r2,zero,12780 <lcd_handle_escape+0x2bc>
   126a4:	e0bffc17 	ldw	r2,-16(fp)
   126a8:	10bfffc4 	addi	r2,r2,-1
   126ac:	1007883a 	mov	r3,r2
   126b0:	e0bffd17 	ldw	r2,-12(fp)
   126b4:	10c00885 	stb	r3,34(r2)
   126b8:	e0bffd17 	ldw	r2,-12(fp)
   126bc:	10800883 	ldbu	r2,34(r2)
   126c0:	10803fcc 	andi	r2,r2,255
   126c4:	10800170 	cmpltui	r2,r2,5
   126c8:	1000061e 	bne	r2,zero,126e4 <lcd_handle_escape+0x220>
   126cc:	e0fffd17 	ldw	r3,-12(fp)
   126d0:	00800104 	movi	r2,4
   126d4:	18800885 	stb	r2,34(r3)
   126d8:	00000206 	br	126e4 <lcd_handle_escape+0x220>
   126dc:	e13ffd17 	ldw	r4,-12(fp)
   126e0:	00123fc0 	call	123fc <lcd_scroll_up>
   126e4:	e0bffd17 	ldw	r2,-12(fp)
   126e8:	10800883 	ldbu	r2,34(r2)
   126ec:	10803fcc 	andi	r2,r2,255
   126f0:	108000e8 	cmpgeui	r2,r2,3
   126f4:	103ff91e 	bne	r2,zero,126dc <lcd_handle_escape+0x218>
   126f8:	00002106 	br	12780 <lcd_handle_escape+0x2bc>
   126fc:	e0bffc17 	ldw	r2,-16(fp)
   12700:	10800098 	cmpnei	r2,r2,2
   12704:	10001e1e 	bne	r2,zero,12780 <lcd_handle_escape+0x2bc>
   12708:	e13ffd17 	ldw	r4,-12(fp)
   1270c:	001214c0 	call	1214c <lcd_clear_screen>
   12710:	00001b06 	br	12780 <lcd_handle_escape+0x2bc>
   12714:	e0bffc17 	ldw	r2,-16(fp)
   12718:	10800048 	cmpgei	r2,r2,1
   1271c:	1000181e 	bne	r2,zero,12780 <lcd_handle_escape+0x2bc>
   12720:	e0bffd17 	ldw	r2,-12(fp)
   12724:	10800843 	ldbu	r2,33(r2)
   12728:	10803fcc 	andi	r2,r2,255
   1272c:	10801428 	cmpgeui	r2,r2,80
   12730:	1000131e 	bne	r2,zero,12780 <lcd_handle_escape+0x2bc>
   12734:	e0bffd17 	ldw	r2,-12(fp)
   12738:	10800883 	ldbu	r2,34(r2)
   1273c:	10803fcc 	andi	r2,r2,255
   12740:	10801924 	muli	r2,r2,100
   12744:	10c01004 	addi	r3,r2,64
   12748:	e0bffd17 	ldw	r2,-12(fp)
   1274c:	1887883a 	add	r3,r3,r2
   12750:	e0bffd17 	ldw	r2,-12(fp)
   12754:	10800843 	ldbu	r2,33(r2)
   12758:	10803fcc 	andi	r2,r2,255
   1275c:	1889883a 	add	r4,r3,r2
   12760:	e0bffd17 	ldw	r2,-12(fp)
   12764:	10800843 	ldbu	r2,33(r2)
   12768:	10c03fcc 	andi	r3,r2,255
   1276c:	00801404 	movi	r2,80
   12770:	10c5c83a 	sub	r2,r2,r3
   12774:	100d883a 	mov	r6,r2
   12778:	01400804 	movi	r5,32
   1277c:	00053280 	call	5328 <memset>
   12780:	e037883a 	mov	sp,fp
   12784:	dfc00117 	ldw	ra,4(sp)
   12788:	df000017 	ldw	fp,0(sp)
   1278c:	dec00204 	addi	sp,sp,8
   12790:	f800283a 	ret

00012794 <altera_avalon_lcd_16207_write>:
   12794:	defff304 	addi	sp,sp,-52
   12798:	dfc00c15 	stw	ra,48(sp)
   1279c:	df000b15 	stw	fp,44(sp)
   127a0:	df000b04 	addi	fp,sp,44
   127a4:	e13ffc15 	stw	r4,-16(fp)
   127a8:	e17ffd15 	stw	r5,-12(fp)
   127ac:	e1bffe15 	stw	r6,-8(fp)
   127b0:	e1ffff15 	stw	r7,-4(fp)
   127b4:	e0bffe17 	ldw	r2,-8(fp)
   127b8:	1007883a 	mov	r3,r2
   127bc:	e0bffd17 	ldw	r2,-12(fp)
   127c0:	10c5883a 	add	r2,r2,r3
   127c4:	e0bffb15 	stw	r2,-20(fp)
   127c8:	e0fffc17 	ldw	r3,-16(fp)
   127cc:	00800044 	movi	r2,1
   127d0:	188009c5 	stb	r2,39(r3)
   127d4:	0000a206 	br	12a60 <altera_avalon_lcd_16207_write+0x2cc>
   127d8:	e0bffd17 	ldw	r2,-12(fp)
   127dc:	10800003 	ldbu	r2,0(r2)
   127e0:	e0bff805 	stb	r2,-32(fp)
   127e4:	e0bffc17 	ldw	r2,-16(fp)
   127e8:	10800903 	ldbu	r2,36(r2)
   127ec:	10803fcc 	andi	r2,r2,255
   127f0:	1080201c 	xori	r2,r2,128
   127f4:	10bfe004 	addi	r2,r2,-128
   127f8:	1004803a 	cmplt	r2,r2,zero
   127fc:	10003b1e 	bne	r2,zero,128ec <altera_avalon_lcd_16207_write+0x158>
   12800:	e0bffc17 	ldw	r2,-16(fp)
   12804:	10800903 	ldbu	r2,36(r2)
   12808:	10803fcc 	andi	r2,r2,255
   1280c:	1080201c 	xori	r2,r2,128
   12810:	10bfe004 	addi	r2,r2,-128
   12814:	e0bff715 	stw	r2,-36(fp)
   12818:	e0bff717 	ldw	r2,-36(fp)
   1281c:	1004c03a 	cmpne	r2,r2,zero
   12820:	1000031e 	bne	r2,zero,12830 <altera_avalon_lcd_16207_write+0x9c>
   12824:	e0bff807 	ldb	r2,-32(fp)
   12828:	108016d8 	cmpnei	r2,r2,91
   1282c:	1000111e 	bne	r2,zero,12874 <altera_avalon_lcd_16207_write+0xe0>
   12830:	e0bff717 	ldw	r2,-36(fp)
   12834:	1005003a 	cmpeq	r2,r2,zero
   12838:	10001a1e 	bne	r2,zero,128a4 <altera_avalon_lcd_16207_write+0x110>
   1283c:	e0bff807 	ldb	r2,-32(fp)
   12840:	1007883a 	mov	r3,r2
   12844:	00820034 	movhi	r2,2048
   12848:	10893f04 	addi	r2,r2,9468
   1284c:	10800017 	ldw	r2,0(r2)
   12850:	1885883a 	add	r2,r3,r2
   12854:	10800003 	ldbu	r2,0(r2)
   12858:	10803fcc 	andi	r2,r2,255
   1285c:	1080010c 	andi	r2,r2,4
   12860:	1004c03a 	cmpne	r2,r2,zero
   12864:	10000f1e 	bne	r2,zero,128a4 <altera_avalon_lcd_16207_write+0x110>
   12868:	e0bff807 	ldb	r2,-32(fp)
   1286c:	10800ee0 	cmpeqi	r2,r2,59
   12870:	10000c1e 	bne	r2,zero,128a4 <altera_avalon_lcd_16207_write+0x110>
   12874:	e0fff717 	ldw	r3,-36(fp)
   12878:	e0bffc17 	ldw	r2,-16(fp)
   1287c:	1885883a 	add	r2,r3,r2
   12880:	10800a04 	addi	r2,r2,40
   12884:	10000005 	stb	zero,0(r2)
   12888:	e17ff807 	ldb	r5,-32(fp)
   1288c:	e13ffc17 	ldw	r4,-16(fp)
   12890:	00124c40 	call	124c4 <lcd_handle_escape>
   12894:	e0fffc17 	ldw	r3,-16(fp)
   12898:	00bfffc4 	movi	r2,-1
   1289c:	18800905 	stb	r2,36(r3)
   128a0:	00006c06 	br	12a54 <altera_avalon_lcd_16207_write+0x2c0>
   128a4:	e0bffc17 	ldw	r2,-16(fp)
   128a8:	10800903 	ldbu	r2,36(r2)
   128ac:	10803fcc 	andi	r2,r2,255
   128b0:	108001e8 	cmpgeui	r2,r2,7
   128b4:	1000671e 	bne	r2,zero,12a54 <altera_avalon_lcd_16207_write+0x2c0>
   128b8:	e0fff717 	ldw	r3,-36(fp)
   128bc:	e0bffc17 	ldw	r2,-16(fp)
   128c0:	1885883a 	add	r2,r3,r2
   128c4:	10c00a04 	addi	r3,r2,40
   128c8:	e0bff803 	ldbu	r2,-32(fp)
   128cc:	18800005 	stb	r2,0(r3)
   128d0:	e0bffc17 	ldw	r2,-16(fp)
   128d4:	10800903 	ldbu	r2,36(r2)
   128d8:	10800044 	addi	r2,r2,1
   128dc:	1007883a 	mov	r3,r2
   128e0:	e0bffc17 	ldw	r2,-16(fp)
   128e4:	10c00905 	stb	r3,36(r2)
   128e8:	00005a06 	br	12a54 <altera_avalon_lcd_16207_write+0x2c0>
   128ec:	e0bff807 	ldb	r2,-32(fp)
   128f0:	108006d8 	cmpnei	r2,r2,27
   128f4:	1000031e 	bne	r2,zero,12904 <altera_avalon_lcd_16207_write+0x170>
   128f8:	e0bffc17 	ldw	r2,-16(fp)
   128fc:	10000905 	stb	zero,36(r2)
   12900:	00005406 	br	12a54 <altera_avalon_lcd_16207_write+0x2c0>
   12904:	e0bff807 	ldb	r2,-32(fp)
   12908:	10800358 	cmpnei	r2,r2,13
   1290c:	1000031e 	bne	r2,zero,1291c <altera_avalon_lcd_16207_write+0x188>
   12910:	e0bffc17 	ldw	r2,-16(fp)
   12914:	10000845 	stb	zero,33(r2)
   12918:	00004e06 	br	12a54 <altera_avalon_lcd_16207_write+0x2c0>
   1291c:	e0bff807 	ldb	r2,-32(fp)
   12920:	10800298 	cmpnei	r2,r2,10
   12924:	1000101e 	bne	r2,zero,12968 <altera_avalon_lcd_16207_write+0x1d4>
   12928:	e0bffc17 	ldw	r2,-16(fp)
   1292c:	10000845 	stb	zero,33(r2)
   12930:	e0bffc17 	ldw	r2,-16(fp)
   12934:	10800883 	ldbu	r2,34(r2)
   12938:	10800044 	addi	r2,r2,1
   1293c:	1007883a 	mov	r3,r2
   12940:	e0bffc17 	ldw	r2,-16(fp)
   12944:	10c00885 	stb	r3,34(r2)
   12948:	e0bffc17 	ldw	r2,-16(fp)
   1294c:	10800883 	ldbu	r2,34(r2)
   12950:	10803fcc 	andi	r2,r2,255
   12954:	108000f0 	cmpltui	r2,r2,3
   12958:	10003e1e 	bne	r2,zero,12a54 <altera_avalon_lcd_16207_write+0x2c0>
   1295c:	e13ffc17 	ldw	r4,-16(fp)
   12960:	00123fc0 	call	123fc <lcd_scroll_up>
   12964:	00003b06 	br	12a54 <altera_avalon_lcd_16207_write+0x2c0>
   12968:	e0bff807 	ldb	r2,-32(fp)
   1296c:	10800218 	cmpnei	r2,r2,8
   12970:	10000c1e 	bne	r2,zero,129a4 <altera_avalon_lcd_16207_write+0x210>
   12974:	e0bffc17 	ldw	r2,-16(fp)
   12978:	10800843 	ldbu	r2,33(r2)
   1297c:	10803fcc 	andi	r2,r2,255
   12980:	1005003a 	cmpeq	r2,r2,zero
   12984:	1000331e 	bne	r2,zero,12a54 <altera_avalon_lcd_16207_write+0x2c0>
   12988:	e0bffc17 	ldw	r2,-16(fp)
   1298c:	10800843 	ldbu	r2,33(r2)
   12990:	10bfffc4 	addi	r2,r2,-1
   12994:	1007883a 	mov	r3,r2
   12998:	e0bffc17 	ldw	r2,-16(fp)
   1299c:	10c00845 	stb	r3,33(r2)
   129a0:	00002c06 	br	12a54 <altera_avalon_lcd_16207_write+0x2c0>
   129a4:	e0bff807 	ldb	r2,-32(fp)
   129a8:	1007883a 	mov	r3,r2
   129ac:	00820034 	movhi	r2,2048
   129b0:	10893f04 	addi	r2,r2,9468
   129b4:	10800017 	ldw	r2,0(r2)
   129b8:	1885883a 	add	r2,r3,r2
   129bc:	10800003 	ldbu	r2,0(r2)
   129c0:	10803fcc 	andi	r2,r2,255
   129c4:	1080201c 	xori	r2,r2,128
   129c8:	10bfe004 	addi	r2,r2,-128
   129cc:	108025cc 	andi	r2,r2,151
   129d0:	1005003a 	cmpeq	r2,r2,zero
   129d4:	10001f1e 	bne	r2,zero,12a54 <altera_avalon_lcd_16207_write+0x2c0>
   129d8:	e0bffc17 	ldw	r2,-16(fp)
   129dc:	10800883 	ldbu	r2,34(r2)
   129e0:	10803fcc 	andi	r2,r2,255
   129e4:	108000b0 	cmpltui	r2,r2,2
   129e8:	1000021e 	bne	r2,zero,129f4 <altera_avalon_lcd_16207_write+0x260>
   129ec:	e13ffc17 	ldw	r4,-16(fp)
   129f0:	00123fc0 	call	123fc <lcd_scroll_up>
   129f4:	e0bffc17 	ldw	r2,-16(fp)
   129f8:	10800843 	ldbu	r2,33(r2)
   129fc:	10803fcc 	andi	r2,r2,255
   12a00:	10801428 	cmpgeui	r2,r2,80
   12a04:	10000d1e 	bne	r2,zero,12a3c <altera_avalon_lcd_16207_write+0x2a8>
   12a08:	e0bffc17 	ldw	r2,-16(fp)
   12a0c:	10800883 	ldbu	r2,34(r2)
   12a10:	11003fcc 	andi	r4,r2,255
   12a14:	e0bffc17 	ldw	r2,-16(fp)
   12a18:	10800843 	ldbu	r2,33(r2)
   12a1c:	11403fcc 	andi	r5,r2,255
   12a20:	e0fffc17 	ldw	r3,-16(fp)
   12a24:	20801924 	muli	r2,r4,100
   12a28:	10c5883a 	add	r2,r2,r3
   12a2c:	1145883a 	add	r2,r2,r5
   12a30:	10c01004 	addi	r3,r2,64
   12a34:	e0bff803 	ldbu	r2,-32(fp)
   12a38:	18800005 	stb	r2,0(r3)
   12a3c:	e0bffc17 	ldw	r2,-16(fp)
   12a40:	10800843 	ldbu	r2,33(r2)
   12a44:	10800044 	addi	r2,r2,1
   12a48:	1007883a 	mov	r3,r2
   12a4c:	e0bffc17 	ldw	r2,-16(fp)
   12a50:	10c00845 	stb	r3,33(r2)
   12a54:	e0bffd17 	ldw	r2,-12(fp)
   12a58:	10800044 	addi	r2,r2,1
   12a5c:	e0bffd15 	stw	r2,-12(fp)
   12a60:	e0fffd17 	ldw	r3,-12(fp)
   12a64:	e0bffb17 	ldw	r2,-20(fp)
   12a68:	18bf5b36 	bltu	r3,r2,127d8 <altera_avalon_lcd_16207_write+0x44>
   12a6c:	00800404 	movi	r2,16
   12a70:	e0bff915 	stw	r2,-28(fp)
   12a74:	e03ffa15 	stw	zero,-24(fp)
   12a78:	00003606 	br	12b54 <altera_avalon_lcd_16207_write+0x3c0>
   12a7c:	00801404 	movi	r2,80
   12a80:	e0bff615 	stw	r2,-40(fp)
   12a84:	00001106 	br	12acc <altera_avalon_lcd_16207_write+0x338>
   12a88:	e13ffa17 	ldw	r4,-24(fp)
   12a8c:	e0bff617 	ldw	r2,-40(fp)
   12a90:	117fffc4 	addi	r5,r2,-1
   12a94:	e0fffc17 	ldw	r3,-16(fp)
   12a98:	20801924 	muli	r2,r4,100
   12a9c:	10c5883a 	add	r2,r2,r3
   12aa0:	1145883a 	add	r2,r2,r5
   12aa4:	10801004 	addi	r2,r2,64
   12aa8:	10800003 	ldbu	r2,0(r2)
   12aac:	10803fcc 	andi	r2,r2,255
   12ab0:	1080201c 	xori	r2,r2,128
   12ab4:	10bfe004 	addi	r2,r2,-128
   12ab8:	10800818 	cmpnei	r2,r2,32
   12abc:	1000061e 	bne	r2,zero,12ad8 <altera_avalon_lcd_16207_write+0x344>
   12ac0:	e0bff617 	ldw	r2,-40(fp)
   12ac4:	10bfffc4 	addi	r2,r2,-1
   12ac8:	e0bff615 	stw	r2,-40(fp)
   12acc:	e0bff617 	ldw	r2,-40(fp)
   12ad0:	10800048 	cmpgei	r2,r2,1
   12ad4:	103fec1e 	bne	r2,zero,12a88 <altera_avalon_lcd_16207_write+0x2f4>
   12ad8:	e0bff617 	ldw	r2,-40(fp)
   12adc:	10800448 	cmpgei	r2,r2,17
   12ae0:	1000031e 	bne	r2,zero,12af0 <altera_avalon_lcd_16207_write+0x35c>
   12ae4:	00800404 	movi	r2,16
   12ae8:	e0bff615 	stw	r2,-40(fp)
   12aec:	00000306 	br	12afc <altera_avalon_lcd_16207_write+0x368>
   12af0:	e0bff617 	ldw	r2,-40(fp)
   12af4:	10800044 	addi	r2,r2,1
   12af8:	e0bff615 	stw	r2,-40(fp)
   12afc:	e13ffa17 	ldw	r4,-24(fp)
   12b00:	e0bff617 	ldw	r2,-40(fp)
   12b04:	100b883a 	mov	r5,r2
   12b08:	e0fffc17 	ldw	r3,-16(fp)
   12b0c:	20801924 	muli	r2,r4,100
   12b10:	10c5883a 	add	r2,r2,r3
   12b14:	10802404 	addi	r2,r2,144
   12b18:	11400045 	stb	r5,1(r2)
   12b1c:	e0fff917 	ldw	r3,-28(fp)
   12b20:	e0bff617 	ldw	r2,-40(fp)
   12b24:	1880020e 	bge	r3,r2,12b30 <altera_avalon_lcd_16207_write+0x39c>
   12b28:	e0bff617 	ldw	r2,-40(fp)
   12b2c:	e0bff915 	stw	r2,-28(fp)
   12b30:	e0bffa17 	ldw	r2,-24(fp)
   12b34:	e0fffc17 	ldw	r3,-16(fp)
   12b38:	10801924 	muli	r2,r2,100
   12b3c:	10c5883a 	add	r2,r2,r3
   12b40:	10802404 	addi	r2,r2,144
   12b44:	10000085 	stb	zero,2(r2)
   12b48:	e0bffa17 	ldw	r2,-24(fp)
   12b4c:	10800044 	addi	r2,r2,1
   12b50:	e0bffa15 	stw	r2,-24(fp)
   12b54:	e0bffa17 	ldw	r2,-24(fp)
   12b58:	10800090 	cmplti	r2,r2,2
   12b5c:	103fc71e 	bne	r2,zero,12a7c <altera_avalon_lcd_16207_write+0x2e8>
   12b60:	e0bff917 	ldw	r2,-28(fp)
   12b64:	10800448 	cmpgei	r2,r2,17
   12b68:	1000031e 	bne	r2,zero,12b78 <altera_avalon_lcd_16207_write+0x3e4>
   12b6c:	e0bffc17 	ldw	r2,-16(fp)
   12b70:	10000985 	stb	zero,38(r2)
   12b74:	00002d06 	br	12c2c <altera_avalon_lcd_16207_write+0x498>
   12b78:	e0bff917 	ldw	r2,-28(fp)
   12b7c:	1085883a 	add	r2,r2,r2
   12b80:	e0bff915 	stw	r2,-28(fp)
   12b84:	e0bff917 	ldw	r2,-28(fp)
   12b88:	1007883a 	mov	r3,r2
   12b8c:	e0bffc17 	ldw	r2,-16(fp)
   12b90:	10c00985 	stb	r3,38(r2)
   12b94:	e03ffa15 	stw	zero,-24(fp)
   12b98:	00002106 	br	12c20 <altera_avalon_lcd_16207_write+0x48c>
   12b9c:	e0bffa17 	ldw	r2,-24(fp)
   12ba0:	e0fffc17 	ldw	r3,-16(fp)
   12ba4:	10801924 	muli	r2,r2,100
   12ba8:	10c5883a 	add	r2,r2,r3
   12bac:	10802404 	addi	r2,r2,144
   12bb0:	10800043 	ldbu	r2,1(r2)
   12bb4:	10803fcc 	andi	r2,r2,255
   12bb8:	1080201c 	xori	r2,r2,128
   12bbc:	10bfe004 	addi	r2,r2,-128
   12bc0:	10800450 	cmplti	r2,r2,17
   12bc4:	1000131e 	bne	r2,zero,12c14 <altera_avalon_lcd_16207_write+0x480>
   12bc8:	e17ffa17 	ldw	r5,-24(fp)
   12bcc:	e0bffa17 	ldw	r2,-24(fp)
   12bd0:	e0fffc17 	ldw	r3,-16(fp)
   12bd4:	10801924 	muli	r2,r2,100
   12bd8:	10c5883a 	add	r2,r2,r3
   12bdc:	10802404 	addi	r2,r2,144
   12be0:	10800043 	ldbu	r2,1(r2)
   12be4:	10803fcc 	andi	r2,r2,255
   12be8:	1080201c 	xori	r2,r2,128
   12bec:	10bfe004 	addi	r2,r2,-128
   12bf0:	1006923a 	slli	r3,r2,8
   12bf4:	e0bff917 	ldw	r2,-28(fp)
   12bf8:	1885283a 	div	r2,r3,r2
   12bfc:	1009883a 	mov	r4,r2
   12c00:	e0fffc17 	ldw	r3,-16(fp)
   12c04:	28801924 	muli	r2,r5,100
   12c08:	10c5883a 	add	r2,r2,r3
   12c0c:	10802404 	addi	r2,r2,144
   12c10:	11000085 	stb	r4,2(r2)
   12c14:	e0bffa17 	ldw	r2,-24(fp)
   12c18:	10800044 	addi	r2,r2,1
   12c1c:	e0bffa15 	stw	r2,-24(fp)
   12c20:	e0bffa17 	ldw	r2,-24(fp)
   12c24:	10800090 	cmplti	r2,r2,2
   12c28:	103fdc1e 	bne	r2,zero,12b9c <altera_avalon_lcd_16207_write+0x408>
   12c2c:	e0bffc17 	ldw	r2,-16(fp)
   12c30:	10800943 	ldbu	r2,37(r2)
   12c34:	10803fcc 	andi	r2,r2,255
   12c38:	1080201c 	xori	r2,r2,128
   12c3c:	10bfe004 	addi	r2,r2,-128
   12c40:	e0bff515 	stw	r2,-44(fp)
   12c44:	e13ffc17 	ldw	r4,-16(fp)
   12c48:	00122100 	call	12210 <lcd_repaint_screen>
   12c4c:	e0bffc17 	ldw	r2,-16(fp)
   12c50:	100009c5 	stb	zero,39(r2)
   12c54:	e0bffc17 	ldw	r2,-16(fp)
   12c58:	10800943 	ldbu	r2,37(r2)
   12c5c:	10c03fcc 	andi	r3,r2,255
   12c60:	18c0201c 	xori	r3,r3,128
   12c64:	18ffe004 	addi	r3,r3,-128
   12c68:	e0bff517 	ldw	r2,-44(fp)
   12c6c:	18800426 	beq	r3,r2,12c80 <altera_avalon_lcd_16207_write+0x4ec>
   12c70:	e0fffc17 	ldw	r3,-16(fp)
   12c74:	00800044 	movi	r2,1
   12c78:	188009c5 	stb	r2,39(r3)
   12c7c:	003feb06 	br	12c2c <altera_avalon_lcd_16207_write+0x498>
   12c80:	e0bffe17 	ldw	r2,-8(fp)
   12c84:	e037883a 	mov	sp,fp
   12c88:	dfc00117 	ldw	ra,4(sp)
   12c8c:	df000017 	ldw	fp,0(sp)
   12c90:	dec00204 	addi	sp,sp,8
   12c94:	f800283a 	ret

00012c98 <alt_lcd_16207_timeout>:
   12c98:	defffc04 	addi	sp,sp,-16
   12c9c:	dfc00315 	stw	ra,12(sp)
   12ca0:	df000215 	stw	fp,8(sp)
   12ca4:	df000204 	addi	fp,sp,8
   12ca8:	e13fff15 	stw	r4,-4(fp)
   12cac:	e0bfff17 	ldw	r2,-4(fp)
   12cb0:	e0bffe15 	stw	r2,-8(fp)
   12cb4:	e0bffe17 	ldw	r2,-8(fp)
   12cb8:	10800943 	ldbu	r2,37(r2)
   12cbc:	10803fcc 	andi	r2,r2,255
   12cc0:	1080201c 	xori	r2,r2,128
   12cc4:	10bfe004 	addi	r2,r2,-128
   12cc8:	10c00044 	addi	r3,r2,1
   12ccc:	e0bffe17 	ldw	r2,-8(fp)
   12cd0:	10800983 	ldbu	r2,38(r2)
   12cd4:	10803fcc 	andi	r2,r2,255
   12cd8:	1080201c 	xori	r2,r2,128
   12cdc:	10bfe004 	addi	r2,r2,-128
   12ce0:	18800316 	blt	r3,r2,12cf0 <alt_lcd_16207_timeout+0x58>
   12ce4:	e0bffe17 	ldw	r2,-8(fp)
   12ce8:	10000945 	stb	zero,37(r2)
   12cec:	00000606 	br	12d08 <alt_lcd_16207_timeout+0x70>
   12cf0:	e0bffe17 	ldw	r2,-8(fp)
   12cf4:	10800943 	ldbu	r2,37(r2)
   12cf8:	10800044 	addi	r2,r2,1
   12cfc:	1007883a 	mov	r3,r2
   12d00:	e0bffe17 	ldw	r2,-8(fp)
   12d04:	10c00945 	stb	r3,37(r2)
   12d08:	e0bffe17 	ldw	r2,-8(fp)
   12d0c:	10800983 	ldbu	r2,38(r2)
   12d10:	10803fcc 	andi	r2,r2,255
   12d14:	1080201c 	xori	r2,r2,128
   12d18:	10bfe004 	addi	r2,r2,-128
   12d1c:	10800050 	cmplti	r2,r2,1
   12d20:	1000091e 	bne	r2,zero,12d48 <alt_lcd_16207_timeout+0xb0>
   12d24:	e0bffe17 	ldw	r2,-8(fp)
   12d28:	108009c3 	ldbu	r2,39(r2)
   12d2c:	10803fcc 	andi	r2,r2,255
   12d30:	1080201c 	xori	r2,r2,128
   12d34:	10bfe004 	addi	r2,r2,-128
   12d38:	1004c03a 	cmpne	r2,r2,zero
   12d3c:	1000021e 	bne	r2,zero,12d48 <alt_lcd_16207_timeout+0xb0>
   12d40:	e13ffe17 	ldw	r4,-8(fp)
   12d44:	00122100 	call	12210 <lcd_repaint_screen>
   12d48:	e0bffe17 	ldw	r2,-8(fp)
   12d4c:	10800717 	ldw	r2,28(r2)
   12d50:	e037883a 	mov	sp,fp
   12d54:	dfc00117 	ldw	ra,4(sp)
   12d58:	df000017 	ldw	fp,0(sp)
   12d5c:	dec00204 	addi	sp,sp,8
   12d60:	f800283a 	ret

00012d64 <altera_avalon_lcd_16207_init>:
   12d64:	defffc04 	addi	sp,sp,-16
   12d68:	dfc00315 	stw	ra,12(sp)
   12d6c:	df000215 	stw	fp,8(sp)
   12d70:	df000204 	addi	fp,sp,8
   12d74:	e13fff15 	stw	r4,-4(fp)
   12d78:	e0bfff17 	ldw	r2,-4(fp)
   12d7c:	10800017 	ldw	r2,0(r2)
   12d80:	e0bffe15 	stw	r2,-8(fp)
   12d84:	e0bfff17 	ldw	r2,-4(fp)
   12d88:	10000805 	stb	zero,32(r2)
   12d8c:	010ea604 	movi	r4,15000
   12d90:	0014e540 	call	14e54 <usleep>
   12d94:	e0bffe17 	ldw	r2,-8(fp)
   12d98:	1007883a 	mov	r3,r2
   12d9c:	00800c04 	movi	r2,48
   12da0:	18800035 	stwio	r2,0(r3)
   12da4:	01040104 	movi	r4,4100
   12da8:	0014e540 	call	14e54 <usleep>
   12dac:	e0bffe17 	ldw	r2,-8(fp)
   12db0:	1007883a 	mov	r3,r2
   12db4:	00800c04 	movi	r2,48
   12db8:	18800035 	stwio	r2,0(r3)
   12dbc:	0100fa04 	movi	r4,1000
   12dc0:	0014e540 	call	14e54 <usleep>
   12dc4:	e0bffe17 	ldw	r2,-8(fp)
   12dc8:	1007883a 	mov	r3,r2
   12dcc:	00800c04 	movi	r2,48
   12dd0:	18800035 	stwio	r2,0(r3)
   12dd4:	e13fff17 	ldw	r4,-4(fp)
   12dd8:	01400e04 	movi	r5,56
   12ddc:	0011fc00 	call	11fc0 <lcd_write_command>
   12de0:	e13fff17 	ldw	r4,-4(fp)
   12de4:	01400204 	movi	r5,8
   12de8:	0011fc00 	call	11fc0 <lcd_write_command>
   12dec:	e13fff17 	ldw	r4,-4(fp)
   12df0:	001214c0 	call	1214c <lcd_clear_screen>
   12df4:	e13fff17 	ldw	r4,-4(fp)
   12df8:	01400184 	movi	r5,6
   12dfc:	0011fc00 	call	11fc0 <lcd_write_command>
   12e00:	e13fff17 	ldw	r4,-4(fp)
   12e04:	01400304 	movi	r5,12
   12e08:	0011fc00 	call	11fc0 <lcd_write_command>
   12e0c:	e0ffff17 	ldw	r3,-4(fp)
   12e10:	00bfffc4 	movi	r2,-1
   12e14:	18800905 	stb	r2,36(r3)
   12e18:	e0bfff17 	ldw	r2,-4(fp)
   12e1c:	11000a04 	addi	r4,r2,40
   12e20:	000b883a 	mov	r5,zero
   12e24:	01800204 	movi	r6,8
   12e28:	00053280 	call	5328 <memset>
   12e2c:	e0bfff17 	ldw	r2,-4(fp)
   12e30:	10000945 	stb	zero,37(r2)
   12e34:	e0bfff17 	ldw	r2,-4(fp)
   12e38:	10000985 	stb	zero,38(r2)
   12e3c:	e0bfff17 	ldw	r2,-4(fp)
   12e40:	100009c5 	stb	zero,39(r2)
   12e44:	00820034 	movhi	r2,2048
   12e48:	10896604 	addi	r2,r2,9624
   12e4c:	10800017 	ldw	r2,0(r2)
   12e50:	1007883a 	mov	r3,r2
   12e54:	00800284 	movi	r2,10
   12e58:	1885203a 	divu	r2,r3,r2
   12e5c:	1007883a 	mov	r3,r2
   12e60:	e0bfff17 	ldw	r2,-4(fp)
   12e64:	10c00715 	stw	r3,28(r2)
   12e68:	e0bfff17 	ldw	r2,-4(fp)
   12e6c:	11000104 	addi	r4,r2,4
   12e70:	e0bfff17 	ldw	r2,-4(fp)
   12e74:	10800717 	ldw	r2,28(r2)
   12e78:	100b883a 	mov	r5,r2
   12e7c:	01800074 	movhi	r6,1
   12e80:	318b2604 	addi	r6,r6,11416
   12e84:	e1ffff17 	ldw	r7,-4(fp)
   12e88:	00143a40 	call	143a4 <alt_alarm_start>
   12e8c:	e037883a 	mov	sp,fp
   12e90:	dfc00117 	ldw	ra,4(sp)
   12e94:	df000017 	ldw	fp,0(sp)
   12e98:	dec00204 	addi	sp,sp,8
   12e9c:	f800283a 	ret

00012ea0 <altera_avalon_lcd_16207_write_fd>:
   12ea0:	defffa04 	addi	sp,sp,-24
   12ea4:	dfc00515 	stw	ra,20(sp)
   12ea8:	df000415 	stw	fp,16(sp)
   12eac:	df000404 	addi	fp,sp,16
   12eb0:	e13ffd15 	stw	r4,-12(fp)
   12eb4:	e17ffe15 	stw	r5,-8(fp)
   12eb8:	e1bfff15 	stw	r6,-4(fp)
   12ebc:	e0bffd17 	ldw	r2,-12(fp)
   12ec0:	10800017 	ldw	r2,0(r2)
   12ec4:	e0bffc15 	stw	r2,-16(fp)
   12ec8:	e0bffc17 	ldw	r2,-16(fp)
   12ecc:	11000a04 	addi	r4,r2,40
   12ed0:	e0bffd17 	ldw	r2,-12(fp)
   12ed4:	11c00217 	ldw	r7,8(r2)
   12ed8:	e17ffe17 	ldw	r5,-8(fp)
   12edc:	e1bfff17 	ldw	r6,-4(fp)
   12ee0:	00127940 	call	12794 <altera_avalon_lcd_16207_write>
   12ee4:	e037883a 	mov	sp,fp
   12ee8:	dfc00117 	ldw	ra,4(sp)
   12eec:	df000017 	ldw	fp,0(sp)
   12ef0:	dec00204 	addi	sp,sp,8
   12ef4:	f800283a 	ret

00012ef8 <alt_avalon_timer_sc_irq>:
   12ef8:	defff904 	addi	sp,sp,-28
   12efc:	dfc00615 	stw	ra,24(sp)
   12f00:	df000515 	stw	fp,20(sp)
   12f04:	df000504 	addi	fp,sp,20
   12f08:	e13ffe15 	stw	r4,-8(fp)
   12f0c:	e17fff15 	stw	r5,-4(fp)
   12f10:	e0bffe17 	ldw	r2,-8(fp)
   12f14:	10000035 	stwio	zero,0(r2)
   12f18:	e0bffe17 	ldw	r2,-8(fp)
   12f1c:	10800104 	addi	r2,r2,4
   12f20:	10800037 	ldwio	r2,0(r2)
   12f24:	0005303a 	rdctl	r2,status
   12f28:	e0bffc15 	stw	r2,-16(fp)
   12f2c:	e0fffc17 	ldw	r3,-16(fp)
   12f30:	00bfff84 	movi	r2,-2
   12f34:	1884703a 	and	r2,r3,r2
   12f38:	1001703a 	wrctl	status,r2
   12f3c:	e0bffc17 	ldw	r2,-16(fp)
   12f40:	e0bffd15 	stw	r2,-12(fp)
   12f44:	0014d480 	call	14d48 <alt_tick>
   12f48:	e0bffd17 	ldw	r2,-12(fp)
   12f4c:	e0bffb15 	stw	r2,-20(fp)
   12f50:	e0bffb17 	ldw	r2,-20(fp)
   12f54:	1001703a 	wrctl	status,r2
   12f58:	e037883a 	mov	sp,fp
   12f5c:	dfc00117 	ldw	ra,4(sp)
   12f60:	df000017 	ldw	fp,0(sp)
   12f64:	dec00204 	addi	sp,sp,8
   12f68:	f800283a 	ret

00012f6c <alt_avalon_timer_sc_init>:
   12f6c:	defff904 	addi	sp,sp,-28
   12f70:	dfc00615 	stw	ra,24(sp)
   12f74:	df000515 	stw	fp,20(sp)
   12f78:	df000504 	addi	fp,sp,20
   12f7c:	e13ffc15 	stw	r4,-16(fp)
   12f80:	e17ffd15 	stw	r5,-12(fp)
   12f84:	e1bffe15 	stw	r6,-8(fp)
   12f88:	e1ffff15 	stw	r7,-4(fp)
   12f8c:	e0bfff17 	ldw	r2,-4(fp)
   12f90:	e0bffb15 	stw	r2,-20(fp)
   12f94:	00820034 	movhi	r2,2048
   12f98:	10896604 	addi	r2,r2,9624
   12f9c:	10800017 	ldw	r2,0(r2)
   12fa0:	1004c03a 	cmpne	r2,r2,zero
   12fa4:	1000041e 	bne	r2,zero,12fb8 <alt_avalon_timer_sc_init+0x4c>
   12fa8:	00c20034 	movhi	r3,2048
   12fac:	18c96604 	addi	r3,r3,9624
   12fb0:	e0bffb17 	ldw	r2,-20(fp)
   12fb4:	18800015 	stw	r2,0(r3)
   12fb8:	e0bffc17 	ldw	r2,-16(fp)
   12fbc:	10800104 	addi	r2,r2,4
   12fc0:	1007883a 	mov	r3,r2
   12fc4:	008001c4 	movi	r2,7
   12fc8:	18800035 	stwio	r2,0(r3)
   12fcc:	e13ffe17 	ldw	r4,-8(fp)
   12fd0:	e17ffc17 	ldw	r5,-16(fp)
   12fd4:	01800074 	movhi	r6,1
   12fd8:	318bbe04 	addi	r6,r6,12024
   12fdc:	00019140 	call	1914 <alt_irq_register>
   12fe0:	e037883a 	mov	sp,fp
   12fe4:	dfc00117 	ldw	ra,4(sp)
   12fe8:	df000017 	ldw	fp,0(sp)
   12fec:	dec00204 	addi	sp,sp,8
   12ff0:	f800283a 	ret

00012ff4 <altera_avalon_uart_read_fd>:
   12ff4:	defffa04 	addi	sp,sp,-24
   12ff8:	dfc00515 	stw	ra,20(sp)
   12ffc:	df000415 	stw	fp,16(sp)
   13000:	df000404 	addi	fp,sp,16
   13004:	e13ffd15 	stw	r4,-12(fp)
   13008:	e17ffe15 	stw	r5,-8(fp)
   1300c:	e1bfff15 	stw	r6,-4(fp)
   13010:	e0bffd17 	ldw	r2,-12(fp)
   13014:	10800017 	ldw	r2,0(r2)
   13018:	e0bffc15 	stw	r2,-16(fp)
   1301c:	e0bffc17 	ldw	r2,-16(fp)
   13020:	11000a04 	addi	r4,r2,40
   13024:	e0bffd17 	ldw	r2,-12(fp)
   13028:	11c00217 	ldw	r7,8(r2)
   1302c:	e17ffe17 	ldw	r5,-8(fp)
   13030:	e1bfff17 	ldw	r6,-4(fp)
   13034:	00134e80 	call	134e8 <altera_avalon_uart_read>
   13038:	e037883a 	mov	sp,fp
   1303c:	dfc00117 	ldw	ra,4(sp)
   13040:	df000017 	ldw	fp,0(sp)
   13044:	dec00204 	addi	sp,sp,8
   13048:	f800283a 	ret

0001304c <altera_avalon_uart_write_fd>:
   1304c:	defffa04 	addi	sp,sp,-24
   13050:	dfc00515 	stw	ra,20(sp)
   13054:	df000415 	stw	fp,16(sp)
   13058:	df000404 	addi	fp,sp,16
   1305c:	e13ffd15 	stw	r4,-12(fp)
   13060:	e17ffe15 	stw	r5,-8(fp)
   13064:	e1bfff15 	stw	r6,-4(fp)
   13068:	e0bffd17 	ldw	r2,-12(fp)
   1306c:	10800017 	ldw	r2,0(r2)
   13070:	e0bffc15 	stw	r2,-16(fp)
   13074:	e0bffc17 	ldw	r2,-16(fp)
   13078:	11000a04 	addi	r4,r2,40
   1307c:	e0bffd17 	ldw	r2,-12(fp)
   13080:	11c00217 	ldw	r7,8(r2)
   13084:	e17ffe17 	ldw	r5,-8(fp)
   13088:	e1bfff17 	ldw	r6,-4(fp)
   1308c:	00137780 	call	13778 <altera_avalon_uart_write>
   13090:	e037883a 	mov	sp,fp
   13094:	dfc00117 	ldw	ra,4(sp)
   13098:	df000017 	ldw	fp,0(sp)
   1309c:	dec00204 	addi	sp,sp,8
   130a0:	f800283a 	ret

000130a4 <altera_avalon_uart_close_fd>:
   130a4:	defffc04 	addi	sp,sp,-16
   130a8:	dfc00315 	stw	ra,12(sp)
   130ac:	df000215 	stw	fp,8(sp)
   130b0:	df000204 	addi	fp,sp,8
   130b4:	e13fff15 	stw	r4,-4(fp)
   130b8:	e0bfff17 	ldw	r2,-4(fp)
   130bc:	10800017 	ldw	r2,0(r2)
   130c0:	e0bffe15 	stw	r2,-8(fp)
   130c4:	e0bffe17 	ldw	r2,-8(fp)
   130c8:	11000a04 	addi	r4,r2,40
   130cc:	e0bfff17 	ldw	r2,-4(fp)
   130d0:	11400217 	ldw	r5,8(r2)
   130d4:	00134880 	call	13488 <altera_avalon_uart_close>
   130d8:	e037883a 	mov	sp,fp
   130dc:	dfc00117 	ldw	ra,4(sp)
   130e0:	df000017 	ldw	fp,0(sp)
   130e4:	dec00204 	addi	sp,sp,8
   130e8:	f800283a 	ret

000130ec <altera_avalon_uart_init>:
   130ec:	defff804 	addi	sp,sp,-32
   130f0:	dfc00715 	stw	ra,28(sp)
   130f4:	df000615 	stw	fp,24(sp)
   130f8:	df000604 	addi	fp,sp,24
   130fc:	e13ffc15 	stw	r4,-16(fp)
   13100:	e17ffd15 	stw	r5,-12(fp)
   13104:	e1bffe15 	stw	r6,-8(fp)
   13108:	e0bffc17 	ldw	r2,-16(fp)
   1310c:	10800017 	ldw	r2,0(r2)
   13110:	e0bffb15 	stw	r2,-20(fp)
   13114:	0005883a 	mov	r2,zero
   13118:	1004c03a 	cmpne	r2,r2,zero
   1311c:	1000061e 	bne	r2,zero,13138 <altera_avalon_uart_init+0x4c>
   13120:	0005883a 	mov	r2,zero
   13124:	1004c03a 	cmpne	r2,r2,zero
   13128:	1000031e 	bne	r2,zero,13138 <altera_avalon_uart_init+0x4c>
   1312c:	0005883a 	mov	r2,zero
   13130:	1005003a 	cmpeq	r2,r2,zero
   13134:	1000031e 	bne	r2,zero,13144 <altera_avalon_uart_init+0x58>
   13138:	00800044 	movi	r2,1
   1313c:	e0bfff15 	stw	r2,-4(fp)
   13140:	00000106 	br	13148 <altera_avalon_uart_init+0x5c>
   13144:	e03fff15 	stw	zero,-4(fp)
   13148:	e0bfff17 	ldw	r2,-4(fp)
   1314c:	e0bffa15 	stw	r2,-24(fp)
   13150:	e0bffa17 	ldw	r2,-24(fp)
   13154:	1004c03a 	cmpne	r2,r2,zero
   13158:	10000f1e 	bne	r2,zero,13198 <altera_avalon_uart_init+0xac>
   1315c:	e0fffc17 	ldw	r3,-16(fp)
   13160:	00832004 	movi	r2,3200
   13164:	18800115 	stw	r2,4(r3)
   13168:	e0bffb17 	ldw	r2,-20(fp)
   1316c:	11000304 	addi	r4,r2,12
   13170:	e0bffc17 	ldw	r2,-16(fp)
   13174:	10800117 	ldw	r2,4(r2)
   13178:	1007883a 	mov	r3,r2
   1317c:	2005883a 	mov	r2,r4
   13180:	10c00035 	stwio	r3,0(r2)
   13184:	e13ffe17 	ldw	r4,-8(fp)
   13188:	e17ffc17 	ldw	r5,-16(fp)
   1318c:	01800074 	movhi	r6,1
   13190:	318c6b04 	addi	r6,r6,12716
   13194:	00019140 	call	1914 <alt_irq_register>
   13198:	e037883a 	mov	sp,fp
   1319c:	dfc00117 	ldw	ra,4(sp)
   131a0:	df000017 	ldw	fp,0(sp)
   131a4:	dec00204 	addi	sp,sp,8
   131a8:	f800283a 	ret

000131ac <altera_avalon_uart_irq>:
   131ac:	defff904 	addi	sp,sp,-28
   131b0:	dfc00615 	stw	ra,24(sp)
   131b4:	df000515 	stw	fp,20(sp)
   131b8:	df000504 	addi	fp,sp,20
   131bc:	e13ffe15 	stw	r4,-8(fp)
   131c0:	e17fff15 	stw	r5,-4(fp)
   131c4:	e0bffe17 	ldw	r2,-8(fp)
   131c8:	e0bffc15 	stw	r2,-16(fp)
   131cc:	e0bffc17 	ldw	r2,-16(fp)
   131d0:	10800017 	ldw	r2,0(r2)
   131d4:	e0bffb15 	stw	r2,-20(fp)
   131d8:	e0bffb17 	ldw	r2,-20(fp)
   131dc:	10800204 	addi	r2,r2,8
   131e0:	10800037 	ldwio	r2,0(r2)
   131e4:	e0bffd15 	stw	r2,-12(fp)
   131e8:	e0bffb17 	ldw	r2,-20(fp)
   131ec:	10800204 	addi	r2,r2,8
   131f0:	10000035 	stwio	zero,0(r2)
   131f4:	e0bffb17 	ldw	r2,-20(fp)
   131f8:	10800204 	addi	r2,r2,8
   131fc:	10800037 	ldwio	r2,0(r2)
   13200:	e0bffd17 	ldw	r2,-12(fp)
   13204:	1080200c 	andi	r2,r2,128
   13208:	1005003a 	cmpeq	r2,r2,zero
   1320c:	1000031e 	bne	r2,zero,1321c <altera_avalon_uart_irq+0x70>
   13210:	e13ffc17 	ldw	r4,-16(fp)
   13214:	e17ffd17 	ldw	r5,-12(fp)
   13218:	001324c0 	call	1324c <altera_avalon_uart_rxirq>
   1321c:	e0bffd17 	ldw	r2,-12(fp)
   13220:	1081100c 	andi	r2,r2,1088
   13224:	1005003a 	cmpeq	r2,r2,zero
   13228:	1000031e 	bne	r2,zero,13238 <altera_avalon_uart_irq+0x8c>
   1322c:	e13ffc17 	ldw	r4,-16(fp)
   13230:	e17ffd17 	ldw	r5,-12(fp)
   13234:	001332c0 	call	1332c <altera_avalon_uart_txirq>
   13238:	e037883a 	mov	sp,fp
   1323c:	dfc00117 	ldw	ra,4(sp)
   13240:	df000017 	ldw	fp,0(sp)
   13244:	dec00204 	addi	sp,sp,8
   13248:	f800283a 	ret

0001324c <altera_avalon_uart_rxirq>:
   1324c:	defffc04 	addi	sp,sp,-16
   13250:	df000315 	stw	fp,12(sp)
   13254:	df000304 	addi	fp,sp,12
   13258:	e13ffe15 	stw	r4,-8(fp)
   1325c:	e17fff15 	stw	r5,-4(fp)
   13260:	e0bfff17 	ldw	r2,-4(fp)
   13264:	108000cc 	andi	r2,r2,3
   13268:	1004c03a 	cmpne	r2,r2,zero
   1326c:	10002b1e 	bne	r2,zero,1331c <altera_avalon_uart_rxirq+0xd0>
   13270:	e0bffe17 	ldw	r2,-8(fp)
   13274:	10800317 	ldw	r2,12(r2)
   13278:	e0bffe17 	ldw	r2,-8(fp)
   1327c:	10800317 	ldw	r2,12(r2)
   13280:	10800044 	addi	r2,r2,1
   13284:	10800fcc 	andi	r2,r2,63
   13288:	e0bffd15 	stw	r2,-12(fp)
   1328c:	e0bffe17 	ldw	r2,-8(fp)
   13290:	11000317 	ldw	r4,12(r2)
   13294:	e0bffe17 	ldw	r2,-8(fp)
   13298:	10800017 	ldw	r2,0(r2)
   1329c:	10800037 	ldwio	r2,0(r2)
   132a0:	1007883a 	mov	r3,r2
   132a4:	e0bffe17 	ldw	r2,-8(fp)
   132a8:	2085883a 	add	r2,r4,r2
   132ac:	10800704 	addi	r2,r2,28
   132b0:	10c00005 	stb	r3,0(r2)
   132b4:	e0fffe17 	ldw	r3,-8(fp)
   132b8:	e0bffd17 	ldw	r2,-12(fp)
   132bc:	18800315 	stw	r2,12(r3)
   132c0:	e0bffe17 	ldw	r2,-8(fp)
   132c4:	10800317 	ldw	r2,12(r2)
   132c8:	10800044 	addi	r2,r2,1
   132cc:	10800fcc 	andi	r2,r2,63
   132d0:	e0bffd15 	stw	r2,-12(fp)
   132d4:	e0bffe17 	ldw	r2,-8(fp)
   132d8:	10c00217 	ldw	r3,8(r2)
   132dc:	e0bffd17 	ldw	r2,-12(fp)
   132e0:	18800e1e 	bne	r3,r2,1331c <altera_avalon_uart_rxirq+0xd0>
   132e4:	e0bffe17 	ldw	r2,-8(fp)
   132e8:	10c00117 	ldw	r3,4(r2)
   132ec:	00bfdfc4 	movi	r2,-129
   132f0:	1886703a 	and	r3,r3,r2
   132f4:	e0bffe17 	ldw	r2,-8(fp)
   132f8:	10c00115 	stw	r3,4(r2)
   132fc:	e0bffe17 	ldw	r2,-8(fp)
   13300:	10800017 	ldw	r2,0(r2)
   13304:	11000304 	addi	r4,r2,12
   13308:	e0bffe17 	ldw	r2,-8(fp)
   1330c:	10800117 	ldw	r2,4(r2)
   13310:	1007883a 	mov	r3,r2
   13314:	2005883a 	mov	r2,r4
   13318:	10c00035 	stwio	r3,0(r2)
   1331c:	e037883a 	mov	sp,fp
   13320:	df000017 	ldw	fp,0(sp)
   13324:	dec00104 	addi	sp,sp,4
   13328:	f800283a 	ret

0001332c <altera_avalon_uart_txirq>:
   1332c:	defffd04 	addi	sp,sp,-12
   13330:	df000215 	stw	fp,8(sp)
   13334:	df000204 	addi	fp,sp,8
   13338:	e13ffe15 	stw	r4,-8(fp)
   1333c:	e17fff15 	stw	r5,-4(fp)
   13340:	e0bffe17 	ldw	r2,-8(fp)
   13344:	10c00417 	ldw	r3,16(r2)
   13348:	e0bffe17 	ldw	r2,-8(fp)
   1334c:	10800517 	ldw	r2,20(r2)
   13350:	18803626 	beq	r3,r2,1342c <altera_avalon_uart_txirq+0x100>
   13354:	e0bffe17 	ldw	r2,-8(fp)
   13358:	10800617 	ldw	r2,24(r2)
   1335c:	1080008c 	andi	r2,r2,2
   13360:	1005003a 	cmpeq	r2,r2,zero
   13364:	1000041e 	bne	r2,zero,13378 <altera_avalon_uart_txirq+0x4c>
   13368:	e0bfff17 	ldw	r2,-4(fp)
   1336c:	1082000c 	andi	r2,r2,2048
   13370:	1005003a 	cmpeq	r2,r2,zero
   13374:	10001e1e 	bne	r2,zero,133f0 <altera_avalon_uart_txirq+0xc4>
   13378:	e0bffe17 	ldw	r2,-8(fp)
   1337c:	10800417 	ldw	r2,16(r2)
   13380:	e0bffe17 	ldw	r2,-8(fp)
   13384:	10800017 	ldw	r2,0(r2)
   13388:	11000104 	addi	r4,r2,4
   1338c:	e0bffe17 	ldw	r2,-8(fp)
   13390:	10c00417 	ldw	r3,16(r2)
   13394:	e0bffe17 	ldw	r2,-8(fp)
   13398:	1885883a 	add	r2,r3,r2
   1339c:	10801704 	addi	r2,r2,92
   133a0:	10800003 	ldbu	r2,0(r2)
   133a4:	10c03fcc 	andi	r3,r2,255
   133a8:	2005883a 	mov	r2,r4
   133ac:	10c00035 	stwio	r3,0(r2)
   133b0:	e0bffe17 	ldw	r2,-8(fp)
   133b4:	10800417 	ldw	r2,16(r2)
   133b8:	10c00044 	addi	r3,r2,1
   133bc:	e0bffe17 	ldw	r2,-8(fp)
   133c0:	10c00415 	stw	r3,16(r2)
   133c4:	e0bffe17 	ldw	r2,-8(fp)
   133c8:	10800417 	ldw	r2,16(r2)
   133cc:	10c00fcc 	andi	r3,r2,63
   133d0:	e0bffe17 	ldw	r2,-8(fp)
   133d4:	10c00415 	stw	r3,16(r2)
   133d8:	e0bffe17 	ldw	r2,-8(fp)
   133dc:	10800117 	ldw	r2,4(r2)
   133e0:	10c01014 	ori	r3,r2,64
   133e4:	e0bffe17 	ldw	r2,-8(fp)
   133e8:	10c00115 	stw	r3,4(r2)
   133ec:	00000f06 	br	1342c <altera_avalon_uart_txirq+0x100>
   133f0:	e0bffe17 	ldw	r2,-8(fp)
   133f4:	10800017 	ldw	r2,0(r2)
   133f8:	10800204 	addi	r2,r2,8
   133fc:	10800037 	ldwio	r2,0(r2)
   13400:	e0bfff15 	stw	r2,-4(fp)
   13404:	e0bfff17 	ldw	r2,-4(fp)
   13408:	1082000c 	andi	r2,r2,2048
   1340c:	1004c03a 	cmpne	r2,r2,zero
   13410:	1000061e 	bne	r2,zero,1342c <altera_avalon_uart_txirq+0x100>
   13414:	e0bffe17 	ldw	r2,-8(fp)
   13418:	10c00117 	ldw	r3,4(r2)
   1341c:	00bfefc4 	movi	r2,-65
   13420:	1886703a 	and	r3,r3,r2
   13424:	e0bffe17 	ldw	r2,-8(fp)
   13428:	10c00115 	stw	r3,4(r2)
   1342c:	e0bffe17 	ldw	r2,-8(fp)
   13430:	10c00417 	ldw	r3,16(r2)
   13434:	e0bffe17 	ldw	r2,-8(fp)
   13438:	10800517 	ldw	r2,20(r2)
   1343c:	1880061e 	bne	r3,r2,13458 <altera_avalon_uart_txirq+0x12c>
   13440:	e0bffe17 	ldw	r2,-8(fp)
   13444:	10c00117 	ldw	r3,4(r2)
   13448:	00beefc4 	movi	r2,-1089
   1344c:	1886703a 	and	r3,r3,r2
   13450:	e0bffe17 	ldw	r2,-8(fp)
   13454:	10c00115 	stw	r3,4(r2)
   13458:	e0bffe17 	ldw	r2,-8(fp)
   1345c:	10800017 	ldw	r2,0(r2)
   13460:	11000304 	addi	r4,r2,12
   13464:	e0bffe17 	ldw	r2,-8(fp)
   13468:	10800117 	ldw	r2,4(r2)
   1346c:	1007883a 	mov	r3,r2
   13470:	2005883a 	mov	r2,r4
   13474:	10c00035 	stwio	r3,0(r2)
   13478:	e037883a 	mov	sp,fp
   1347c:	df000017 	ldw	fp,0(sp)
   13480:	dec00104 	addi	sp,sp,4
   13484:	f800283a 	ret

00013488 <altera_avalon_uart_close>:
   13488:	defffc04 	addi	sp,sp,-16
   1348c:	df000315 	stw	fp,12(sp)
   13490:	df000304 	addi	fp,sp,12
   13494:	e13ffd15 	stw	r4,-12(fp)
   13498:	e17ffe15 	stw	r5,-8(fp)
   1349c:	00000706 	br	134bc <altera_avalon_uart_close+0x34>
   134a0:	e0bffe17 	ldw	r2,-8(fp)
   134a4:	1090000c 	andi	r2,r2,16384
   134a8:	1005003a 	cmpeq	r2,r2,zero
   134ac:	1000031e 	bne	r2,zero,134bc <altera_avalon_uart_close+0x34>
   134b0:	00bffd44 	movi	r2,-11
   134b4:	e0bfff15 	stw	r2,-4(fp)
   134b8:	00000606 	br	134d4 <altera_avalon_uart_close+0x4c>
   134bc:	e0bffd17 	ldw	r2,-12(fp)
   134c0:	10c00417 	ldw	r3,16(r2)
   134c4:	e0bffd17 	ldw	r2,-12(fp)
   134c8:	10800517 	ldw	r2,20(r2)
   134cc:	18bff41e 	bne	r3,r2,134a0 <altera_avalon_uart_close+0x18>
   134d0:	e03fff15 	stw	zero,-4(fp)
   134d4:	e0bfff17 	ldw	r2,-4(fp)
   134d8:	e037883a 	mov	sp,fp
   134dc:	df000017 	ldw	fp,0(sp)
   134e0:	dec00104 	addi	sp,sp,4
   134e4:	f800283a 	ret

000134e8 <altera_avalon_uart_read>:
   134e8:	defff004 	addi	sp,sp,-64
   134ec:	dfc00f15 	stw	ra,60(sp)
   134f0:	df000e15 	stw	fp,56(sp)
   134f4:	df000e04 	addi	fp,sp,56
   134f8:	e13ffb15 	stw	r4,-20(fp)
   134fc:	e17ffc15 	stw	r5,-16(fp)
   13500:	e1bffd15 	stw	r6,-12(fp)
   13504:	e1fffe15 	stw	r7,-8(fp)
   13508:	e03ff705 	stb	zero,-36(fp)
   1350c:	e03ff615 	stw	zero,-40(fp)
   13510:	e0bffe17 	ldw	r2,-8(fp)
   13514:	1090000c 	andi	r2,r2,16384
   13518:	1005003a 	cmpeq	r2,r2,zero
   1351c:	e0bff915 	stw	r2,-28(fp)
   13520:	e0bffb17 	ldw	r2,-20(fp)
   13524:	10800217 	ldw	r2,8(r2)
   13528:	10800044 	addi	r2,r2,1
   1352c:	10800fcc 	andi	r2,r2,63
   13530:	e0bff815 	stw	r2,-32(fp)
   13534:	00001906 	br	1359c <altera_avalon_uart_read+0xb4>
   13538:	e0bff617 	ldw	r2,-40(fp)
   1353c:	10800044 	addi	r2,r2,1
   13540:	e0bff615 	stw	r2,-40(fp)
   13544:	e0bffb17 	ldw	r2,-20(fp)
   13548:	10c00217 	ldw	r3,8(r2)
   1354c:	e0bffb17 	ldw	r2,-20(fp)
   13550:	1885883a 	add	r2,r3,r2
   13554:	10800704 	addi	r2,r2,28
   13558:	10800003 	ldbu	r2,0(r2)
   1355c:	1007883a 	mov	r3,r2
   13560:	e0bffc17 	ldw	r2,-16(fp)
   13564:	10c00005 	stb	r3,0(r2)
   13568:	e0bffc17 	ldw	r2,-16(fp)
   1356c:	10800044 	addi	r2,r2,1
   13570:	e0bffc15 	stw	r2,-16(fp)
   13574:	e0bffb17 	ldw	r2,-20(fp)
   13578:	10800217 	ldw	r2,8(r2)
   1357c:	10c00044 	addi	r3,r2,1
   13580:	e0bffb17 	ldw	r2,-20(fp)
   13584:	10c00215 	stw	r3,8(r2)
   13588:	e0bffb17 	ldw	r2,-20(fp)
   1358c:	10800217 	ldw	r2,8(r2)
   13590:	10c00fcc 	andi	r3,r2,63
   13594:	e0bffb17 	ldw	r2,-20(fp)
   13598:	10c00215 	stw	r3,8(r2)
   1359c:	e0fff617 	ldw	r3,-40(fp)
   135a0:	e0bffd17 	ldw	r2,-12(fp)
   135a4:	1880050e 	bge	r3,r2,135bc <altera_avalon_uart_read+0xd4>
   135a8:	e0bffb17 	ldw	r2,-20(fp)
   135ac:	10c00217 	ldw	r3,8(r2)
   135b0:	e0bffb17 	ldw	r2,-20(fp)
   135b4:	10800317 	ldw	r2,12(r2)
   135b8:	18bfdf1e 	bne	r3,r2,13538 <altera_avalon_uart_read+0x50>
   135bc:	e0bff617 	ldw	r2,-40(fp)
   135c0:	1004c03a 	cmpne	r2,r2,zero
   135c4:	1000271e 	bne	r2,zero,13664 <altera_avalon_uart_read+0x17c>
   135c8:	e0bffb17 	ldw	r2,-20(fp)
   135cc:	10c00217 	ldw	r3,8(r2)
   135d0:	e0bffb17 	ldw	r2,-20(fp)
   135d4:	10800317 	ldw	r2,12(r2)
   135d8:	1880221e 	bne	r3,r2,13664 <altera_avalon_uart_read+0x17c>
   135dc:	e0bff917 	ldw	r2,-28(fp)
   135e0:	1004c03a 	cmpne	r2,r2,zero
   135e4:	1000061e 	bne	r2,zero,13600 <altera_avalon_uart_read+0x118>
   135e8:	00137180 	call	13718 <alt_get_errno>
   135ec:	00c002c4 	movi	r3,11
   135f0:	10c00015 	stw	r3,0(r2)
   135f4:	00800044 	movi	r2,1
   135f8:	e0bff705 	stb	r2,-36(fp)
   135fc:	00001f06 	br	1367c <altera_avalon_uart_read+0x194>
   13600:	0005303a 	rdctl	r2,status
   13604:	e0bff515 	stw	r2,-44(fp)
   13608:	e0fff517 	ldw	r3,-44(fp)
   1360c:	00bfff84 	movi	r2,-2
   13610:	1884703a 	and	r2,r3,r2
   13614:	1001703a 	wrctl	status,r2
   13618:	e0bff517 	ldw	r2,-44(fp)
   1361c:	e0bffa15 	stw	r2,-24(fp)
   13620:	e0bffb17 	ldw	r2,-20(fp)
   13624:	10800117 	ldw	r2,4(r2)
   13628:	10c02014 	ori	r3,r2,128
   1362c:	e0bffb17 	ldw	r2,-20(fp)
   13630:	10c00115 	stw	r3,4(r2)
   13634:	e0bffb17 	ldw	r2,-20(fp)
   13638:	10800017 	ldw	r2,0(r2)
   1363c:	11000304 	addi	r4,r2,12
   13640:	e0bffb17 	ldw	r2,-20(fp)
   13644:	10800117 	ldw	r2,4(r2)
   13648:	1007883a 	mov	r3,r2
   1364c:	2005883a 	mov	r2,r4
   13650:	10c00035 	stwio	r3,0(r2)
   13654:	e0bffa17 	ldw	r2,-24(fp)
   13658:	e0bff415 	stw	r2,-48(fp)
   1365c:	e0bff417 	ldw	r2,-48(fp)
   13660:	1001703a 	wrctl	status,r2
   13664:	e0bff617 	ldw	r2,-40(fp)
   13668:	1004c03a 	cmpne	r2,r2,zero
   1366c:	1000031e 	bne	r2,zero,1367c <altera_avalon_uart_read+0x194>
   13670:	e0bffd17 	ldw	r2,-12(fp)
   13674:	1004c03a 	cmpne	r2,r2,zero
   13678:	103fc81e 	bne	r2,zero,1359c <altera_avalon_uart_read+0xb4>
   1367c:	0005303a 	rdctl	r2,status
   13680:	e0bff315 	stw	r2,-52(fp)
   13684:	e0fff317 	ldw	r3,-52(fp)
   13688:	00bfff84 	movi	r2,-2
   1368c:	1884703a 	and	r2,r3,r2
   13690:	1001703a 	wrctl	status,r2
   13694:	e0bff317 	ldw	r2,-52(fp)
   13698:	e0bffa15 	stw	r2,-24(fp)
   1369c:	e0bffb17 	ldw	r2,-20(fp)
   136a0:	10800117 	ldw	r2,4(r2)
   136a4:	10c02014 	ori	r3,r2,128
   136a8:	e0bffb17 	ldw	r2,-20(fp)
   136ac:	10c00115 	stw	r3,4(r2)
   136b0:	e0bffb17 	ldw	r2,-20(fp)
   136b4:	10800017 	ldw	r2,0(r2)
   136b8:	11000304 	addi	r4,r2,12
   136bc:	e0bffb17 	ldw	r2,-20(fp)
   136c0:	10800117 	ldw	r2,4(r2)
   136c4:	1007883a 	mov	r3,r2
   136c8:	2005883a 	mov	r2,r4
   136cc:	10c00035 	stwio	r3,0(r2)
   136d0:	e0bffa17 	ldw	r2,-24(fp)
   136d4:	e0bff215 	stw	r2,-56(fp)
   136d8:	e0bff217 	ldw	r2,-56(fp)
   136dc:	1001703a 	wrctl	status,r2
   136e0:	e0bff703 	ldbu	r2,-36(fp)
   136e4:	1005003a 	cmpeq	r2,r2,zero
   136e8:	1000031e 	bne	r2,zero,136f8 <altera_avalon_uart_read+0x210>
   136ec:	00bffd04 	movi	r2,-12
   136f0:	e0bfff15 	stw	r2,-4(fp)
   136f4:	00000206 	br	13700 <altera_avalon_uart_read+0x218>
   136f8:	e0bff617 	ldw	r2,-40(fp)
   136fc:	e0bfff15 	stw	r2,-4(fp)
   13700:	e0bfff17 	ldw	r2,-4(fp)
   13704:	e037883a 	mov	sp,fp
   13708:	dfc00117 	ldw	ra,4(sp)
   1370c:	df000017 	ldw	fp,0(sp)
   13710:	dec00204 	addi	sp,sp,8
   13714:	f800283a 	ret

00013718 <alt_get_errno>:
   13718:	defffd04 	addi	sp,sp,-12
   1371c:	dfc00215 	stw	ra,8(sp)
   13720:	df000115 	stw	fp,4(sp)
   13724:	df000104 	addi	fp,sp,4
   13728:	00820034 	movhi	r2,2048
   1372c:	10893704 	addi	r2,r2,9436
   13730:	10800017 	ldw	r2,0(r2)
   13734:	1005003a 	cmpeq	r2,r2,zero
   13738:	1000061e 	bne	r2,zero,13754 <alt_get_errno+0x3c>
   1373c:	00820034 	movhi	r2,2048
   13740:	10893704 	addi	r2,r2,9436
   13744:	10800017 	ldw	r2,0(r2)
   13748:	103ee83a 	callr	r2
   1374c:	e0bfff15 	stw	r2,-4(fp)
   13750:	00000306 	br	13760 <alt_get_errno+0x48>
   13754:	00820034 	movhi	r2,2048
   13758:	10896104 	addi	r2,r2,9604
   1375c:	e0bfff15 	stw	r2,-4(fp)
   13760:	e0bfff17 	ldw	r2,-4(fp)
   13764:	e037883a 	mov	sp,fp
   13768:	dfc00117 	ldw	ra,4(sp)
   1376c:	df000017 	ldw	fp,0(sp)
   13770:	dec00204 	addi	sp,sp,8
   13774:	f800283a 	ret

00013778 <altera_avalon_uart_write>:
   13778:	defff204 	addi	sp,sp,-56
   1377c:	dfc00d15 	stw	ra,52(sp)
   13780:	df000c15 	stw	fp,48(sp)
   13784:	df000c04 	addi	fp,sp,48
   13788:	e13ffc15 	stw	r4,-16(fp)
   1378c:	e17ffd15 	stw	r5,-12(fp)
   13790:	e1bffe15 	stw	r6,-8(fp)
   13794:	e1ffff15 	stw	r7,-4(fp)
   13798:	e0bffe17 	ldw	r2,-8(fp)
   1379c:	e0bff815 	stw	r2,-32(fp)
   137a0:	e0bfff17 	ldw	r2,-4(fp)
   137a4:	1090000c 	andi	r2,r2,16384
   137a8:	e0bffa15 	stw	r2,-24(fp)
   137ac:	00004006 	br	138b0 <altera_avalon_uart_write+0x138>
   137b0:	e0bffc17 	ldw	r2,-16(fp)
   137b4:	10800517 	ldw	r2,20(r2)
   137b8:	10800044 	addi	r2,r2,1
   137bc:	10800fcc 	andi	r2,r2,63
   137c0:	e0bff915 	stw	r2,-28(fp)
   137c4:	e0bffc17 	ldw	r2,-16(fp)
   137c8:	10c00417 	ldw	r3,16(r2)
   137cc:	e0bff917 	ldw	r2,-28(fp)
   137d0:	1880251e 	bne	r3,r2,13868 <altera_avalon_uart_write+0xf0>
   137d4:	e0bffa17 	ldw	r2,-24(fp)
   137d8:	1005003a 	cmpeq	r2,r2,zero
   137dc:	1000051e 	bne	r2,zero,137f4 <altera_avalon_uart_write+0x7c>
   137e0:	00139400 	call	13940 <alt_get_errno>
   137e4:	1007883a 	mov	r3,r2
   137e8:	008002c4 	movi	r2,11
   137ec:	18800015 	stw	r2,0(r3)
   137f0:	00003206 	br	138bc <altera_avalon_uart_write+0x144>
   137f4:	0005303a 	rdctl	r2,status
   137f8:	e0bff715 	stw	r2,-36(fp)
   137fc:	e0fff717 	ldw	r3,-36(fp)
   13800:	00bfff84 	movi	r2,-2
   13804:	1884703a 	and	r2,r3,r2
   13808:	1001703a 	wrctl	status,r2
   1380c:	e0bff717 	ldw	r2,-36(fp)
   13810:	e0bffb15 	stw	r2,-20(fp)
   13814:	e0bffc17 	ldw	r2,-16(fp)
   13818:	10800117 	ldw	r2,4(r2)
   1381c:	10c11014 	ori	r3,r2,1088
   13820:	e0bffc17 	ldw	r2,-16(fp)
   13824:	10c00115 	stw	r3,4(r2)
   13828:	e0bffc17 	ldw	r2,-16(fp)
   1382c:	10800017 	ldw	r2,0(r2)
   13830:	11000304 	addi	r4,r2,12
   13834:	e0bffc17 	ldw	r2,-16(fp)
   13838:	10800117 	ldw	r2,4(r2)
   1383c:	1007883a 	mov	r3,r2
   13840:	2005883a 	mov	r2,r4
   13844:	10c00035 	stwio	r3,0(r2)
   13848:	e0bffb17 	ldw	r2,-20(fp)
   1384c:	e0bff615 	stw	r2,-40(fp)
   13850:	e0bff617 	ldw	r2,-40(fp)
   13854:	1001703a 	wrctl	status,r2
   13858:	e0bffc17 	ldw	r2,-16(fp)
   1385c:	10c00417 	ldw	r3,16(r2)
   13860:	e0bff917 	ldw	r2,-28(fp)
   13864:	18bffc26 	beq	r3,r2,13858 <altera_avalon_uart_write+0xe0>
   13868:	e0bff817 	ldw	r2,-32(fp)
   1386c:	10bfffc4 	addi	r2,r2,-1
   13870:	e0bff815 	stw	r2,-32(fp)
   13874:	e0bffc17 	ldw	r2,-16(fp)
   13878:	10c00517 	ldw	r3,20(r2)
   1387c:	e0bffd17 	ldw	r2,-12(fp)
   13880:	10800003 	ldbu	r2,0(r2)
   13884:	1009883a 	mov	r4,r2
   13888:	e0bffc17 	ldw	r2,-16(fp)
   1388c:	1885883a 	add	r2,r3,r2
   13890:	10801704 	addi	r2,r2,92
   13894:	11000005 	stb	r4,0(r2)
   13898:	e0bffd17 	ldw	r2,-12(fp)
   1389c:	10800044 	addi	r2,r2,1
   138a0:	e0bffd15 	stw	r2,-12(fp)
   138a4:	e0fffc17 	ldw	r3,-16(fp)
   138a8:	e0bff917 	ldw	r2,-28(fp)
   138ac:	18800515 	stw	r2,20(r3)
   138b0:	e0bff817 	ldw	r2,-32(fp)
   138b4:	1004c03a 	cmpne	r2,r2,zero
   138b8:	103fbd1e 	bne	r2,zero,137b0 <altera_avalon_uart_write+0x38>
   138bc:	0005303a 	rdctl	r2,status
   138c0:	e0bff515 	stw	r2,-44(fp)
   138c4:	e0fff517 	ldw	r3,-44(fp)
   138c8:	00bfff84 	movi	r2,-2
   138cc:	1884703a 	and	r2,r3,r2
   138d0:	1001703a 	wrctl	status,r2
   138d4:	e0bff517 	ldw	r2,-44(fp)
   138d8:	e0bffb15 	stw	r2,-20(fp)
   138dc:	e0bffc17 	ldw	r2,-16(fp)
   138e0:	10800117 	ldw	r2,4(r2)
   138e4:	10c11014 	ori	r3,r2,1088
   138e8:	e0bffc17 	ldw	r2,-16(fp)
   138ec:	10c00115 	stw	r3,4(r2)
   138f0:	e0bffc17 	ldw	r2,-16(fp)
   138f4:	10800017 	ldw	r2,0(r2)
   138f8:	11000304 	addi	r4,r2,12
   138fc:	e0bffc17 	ldw	r2,-16(fp)
   13900:	10800117 	ldw	r2,4(r2)
   13904:	1007883a 	mov	r3,r2
   13908:	2005883a 	mov	r2,r4
   1390c:	10c00035 	stwio	r3,0(r2)
   13910:	e0bffb17 	ldw	r2,-20(fp)
   13914:	e0bff415 	stw	r2,-48(fp)
   13918:	e0bff417 	ldw	r2,-48(fp)
   1391c:	1001703a 	wrctl	status,r2
   13920:	e0fffe17 	ldw	r3,-8(fp)
   13924:	e0bff817 	ldw	r2,-32(fp)
   13928:	1885c83a 	sub	r2,r3,r2
   1392c:	e037883a 	mov	sp,fp
   13930:	dfc00117 	ldw	ra,4(sp)
   13934:	df000017 	ldw	fp,0(sp)
   13938:	dec00204 	addi	sp,sp,8
   1393c:	f800283a 	ret

00013940 <alt_get_errno>:
   13940:	defffd04 	addi	sp,sp,-12
   13944:	dfc00215 	stw	ra,8(sp)
   13948:	df000115 	stw	fp,4(sp)
   1394c:	df000104 	addi	fp,sp,4
   13950:	00820034 	movhi	r2,2048
   13954:	10893704 	addi	r2,r2,9436
   13958:	10800017 	ldw	r2,0(r2)
   1395c:	1005003a 	cmpeq	r2,r2,zero
   13960:	1000061e 	bne	r2,zero,1397c <alt_get_errno+0x3c>
   13964:	00820034 	movhi	r2,2048
   13968:	10893704 	addi	r2,r2,9436
   1396c:	10800017 	ldw	r2,0(r2)
   13970:	103ee83a 	callr	r2
   13974:	e0bfff15 	stw	r2,-4(fp)
   13978:	00000306 	br	13988 <alt_get_errno+0x48>
   1397c:	00820034 	movhi	r2,2048
   13980:	10896104 	addi	r2,r2,9604
   13984:	e0bfff15 	stw	r2,-4(fp)
   13988:	e0bfff17 	ldw	r2,-4(fp)
   1398c:	e037883a 	mov	sp,fp
   13990:	dfc00117 	ldw	ra,4(sp)
   13994:	df000017 	ldw	fp,0(sp)
   13998:	dec00204 	addi	sp,sp,8
   1399c:	f800283a 	ret

000139a0 <read_RI_bit>:
   139a0:	defffd04 	addi	sp,sp,-12
   139a4:	df000215 	stw	fp,8(sp)
   139a8:	df000204 	addi	fp,sp,8
   139ac:	e13fff15 	stw	r4,-4(fp)
   139b0:	e0bfff17 	ldw	r2,-4(fp)
   139b4:	1080400c 	andi	r2,r2,256
   139b8:	1004d23a 	srli	r2,r2,8
   139bc:	e0bffe05 	stb	r2,-8(fp)
   139c0:	e0bffe03 	ldbu	r2,-8(fp)
   139c4:	e037883a 	mov	sp,fp
   139c8:	df000017 	ldw	fp,0(sp)
   139cc:	dec00104 	addi	sp,sp,4
   139d0:	f800283a 	ret

000139d4 <read_RE_bit>:
   139d4:	defffd04 	addi	sp,sp,-12
   139d8:	df000215 	stw	fp,8(sp)
   139dc:	df000204 	addi	fp,sp,8
   139e0:	e13fff15 	stw	r4,-4(fp)
   139e4:	e0bfff17 	ldw	r2,-4(fp)
   139e8:	1080004c 	andi	r2,r2,1
   139ec:	e0bffe05 	stb	r2,-8(fp)
   139f0:	e0bffe03 	ldbu	r2,-8(fp)
   139f4:	e037883a 	mov	sp,fp
   139f8:	df000017 	ldw	fp,0(sp)
   139fc:	dec00104 	addi	sp,sp,4
   13a00:	f800283a 	ret

00013a04 <read_CE_bit>:
   13a04:	defffd04 	addi	sp,sp,-12
   13a08:	df000215 	stw	fp,8(sp)
   13a0c:	df000204 	addi	fp,sp,8
   13a10:	e13fff15 	stw	r4,-4(fp)
   13a14:	e0bfff17 	ldw	r2,-4(fp)
   13a18:	1081000c 	andi	r2,r2,1024
   13a1c:	1004d2ba 	srli	r2,r2,10
   13a20:	e0bffe05 	stb	r2,-8(fp)
   13a24:	e0bffe03 	ldbu	r2,-8(fp)
   13a28:	e037883a 	mov	sp,fp
   13a2c:	df000017 	ldw	fp,0(sp)
   13a30:	dec00104 	addi	sp,sp,4
   13a34:	f800283a 	ret

00013a38 <read_num_bytes_available>:
   13a38:	defffd04 	addi	sp,sp,-12
   13a3c:	df000215 	stw	fp,8(sp)
   13a40:	df000204 	addi	fp,sp,8
   13a44:	e13fff15 	stw	r4,-4(fp)
   13a48:	e0bfff17 	ldw	r2,-4(fp)
   13a4c:	10bfffec 	andhi	r2,r2,65535
   13a50:	1004d43a 	srli	r2,r2,16
   13a54:	e0bffe0d 	sth	r2,-8(fp)
   13a58:	e0bffe0b 	ldhu	r2,-8(fp)
   13a5c:	e037883a 	mov	sp,fp
   13a60:	df000017 	ldw	fp,0(sp)
   13a64:	dec00104 	addi	sp,sp,4
   13a68:	f800283a 	ret

00013a6c <read_data_valid>:
   13a6c:	defffd04 	addi	sp,sp,-12
   13a70:	df000215 	stw	fp,8(sp)
   13a74:	df000204 	addi	fp,sp,8
   13a78:	e13fff15 	stw	r4,-4(fp)
   13a7c:	e0bfff17 	ldw	r2,-4(fp)
   13a80:	10a0000c 	andi	r2,r2,32768
   13a84:	1004d3fa 	srli	r2,r2,15
   13a88:	e0bffe05 	stb	r2,-8(fp)
   13a8c:	e0bffe03 	ldbu	r2,-8(fp)
   13a90:	e037883a 	mov	sp,fp
   13a94:	df000017 	ldw	fp,0(sp)
   13a98:	dec00104 	addi	sp,sp,4
   13a9c:	f800283a 	ret

00013aa0 <read_data_byte>:
   13aa0:	defffd04 	addi	sp,sp,-12
   13aa4:	df000215 	stw	fp,8(sp)
   13aa8:	df000204 	addi	fp,sp,8
   13aac:	e13fff15 	stw	r4,-4(fp)
   13ab0:	e0bfff17 	ldw	r2,-4(fp)
   13ab4:	e0bffe05 	stb	r2,-8(fp)
   13ab8:	e0bffe03 	ldbu	r2,-8(fp)
   13abc:	e037883a 	mov	sp,fp
   13ac0:	df000017 	ldw	fp,0(sp)
   13ac4:	dec00104 	addi	sp,sp,4
   13ac8:	f800283a 	ret

00013acc <alt_up_ps2_init>:
   13acc:	defffb04 	addi	sp,sp,-20
   13ad0:	dfc00415 	stw	ra,16(sp)
   13ad4:	df000315 	stw	fp,12(sp)
   13ad8:	df000304 	addi	fp,sp,12
   13adc:	e13fff15 	stw	r4,-4(fp)
   13ae0:	e13fff17 	ldw	r4,-4(fp)
   13ae4:	01403fc4 	movi	r5,255
   13ae8:	0013d2c0 	call	13d2c <alt_up_ps2_write_data_byte_with_ack>
   13aec:	e0bffd15 	stw	r2,-12(fp)
   13af0:	e0bffd17 	ldw	r2,-12(fp)
   13af4:	1004c03a 	cmpne	r2,r2,zero
   13af8:	1000221e 	bne	r2,zero,13b84 <alt_up_ps2_init+0xb8>
   13afc:	e17ffe04 	addi	r5,fp,-8
   13b00:	e13fff17 	ldw	r4,-4(fp)
   13b04:	0013d980 	call	13d98 <alt_up_ps2_read_data_byte_timeout>
   13b08:	e0bffd15 	stw	r2,-12(fp)
   13b0c:	e0bffd17 	ldw	r2,-12(fp)
   13b10:	1004c03a 	cmpne	r2,r2,zero
   13b14:	10001b1e 	bne	r2,zero,13b84 <alt_up_ps2_init+0xb8>
   13b18:	e0bffe03 	ldbu	r2,-8(fp)
   13b1c:	10803fcc 	andi	r2,r2,255
   13b20:	10802a98 	cmpnei	r2,r2,170
   13b24:	1000171e 	bne	r2,zero,13b84 <alt_up_ps2_init+0xb8>
   13b28:	e17ffe04 	addi	r5,fp,-8
   13b2c:	e13fff17 	ldw	r4,-4(fp)
   13b30:	0013d980 	call	13d98 <alt_up_ps2_read_data_byte_timeout>
   13b34:	e0bffd15 	stw	r2,-12(fp)
   13b38:	e0bffd17 	ldw	r2,-12(fp)
   13b3c:	10bfe318 	cmpnei	r2,r2,-116
   13b40:	1000041e 	bne	r2,zero,13b54 <alt_up_ps2_init+0x88>
   13b44:	e0ffff17 	ldw	r3,-4(fp)
   13b48:	00800044 	movi	r2,1
   13b4c:	18800d15 	stw	r2,52(r3)
   13b50:	00000c06 	br	13b84 <alt_up_ps2_init+0xb8>
   13b54:	e0bffd17 	ldw	r2,-12(fp)
   13b58:	1004c03a 	cmpne	r2,r2,zero
   13b5c:	1000091e 	bne	r2,zero,13b84 <alt_up_ps2_init+0xb8>
   13b60:	e0bffe03 	ldbu	r2,-8(fp)
   13b64:	10803fcc 	andi	r2,r2,255
   13b68:	1004c03a 	cmpne	r2,r2,zero
   13b6c:	1000051e 	bne	r2,zero,13b84 <alt_up_ps2_init+0xb8>
   13b70:	e0bfff17 	ldw	r2,-4(fp)
   13b74:	10000d15 	stw	zero,52(r2)
   13b78:	e13fff17 	ldw	r4,-4(fp)
   13b7c:	01403d04 	movi	r5,244
   13b80:	0013c440 	call	13c44 <alt_up_ps2_write_data_byte>
   13b84:	e037883a 	mov	sp,fp
   13b88:	dfc00117 	ldw	ra,4(sp)
   13b8c:	df000017 	ldw	fp,0(sp)
   13b90:	dec00204 	addi	sp,sp,8
   13b94:	f800283a 	ret

00013b98 <alt_up_ps2_enable_read_interrupt>:
   13b98:	defffd04 	addi	sp,sp,-12
   13b9c:	df000215 	stw	fp,8(sp)
   13ba0:	df000204 	addi	fp,sp,8
   13ba4:	e13fff15 	stw	r4,-4(fp)
   13ba8:	e0bfff17 	ldw	r2,-4(fp)
   13bac:	10800a17 	ldw	r2,40(r2)
   13bb0:	10800104 	addi	r2,r2,4
   13bb4:	10800037 	ldwio	r2,0(r2)
   13bb8:	e0bffe15 	stw	r2,-8(fp)
   13bbc:	e0bffe17 	ldw	r2,-8(fp)
   13bc0:	10800054 	ori	r2,r2,1
   13bc4:	e0bffe15 	stw	r2,-8(fp)
   13bc8:	e0bfff17 	ldw	r2,-4(fp)
   13bcc:	10800a17 	ldw	r2,40(r2)
   13bd0:	10800104 	addi	r2,r2,4
   13bd4:	e0fffe17 	ldw	r3,-8(fp)
   13bd8:	10c00035 	stwio	r3,0(r2)
   13bdc:	e037883a 	mov	sp,fp
   13be0:	df000017 	ldw	fp,0(sp)
   13be4:	dec00104 	addi	sp,sp,4
   13be8:	f800283a 	ret

00013bec <alt_up_ps2_disable_read_interrupt>:
   13bec:	defffd04 	addi	sp,sp,-12
   13bf0:	df000215 	stw	fp,8(sp)
   13bf4:	df000204 	addi	fp,sp,8
   13bf8:	e13fff15 	stw	r4,-4(fp)
   13bfc:	e0bfff17 	ldw	r2,-4(fp)
   13c00:	10800a17 	ldw	r2,40(r2)
   13c04:	10800104 	addi	r2,r2,4
   13c08:	10800037 	ldwio	r2,0(r2)
   13c0c:	e0bffe15 	stw	r2,-8(fp)
   13c10:	e0fffe17 	ldw	r3,-8(fp)
   13c14:	00bfff84 	movi	r2,-2
   13c18:	1884703a 	and	r2,r3,r2
   13c1c:	e0bffe15 	stw	r2,-8(fp)
   13c20:	e0bfff17 	ldw	r2,-4(fp)
   13c24:	10800a17 	ldw	r2,40(r2)
   13c28:	10800104 	addi	r2,r2,4
   13c2c:	e0fffe17 	ldw	r3,-8(fp)
   13c30:	10c00035 	stwio	r3,0(r2)
   13c34:	e037883a 	mov	sp,fp
   13c38:	df000017 	ldw	fp,0(sp)
   13c3c:	dec00104 	addi	sp,sp,4
   13c40:	f800283a 	ret

00013c44 <alt_up_ps2_write_data_byte>:
   13c44:	defffa04 	addi	sp,sp,-24
   13c48:	dfc00515 	stw	ra,20(sp)
   13c4c:	df000415 	stw	fp,16(sp)
   13c50:	df000404 	addi	fp,sp,16
   13c54:	e13ffd15 	stw	r4,-12(fp)
   13c58:	e17ffe05 	stb	r5,-8(fp)
   13c5c:	e0bffd17 	ldw	r2,-12(fp)
   13c60:	10800a17 	ldw	r2,40(r2)
   13c64:	e0fffe03 	ldbu	r3,-8(fp)
   13c68:	10c00025 	stbio	r3,0(r2)
   13c6c:	e0bffd17 	ldw	r2,-12(fp)
   13c70:	10800a17 	ldw	r2,40(r2)
   13c74:	10800104 	addi	r2,r2,4
   13c78:	10800037 	ldwio	r2,0(r2)
   13c7c:	e0bffc15 	stw	r2,-16(fp)
   13c80:	e13ffc17 	ldw	r4,-16(fp)
   13c84:	0013a040 	call	13a04 <read_CE_bit>
   13c88:	10803fcc 	andi	r2,r2,255
   13c8c:	1005003a 	cmpeq	r2,r2,zero
   13c90:	1000031e 	bne	r2,zero,13ca0 <alt_up_ps2_write_data_byte+0x5c>
   13c94:	00bffec4 	movi	r2,-5
   13c98:	e0bfff15 	stw	r2,-4(fp)
   13c9c:	00000106 	br	13ca4 <alt_up_ps2_write_data_byte+0x60>
   13ca0:	e03fff15 	stw	zero,-4(fp)
   13ca4:	e0bfff17 	ldw	r2,-4(fp)
   13ca8:	e037883a 	mov	sp,fp
   13cac:	dfc00117 	ldw	ra,4(sp)
   13cb0:	df000017 	ldw	fp,0(sp)
   13cb4:	dec00204 	addi	sp,sp,8
   13cb8:	f800283a 	ret

00013cbc <alt_up_ps2_wait_for_ack>:
   13cbc:	defffb04 	addi	sp,sp,-20
   13cc0:	dfc00415 	stw	ra,16(sp)
   13cc4:	df000315 	stw	fp,12(sp)
   13cc8:	df000304 	addi	fp,sp,12
   13ccc:	e13ffe15 	stw	r4,-8(fp)
   13cd0:	e03ffd45 	stb	zero,-11(fp)
   13cd4:	e03ffd05 	stb	zero,-12(fp)
   13cd8:	e17ffd44 	addi	r5,fp,-11
   13cdc:	e13ffe17 	ldw	r4,-8(fp)
   13ce0:	0013d980 	call	13d98 <alt_up_ps2_read_data_byte_timeout>
   13ce4:	e0bffd05 	stb	r2,-12(fp)
   13ce8:	e0bffd03 	ldbu	r2,-12(fp)
   13cec:	1004c03a 	cmpne	r2,r2,zero
   13cf0:	1000061e 	bne	r2,zero,13d0c <alt_up_ps2_wait_for_ack+0x50>
   13cf4:	e0bffd43 	ldbu	r2,-11(fp)
   13cf8:	10803fcc 	andi	r2,r2,255
   13cfc:	10803e98 	cmpnei	r2,r2,250
   13d00:	103ff51e 	bne	r2,zero,13cd8 <alt_up_ps2_wait_for_ack+0x1c>
   13d04:	e03fff15 	stw	zero,-4(fp)
   13d08:	00000206 	br	13d14 <alt_up_ps2_wait_for_ack+0x58>
   13d0c:	e0bffd03 	ldbu	r2,-12(fp)
   13d10:	e0bfff15 	stw	r2,-4(fp)
   13d14:	e0bfff17 	ldw	r2,-4(fp)
   13d18:	e037883a 	mov	sp,fp
   13d1c:	dfc00117 	ldw	ra,4(sp)
   13d20:	df000017 	ldw	fp,0(sp)
   13d24:	dec00204 	addi	sp,sp,8
   13d28:	f800283a 	ret

00013d2c <alt_up_ps2_write_data_byte_with_ack>:
   13d2c:	defff904 	addi	sp,sp,-28
   13d30:	dfc00615 	stw	ra,24(sp)
   13d34:	df000515 	stw	fp,20(sp)
   13d38:	df000504 	addi	fp,sp,20
   13d3c:	e13ffd15 	stw	r4,-12(fp)
   13d40:	e17ffe05 	stb	r5,-8(fp)
   13d44:	e17ffe03 	ldbu	r5,-8(fp)
   13d48:	e13ffd17 	ldw	r4,-12(fp)
   13d4c:	0013c440 	call	13c44 <alt_up_ps2_write_data_byte>
   13d50:	e0bffc15 	stw	r2,-16(fp)
   13d54:	e0bffc17 	ldw	r2,-16(fp)
   13d58:	1005003a 	cmpeq	r2,r2,zero
   13d5c:	1000031e 	bne	r2,zero,13d6c <alt_up_ps2_write_data_byte_with_ack+0x40>
   13d60:	e0bffc17 	ldw	r2,-16(fp)
   13d64:	e0bfff15 	stw	r2,-4(fp)
   13d68:	00000506 	br	13d80 <alt_up_ps2_write_data_byte_with_ack+0x54>
   13d6c:	e13ffd17 	ldw	r4,-12(fp)
   13d70:	0013cbc0 	call	13cbc <alt_up_ps2_wait_for_ack>
   13d74:	e0bffb15 	stw	r2,-20(fp)
   13d78:	e0bffb17 	ldw	r2,-20(fp)
   13d7c:	e0bfff15 	stw	r2,-4(fp)
   13d80:	e0bfff17 	ldw	r2,-4(fp)
   13d84:	e037883a 	mov	sp,fp
   13d88:	dfc00117 	ldw	ra,4(sp)
   13d8c:	df000017 	ldw	fp,0(sp)
   13d90:	dec00204 	addi	sp,sp,8
   13d94:	f800283a 	ret

00013d98 <alt_up_ps2_read_data_byte_timeout>:
   13d98:	defff904 	addi	sp,sp,-28
   13d9c:	dfc00615 	stw	ra,24(sp)
   13da0:	df000515 	stw	fp,20(sp)
   13da4:	df000504 	addi	fp,sp,20
   13da8:	e13ffd15 	stw	r4,-12(fp)
   13dac:	e17ffe15 	stw	r5,-8(fp)
   13db0:	e03ffc15 	stw	zero,-16(fp)
   13db4:	e03ffb15 	stw	zero,-20(fp)
   13db8:	00000006 	br	13dbc <alt_up_ps2_read_data_byte_timeout+0x24>
   13dbc:	e0bffb17 	ldw	r2,-20(fp)
   13dc0:	10800044 	addi	r2,r2,1
   13dc4:	e0bffb15 	stw	r2,-20(fp)
   13dc8:	e0bffd17 	ldw	r2,-12(fp)
   13dcc:	10800a17 	ldw	r2,40(r2)
   13dd0:	10800037 	ldwio	r2,0(r2)
   13dd4:	e0bffc15 	stw	r2,-16(fp)
   13dd8:	e13ffc17 	ldw	r4,-16(fp)
   13ddc:	0013a6c0 	call	13a6c <read_data_valid>
   13de0:	10803fcc 	andi	r2,r2,255
   13de4:	1005003a 	cmpeq	r2,r2,zero
   13de8:	1000071e 	bne	r2,zero,13e08 <alt_up_ps2_read_data_byte_timeout+0x70>
   13dec:	e13ffc17 	ldw	r4,-16(fp)
   13df0:	0013aa00 	call	13aa0 <read_data_byte>
   13df4:	1007883a 	mov	r3,r2
   13df8:	e0bffe17 	ldw	r2,-8(fp)
   13dfc:	10c00005 	stb	r3,0(r2)
   13e00:	e03fff15 	stw	zero,-4(fp)
   13e04:	00000a06 	br	13e30 <alt_up_ps2_read_data_byte_timeout+0x98>
   13e08:	e0bffd17 	ldw	r2,-12(fp)
   13e0c:	10800c17 	ldw	r2,48(r2)
   13e10:	1005003a 	cmpeq	r2,r2,zero
   13e14:	103fe91e 	bne	r2,zero,13dbc <alt_up_ps2_read_data_byte_timeout+0x24>
   13e18:	e0bffd17 	ldw	r2,-12(fp)
   13e1c:	10c00c17 	ldw	r3,48(r2)
   13e20:	e0bffb17 	ldw	r2,-20(fp)
   13e24:	18bfe52e 	bgeu	r3,r2,13dbc <alt_up_ps2_read_data_byte_timeout+0x24>
   13e28:	00bfe304 	movi	r2,-116
   13e2c:	e0bfff15 	stw	r2,-4(fp)
   13e30:	e0bfff17 	ldw	r2,-4(fp)
   13e34:	e037883a 	mov	sp,fp
   13e38:	dfc00117 	ldw	ra,4(sp)
   13e3c:	df000017 	ldw	fp,0(sp)
   13e40:	dec00204 	addi	sp,sp,8
   13e44:	f800283a 	ret

00013e48 <alt_up_ps2_read_data_byte>:
   13e48:	defffa04 	addi	sp,sp,-24
   13e4c:	dfc00515 	stw	ra,20(sp)
   13e50:	df000415 	stw	fp,16(sp)
   13e54:	df000404 	addi	fp,sp,16
   13e58:	e13ffd15 	stw	r4,-12(fp)
   13e5c:	e17ffe15 	stw	r5,-8(fp)
   13e60:	e03ffc15 	stw	zero,-16(fp)
   13e64:	e0bffd17 	ldw	r2,-12(fp)
   13e68:	10800a17 	ldw	r2,40(r2)
   13e6c:	10800037 	ldwio	r2,0(r2)
   13e70:	e0bffc15 	stw	r2,-16(fp)
   13e74:	e13ffc17 	ldw	r4,-16(fp)
   13e78:	0013a6c0 	call	13a6c <read_data_valid>
   13e7c:	10803fcc 	andi	r2,r2,255
   13e80:	1005003a 	cmpeq	r2,r2,zero
   13e84:	1000071e 	bne	r2,zero,13ea4 <alt_up_ps2_read_data_byte+0x5c>
   13e88:	e13ffc17 	ldw	r4,-16(fp)
   13e8c:	0013aa00 	call	13aa0 <read_data_byte>
   13e90:	1007883a 	mov	r3,r2
   13e94:	e0bffe17 	ldw	r2,-8(fp)
   13e98:	10c00005 	stb	r3,0(r2)
   13e9c:	e03fff15 	stw	zero,-4(fp)
   13ea0:	00000206 	br	13eac <alt_up_ps2_read_data_byte+0x64>
   13ea4:	00bfffc4 	movi	r2,-1
   13ea8:	e0bfff15 	stw	r2,-4(fp)
   13eac:	e0bfff17 	ldw	r2,-4(fp)
   13eb0:	e037883a 	mov	sp,fp
   13eb4:	dfc00117 	ldw	ra,4(sp)
   13eb8:	df000017 	ldw	fp,0(sp)
   13ebc:	dec00204 	addi	sp,sp,8
   13ec0:	f800283a 	ret

00013ec4 <alt_up_ps2_clear_fifo>:
   13ec4:	defffb04 	addi	sp,sp,-20
   13ec8:	dfc00415 	stw	ra,16(sp)
   13ecc:	df000315 	stw	fp,12(sp)
   13ed0:	df000304 	addi	fp,sp,12
   13ed4:	e13fff15 	stw	r4,-4(fp)
   13ed8:	e03ffe0d 	sth	zero,-8(fp)
   13edc:	e03ffd15 	stw	zero,-12(fp)
   13ee0:	e0bfff17 	ldw	r2,-4(fp)
   13ee4:	10800a17 	ldw	r2,40(r2)
   13ee8:	10800037 	ldwio	r2,0(r2)
   13eec:	e0bffd15 	stw	r2,-12(fp)
   13ef0:	e13ffd17 	ldw	r4,-12(fp)
   13ef4:	0013a380 	call	13a38 <read_num_bytes_available>
   13ef8:	e0bffe0d 	sth	r2,-8(fp)
   13efc:	e0bffe0b 	ldhu	r2,-8(fp)
   13f00:	1004c03a 	cmpne	r2,r2,zero
   13f04:	103ff61e 	bne	r2,zero,13ee0 <alt_up_ps2_clear_fifo+0x1c>
   13f08:	e037883a 	mov	sp,fp
   13f0c:	dfc00117 	ldw	ra,4(sp)
   13f10:	df000017 	ldw	fp,0(sp)
   13f14:	dec00204 	addi	sp,sp,8
   13f18:	f800283a 	ret

00013f1c <alt_up_ps2_read_fd>:
   13f1c:	defff704 	addi	sp,sp,-36
   13f20:	dfc00815 	stw	ra,32(sp)
   13f24:	df000715 	stw	fp,28(sp)
   13f28:	df000704 	addi	fp,sp,28
   13f2c:	e13ffc15 	stw	r4,-16(fp)
   13f30:	e17ffd15 	stw	r5,-12(fp)
   13f34:	e1bffe15 	stw	r6,-8(fp)
   13f38:	e0bffc17 	ldw	r2,-16(fp)
   13f3c:	10800017 	ldw	r2,0(r2)
   13f40:	e0bffb15 	stw	r2,-20(fp)
   13f44:	e03ffa15 	stw	zero,-24(fp)
   13f48:	e03ff915 	stw	zero,-28(fp)
   13f4c:	e0fff917 	ldw	r3,-28(fp)
   13f50:	e0bffe17 	ldw	r2,-8(fp)
   13f54:	18bffd16 	blt	r3,r2,13f4c <alt_up_ps2_read_fd+0x30>
   13f58:	e17ffd17 	ldw	r5,-12(fp)
   13f5c:	e0bffd17 	ldw	r2,-12(fp)
   13f60:	10800044 	addi	r2,r2,1
   13f64:	e0bffd15 	stw	r2,-12(fp)
   13f68:	e13ffb17 	ldw	r4,-20(fp)
   13f6c:	0013d980 	call	13d98 <alt_up_ps2_read_data_byte_timeout>
   13f70:	e0bffa15 	stw	r2,-24(fp)
   13f74:	e0bffa17 	ldw	r2,-24(fp)
   13f78:	1005003a 	cmpeq	r2,r2,zero
   13f7c:	1000031e 	bne	r2,zero,13f8c <alt_up_ps2_read_fd+0x70>
   13f80:	e0bff917 	ldw	r2,-28(fp)
   13f84:	e0bfff15 	stw	r2,-4(fp)
   13f88:	00000506 	br	13fa0 <alt_up_ps2_read_fd+0x84>
   13f8c:	e0bff917 	ldw	r2,-28(fp)
   13f90:	10800044 	addi	r2,r2,1
   13f94:	e0bff915 	stw	r2,-28(fp)
   13f98:	e0bff917 	ldw	r2,-28(fp)
   13f9c:	e0bfff15 	stw	r2,-4(fp)
   13fa0:	e0bfff17 	ldw	r2,-4(fp)
   13fa4:	e037883a 	mov	sp,fp
   13fa8:	dfc00117 	ldw	ra,4(sp)
   13fac:	df000017 	ldw	fp,0(sp)
   13fb0:	dec00204 	addi	sp,sp,8
   13fb4:	f800283a 	ret

00013fb8 <alt_up_ps2_write_fd>:
   13fb8:	defff704 	addi	sp,sp,-36
   13fbc:	dfc00815 	stw	ra,32(sp)
   13fc0:	df000715 	stw	fp,28(sp)
   13fc4:	df000704 	addi	fp,sp,28
   13fc8:	e13ffc15 	stw	r4,-16(fp)
   13fcc:	e17ffd15 	stw	r5,-12(fp)
   13fd0:	e1bffe15 	stw	r6,-8(fp)
   13fd4:	e0bffc17 	ldw	r2,-16(fp)
   13fd8:	10800017 	ldw	r2,0(r2)
   13fdc:	e0bffb15 	stw	r2,-20(fp)
   13fe0:	e03ffa15 	stw	zero,-24(fp)
   13fe4:	e03ff915 	stw	zero,-28(fp)
   13fe8:	00001206 	br	14034 <alt_up_ps2_write_fd+0x7c>
   13fec:	e0bffd17 	ldw	r2,-12(fp)
   13ff0:	10800003 	ldbu	r2,0(r2)
   13ff4:	11403fcc 	andi	r5,r2,255
   13ff8:	e0bffd17 	ldw	r2,-12(fp)
   13ffc:	10800044 	addi	r2,r2,1
   14000:	e0bffd15 	stw	r2,-12(fp)
   14004:	e13ffb17 	ldw	r4,-20(fp)
   14008:	0013c440 	call	13c44 <alt_up_ps2_write_data_byte>
   1400c:	e0bffa15 	stw	r2,-24(fp)
   14010:	e0bffa17 	ldw	r2,-24(fp)
   14014:	1005003a 	cmpeq	r2,r2,zero
   14018:	1000031e 	bne	r2,zero,14028 <alt_up_ps2_write_fd+0x70>
   1401c:	e0bff917 	ldw	r2,-28(fp)
   14020:	e0bfff15 	stw	r2,-4(fp)
   14024:	00000806 	br	14048 <alt_up_ps2_write_fd+0x90>
   14028:	e0bff917 	ldw	r2,-28(fp)
   1402c:	10800044 	addi	r2,r2,1
   14030:	e0bff915 	stw	r2,-28(fp)
   14034:	e0fff917 	ldw	r3,-28(fp)
   14038:	e0bffe17 	ldw	r2,-8(fp)
   1403c:	18bfeb16 	blt	r3,r2,13fec <alt_up_ps2_write_fd+0x34>
   14040:	e0bff917 	ldw	r2,-28(fp)
   14044:	e0bfff15 	stw	r2,-4(fp)
   14048:	e0bfff17 	ldw	r2,-4(fp)
   1404c:	e037883a 	mov	sp,fp
   14050:	dfc00117 	ldw	ra,4(sp)
   14054:	df000017 	ldw	fp,0(sp)
   14058:	dec00204 	addi	sp,sp,8
   1405c:	f800283a 	ret

00014060 <alt_up_ps2_open_dev>:
   14060:	defffc04 	addi	sp,sp,-16
   14064:	dfc00315 	stw	ra,12(sp)
   14068:	df000215 	stw	fp,8(sp)
   1406c:	df000204 	addi	fp,sp,8
   14070:	e13fff15 	stw	r4,-4(fp)
   14074:	e13fff17 	ldw	r4,-4(fp)
   14078:	01420034 	movhi	r5,2048
   1407c:	29493404 	addi	r5,r5,9424
   14080:	001474c0 	call	1474c <alt_find_dev>
   14084:	e0bffe15 	stw	r2,-8(fp)
   14088:	e0bffe17 	ldw	r2,-8(fp)
   1408c:	e037883a 	mov	sp,fp
   14090:	dfc00117 	ldw	ra,4(sp)
   14094:	df000017 	ldw	fp,0(sp)
   14098:	dec00204 	addi	sp,sp,8
   1409c:	f800283a 	ret

000140a0 <alt_up_char_buffer_init>:
   140a0:	defffc04 	addi	sp,sp,-16
   140a4:	dfc00315 	stw	ra,12(sp)
   140a8:	df000215 	stw	fp,8(sp)
   140ac:	df000204 	addi	fp,sp,8
   140b0:	e13fff15 	stw	r4,-4(fp)
   140b4:	e0bfff17 	ldw	r2,-4(fp)
   140b8:	10800217 	ldw	r2,8(r2)
   140bc:	e0bffe15 	stw	r2,-8(fp)
   140c0:	00000c06 	br	140f4 <alt_up_char_buffer_init+0x54>
   140c4:	e13ffe17 	ldw	r4,-8(fp)
   140c8:	01420034 	movhi	r5,2048
   140cc:	29411504 	addi	r5,r5,1108
   140d0:	000c04c0 	call	c04c <strcmp>
   140d4:	1004c03a 	cmpne	r2,r2,zero
   140d8:	1000031e 	bne	r2,zero,140e8 <alt_up_char_buffer_init+0x48>
   140dc:	e0bffe17 	ldw	r2,-8(fp)
   140e0:	10000005 	stb	zero,0(r2)
   140e4:	00000a06 	br	14110 <alt_up_char_buffer_init+0x70>
   140e8:	e0bffe17 	ldw	r2,-8(fp)
   140ec:	10800044 	addi	r2,r2,1
   140f0:	e0bffe15 	stw	r2,-8(fp)
   140f4:	e0bffe17 	ldw	r2,-8(fp)
   140f8:	10800003 	ldbu	r2,0(r2)
   140fc:	10803fcc 	andi	r2,r2,255
   14100:	1080201c 	xori	r2,r2,128
   14104:	10bfe004 	addi	r2,r2,-128
   14108:	1004c03a 	cmpne	r2,r2,zero
   1410c:	103fed1e 	bne	r2,zero,140c4 <alt_up_char_buffer_init+0x24>
   14110:	e037883a 	mov	sp,fp
   14114:	dfc00117 	ldw	ra,4(sp)
   14118:	df000017 	ldw	fp,0(sp)
   1411c:	dec00204 	addi	sp,sp,8
   14120:	f800283a 	ret

00014124 <alt_up_char_buffer_open_dev>:
   14124:	defffc04 	addi	sp,sp,-16
   14128:	dfc00315 	stw	ra,12(sp)
   1412c:	df000215 	stw	fp,8(sp)
   14130:	df000204 	addi	fp,sp,8
   14134:	e13fff15 	stw	r4,-4(fp)
   14138:	e13fff17 	ldw	r4,-4(fp)
   1413c:	01420034 	movhi	r5,2048
   14140:	29493404 	addi	r5,r5,9424
   14144:	001474c0 	call	1474c <alt_find_dev>
   14148:	e0bffe15 	stw	r2,-8(fp)
   1414c:	e0bffe17 	ldw	r2,-8(fp)
   14150:	e037883a 	mov	sp,fp
   14154:	dfc00117 	ldw	ra,4(sp)
   14158:	df000017 	ldw	fp,0(sp)
   1415c:	dec00204 	addi	sp,sp,8
   14160:	f800283a 	ret

00014164 <alt_up_char_buffer_draw>:
   14164:	defff904 	addi	sp,sp,-28
   14168:	df000615 	stw	fp,24(sp)
   1416c:	df000604 	addi	fp,sp,24
   14170:	e13ffb15 	stw	r4,-20(fp)
   14174:	e1bffd15 	stw	r6,-12(fp)
   14178:	e1fffe15 	stw	r7,-8(fp)
   1417c:	e17ffc05 	stb	r5,-16(fp)
   14180:	e0bffb17 	ldw	r2,-20(fp)
   14184:	10c00c17 	ldw	r3,48(r2)
   14188:	e0bffd17 	ldw	r2,-12(fp)
   1418c:	10c0042e 	bgeu	r2,r3,141a0 <alt_up_char_buffer_draw+0x3c>
   14190:	e0bffb17 	ldw	r2,-20(fp)
   14194:	10c00d17 	ldw	r3,52(r2)
   14198:	e0bffe17 	ldw	r2,-8(fp)
   1419c:	10c00336 	bltu	r2,r3,141ac <alt_up_char_buffer_draw+0x48>
   141a0:	00bfffc4 	movi	r2,-1
   141a4:	e0bfff15 	stw	r2,-4(fp)
   141a8:	00001d06 	br	14220 <alt_up_char_buffer_draw+0xbc>
   141ac:	e03ffa15 	stw	zero,-24(fp)
   141b0:	e0bffb17 	ldw	r2,-20(fp)
   141b4:	10c00f17 	ldw	r3,60(r2)
   141b8:	e0bffd17 	ldw	r2,-12(fp)
   141bc:	1886703a 	and	r3,r3,r2
   141c0:	e0bffb17 	ldw	r2,-20(fp)
   141c4:	10800e17 	ldw	r2,56(r2)
   141c8:	1886983a 	sll	r3,r3,r2
   141cc:	e0bffa17 	ldw	r2,-24(fp)
   141d0:	10c4b03a 	or	r2,r2,r3
   141d4:	e0bffa15 	stw	r2,-24(fp)
   141d8:	e0bffb17 	ldw	r2,-20(fp)
   141dc:	10c01117 	ldw	r3,68(r2)
   141e0:	e0bffe17 	ldw	r2,-8(fp)
   141e4:	1886703a 	and	r3,r3,r2
   141e8:	e0bffb17 	ldw	r2,-20(fp)
   141ec:	10801017 	ldw	r2,64(r2)
   141f0:	1886983a 	sll	r3,r3,r2
   141f4:	e0bffa17 	ldw	r2,-24(fp)
   141f8:	10c4b03a 	or	r2,r2,r3
   141fc:	e0bffa15 	stw	r2,-24(fp)
   14200:	e0bffb17 	ldw	r2,-20(fp)
   14204:	10800b17 	ldw	r2,44(r2)
   14208:	1007883a 	mov	r3,r2
   1420c:	e0bffa17 	ldw	r2,-24(fp)
   14210:	1885883a 	add	r2,r3,r2
   14214:	e0fffc03 	ldbu	r3,-16(fp)
   14218:	10c00025 	stbio	r3,0(r2)
   1421c:	e03fff15 	stw	zero,-4(fp)
   14220:	e0bfff17 	ldw	r2,-4(fp)
   14224:	e037883a 	mov	sp,fp
   14228:	df000017 	ldw	fp,0(sp)
   1422c:	dec00104 	addi	sp,sp,4
   14230:	f800283a 	ret

00014234 <alt_up_char_buffer_string>:
   14234:	defff904 	addi	sp,sp,-28
   14238:	df000615 	stw	fp,24(sp)
   1423c:	df000604 	addi	fp,sp,24
   14240:	e13ffb15 	stw	r4,-20(fp)
   14244:	e17ffc15 	stw	r5,-16(fp)
   14248:	e1bffd15 	stw	r6,-12(fp)
   1424c:	e1fffe15 	stw	r7,-8(fp)
   14250:	e0bffb17 	ldw	r2,-20(fp)
   14254:	10c00c17 	ldw	r3,48(r2)
   14258:	e0bffd17 	ldw	r2,-12(fp)
   1425c:	10c0042e 	bgeu	r2,r3,14270 <alt_up_char_buffer_string+0x3c>
   14260:	e0bffb17 	ldw	r2,-20(fp)
   14264:	10c00d17 	ldw	r3,52(r2)
   14268:	e0bffe17 	ldw	r2,-8(fp)
   1426c:	10c00336 	bltu	r2,r3,1427c <alt_up_char_buffer_string+0x48>
   14270:	00bfffc4 	movi	r2,-1
   14274:	e0bfff15 	stw	r2,-4(fp)
   14278:	00002e06 	br	14334 <alt_up_char_buffer_string+0x100>
   1427c:	e03ffa15 	stw	zero,-24(fp)
   14280:	e0bffb17 	ldw	r2,-20(fp)
   14284:	10801017 	ldw	r2,64(r2)
   14288:	1007883a 	mov	r3,r2
   1428c:	e0bffe17 	ldw	r2,-8(fp)
   14290:	10c6983a 	sll	r3,r2,r3
   14294:	e0bffd17 	ldw	r2,-12(fp)
   14298:	1885883a 	add	r2,r3,r2
   1429c:	e0bffa15 	stw	r2,-24(fp)
   142a0:	00001c06 	br	14314 <alt_up_char_buffer_string+0xe0>
   142a4:	e0bffb17 	ldw	r2,-20(fp)
   142a8:	10800b17 	ldw	r2,44(r2)
   142ac:	1007883a 	mov	r3,r2
   142b0:	e0bffa17 	ldw	r2,-24(fp)
   142b4:	1889883a 	add	r4,r3,r2
   142b8:	e0bffc17 	ldw	r2,-16(fp)
   142bc:	10800003 	ldbu	r2,0(r2)
   142c0:	10c03fcc 	andi	r3,r2,255
   142c4:	18c0201c 	xori	r3,r3,128
   142c8:	18ffe004 	addi	r3,r3,-128
   142cc:	2005883a 	mov	r2,r4
   142d0:	10c00025 	stbio	r3,0(r2)
   142d4:	e0bffc17 	ldw	r2,-16(fp)
   142d8:	10800044 	addi	r2,r2,1
   142dc:	e0bffc15 	stw	r2,-16(fp)
   142e0:	e0bffd17 	ldw	r2,-12(fp)
   142e4:	10800044 	addi	r2,r2,1
   142e8:	e0bffd15 	stw	r2,-12(fp)
   142ec:	e0bffb17 	ldw	r2,-20(fp)
   142f0:	10c00c17 	ldw	r3,48(r2)
   142f4:	e0bffd17 	ldw	r2,-12(fp)
   142f8:	10c00336 	bltu	r2,r3,14308 <alt_up_char_buffer_string+0xd4>
   142fc:	00bfffc4 	movi	r2,-1
   14300:	e0bfff15 	stw	r2,-4(fp)
   14304:	00000b06 	br	14334 <alt_up_char_buffer_string+0x100>
   14308:	e0bffa17 	ldw	r2,-24(fp)
   1430c:	10800044 	addi	r2,r2,1
   14310:	e0bffa15 	stw	r2,-24(fp)
   14314:	e0bffc17 	ldw	r2,-16(fp)
   14318:	10800003 	ldbu	r2,0(r2)
   1431c:	10803fcc 	andi	r2,r2,255
   14320:	1080201c 	xori	r2,r2,128
   14324:	10bfe004 	addi	r2,r2,-128
   14328:	1004c03a 	cmpne	r2,r2,zero
   1432c:	103fdd1e 	bne	r2,zero,142a4 <alt_up_char_buffer_string+0x70>
   14330:	e03fff15 	stw	zero,-4(fp)
   14334:	e0bfff17 	ldw	r2,-4(fp)
   14338:	e037883a 	mov	sp,fp
   1433c:	df000017 	ldw	fp,0(sp)
   14340:	dec00104 	addi	sp,sp,4
   14344:	f800283a 	ret

00014348 <alt_up_char_buffer_clear>:
   14348:	defffe04 	addi	sp,sp,-8
   1434c:	df000115 	stw	fp,4(sp)
   14350:	df000104 	addi	fp,sp,4
   14354:	e13fff15 	stw	r4,-4(fp)
   14358:	e0bfff17 	ldw	r2,-4(fp)
   1435c:	10800a17 	ldw	r2,40(r2)
   14360:	10800084 	addi	r2,r2,2
   14364:	1007883a 	mov	r3,r2
   14368:	00800044 	movi	r2,1
   1436c:	18800025 	stbio	r2,0(r3)
   14370:	e0bfff17 	ldw	r2,-4(fp)
   14374:	10800a17 	ldw	r2,40(r2)
   14378:	10800084 	addi	r2,r2,2
   1437c:	10800023 	ldbuio	r2,0(r2)
   14380:	1080004c 	andi	r2,r2,1
   14384:	10803fcc 	andi	r2,r2,255
   14388:	1004c03a 	cmpne	r2,r2,zero
   1438c:	103ff81e 	bne	r2,zero,14370 <alt_up_char_buffer_clear+0x28>
   14390:	0005883a 	mov	r2,zero
   14394:	e037883a 	mov	sp,fp
   14398:	df000017 	ldw	fp,0(sp)
   1439c:	dec00104 	addi	sp,sp,4
   143a0:	f800283a 	ret

000143a4 <alt_alarm_start>:
   143a4:	defff404 	addi	sp,sp,-48
   143a8:	df000b15 	stw	fp,44(sp)
   143ac:	df000b04 	addi	fp,sp,44
   143b0:	e13ffb15 	stw	r4,-20(fp)
   143b4:	e17ffc15 	stw	r5,-16(fp)
   143b8:	e1bffd15 	stw	r6,-12(fp)
   143bc:	e1fffe15 	stw	r7,-8(fp)
   143c0:	e03ff915 	stw	zero,-28(fp)
   143c4:	00820034 	movhi	r2,2048
   143c8:	10896604 	addi	r2,r2,9624
   143cc:	10800017 	ldw	r2,0(r2)
   143d0:	1005003a 	cmpeq	r2,r2,zero
   143d4:	1000411e 	bne	r2,zero,144dc <alt_alarm_start+0x138>
   143d8:	e0bffb17 	ldw	r2,-20(fp)
   143dc:	1005003a 	cmpeq	r2,r2,zero
   143e0:	10003b1e 	bne	r2,zero,144d0 <alt_alarm_start+0x12c>
   143e4:	e0fffb17 	ldw	r3,-20(fp)
   143e8:	e0bffd17 	ldw	r2,-12(fp)
   143ec:	18800315 	stw	r2,12(r3)
   143f0:	e0fffb17 	ldw	r3,-20(fp)
   143f4:	e0bffe17 	ldw	r2,-8(fp)
   143f8:	18800515 	stw	r2,20(r3)
   143fc:	0005303a 	rdctl	r2,status
   14400:	e0bff815 	stw	r2,-32(fp)
   14404:	e0fff817 	ldw	r3,-32(fp)
   14408:	00bfff84 	movi	r2,-2
   1440c:	1884703a 	and	r2,r3,r2
   14410:	1001703a 	wrctl	status,r2
   14414:	e0bff817 	ldw	r2,-32(fp)
   14418:	e0bffa15 	stw	r2,-24(fp)
   1441c:	00820034 	movhi	r2,2048
   14420:	10896704 	addi	r2,r2,9628
   14424:	10800017 	ldw	r2,0(r2)
   14428:	e0bff915 	stw	r2,-28(fp)
   1442c:	e0fffc17 	ldw	r3,-16(fp)
   14430:	e0bff917 	ldw	r2,-28(fp)
   14434:	1885883a 	add	r2,r3,r2
   14438:	10c00044 	addi	r3,r2,1
   1443c:	e0bffb17 	ldw	r2,-20(fp)
   14440:	10c00215 	stw	r3,8(r2)
   14444:	e0bffb17 	ldw	r2,-20(fp)
   14448:	10c00217 	ldw	r3,8(r2)
   1444c:	e0bff917 	ldw	r2,-28(fp)
   14450:	1880042e 	bgeu	r3,r2,14464 <alt_alarm_start+0xc0>
   14454:	e0fffb17 	ldw	r3,-20(fp)
   14458:	00800044 	movi	r2,1
   1445c:	18800405 	stb	r2,16(r3)
   14460:	00000206 	br	1446c <alt_alarm_start+0xc8>
   14464:	e0bffb17 	ldw	r2,-20(fp)
   14468:	10000405 	stb	zero,16(r2)
   1446c:	e0fffb17 	ldw	r3,-20(fp)
   14470:	00820034 	movhi	r2,2048
   14474:	10893d04 	addi	r2,r2,9460
   14478:	e0bff615 	stw	r2,-40(fp)
   1447c:	e0fff715 	stw	r3,-36(fp)
   14480:	e0fff717 	ldw	r3,-36(fp)
   14484:	e0bff617 	ldw	r2,-40(fp)
   14488:	18800115 	stw	r2,4(r3)
   1448c:	e0bff617 	ldw	r2,-40(fp)
   14490:	10c00017 	ldw	r3,0(r2)
   14494:	e0bff717 	ldw	r2,-36(fp)
   14498:	10c00015 	stw	r3,0(r2)
   1449c:	e0bff617 	ldw	r2,-40(fp)
   144a0:	10c00017 	ldw	r3,0(r2)
   144a4:	e0bff717 	ldw	r2,-36(fp)
   144a8:	18800115 	stw	r2,4(r3)
   144ac:	e0fff617 	ldw	r3,-40(fp)
   144b0:	e0bff717 	ldw	r2,-36(fp)
   144b4:	18800015 	stw	r2,0(r3)
   144b8:	e0bffa17 	ldw	r2,-24(fp)
   144bc:	e0bff515 	stw	r2,-44(fp)
   144c0:	e0bff517 	ldw	r2,-44(fp)
   144c4:	1001703a 	wrctl	status,r2
   144c8:	e03fff15 	stw	zero,-4(fp)
   144cc:	00000506 	br	144e4 <alt_alarm_start+0x140>
   144d0:	00bffa84 	movi	r2,-22
   144d4:	e0bfff15 	stw	r2,-4(fp)
   144d8:	00000206 	br	144e4 <alt_alarm_start+0x140>
   144dc:	00bfde84 	movi	r2,-134
   144e0:	e0bfff15 	stw	r2,-4(fp)
   144e4:	e0bfff17 	ldw	r2,-4(fp)
   144e8:	e037883a 	mov	sp,fp
   144ec:	df000017 	ldw	fp,0(sp)
   144f0:	dec00104 	addi	sp,sp,4
   144f4:	f800283a 	ret

000144f8 <alt_dcache_flush>:
   144f8:	defffb04 	addi	sp,sp,-20
   144fc:	df000415 	stw	fp,16(sp)
   14500:	df000404 	addi	fp,sp,16
   14504:	e13ffe15 	stw	r4,-8(fp)
   14508:	e17fff15 	stw	r5,-4(fp)
   1450c:	e0fffe17 	ldw	r3,-8(fp)
   14510:	e0bfff17 	ldw	r2,-4(fp)
   14514:	1885883a 	add	r2,r3,r2
   14518:	e0bffc15 	stw	r2,-16(fp)
   1451c:	e0bffe17 	ldw	r2,-8(fp)
   14520:	e0bffd15 	stw	r2,-12(fp)
   14524:	00000506 	br	1453c <alt_dcache_flush+0x44>
   14528:	e0bffd17 	ldw	r2,-12(fp)
   1452c:	1000001b 	flushda	0(r2)
   14530:	e0bffd17 	ldw	r2,-12(fp)
   14534:	10800804 	addi	r2,r2,32
   14538:	e0bffd15 	stw	r2,-12(fp)
   1453c:	e0fffd17 	ldw	r3,-12(fp)
   14540:	e0bffc17 	ldw	r2,-16(fp)
   14544:	18bff836 	bltu	r3,r2,14528 <alt_dcache_flush+0x30>
   14548:	e0bffe17 	ldw	r2,-8(fp)
   1454c:	108007cc 	andi	r2,r2,31
   14550:	1005003a 	cmpeq	r2,r2,zero
   14554:	1000021e 	bne	r2,zero,14560 <alt_dcache_flush+0x68>
   14558:	e0bffd17 	ldw	r2,-12(fp)
   1455c:	1000001b 	flushda	0(r2)
   14560:	e037883a 	mov	sp,fp
   14564:	df000017 	ldw	fp,0(sp)
   14568:	dec00104 	addi	sp,sp,4
   1456c:	f800283a 	ret

00014570 <alt_dev_llist_insert>:
   14570:	defff904 	addi	sp,sp,-28
   14574:	dfc00615 	stw	ra,24(sp)
   14578:	df000515 	stw	fp,20(sp)
   1457c:	df000504 	addi	fp,sp,20
   14580:	e13ffd15 	stw	r4,-12(fp)
   14584:	e17ffe15 	stw	r5,-8(fp)
   14588:	e0bffd17 	ldw	r2,-12(fp)
   1458c:	1005003a 	cmpeq	r2,r2,zero
   14590:	1000041e 	bne	r2,zero,145a4 <alt_dev_llist_insert+0x34>
   14594:	e0bffd17 	ldw	r2,-12(fp)
   14598:	10800217 	ldw	r2,8(r2)
   1459c:	1004c03a 	cmpne	r2,r2,zero
   145a0:	1000071e 	bne	r2,zero,145c0 <alt_dev_llist_insert+0x50>
   145a4:	00146240 	call	14624 <alt_get_errno>
   145a8:	1007883a 	mov	r3,r2
   145ac:	00800584 	movi	r2,22
   145b0:	18800015 	stw	r2,0(r3)
   145b4:	00bffa84 	movi	r2,-22
   145b8:	e0bfff15 	stw	r2,-4(fp)
   145bc:	00001306 	br	1460c <alt_dev_llist_insert+0x9c>
   145c0:	e0fffd17 	ldw	r3,-12(fp)
   145c4:	e0bffe17 	ldw	r2,-8(fp)
   145c8:	e0bffb15 	stw	r2,-20(fp)
   145cc:	e0fffc15 	stw	r3,-16(fp)
   145d0:	e0fffc17 	ldw	r3,-16(fp)
   145d4:	e0bffb17 	ldw	r2,-20(fp)
   145d8:	18800115 	stw	r2,4(r3)
   145dc:	e0bffb17 	ldw	r2,-20(fp)
   145e0:	10c00017 	ldw	r3,0(r2)
   145e4:	e0bffc17 	ldw	r2,-16(fp)
   145e8:	10c00015 	stw	r3,0(r2)
   145ec:	e0bffb17 	ldw	r2,-20(fp)
   145f0:	10c00017 	ldw	r3,0(r2)
   145f4:	e0bffc17 	ldw	r2,-16(fp)
   145f8:	18800115 	stw	r2,4(r3)
   145fc:	e0fffb17 	ldw	r3,-20(fp)
   14600:	e0bffc17 	ldw	r2,-16(fp)
   14604:	18800015 	stw	r2,0(r3)
   14608:	e03fff15 	stw	zero,-4(fp)
   1460c:	e0bfff17 	ldw	r2,-4(fp)
   14610:	e037883a 	mov	sp,fp
   14614:	dfc00117 	ldw	ra,4(sp)
   14618:	df000017 	ldw	fp,0(sp)
   1461c:	dec00204 	addi	sp,sp,8
   14620:	f800283a 	ret

00014624 <alt_get_errno>:
   14624:	defffd04 	addi	sp,sp,-12
   14628:	dfc00215 	stw	ra,8(sp)
   1462c:	df000115 	stw	fp,4(sp)
   14630:	df000104 	addi	fp,sp,4
   14634:	00820034 	movhi	r2,2048
   14638:	10893704 	addi	r2,r2,9436
   1463c:	10800017 	ldw	r2,0(r2)
   14640:	1005003a 	cmpeq	r2,r2,zero
   14644:	1000061e 	bne	r2,zero,14660 <alt_get_errno+0x3c>
   14648:	00820034 	movhi	r2,2048
   1464c:	10893704 	addi	r2,r2,9436
   14650:	10800017 	ldw	r2,0(r2)
   14654:	103ee83a 	callr	r2
   14658:	e0bfff15 	stw	r2,-4(fp)
   1465c:	00000306 	br	1466c <alt_get_errno+0x48>
   14660:	00820034 	movhi	r2,2048
   14664:	10896104 	addi	r2,r2,9604
   14668:	e0bfff15 	stw	r2,-4(fp)
   1466c:	e0bfff17 	ldw	r2,-4(fp)
   14670:	e037883a 	mov	sp,fp
   14674:	dfc00117 	ldw	ra,4(sp)
   14678:	df000017 	ldw	fp,0(sp)
   1467c:	dec00204 	addi	sp,sp,8
   14680:	f800283a 	ret

00014684 <_do_ctors>:
   14684:	defffd04 	addi	sp,sp,-12
   14688:	dfc00215 	stw	ra,8(sp)
   1468c:	df000115 	stw	fp,4(sp)
   14690:	df000104 	addi	fp,sp,4
   14694:	00bfff04 	movi	r2,-4
   14698:	00c00074 	movhi	r3,1
   1469c:	18d78004 	addi	r3,r3,24064
   146a0:	1885883a 	add	r2,r3,r2
   146a4:	e0bfff15 	stw	r2,-4(fp)
   146a8:	00000606 	br	146c4 <_do_ctors+0x40>
   146ac:	e0bfff17 	ldw	r2,-4(fp)
   146b0:	10800017 	ldw	r2,0(r2)
   146b4:	103ee83a 	callr	r2
   146b8:	e0bfff17 	ldw	r2,-4(fp)
   146bc:	10bfff04 	addi	r2,r2,-4
   146c0:	e0bfff15 	stw	r2,-4(fp)
   146c4:	e0ffff17 	ldw	r3,-4(fp)
   146c8:	00800074 	movhi	r2,1
   146cc:	10977f04 	addi	r2,r2,24060
   146d0:	18bff62e 	bgeu	r3,r2,146ac <_do_ctors+0x28>
   146d4:	e037883a 	mov	sp,fp
   146d8:	dfc00117 	ldw	ra,4(sp)
   146dc:	df000017 	ldw	fp,0(sp)
   146e0:	dec00204 	addi	sp,sp,8
   146e4:	f800283a 	ret

000146e8 <_do_dtors>:
   146e8:	defffd04 	addi	sp,sp,-12
   146ec:	dfc00215 	stw	ra,8(sp)
   146f0:	df000115 	stw	fp,4(sp)
   146f4:	df000104 	addi	fp,sp,4
   146f8:	00bfff04 	movi	r2,-4
   146fc:	00c00074 	movhi	r3,1
   14700:	18d78004 	addi	r3,r3,24064
   14704:	1885883a 	add	r2,r3,r2
   14708:	e0bfff15 	stw	r2,-4(fp)
   1470c:	00000606 	br	14728 <_do_dtors+0x40>
   14710:	e0bfff17 	ldw	r2,-4(fp)
   14714:	10800017 	ldw	r2,0(r2)
   14718:	103ee83a 	callr	r2
   1471c:	e0bfff17 	ldw	r2,-4(fp)
   14720:	10bfff04 	addi	r2,r2,-4
   14724:	e0bfff15 	stw	r2,-4(fp)
   14728:	e0ffff17 	ldw	r3,-4(fp)
   1472c:	00800074 	movhi	r2,1
   14730:	10978004 	addi	r2,r2,24064
   14734:	18bff62e 	bgeu	r3,r2,14710 <_do_dtors+0x28>
   14738:	e037883a 	mov	sp,fp
   1473c:	dfc00117 	ldw	ra,4(sp)
   14740:	df000017 	ldw	fp,0(sp)
   14744:	dec00204 	addi	sp,sp,8
   14748:	f800283a 	ret

0001474c <alt_find_dev>:
   1474c:	defff904 	addi	sp,sp,-28
   14750:	dfc00615 	stw	ra,24(sp)
   14754:	df000515 	stw	fp,20(sp)
   14758:	df000504 	addi	fp,sp,20
   1475c:	e13ffd15 	stw	r4,-12(fp)
   14760:	e17ffe15 	stw	r5,-8(fp)
   14764:	e0bffe17 	ldw	r2,-8(fp)
   14768:	10800017 	ldw	r2,0(r2)
   1476c:	e0bffc15 	stw	r2,-16(fp)
   14770:	e13ffd17 	ldw	r4,-12(fp)
   14774:	00054ec0 	call	54ec <strlen>
   14778:	10800044 	addi	r2,r2,1
   1477c:	e0bffb15 	stw	r2,-20(fp)
   14780:	00000d06 	br	147b8 <alt_find_dev+0x6c>
   14784:	e0bffc17 	ldw	r2,-16(fp)
   14788:	11000217 	ldw	r4,8(r2)
   1478c:	e1bffb17 	ldw	r6,-20(fp)
   14790:	e17ffd17 	ldw	r5,-12(fp)
   14794:	00052140 	call	5214 <memcmp>
   14798:	1004c03a 	cmpne	r2,r2,zero
   1479c:	1000031e 	bne	r2,zero,147ac <alt_find_dev+0x60>
   147a0:	e0bffc17 	ldw	r2,-16(fp)
   147a4:	e0bfff15 	stw	r2,-4(fp)
   147a8:	00000706 	br	147c8 <alt_find_dev+0x7c>
   147ac:	e0bffc17 	ldw	r2,-16(fp)
   147b0:	10800017 	ldw	r2,0(r2)
   147b4:	e0bffc15 	stw	r2,-16(fp)
   147b8:	e0fffe17 	ldw	r3,-8(fp)
   147bc:	e0bffc17 	ldw	r2,-16(fp)
   147c0:	10fff01e 	bne	r2,r3,14784 <alt_find_dev+0x38>
   147c4:	e03fff15 	stw	zero,-4(fp)
   147c8:	e0bfff17 	ldw	r2,-4(fp)
   147cc:	e037883a 	mov	sp,fp
   147d0:	dfc00117 	ldw	ra,4(sp)
   147d4:	df000017 	ldw	fp,0(sp)
   147d8:	dec00204 	addi	sp,sp,8
   147dc:	f800283a 	ret

000147e0 <alt_flash_open_dev>:
   147e0:	defffb04 	addi	sp,sp,-20
   147e4:	dfc00415 	stw	ra,16(sp)
   147e8:	df000315 	stw	fp,12(sp)
   147ec:	df000304 	addi	fp,sp,12
   147f0:	e13ffe15 	stw	r4,-8(fp)
   147f4:	e13ffe17 	ldw	r4,-8(fp)
   147f8:	d1601304 	addi	r5,gp,-32692
   147fc:	001474c0 	call	1474c <alt_find_dev>
   14800:	e0bffd15 	stw	r2,-12(fp)
   14804:	e0bffd17 	ldw	r2,-12(fp)
   14808:	1005003a 	cmpeq	r2,r2,zero
   1480c:	10000b1e 	bne	r2,zero,1483c <alt_flash_open_dev+0x5c>
   14810:	e0bffd17 	ldw	r2,-12(fp)
   14814:	10800317 	ldw	r2,12(r2)
   14818:	1005003a 	cmpeq	r2,r2,zero
   1481c:	1000071e 	bne	r2,zero,1483c <alt_flash_open_dev+0x5c>
   14820:	e0bffd17 	ldw	r2,-12(fp)
   14824:	10800317 	ldw	r2,12(r2)
   14828:	e13ffd17 	ldw	r4,-12(fp)
   1482c:	e17ffe17 	ldw	r5,-8(fp)
   14830:	103ee83a 	callr	r2
   14834:	e0bfff15 	stw	r2,-4(fp)
   14838:	00000206 	br	14844 <alt_flash_open_dev+0x64>
   1483c:	e0bffd17 	ldw	r2,-12(fp)
   14840:	e0bfff15 	stw	r2,-4(fp)
   14844:	e0bfff17 	ldw	r2,-4(fp)
   14848:	e037883a 	mov	sp,fp
   1484c:	dfc00117 	ldw	ra,4(sp)
   14850:	df000017 	ldw	fp,0(sp)
   14854:	dec00204 	addi	sp,sp,8
   14858:	f800283a 	ret

0001485c <alt_flash_close_dev>:
   1485c:	defffd04 	addi	sp,sp,-12
   14860:	dfc00215 	stw	ra,8(sp)
   14864:	df000115 	stw	fp,4(sp)
   14868:	df000104 	addi	fp,sp,4
   1486c:	e13fff15 	stw	r4,-4(fp)
   14870:	e0bfff17 	ldw	r2,-4(fp)
   14874:	1005003a 	cmpeq	r2,r2,zero
   14878:	1000081e 	bne	r2,zero,1489c <alt_flash_close_dev+0x40>
   1487c:	e0bfff17 	ldw	r2,-4(fp)
   14880:	10800417 	ldw	r2,16(r2)
   14884:	1005003a 	cmpeq	r2,r2,zero
   14888:	1000041e 	bne	r2,zero,1489c <alt_flash_close_dev+0x40>
   1488c:	e0bfff17 	ldw	r2,-4(fp)
   14890:	10800417 	ldw	r2,16(r2)
   14894:	e13fff17 	ldw	r4,-4(fp)
   14898:	103ee83a 	callr	r2
   1489c:	e037883a 	mov	sp,fp
   148a0:	dfc00117 	ldw	ra,4(sp)
   148a4:	df000017 	ldw	fp,0(sp)
   148a8:	dec00204 	addi	sp,sp,8
   148ac:	f800283a 	ret

000148b0 <alt_open_fd>:
   148b0:	defff904 	addi	sp,sp,-28
   148b4:	dfc00615 	stw	ra,24(sp)
   148b8:	df000515 	stw	fp,20(sp)
   148bc:	df000504 	addi	fp,sp,20
   148c0:	e13ffc15 	stw	r4,-16(fp)
   148c4:	e17ffd15 	stw	r5,-12(fp)
   148c8:	e1bffe15 	stw	r6,-8(fp)
   148cc:	e1ffff15 	stw	r7,-4(fp)
   148d0:	e13ffd17 	ldw	r4,-12(fp)
   148d4:	e17ffe17 	ldw	r5,-8(fp)
   148d8:	e1bfff17 	ldw	r6,-4(fp)
   148dc:	0014ac80 	call	14ac8 <open>
   148e0:	e0bffb15 	stw	r2,-20(fp)
   148e4:	e0bffb17 	ldw	r2,-20(fp)
   148e8:	1004803a 	cmplt	r2,r2,zero
   148ec:	10001c1e 	bne	r2,zero,14960 <alt_open_fd+0xb0>
   148f0:	e0bffb17 	ldw	r2,-20(fp)
   148f4:	00c20034 	movhi	r3,2048
   148f8:	18c3cc04 	addi	r3,r3,3888
   148fc:	10800324 	muli	r2,r2,12
   14900:	10c5883a 	add	r2,r2,r3
   14904:	10c00017 	ldw	r3,0(r2)
   14908:	e0bffc17 	ldw	r2,-16(fp)
   1490c:	10c00015 	stw	r3,0(r2)
   14910:	e0bffb17 	ldw	r2,-20(fp)
   14914:	00c20034 	movhi	r3,2048
   14918:	18c3cc04 	addi	r3,r3,3888
   1491c:	10800324 	muli	r2,r2,12
   14920:	10c5883a 	add	r2,r2,r3
   14924:	10800104 	addi	r2,r2,4
   14928:	10c00017 	ldw	r3,0(r2)
   1492c:	e0bffc17 	ldw	r2,-16(fp)
   14930:	10c00115 	stw	r3,4(r2)
   14934:	e0bffb17 	ldw	r2,-20(fp)
   14938:	00c20034 	movhi	r3,2048
   1493c:	18c3cc04 	addi	r3,r3,3888
   14940:	10800324 	muli	r2,r2,12
   14944:	10c5883a 	add	r2,r2,r3
   14948:	10800204 	addi	r2,r2,8
   1494c:	10c00017 	ldw	r3,0(r2)
   14950:	e0bffc17 	ldw	r2,-16(fp)
   14954:	10c00215 	stw	r3,8(r2)
   14958:	e13ffb17 	ldw	r4,-20(fp)
   1495c:	000f1240 	call	f124 <alt_release_fd>
   14960:	e037883a 	mov	sp,fp
   14964:	dfc00117 	ldw	ra,4(sp)
   14968:	df000017 	ldw	fp,0(sp)
   1496c:	dec00204 	addi	sp,sp,8
   14970:	f800283a 	ret

00014974 <alt_io_redirect>:
   14974:	defffb04 	addi	sp,sp,-20
   14978:	dfc00415 	stw	ra,16(sp)
   1497c:	df000315 	stw	fp,12(sp)
   14980:	df000304 	addi	fp,sp,12
   14984:	e13ffd15 	stw	r4,-12(fp)
   14988:	e17ffe15 	stw	r5,-8(fp)
   1498c:	e1bfff15 	stw	r6,-4(fp)
   14990:	01020034 	movhi	r4,2048
   14994:	2103cf04 	addi	r4,r4,3900
   14998:	e17ffd17 	ldw	r5,-12(fp)
   1499c:	01800044 	movi	r6,1
   149a0:	01c07fc4 	movi	r7,511
   149a4:	00148b00 	call	148b0 <alt_open_fd>
   149a8:	01020034 	movhi	r4,2048
   149ac:	2103cc04 	addi	r4,r4,3888
   149b0:	e17ffe17 	ldw	r5,-8(fp)
   149b4:	000d883a 	mov	r6,zero
   149b8:	01c07fc4 	movi	r7,511
   149bc:	00148b00 	call	148b0 <alt_open_fd>
   149c0:	01020034 	movhi	r4,2048
   149c4:	2103d204 	addi	r4,r4,3912
   149c8:	e17fff17 	ldw	r5,-4(fp)
   149cc:	01800044 	movi	r6,1
   149d0:	01c07fc4 	movi	r7,511
   149d4:	00148b00 	call	148b0 <alt_open_fd>
   149d8:	e037883a 	mov	sp,fp
   149dc:	dfc00117 	ldw	ra,4(sp)
   149e0:	df000017 	ldw	fp,0(sp)
   149e4:	dec00204 	addi	sp,sp,8
   149e8:	f800283a 	ret

000149ec <alt_file_locked>:
   149ec:	defffc04 	addi	sp,sp,-16
   149f0:	df000315 	stw	fp,12(sp)
   149f4:	df000304 	addi	fp,sp,12
   149f8:	e13ffe15 	stw	r4,-8(fp)
   149fc:	e0bffe17 	ldw	r2,-8(fp)
   14a00:	10800217 	ldw	r2,8(r2)
   14a04:	10d00034 	orhi	r3,r2,16384
   14a08:	e0bffe17 	ldw	r2,-8(fp)
   14a0c:	10c00215 	stw	r3,8(r2)
   14a10:	e03ffd15 	stw	zero,-12(fp)
   14a14:	00002006 	br	14a98 <alt_file_locked+0xac>
   14a18:	e0bffd17 	ldw	r2,-12(fp)
   14a1c:	00c20034 	movhi	r3,2048
   14a20:	18c3cc04 	addi	r3,r3,3888
   14a24:	10800324 	muli	r2,r2,12
   14a28:	10c5883a 	add	r2,r2,r3
   14a2c:	10c00017 	ldw	r3,0(r2)
   14a30:	e0bffe17 	ldw	r2,-8(fp)
   14a34:	10800017 	ldw	r2,0(r2)
   14a38:	1880141e 	bne	r3,r2,14a8c <alt_file_locked+0xa0>
   14a3c:	e0bffd17 	ldw	r2,-12(fp)
   14a40:	00c20034 	movhi	r3,2048
   14a44:	18c3cc04 	addi	r3,r3,3888
   14a48:	10800324 	muli	r2,r2,12
   14a4c:	10c5883a 	add	r2,r2,r3
   14a50:	10800204 	addi	r2,r2,8
   14a54:	10800017 	ldw	r2,0(r2)
   14a58:	1004403a 	cmpge	r2,r2,zero
   14a5c:	10000b1e 	bne	r2,zero,14a8c <alt_file_locked+0xa0>
   14a60:	e0bffd17 	ldw	r2,-12(fp)
   14a64:	10800324 	muli	r2,r2,12
   14a68:	1007883a 	mov	r3,r2
   14a6c:	00820034 	movhi	r2,2048
   14a70:	1083cc04 	addi	r2,r2,3888
   14a74:	1887883a 	add	r3,r3,r2
   14a78:	e0bffe17 	ldw	r2,-8(fp)
   14a7c:	18800326 	beq	r3,r2,14a8c <alt_file_locked+0xa0>
   14a80:	00bffcc4 	movi	r2,-13
   14a84:	e0bfff15 	stw	r2,-4(fp)
   14a88:	00000a06 	br	14ab4 <alt_file_locked+0xc8>
   14a8c:	e0bffd17 	ldw	r2,-12(fp)
   14a90:	10800044 	addi	r2,r2,1
   14a94:	e0bffd15 	stw	r2,-12(fp)
   14a98:	00820034 	movhi	r2,2048
   14a9c:	10893604 	addi	r2,r2,9432
   14aa0:	10800017 	ldw	r2,0(r2)
   14aa4:	1007883a 	mov	r3,r2
   14aa8:	e0bffd17 	ldw	r2,-12(fp)
   14aac:	18bfda2e 	bgeu	r3,r2,14a18 <alt_file_locked+0x2c>
   14ab0:	e03fff15 	stw	zero,-4(fp)
   14ab4:	e0bfff17 	ldw	r2,-4(fp)
   14ab8:	e037883a 	mov	sp,fp
   14abc:	df000017 	ldw	fp,0(sp)
   14ac0:	dec00104 	addi	sp,sp,4
   14ac4:	f800283a 	ret

00014ac8 <open>:
   14ac8:	defff404 	addi	sp,sp,-48
   14acc:	dfc00b15 	stw	ra,44(sp)
   14ad0:	df000a15 	stw	fp,40(sp)
   14ad4:	df000a04 	addi	fp,sp,40
   14ad8:	e13ffb15 	stw	r4,-20(fp)
   14adc:	e17ffc15 	stw	r5,-16(fp)
   14ae0:	e1bffd15 	stw	r6,-12(fp)
   14ae4:	00bfffc4 	movi	r2,-1
   14ae8:	e0bff815 	stw	r2,-32(fp)
   14aec:	00bffb44 	movi	r2,-19
   14af0:	e0bff715 	stw	r2,-36(fp)
   14af4:	e03ff615 	stw	zero,-40(fp)
   14af8:	e13ffb17 	ldw	r4,-20(fp)
   14afc:	01420034 	movhi	r5,2048
   14b00:	29493404 	addi	r5,r5,9424
   14b04:	001474c0 	call	1474c <alt_find_dev>
   14b08:	e0bffa15 	stw	r2,-24(fp)
   14b0c:	e0bffa17 	ldw	r2,-24(fp)
   14b10:	1004c03a 	cmpne	r2,r2,zero
   14b14:	1000051e 	bne	r2,zero,14b2c <open+0x64>
   14b18:	e13ffb17 	ldw	r4,-20(fp)
   14b1c:	00158900 	call	15890 <alt_find_file>
   14b20:	e0bffa15 	stw	r2,-24(fp)
   14b24:	00800044 	movi	r2,1
   14b28:	e0bff615 	stw	r2,-40(fp)
   14b2c:	e0bffa17 	ldw	r2,-24(fp)
   14b30:	1005003a 	cmpeq	r2,r2,zero
   14b34:	1000301e 	bne	r2,zero,14bf8 <open+0x130>
   14b38:	e13ffa17 	ldw	r4,-24(fp)
   14b3c:	00159b00 	call	159b0 <alt_get_fd>
   14b40:	e0bff815 	stw	r2,-32(fp)
   14b44:	e0bff817 	ldw	r2,-32(fp)
   14b48:	1004403a 	cmpge	r2,r2,zero
   14b4c:	1000031e 	bne	r2,zero,14b5c <open+0x94>
   14b50:	e0bff817 	ldw	r2,-32(fp)
   14b54:	e0bff715 	stw	r2,-36(fp)
   14b58:	00002906 	br	14c00 <open+0x138>
   14b5c:	e0bff817 	ldw	r2,-32(fp)
   14b60:	10800324 	muli	r2,r2,12
   14b64:	1007883a 	mov	r3,r2
   14b68:	00820034 	movhi	r2,2048
   14b6c:	1083cc04 	addi	r2,r2,3888
   14b70:	1885883a 	add	r2,r3,r2
   14b74:	e0bff915 	stw	r2,-28(fp)
   14b78:	e0fffc17 	ldw	r3,-16(fp)
   14b7c:	00900034 	movhi	r2,16384
   14b80:	10bfffc4 	addi	r2,r2,-1
   14b84:	1886703a 	and	r3,r3,r2
   14b88:	e0bff917 	ldw	r2,-28(fp)
   14b8c:	10c00215 	stw	r3,8(r2)
   14b90:	e0bff617 	ldw	r2,-40(fp)
   14b94:	1004c03a 	cmpne	r2,r2,zero
   14b98:	1000061e 	bne	r2,zero,14bb4 <open+0xec>
   14b9c:	e13ff917 	ldw	r4,-28(fp)
   14ba0:	00149ec0 	call	149ec <alt_file_locked>
   14ba4:	e0bff715 	stw	r2,-36(fp)
   14ba8:	e0bff717 	ldw	r2,-36(fp)
   14bac:	1004803a 	cmplt	r2,r2,zero
   14bb0:	1000131e 	bne	r2,zero,14c00 <open+0x138>
   14bb4:	e0bffa17 	ldw	r2,-24(fp)
   14bb8:	10800317 	ldw	r2,12(r2)
   14bbc:	1005003a 	cmpeq	r2,r2,zero
   14bc0:	1000091e 	bne	r2,zero,14be8 <open+0x120>
   14bc4:	e0bffa17 	ldw	r2,-24(fp)
   14bc8:	10800317 	ldw	r2,12(r2)
   14bcc:	e13ff917 	ldw	r4,-28(fp)
   14bd0:	e17ffb17 	ldw	r5,-20(fp)
   14bd4:	e1bffc17 	ldw	r6,-16(fp)
   14bd8:	e1fffd17 	ldw	r7,-12(fp)
   14bdc:	103ee83a 	callr	r2
   14be0:	e0bfff15 	stw	r2,-4(fp)
   14be4:	00000106 	br	14bec <open+0x124>
   14be8:	e03fff15 	stw	zero,-4(fp)
   14bec:	e0bfff17 	ldw	r2,-4(fp)
   14bf0:	e0bff715 	stw	r2,-36(fp)
   14bf4:	00000206 	br	14c00 <open+0x138>
   14bf8:	00bffb44 	movi	r2,-19
   14bfc:	e0bff715 	stw	r2,-36(fp)
   14c00:	e0bff717 	ldw	r2,-36(fp)
   14c04:	1004403a 	cmpge	r2,r2,zero
   14c08:	1000091e 	bne	r2,zero,14c30 <open+0x168>
   14c0c:	e13ff817 	ldw	r4,-32(fp)
   14c10:	000f1240 	call	f124 <alt_release_fd>
   14c14:	0014c500 	call	14c50 <alt_get_errno>
   14c18:	e0fff717 	ldw	r3,-36(fp)
   14c1c:	00c7c83a 	sub	r3,zero,r3
   14c20:	10c00015 	stw	r3,0(r2)
   14c24:	00bfffc4 	movi	r2,-1
   14c28:	e0bffe15 	stw	r2,-8(fp)
   14c2c:	00000206 	br	14c38 <open+0x170>
   14c30:	e0bff817 	ldw	r2,-32(fp)
   14c34:	e0bffe15 	stw	r2,-8(fp)
   14c38:	e0bffe17 	ldw	r2,-8(fp)
   14c3c:	e037883a 	mov	sp,fp
   14c40:	dfc00117 	ldw	ra,4(sp)
   14c44:	df000017 	ldw	fp,0(sp)
   14c48:	dec00204 	addi	sp,sp,8
   14c4c:	f800283a 	ret

00014c50 <alt_get_errno>:
   14c50:	defffd04 	addi	sp,sp,-12
   14c54:	dfc00215 	stw	ra,8(sp)
   14c58:	df000115 	stw	fp,4(sp)
   14c5c:	df000104 	addi	fp,sp,4
   14c60:	00820034 	movhi	r2,2048
   14c64:	10893704 	addi	r2,r2,9436
   14c68:	10800017 	ldw	r2,0(r2)
   14c6c:	1005003a 	cmpeq	r2,r2,zero
   14c70:	1000061e 	bne	r2,zero,14c8c <alt_get_errno+0x3c>
   14c74:	00820034 	movhi	r2,2048
   14c78:	10893704 	addi	r2,r2,9436
   14c7c:	10800017 	ldw	r2,0(r2)
   14c80:	103ee83a 	callr	r2
   14c84:	e0bfff15 	stw	r2,-4(fp)
   14c88:	00000306 	br	14c98 <alt_get_errno+0x48>
   14c8c:	00820034 	movhi	r2,2048
   14c90:	10896104 	addi	r2,r2,9604
   14c94:	e0bfff15 	stw	r2,-4(fp)
   14c98:	e0bfff17 	ldw	r2,-4(fp)
   14c9c:	e037883a 	mov	sp,fp
   14ca0:	dfc00117 	ldw	ra,4(sp)
   14ca4:	df000017 	ldw	fp,0(sp)
   14ca8:	dec00204 	addi	sp,sp,8
   14cac:	f800283a 	ret

00014cb0 <alt_alarm_stop>:
   14cb0:	defffa04 	addi	sp,sp,-24
   14cb4:	df000515 	stw	fp,20(sp)
   14cb8:	df000504 	addi	fp,sp,20
   14cbc:	e13fff15 	stw	r4,-4(fp)
   14cc0:	0005303a 	rdctl	r2,status
   14cc4:	e0bffd15 	stw	r2,-12(fp)
   14cc8:	e0fffd17 	ldw	r3,-12(fp)
   14ccc:	00bfff84 	movi	r2,-2
   14cd0:	1884703a 	and	r2,r3,r2
   14cd4:	1001703a 	wrctl	status,r2
   14cd8:	e0bffd17 	ldw	r2,-12(fp)
   14cdc:	e0bffe15 	stw	r2,-8(fp)
   14ce0:	e0bfff17 	ldw	r2,-4(fp)
   14ce4:	e0bffc15 	stw	r2,-16(fp)
   14ce8:	e0bffc17 	ldw	r2,-16(fp)
   14cec:	10c00017 	ldw	r3,0(r2)
   14cf0:	e0bffc17 	ldw	r2,-16(fp)
   14cf4:	10800117 	ldw	r2,4(r2)
   14cf8:	18800115 	stw	r2,4(r3)
   14cfc:	e0bffc17 	ldw	r2,-16(fp)
   14d00:	10c00117 	ldw	r3,4(r2)
   14d04:	e0bffc17 	ldw	r2,-16(fp)
   14d08:	10800017 	ldw	r2,0(r2)
   14d0c:	18800015 	stw	r2,0(r3)
   14d10:	e0fffc17 	ldw	r3,-16(fp)
   14d14:	e0bffc17 	ldw	r2,-16(fp)
   14d18:	18800115 	stw	r2,4(r3)
   14d1c:	e0fffc17 	ldw	r3,-16(fp)
   14d20:	e0bffc17 	ldw	r2,-16(fp)
   14d24:	18800015 	stw	r2,0(r3)
   14d28:	e0bffe17 	ldw	r2,-8(fp)
   14d2c:	e0bffb15 	stw	r2,-20(fp)
   14d30:	e0bffb17 	ldw	r2,-20(fp)
   14d34:	1001703a 	wrctl	status,r2
   14d38:	e037883a 	mov	sp,fp
   14d3c:	df000017 	ldw	fp,0(sp)
   14d40:	dec00104 	addi	sp,sp,4
   14d44:	f800283a 	ret

00014d48 <alt_tick>:
   14d48:	defffb04 	addi	sp,sp,-20
   14d4c:	dfc00415 	stw	ra,16(sp)
   14d50:	df000315 	stw	fp,12(sp)
   14d54:	df000304 	addi	fp,sp,12
   14d58:	d0a01517 	ldw	r2,-32684(gp)
   14d5c:	e0bffe15 	stw	r2,-8(fp)
   14d60:	d0a03f17 	ldw	r2,-32516(gp)
   14d64:	10800044 	addi	r2,r2,1
   14d68:	d0a03f15 	stw	r2,-32516(gp)
   14d6c:	00003106 	br	14e34 <alt_tick+0xec>
   14d70:	e0bffe17 	ldw	r2,-8(fp)
   14d74:	10800017 	ldw	r2,0(r2)
   14d78:	e0bfff15 	stw	r2,-4(fp)
   14d7c:	e0bffe17 	ldw	r2,-8(fp)
   14d80:	10800403 	ldbu	r2,16(r2)
   14d84:	10803fcc 	andi	r2,r2,255
   14d88:	1005003a 	cmpeq	r2,r2,zero
   14d8c:	1000051e 	bne	r2,zero,14da4 <alt_tick+0x5c>
   14d90:	d0a03f17 	ldw	r2,-32516(gp)
   14d94:	1004c03a 	cmpne	r2,r2,zero
   14d98:	1000021e 	bne	r2,zero,14da4 <alt_tick+0x5c>
   14d9c:	e0bffe17 	ldw	r2,-8(fp)
   14da0:	10000405 	stb	zero,16(r2)
   14da4:	e0bffe17 	ldw	r2,-8(fp)
   14da8:	10c00217 	ldw	r3,8(r2)
   14dac:	d0a03f17 	ldw	r2,-32516(gp)
   14db0:	10c01e36 	bltu	r2,r3,14e2c <alt_tick+0xe4>
   14db4:	e0bffe17 	ldw	r2,-8(fp)
   14db8:	10800403 	ldbu	r2,16(r2)
   14dbc:	10803fcc 	andi	r2,r2,255
   14dc0:	1004c03a 	cmpne	r2,r2,zero
   14dc4:	1000191e 	bne	r2,zero,14e2c <alt_tick+0xe4>
   14dc8:	e0bffe17 	ldw	r2,-8(fp)
   14dcc:	10c00317 	ldw	r3,12(r2)
   14dd0:	e0bffe17 	ldw	r2,-8(fp)
   14dd4:	11000517 	ldw	r4,20(r2)
   14dd8:	183ee83a 	callr	r3
   14ddc:	e0bffd15 	stw	r2,-12(fp)
   14de0:	e0bffd17 	ldw	r2,-12(fp)
   14de4:	1004c03a 	cmpne	r2,r2,zero
   14de8:	1000031e 	bne	r2,zero,14df8 <alt_tick+0xb0>
   14dec:	e13ffe17 	ldw	r4,-8(fp)
   14df0:	0014cb00 	call	14cb0 <alt_alarm_stop>
   14df4:	00000d06 	br	14e2c <alt_tick+0xe4>
   14df8:	e0bffe17 	ldw	r2,-8(fp)
   14dfc:	10c00217 	ldw	r3,8(r2)
   14e00:	e0bffd17 	ldw	r2,-12(fp)
   14e04:	1887883a 	add	r3,r3,r2
   14e08:	e0bffe17 	ldw	r2,-8(fp)
   14e0c:	10c00215 	stw	r3,8(r2)
   14e10:	e0bffe17 	ldw	r2,-8(fp)
   14e14:	10c00217 	ldw	r3,8(r2)
   14e18:	d0a03f17 	ldw	r2,-32516(gp)
   14e1c:	1880032e 	bgeu	r3,r2,14e2c <alt_tick+0xe4>
   14e20:	e0fffe17 	ldw	r3,-8(fp)
   14e24:	00800044 	movi	r2,1
   14e28:	18800405 	stb	r2,16(r3)
   14e2c:	e0bfff17 	ldw	r2,-4(fp)
   14e30:	e0bffe15 	stw	r2,-8(fp)
   14e34:	d0e01504 	addi	r3,gp,-32684
   14e38:	e0bffe17 	ldw	r2,-8(fp)
   14e3c:	10ffcc1e 	bne	r2,r3,14d70 <alt_tick+0x28>
   14e40:	e037883a 	mov	sp,fp
   14e44:	dfc00117 	ldw	ra,4(sp)
   14e48:	df000017 	ldw	fp,0(sp)
   14e4c:	dec00204 	addi	sp,sp,8
   14e50:	f800283a 	ret

00014e54 <usleep>:
   14e54:	defffd04 	addi	sp,sp,-12
   14e58:	dfc00215 	stw	ra,8(sp)
   14e5c:	df000115 	stw	fp,4(sp)
   14e60:	df000104 	addi	fp,sp,4
   14e64:	e13fff15 	stw	r4,-4(fp)
   14e68:	e13fff17 	ldw	r4,-4(fp)
   14e6c:	00157640 	call	15764 <alt_busy_sleep>
   14e70:	e037883a 	mov	sp,fp
   14e74:	dfc00117 	ldw	ra,4(sp)
   14e78:	df000017 	ldw	fp,0(sp)
   14e7c:	dec00204 	addi	sp,sp,8
   14e80:	f800283a 	ret

00014e84 <altera_nios2_qsys_irq_init>:
   14e84:	deffff04 	addi	sp,sp,-4
   14e88:	df000015 	stw	fp,0(sp)
   14e8c:	d839883a 	mov	fp,sp
   14e90:	000170fa 	wrctl	ienable,zero
   14e94:	e037883a 	mov	sp,fp
   14e98:	df000017 	ldw	fp,0(sp)
   14e9c:	dec00104 	addi	sp,sp,4
   14ea0:	f800283a 	ret

00014ea4 <alt_program_amd>:
   14ea4:	defff704 	addi	sp,sp,-36
   14ea8:	dfc00815 	stw	ra,32(sp)
   14eac:	df000715 	stw	fp,28(sp)
   14eb0:	df000704 	addi	fp,sp,28
   14eb4:	e13ffc15 	stw	r4,-16(fp)
   14eb8:	e17ffd15 	stw	r5,-12(fp)
   14ebc:	e1bffe15 	stw	r6,-8(fp)
   14ec0:	e1ffff15 	stw	r7,-4(fp)
   14ec4:	e03ffb15 	stw	zero,-20(fp)
   14ec8:	e0bffc17 	ldw	r2,-16(fp)
   14ecc:	e0bffa15 	stw	r2,-24(fp)
   14ed0:	e1bfff17 	ldw	r6,-4(fp)
   14ed4:	00800074 	movhi	r2,1
   14ed8:	10949204 	addi	r2,r2,21064
   14edc:	d8800015 	stw	r2,0(sp)
   14ee0:	e13ffa17 	ldw	r4,-24(fp)
   14ee4:	e17ffe17 	ldw	r5,-8(fp)
   14ee8:	e1c00217 	ldw	r7,8(fp)
   14eec:	000fd880 	call	fd88 <alt_flash_program_block>
   14ef0:	e0bffb15 	stw	r2,-20(fp)
   14ef4:	e0bffb17 	ldw	r2,-20(fp)
   14ef8:	e037883a 	mov	sp,fp
   14efc:	dfc00117 	ldw	ra,4(sp)
   14f00:	df000017 	ldw	fp,0(sp)
   14f04:	dec00204 	addi	sp,sp,8
   14f08:	f800283a 	ret

00014f0c <alt_erase_block_amd>:
   14f0c:	defff804 	addi	sp,sp,-32
   14f10:	dfc00715 	stw	ra,28(sp)
   14f14:	df000615 	stw	fp,24(sp)
   14f18:	df000604 	addi	fp,sp,24
   14f1c:	e13ffe15 	stw	r4,-8(fp)
   14f20:	e17fff15 	stw	r5,-4(fp)
   14f24:	e03ffc15 	stw	zero,-16(fp)
   14f28:	e0bffe17 	ldw	r2,-8(fp)
   14f2c:	e0bffa15 	stw	r2,-24(fp)
   14f30:	e0bffa17 	ldw	r2,-24(fp)
   14f34:	10c03317 	ldw	r3,204(r2)
   14f38:	e0bffa17 	ldw	r2,-24(fp)
   14f3c:	11000a17 	ldw	r4,40(r2)
   14f40:	01415544 	movi	r5,1365
   14f44:	01802a84 	movi	r6,170
   14f48:	183ee83a 	callr	r3
   14f4c:	e0bffa17 	ldw	r2,-24(fp)
   14f50:	10c03317 	ldw	r3,204(r2)
   14f54:	e0bffa17 	ldw	r2,-24(fp)
   14f58:	11000a17 	ldw	r4,40(r2)
   14f5c:	0140aa84 	movi	r5,682
   14f60:	01801544 	movi	r6,85
   14f64:	183ee83a 	callr	r3
   14f68:	e0bffa17 	ldw	r2,-24(fp)
   14f6c:	10c03317 	ldw	r3,204(r2)
   14f70:	e0bffa17 	ldw	r2,-24(fp)
   14f74:	11000a17 	ldw	r4,40(r2)
   14f78:	01415544 	movi	r5,1365
   14f7c:	01802004 	movi	r6,128
   14f80:	183ee83a 	callr	r3
   14f84:	e0bffa17 	ldw	r2,-24(fp)
   14f88:	10c03317 	ldw	r3,204(r2)
   14f8c:	e0bffa17 	ldw	r2,-24(fp)
   14f90:	11000a17 	ldw	r4,40(r2)
   14f94:	01415544 	movi	r5,1365
   14f98:	01802a84 	movi	r6,170
   14f9c:	183ee83a 	callr	r3
   14fa0:	e0bffa17 	ldw	r2,-24(fp)
   14fa4:	10c03317 	ldw	r3,204(r2)
   14fa8:	e0bffa17 	ldw	r2,-24(fp)
   14fac:	11000a17 	ldw	r4,40(r2)
   14fb0:	0140aa84 	movi	r5,682
   14fb4:	01801544 	movi	r6,85
   14fb8:	183ee83a 	callr	r3
   14fbc:	e0bffa17 	ldw	r2,-24(fp)
   14fc0:	11803517 	ldw	r6,212(r2)
   14fc4:	e0bffa17 	ldw	r2,-24(fp)
   14fc8:	10800a17 	ldw	r2,40(r2)
   14fcc:	1007883a 	mov	r3,r2
   14fd0:	e0bfff17 	ldw	r2,-4(fp)
   14fd4:	1889883a 	add	r4,r3,r2
   14fd8:	01400c04 	movi	r5,48
   14fdc:	303ee83a 	callr	r6
   14fe0:	0109c404 	movi	r4,10000
   14fe4:	0014e540 	call	14e54 <usleep>
   14fe8:	00800c84 	movi	r2,50
   14fec:	e0bffb15 	stw	r2,-20(fp)
   14ff0:	e0bffa17 	ldw	r2,-24(fp)
   14ff4:	10800a17 	ldw	r2,40(r2)
   14ff8:	1007883a 	mov	r3,r2
   14ffc:	e0bfff17 	ldw	r2,-4(fp)
   15000:	1885883a 	add	r2,r3,r2
   15004:	10800023 	ldbuio	r2,0(r2)
   15008:	e0bffd05 	stb	r2,-12(fp)
   1500c:	0100fa04 	movi	r4,1000
   15010:	0014e540 	call	14e54 <usleep>
   15014:	e0bffb17 	ldw	r2,-20(fp)
   15018:	10bfffc4 	addi	r2,r2,-1
   1501c:	e0bffb15 	stw	r2,-20(fp)
   15020:	e0bffd03 	ldbu	r2,-12(fp)
   15024:	10803fcc 	andi	r2,r2,255
   15028:	1080020c 	andi	r2,r2,8
   1502c:	1004c03a 	cmpne	r2,r2,zero
   15030:	1000031e 	bne	r2,zero,15040 <alt_erase_block_amd+0x134>
   15034:	e0bffb17 	ldw	r2,-20(fp)
   15038:	10800048 	cmpgei	r2,r2,1
   1503c:	103fec1e 	bne	r2,zero,14ff0 <alt_erase_block_amd+0xe4>
   15040:	e0bffa17 	ldw	r2,-24(fp)
   15044:	10803117 	ldw	r2,196(r2)
   15048:	e0bffb15 	stw	r2,-20(fp)
   1504c:	00001706 	br	150ac <alt_erase_block_amd+0x1a0>
   15050:	e0bffa17 	ldw	r2,-24(fp)
   15054:	10800a17 	ldw	r2,40(r2)
   15058:	1007883a 	mov	r3,r2
   1505c:	e0bfff17 	ldw	r2,-4(fp)
   15060:	1885883a 	add	r2,r3,r2
   15064:	10800023 	ldbuio	r2,0(r2)
   15068:	e0bffd05 	stb	r2,-12(fp)
   1506c:	e0bffd03 	ldbu	r2,-12(fp)
   15070:	10803fcc 	andi	r2,r2,255
   15074:	1080201c 	xori	r2,r2,128
   15078:	10bfe004 	addi	r2,r2,-128
   1507c:	1004803a 	cmplt	r2,r2,zero
   15080:	10000d1e 	bne	r2,zero,150b8 <alt_erase_block_amd+0x1ac>
   15084:	e0bffd03 	ldbu	r2,-12(fp)
   15088:	10803fcc 	andi	r2,r2,255
   1508c:	1080080c 	andi	r2,r2,32
   15090:	1004c03a 	cmpne	r2,r2,zero
   15094:	1000081e 	bne	r2,zero,150b8 <alt_erase_block_amd+0x1ac>
   15098:	0100fa04 	movi	r4,1000
   1509c:	0014e540 	call	14e54 <usleep>
   150a0:	e0bffb17 	ldw	r2,-20(fp)
   150a4:	10bf0604 	addi	r2,r2,-1000
   150a8:	e0bffb15 	stw	r2,-20(fp)
   150ac:	e0bffb17 	ldw	r2,-20(fp)
   150b0:	10800048 	cmpgei	r2,r2,1
   150b4:	103fe61e 	bne	r2,zero,15050 <alt_erase_block_amd+0x144>
   150b8:	e0bffb17 	ldw	r2,-20(fp)
   150bc:	10800048 	cmpgei	r2,r2,1
   150c0:	1000031e 	bne	r2,zero,150d0 <alt_erase_block_amd+0x1c4>
   150c4:	00bfe304 	movi	r2,-116
   150c8:	e0bffc15 	stw	r2,-16(fp)
   150cc:	00000f06 	br	1510c <alt_erase_block_amd+0x200>
   150d0:	e0bffa17 	ldw	r2,-24(fp)
   150d4:	10800a17 	ldw	r2,40(r2)
   150d8:	1007883a 	mov	r3,r2
   150dc:	e0bfff17 	ldw	r2,-4(fp)
   150e0:	1885883a 	add	r2,r3,r2
   150e4:	10800023 	ldbuio	r2,0(r2)
   150e8:	e0bffd05 	stb	r2,-12(fp)
   150ec:	e0bffd03 	ldbu	r2,-12(fp)
   150f0:	10803fcc 	andi	r2,r2,255
   150f4:	1080201c 	xori	r2,r2,128
   150f8:	10bfe004 	addi	r2,r2,-128
   150fc:	1004803a 	cmplt	r2,r2,zero
   15100:	1000021e 	bne	r2,zero,1510c <alt_erase_block_amd+0x200>
   15104:	00bffec4 	movi	r2,-5
   15108:	e0bffc15 	stw	r2,-16(fp)
   1510c:	e0bffc17 	ldw	r2,-16(fp)
   15110:	e037883a 	mov	sp,fp
   15114:	dfc00117 	ldw	ra,4(sp)
   15118:	df000017 	ldw	fp,0(sp)
   1511c:	dec00204 	addi	sp,sp,8
   15120:	f800283a 	ret

00015124 <alt_wait_for_command_to_complete_amd>:
   15124:	defff804 	addi	sp,sp,-32
   15128:	dfc00715 	stw	ra,28(sp)
   1512c:	df000615 	stw	fp,24(sp)
   15130:	df000604 	addi	fp,sp,24
   15134:	e13ffd15 	stw	r4,-12(fp)
   15138:	e17ffe15 	stw	r5,-8(fp)
   1513c:	e1bfff05 	stb	r6,-4(fp)
   15140:	e0bffd17 	ldw	r2,-12(fp)
   15144:	10803017 	ldw	r2,192(r2)
   15148:	10801924 	muli	r2,r2,100
   1514c:	e0bffb15 	stw	r2,-20(fp)
   15150:	e03ffa15 	stw	zero,-24(fp)
   15154:	e0bffd17 	ldw	r2,-12(fp)
   15158:	10800a17 	ldw	r2,40(r2)
   1515c:	1007883a 	mov	r3,r2
   15160:	e0bffe17 	ldw	r2,-8(fp)
   15164:	1885883a 	add	r2,r3,r2
   15168:	10800023 	ldbuio	r2,0(r2)
   1516c:	e0bffc05 	stb	r2,-16(fp)
   15170:	00001706 	br	151d0 <alt_wait_for_command_to_complete_amd+0xac>
   15174:	e0bffc03 	ldbu	r2,-16(fp)
   15178:	10803fcc 	andi	r2,r2,255
   1517c:	10c0200c 	andi	r3,r2,128
   15180:	e0bfff03 	ldbu	r2,-4(fp)
   15184:	1080200c 	andi	r2,r2,128
   15188:	18801426 	beq	r3,r2,151dc <alt_wait_for_command_to_complete_amd+0xb8>
   1518c:	e0bffc03 	ldbu	r2,-16(fp)
   15190:	10803fcc 	andi	r2,r2,255
   15194:	1080080c 	andi	r2,r2,32
   15198:	1004c03a 	cmpne	r2,r2,zero
   1519c:	10000f1e 	bne	r2,zero,151dc <alt_wait_for_command_to_complete_amd+0xb8>
   151a0:	01000044 	movi	r4,1
   151a4:	0014e540 	call	14e54 <usleep>
   151a8:	e0bffb17 	ldw	r2,-20(fp)
   151ac:	10bfffc4 	addi	r2,r2,-1
   151b0:	e0bffb15 	stw	r2,-20(fp)
   151b4:	e0bffd17 	ldw	r2,-12(fp)
   151b8:	10800a17 	ldw	r2,40(r2)
   151bc:	1007883a 	mov	r3,r2
   151c0:	e0bffe17 	ldw	r2,-8(fp)
   151c4:	1885883a 	add	r2,r3,r2
   151c8:	10800023 	ldbuio	r2,0(r2)
   151cc:	e0bffc05 	stb	r2,-16(fp)
   151d0:	e0bffb17 	ldw	r2,-20(fp)
   151d4:	10800048 	cmpgei	r2,r2,1
   151d8:	103fe61e 	bne	r2,zero,15174 <alt_wait_for_command_to_complete_amd+0x50>
   151dc:	e0bffb17 	ldw	r2,-20(fp)
   151e0:	1004c03a 	cmpne	r2,r2,zero
   151e4:	1000031e 	bne	r2,zero,151f4 <alt_wait_for_command_to_complete_amd+0xd0>
   151e8:	00bfe304 	movi	r2,-116
   151ec:	e0bffa15 	stw	r2,-24(fp)
   151f0:	00000f06 	br	15230 <alt_wait_for_command_to_complete_amd+0x10c>
   151f4:	e0bffd17 	ldw	r2,-12(fp)
   151f8:	10800a17 	ldw	r2,40(r2)
   151fc:	1007883a 	mov	r3,r2
   15200:	e0bffe17 	ldw	r2,-8(fp)
   15204:	1885883a 	add	r2,r3,r2
   15208:	10800023 	ldbuio	r2,0(r2)
   1520c:	e0bffc05 	stb	r2,-16(fp)
   15210:	e0bffc03 	ldbu	r2,-16(fp)
   15214:	10803fcc 	andi	r2,r2,255
   15218:	10c0200c 	andi	r3,r2,128
   1521c:	e0bfff03 	ldbu	r2,-4(fp)
   15220:	1080200c 	andi	r2,r2,128
   15224:	18800226 	beq	r3,r2,15230 <alt_wait_for_command_to_complete_amd+0x10c>
   15228:	00bffec4 	movi	r2,-5
   1522c:	e0bffa15 	stw	r2,-24(fp)
   15230:	e0bffa17 	ldw	r2,-24(fp)
   15234:	e037883a 	mov	sp,fp
   15238:	dfc00117 	ldw	ra,4(sp)
   1523c:	df000017 	ldw	fp,0(sp)
   15240:	dec00204 	addi	sp,sp,8
   15244:	f800283a 	ret

00015248 <alt_write_word_amd>:
   15248:	defff904 	addi	sp,sp,-28
   1524c:	dfc00615 	stw	ra,24(sp)
   15250:	df000515 	stw	fp,20(sp)
   15254:	df000504 	addi	fp,sp,20
   15258:	e13ffd15 	stw	r4,-12(fp)
   1525c:	e17ffe15 	stw	r5,-8(fp)
   15260:	e1bfff15 	stw	r6,-4(fp)
   15264:	e03ffc15 	stw	zero,-16(fp)
   15268:	e0bffd17 	ldw	r2,-12(fp)
   1526c:	10c03317 	ldw	r3,204(r2)
   15270:	e0bffd17 	ldw	r2,-12(fp)
   15274:	11000a17 	ldw	r4,40(r2)
   15278:	01415544 	movi	r5,1365
   1527c:	01802a84 	movi	r6,170
   15280:	183ee83a 	callr	r3
   15284:	e0bffd17 	ldw	r2,-12(fp)
   15288:	10c03317 	ldw	r3,204(r2)
   1528c:	e0bffd17 	ldw	r2,-12(fp)
   15290:	11000a17 	ldw	r4,40(r2)
   15294:	0140aa84 	movi	r5,682
   15298:	01801544 	movi	r6,85
   1529c:	183ee83a 	callr	r3
   152a0:	e0bffd17 	ldw	r2,-12(fp)
   152a4:	10c03317 	ldw	r3,204(r2)
   152a8:	e0bffd17 	ldw	r2,-12(fp)
   152ac:	11000a17 	ldw	r4,40(r2)
   152b0:	01415544 	movi	r5,1365
   152b4:	01802804 	movi	r6,160
   152b8:	183ee83a 	callr	r3
   152bc:	e0bfff17 	ldw	r2,-4(fp)
   152c0:	10800003 	ldbu	r2,0(r2)
   152c4:	e0bffb05 	stb	r2,-20(fp)
   152c8:	e13ffd17 	ldw	r4,-12(fp)
   152cc:	e17ffe17 	ldw	r5,-8(fp)
   152d0:	e1bfff17 	ldw	r6,-4(fp)
   152d4:	000fc240 	call	fc24 <alt_write_value_to_flash>
   152d8:	e1bffb03 	ldbu	r6,-20(fp)
   152dc:	e13ffd17 	ldw	r4,-12(fp)
   152e0:	e17ffe17 	ldw	r5,-8(fp)
   152e4:	00151240 	call	15124 <alt_wait_for_command_to_complete_amd>
   152e8:	e0bffc15 	stw	r2,-16(fp)
   152ec:	e0bffc17 	ldw	r2,-16(fp)
   152f0:	e037883a 	mov	sp,fp
   152f4:	dfc00117 	ldw	ra,4(sp)
   152f8:	df000017 	ldw	fp,0(sp)
   152fc:	dec00204 	addi	sp,sp,8
   15300:	f800283a 	ret

00015304 <alt_program_intel>:
   15304:	defff704 	addi	sp,sp,-36
   15308:	dfc00815 	stw	ra,32(sp)
   1530c:	df000715 	stw	fp,28(sp)
   15310:	df000704 	addi	fp,sp,28
   15314:	e13ffc15 	stw	r4,-16(fp)
   15318:	e17ffd15 	stw	r5,-12(fp)
   1531c:	e1bffe15 	stw	r6,-8(fp)
   15320:	e1ffff15 	stw	r7,-4(fp)
   15324:	e03ffb15 	stw	zero,-20(fp)
   15328:	e0bffc17 	ldw	r2,-16(fp)
   1532c:	e0bffa15 	stw	r2,-24(fp)
   15330:	e13ffa17 	ldw	r4,-24(fp)
   15334:	e17ffd17 	ldw	r5,-12(fp)
   15338:	00154fc0 	call	154fc <alt_unlock_block_intel>
   1533c:	e0bffb15 	stw	r2,-20(fp)
   15340:	e0bffb17 	ldw	r2,-20(fp)
   15344:	1004c03a 	cmpne	r2,r2,zero
   15348:	1000091e 	bne	r2,zero,15370 <alt_program_intel+0x6c>
   1534c:	e1bfff17 	ldw	r6,-4(fp)
   15350:	00800074 	movhi	r2,1
   15354:	1095a204 	addi	r2,r2,22152
   15358:	d8800015 	stw	r2,0(sp)
   1535c:	e13ffa17 	ldw	r4,-24(fp)
   15360:	e17ffe17 	ldw	r5,-8(fp)
   15364:	e1c00217 	ldw	r7,8(fp)
   15368:	000fd880 	call	fd88 <alt_flash_program_block>
   1536c:	e0bffb15 	stw	r2,-20(fp)
   15370:	e0bffb17 	ldw	r2,-20(fp)
   15374:	e037883a 	mov	sp,fp
   15378:	dfc00117 	ldw	ra,4(sp)
   1537c:	df000017 	ldw	fp,0(sp)
   15380:	dec00204 	addi	sp,sp,8
   15384:	f800283a 	ret

00015388 <alt_erase_block_intel>:
   15388:	defff804 	addi	sp,sp,-32
   1538c:	dfc00715 	stw	ra,28(sp)
   15390:	df000615 	stw	fp,24(sp)
   15394:	df000604 	addi	fp,sp,24
   15398:	e13ffe15 	stw	r4,-8(fp)
   1539c:	e17fff15 	stw	r5,-4(fp)
   153a0:	e03ffc15 	stw	zero,-16(fp)
   153a4:	e0bffe17 	ldw	r2,-8(fp)
   153a8:	e0bffb15 	stw	r2,-20(fp)
   153ac:	e0bffb17 	ldw	r2,-20(fp)
   153b0:	10803117 	ldw	r2,196(r2)
   153b4:	e0bffa15 	stw	r2,-24(fp)
   153b8:	e13ffb17 	ldw	r4,-20(fp)
   153bc:	e17fff17 	ldw	r5,-4(fp)
   153c0:	00154fc0 	call	154fc <alt_unlock_block_intel>
   153c4:	e0bffc15 	stw	r2,-16(fp)
   153c8:	e0bffc17 	ldw	r2,-16(fp)
   153cc:	1004c03a 	cmpne	r2,r2,zero
   153d0:	1000441e 	bne	r2,zero,154e4 <alt_erase_block_intel+0x15c>
   153d4:	e0bffb17 	ldw	r2,-20(fp)
   153d8:	11803517 	ldw	r6,212(r2)
   153dc:	e0bffb17 	ldw	r2,-20(fp)
   153e0:	10800a17 	ldw	r2,40(r2)
   153e4:	1007883a 	mov	r3,r2
   153e8:	e0bfff17 	ldw	r2,-4(fp)
   153ec:	1889883a 	add	r4,r3,r2
   153f0:	01400804 	movi	r5,32
   153f4:	303ee83a 	callr	r6
   153f8:	e0bffb17 	ldw	r2,-20(fp)
   153fc:	11803517 	ldw	r6,212(r2)
   15400:	e0bffb17 	ldw	r2,-20(fp)
   15404:	10800a17 	ldw	r2,40(r2)
   15408:	1007883a 	mov	r3,r2
   1540c:	e0bfff17 	ldw	r2,-4(fp)
   15410:	1889883a 	add	r4,r3,r2
   15414:	01403404 	movi	r5,208
   15418:	303ee83a 	callr	r6
   1541c:	e0bffb17 	ldw	r2,-20(fp)
   15420:	10800a17 	ldw	r2,40(r2)
   15424:	1007883a 	mov	r3,r2
   15428:	e0bfff17 	ldw	r2,-4(fp)
   1542c:	1885883a 	add	r2,r3,r2
   15430:	10800023 	ldbuio	r2,0(r2)
   15434:	e0bffd05 	stb	r2,-12(fp)
   15438:	e0bffd03 	ldbu	r2,-12(fp)
   1543c:	10803fcc 	andi	r2,r2,255
   15440:	1080201c 	xori	r2,r2,128
   15444:	10bfe004 	addi	r2,r2,-128
   15448:	1004803a 	cmplt	r2,r2,zero
   1544c:	1000081e 	bne	r2,zero,15470 <alt_erase_block_intel+0xe8>
   15450:	0100fa04 	movi	r4,1000
   15454:	0014e540 	call	14e54 <usleep>
   15458:	e0bffa17 	ldw	r2,-24(fp)
   1545c:	10bf0604 	addi	r2,r2,-1000
   15460:	e0bffa15 	stw	r2,-24(fp)
   15464:	e0bffa17 	ldw	r2,-24(fp)
   15468:	10800048 	cmpgei	r2,r2,1
   1546c:	103feb1e 	bne	r2,zero,1541c <alt_erase_block_intel+0x94>
   15470:	e0bffa17 	ldw	r2,-24(fp)
   15474:	10800048 	cmpgei	r2,r2,1
   15478:	1000031e 	bne	r2,zero,15488 <alt_erase_block_intel+0x100>
   1547c:	00bfe304 	movi	r2,-116
   15480:	e0bffc15 	stw	r2,-16(fp)
   15484:	00000e06 	br	154c0 <alt_erase_block_intel+0x138>
   15488:	e0bffd03 	ldbu	r2,-12(fp)
   1548c:	10803fcc 	andi	r2,r2,255
   15490:	10801fcc 	andi	r2,r2,127
   15494:	1005003a 	cmpeq	r2,r2,zero
   15498:	1000091e 	bne	r2,zero,154c0 <alt_erase_block_intel+0x138>
   1549c:	00bffec4 	movi	r2,-5
   154a0:	e0bffc15 	stw	r2,-16(fp)
   154a4:	e0bffb17 	ldw	r2,-20(fp)
   154a8:	10800a17 	ldw	r2,40(r2)
   154ac:	1007883a 	mov	r3,r2
   154b0:	e0bfff17 	ldw	r2,-4(fp)
   154b4:	1885883a 	add	r2,r3,r2
   154b8:	10800023 	ldbuio	r2,0(r2)
   154bc:	e0bffd05 	stb	r2,-12(fp)
   154c0:	e0bffb17 	ldw	r2,-20(fp)
   154c4:	11803517 	ldw	r6,212(r2)
   154c8:	e0bffb17 	ldw	r2,-20(fp)
   154cc:	10800a17 	ldw	r2,40(r2)
   154d0:	1007883a 	mov	r3,r2
   154d4:	e0bfff17 	ldw	r2,-4(fp)
   154d8:	1889883a 	add	r4,r3,r2
   154dc:	01403fc4 	movi	r5,255
   154e0:	303ee83a 	callr	r6
   154e4:	e0bffc17 	ldw	r2,-16(fp)
   154e8:	e037883a 	mov	sp,fp
   154ec:	dfc00117 	ldw	ra,4(sp)
   154f0:	df000017 	ldw	fp,0(sp)
   154f4:	dec00204 	addi	sp,sp,8
   154f8:	f800283a 	ret

000154fc <alt_unlock_block_intel>:
   154fc:	defff904 	addi	sp,sp,-28
   15500:	dfc00615 	stw	ra,24(sp)
   15504:	df000515 	stw	fp,20(sp)
   15508:	df000504 	addi	fp,sp,20
   1550c:	e13ffe15 	stw	r4,-8(fp)
   15510:	e17fff15 	stw	r5,-4(fp)
   15514:	e03ffc15 	stw	zero,-16(fp)
   15518:	e0bffe17 	ldw	r2,-8(fp)
   1551c:	10803017 	ldw	r2,192(r2)
   15520:	10801924 	muli	r2,r2,100
   15524:	e0bffb15 	stw	r2,-20(fp)
   15528:	e0bffe17 	ldw	r2,-8(fp)
   1552c:	11803517 	ldw	r6,212(r2)
   15530:	e0bffe17 	ldw	r2,-8(fp)
   15534:	10800a17 	ldw	r2,40(r2)
   15538:	1007883a 	mov	r3,r2
   1553c:	e0bfff17 	ldw	r2,-4(fp)
   15540:	1889883a 	add	r4,r3,r2
   15544:	01402404 	movi	r5,144
   15548:	303ee83a 	callr	r6
   1554c:	e0bffe17 	ldw	r2,-8(fp)
   15550:	10800a17 	ldw	r2,40(r2)
   15554:	1007883a 	mov	r3,r2
   15558:	e0bfff17 	ldw	r2,-4(fp)
   1555c:	1885883a 	add	r2,r3,r2
   15560:	10800104 	addi	r2,r2,4
   15564:	10800023 	ldbuio	r2,0(r2)
   15568:	e0bffd45 	stb	r2,-11(fp)
   1556c:	e0bffd43 	ldbu	r2,-11(fp)
   15570:	1080004c 	andi	r2,r2,1
   15574:	10803fcc 	andi	r2,r2,255
   15578:	1005003a 	cmpeq	r2,r2,zero
   1557c:	1000331e 	bne	r2,zero,1564c <alt_unlock_block_intel+0x150>
   15580:	e0bffe17 	ldw	r2,-8(fp)
   15584:	11803517 	ldw	r6,212(r2)
   15588:	e0bffe17 	ldw	r2,-8(fp)
   1558c:	10800a17 	ldw	r2,40(r2)
   15590:	1007883a 	mov	r3,r2
   15594:	e0bfff17 	ldw	r2,-4(fp)
   15598:	1889883a 	add	r4,r3,r2
   1559c:	01401804 	movi	r5,96
   155a0:	303ee83a 	callr	r6
   155a4:	e0bffe17 	ldw	r2,-8(fp)
   155a8:	11803517 	ldw	r6,212(r2)
   155ac:	e0bffe17 	ldw	r2,-8(fp)
   155b0:	10800a17 	ldw	r2,40(r2)
   155b4:	1007883a 	mov	r3,r2
   155b8:	e0bfff17 	ldw	r2,-4(fp)
   155bc:	1889883a 	add	r4,r3,r2
   155c0:	01403404 	movi	r5,208
   155c4:	303ee83a 	callr	r6
   155c8:	e0bffe17 	ldw	r2,-8(fp)
   155cc:	10800a17 	ldw	r2,40(r2)
   155d0:	1007883a 	mov	r3,r2
   155d4:	e0bfff17 	ldw	r2,-4(fp)
   155d8:	1885883a 	add	r2,r3,r2
   155dc:	10800023 	ldbuio	r2,0(r2)
   155e0:	e0bffd05 	stb	r2,-12(fp)
   155e4:	e0bffd03 	ldbu	r2,-12(fp)
   155e8:	10803fcc 	andi	r2,r2,255
   155ec:	1080201c 	xori	r2,r2,128
   155f0:	10bfe004 	addi	r2,r2,-128
   155f4:	1004803a 	cmplt	r2,r2,zero
   155f8:	1000081e 	bne	r2,zero,1561c <alt_unlock_block_intel+0x120>
   155fc:	e0bffb17 	ldw	r2,-20(fp)
   15600:	10bfffc4 	addi	r2,r2,-1
   15604:	e0bffb15 	stw	r2,-20(fp)
   15608:	01000044 	movi	r4,1
   1560c:	0014e540 	call	14e54 <usleep>
   15610:	e0bffb17 	ldw	r2,-20(fp)
   15614:	10800048 	cmpgei	r2,r2,1
   15618:	103feb1e 	bne	r2,zero,155c8 <alt_unlock_block_intel+0xcc>
   1561c:	e0bffb17 	ldw	r2,-20(fp)
   15620:	1004c03a 	cmpne	r2,r2,zero
   15624:	1000031e 	bne	r2,zero,15634 <alt_unlock_block_intel+0x138>
   15628:	00bfe304 	movi	r2,-116
   1562c:	e0bffc15 	stw	r2,-16(fp)
   15630:	00000606 	br	1564c <alt_unlock_block_intel+0x150>
   15634:	e0bffd03 	ldbu	r2,-12(fp)
   15638:	10801fcc 	andi	r2,r2,127
   1563c:	1005003a 	cmpeq	r2,r2,zero
   15640:	1000021e 	bne	r2,zero,1564c <alt_unlock_block_intel+0x150>
   15644:	00bffec4 	movi	r2,-5
   15648:	e0bffc15 	stw	r2,-16(fp)
   1564c:	e0bffe17 	ldw	r2,-8(fp)
   15650:	11803517 	ldw	r6,212(r2)
   15654:	e0bffe17 	ldw	r2,-8(fp)
   15658:	10800a17 	ldw	r2,40(r2)
   1565c:	1007883a 	mov	r3,r2
   15660:	e0bfff17 	ldw	r2,-4(fp)
   15664:	1889883a 	add	r4,r3,r2
   15668:	01403fc4 	movi	r5,255
   1566c:	303ee83a 	callr	r6
   15670:	e0bffc17 	ldw	r2,-16(fp)
   15674:	e037883a 	mov	sp,fp
   15678:	dfc00117 	ldw	ra,4(sp)
   1567c:	df000017 	ldw	fp,0(sp)
   15680:	dec00204 	addi	sp,sp,8
   15684:	f800283a 	ret

00015688 <alt_write_word_intel>:
   15688:	defff904 	addi	sp,sp,-28
   1568c:	dfc00615 	stw	ra,24(sp)
   15690:	df000515 	stw	fp,20(sp)
   15694:	df000504 	addi	fp,sp,20
   15698:	e13ffd15 	stw	r4,-12(fp)
   1569c:	e17ffe15 	stw	r5,-8(fp)
   156a0:	e1bfff15 	stw	r6,-4(fp)
   156a4:	e03ffc15 	stw	zero,-16(fp)
   156a8:	e0bffd17 	ldw	r2,-12(fp)
   156ac:	11803517 	ldw	r6,212(r2)
   156b0:	e0bffd17 	ldw	r2,-12(fp)
   156b4:	10800a17 	ldw	r2,40(r2)
   156b8:	1007883a 	mov	r3,r2
   156bc:	e0bffe17 	ldw	r2,-8(fp)
   156c0:	1889883a 	add	r4,r3,r2
   156c4:	01401004 	movi	r5,64
   156c8:	303ee83a 	callr	r6
   156cc:	e13ffd17 	ldw	r4,-12(fp)
   156d0:	e17ffe17 	ldw	r5,-8(fp)
   156d4:	e1bfff17 	ldw	r6,-4(fp)
   156d8:	000fc240 	call	fc24 <alt_write_value_to_flash>
   156dc:	e0bffd17 	ldw	r2,-12(fp)
   156e0:	10800a17 	ldw	r2,40(r2)
   156e4:	1007883a 	mov	r3,r2
   156e8:	e0bffe17 	ldw	r2,-8(fp)
   156ec:	1885883a 	add	r2,r3,r2
   156f0:	10800023 	ldbuio	r2,0(r2)
   156f4:	e0bffb05 	stb	r2,-20(fp)
   156f8:	e0bffb03 	ldbu	r2,-20(fp)
   156fc:	10803fcc 	andi	r2,r2,255
   15700:	1080201c 	xori	r2,r2,128
   15704:	10bfe004 	addi	r2,r2,-128
   15708:	1004403a 	cmpge	r2,r2,zero
   1570c:	103ff31e 	bne	r2,zero,156dc <alt_write_word_intel+0x54>
   15710:	e0bffb03 	ldbu	r2,-20(fp)
   15714:	10801fcc 	andi	r2,r2,127
   15718:	1005003a 	cmpeq	r2,r2,zero
   1571c:	1000021e 	bne	r2,zero,15728 <alt_write_word_intel+0xa0>
   15720:	00bffec4 	movi	r2,-5
   15724:	e0bffc15 	stw	r2,-16(fp)
   15728:	e0bffd17 	ldw	r2,-12(fp)
   1572c:	11803517 	ldw	r6,212(r2)
   15730:	e0bffd17 	ldw	r2,-12(fp)
   15734:	10800a17 	ldw	r2,40(r2)
   15738:	1007883a 	mov	r3,r2
   1573c:	e0bffe17 	ldw	r2,-8(fp)
   15740:	1889883a 	add	r4,r3,r2
   15744:	01403fc4 	movi	r5,255
   15748:	303ee83a 	callr	r6
   1574c:	e0bffc17 	ldw	r2,-16(fp)
   15750:	e037883a 	mov	sp,fp
   15754:	dfc00117 	ldw	ra,4(sp)
   15758:	df000017 	ldw	fp,0(sp)
   1575c:	dec00204 	addi	sp,sp,8
   15760:	f800283a 	ret

00015764 <alt_busy_sleep>:
   15764:	defffb04 	addi	sp,sp,-20
   15768:	df000415 	stw	fp,16(sp)
   1576c:	df000404 	addi	fp,sp,16
   15770:	e13fff15 	stw	r4,-4(fp)
   15774:	008000c4 	movi	r2,3
   15778:	e0bffc15 	stw	r2,-16(fp)
   1577c:	e0fffc17 	ldw	r3,-16(fp)
   15780:	008003f4 	movhi	r2,15
   15784:	10909004 	addi	r2,r2,16960
   15788:	1887383a 	mul	r3,r3,r2
   1578c:	00817db4 	movhi	r2,1526
   15790:	10b84004 	addi	r2,r2,-7936
   15794:	10c7203a 	divu	r3,r2,r3
   15798:	00a00034 	movhi	r2,32768
   1579c:	10bfffc4 	addi	r2,r2,-1
   157a0:	10c7203a 	divu	r3,r2,r3
   157a4:	e0bfff17 	ldw	r2,-4(fp)
   157a8:	10c5203a 	divu	r2,r2,r3
   157ac:	e0bffd15 	stw	r2,-12(fp)
   157b0:	e0bffd17 	ldw	r2,-12(fp)
   157b4:	1005003a 	cmpeq	r2,r2,zero
   157b8:	1000251e 	bne	r2,zero,15850 <alt_busy_sleep+0xec>
   157bc:	e03ffe15 	stw	zero,-8(fp)
   157c0:	00001406 	br	15814 <alt_busy_sleep+0xb0>
   157c4:	00a00034 	movhi	r2,32768
   157c8:	10bfffc4 	addi	r2,r2,-1
   157cc:	10bfffc4 	addi	r2,r2,-1
   157d0:	103ffe1e 	bne	r2,zero,157cc <alt_busy_sleep+0x68>
   157d4:	e0fffc17 	ldw	r3,-16(fp)
   157d8:	008003f4 	movhi	r2,15
   157dc:	10909004 	addi	r2,r2,16960
   157e0:	1887383a 	mul	r3,r3,r2
   157e4:	00817db4 	movhi	r2,1526
   157e8:	10b84004 	addi	r2,r2,-7936
   157ec:	10c7203a 	divu	r3,r2,r3
   157f0:	00a00034 	movhi	r2,32768
   157f4:	10bfffc4 	addi	r2,r2,-1
   157f8:	10c7203a 	divu	r3,r2,r3
   157fc:	e0bfff17 	ldw	r2,-4(fp)
   15800:	10c5c83a 	sub	r2,r2,r3
   15804:	e0bfff15 	stw	r2,-4(fp)
   15808:	e0bffe17 	ldw	r2,-8(fp)
   1580c:	10800044 	addi	r2,r2,1
   15810:	e0bffe15 	stw	r2,-8(fp)
   15814:	e0fffe17 	ldw	r3,-8(fp)
   15818:	e0bffd17 	ldw	r2,-12(fp)
   1581c:	18bfe916 	blt	r3,r2,157c4 <alt_busy_sleep+0x60>
   15820:	e0fffc17 	ldw	r3,-16(fp)
   15824:	008003f4 	movhi	r2,15
   15828:	10909004 	addi	r2,r2,16960
   1582c:	1887383a 	mul	r3,r3,r2
   15830:	00817db4 	movhi	r2,1526
   15834:	10b84004 	addi	r2,r2,-7936
   15838:	10c7203a 	divu	r3,r2,r3
   1583c:	e0bfff17 	ldw	r2,-4(fp)
   15840:	1885383a 	mul	r2,r3,r2
   15844:	10bfffc4 	addi	r2,r2,-1
   15848:	103ffe1e 	bne	r2,zero,15844 <alt_busy_sleep+0xe0>
   1584c:	00000b06 	br	1587c <alt_busy_sleep+0x118>
   15850:	e0fffc17 	ldw	r3,-16(fp)
   15854:	008003f4 	movhi	r2,15
   15858:	10909004 	addi	r2,r2,16960
   1585c:	1887383a 	mul	r3,r3,r2
   15860:	00817db4 	movhi	r2,1526
   15864:	10b84004 	addi	r2,r2,-7936
   15868:	10c7203a 	divu	r3,r2,r3
   1586c:	e0bfff17 	ldw	r2,-4(fp)
   15870:	1885383a 	mul	r2,r3,r2
   15874:	10bfffc4 	addi	r2,r2,-1
   15878:	00bffe16 	blt	zero,r2,15874 <alt_busy_sleep+0x110>
   1587c:	0005883a 	mov	r2,zero
   15880:	e037883a 	mov	sp,fp
   15884:	df000017 	ldw	fp,0(sp)
   15888:	dec00104 	addi	sp,sp,4
   1588c:	f800283a 	ret

00015890 <alt_find_file>:
   15890:	defffa04 	addi	sp,sp,-24
   15894:	dfc00515 	stw	ra,20(sp)
   15898:	df000415 	stw	fp,16(sp)
   1589c:	df000404 	addi	fp,sp,16
   158a0:	e13ffe15 	stw	r4,-8(fp)
   158a4:	00820034 	movhi	r2,2048
   158a8:	10893204 	addi	r2,r2,9416
   158ac:	10800017 	ldw	r2,0(r2)
   158b0:	e0bffd15 	stw	r2,-12(fp)
   158b4:	00003306 	br	15984 <alt_find_file+0xf4>
   158b8:	e0bffd17 	ldw	r2,-12(fp)
   158bc:	11000217 	ldw	r4,8(r2)
   158c0:	00054ec0 	call	54ec <strlen>
   158c4:	e0bffc15 	stw	r2,-16(fp)
   158c8:	e0bffd17 	ldw	r2,-12(fp)
   158cc:	10c00217 	ldw	r3,8(r2)
   158d0:	e0bffc17 	ldw	r2,-16(fp)
   158d4:	1885883a 	add	r2,r3,r2
   158d8:	10bfffc4 	addi	r2,r2,-1
   158dc:	10800003 	ldbu	r2,0(r2)
   158e0:	10803fcc 	andi	r2,r2,255
   158e4:	1080201c 	xori	r2,r2,128
   158e8:	10bfe004 	addi	r2,r2,-128
   158ec:	10800bd8 	cmpnei	r2,r2,47
   158f0:	1000031e 	bne	r2,zero,15900 <alt_find_file+0x70>
   158f4:	e0bffc17 	ldw	r2,-16(fp)
   158f8:	10bfffc4 	addi	r2,r2,-1
   158fc:	e0bffc15 	stw	r2,-16(fp)
   15900:	e0bffc17 	ldw	r2,-16(fp)
   15904:	1007883a 	mov	r3,r2
   15908:	e0bffe17 	ldw	r2,-8(fp)
   1590c:	1885883a 	add	r2,r3,r2
   15910:	10800003 	ldbu	r2,0(r2)
   15914:	10803fcc 	andi	r2,r2,255
   15918:	1080201c 	xori	r2,r2,128
   1591c:	10bfe004 	addi	r2,r2,-128
   15920:	10800be0 	cmpeqi	r2,r2,47
   15924:	10000a1e 	bne	r2,zero,15950 <alt_find_file+0xc0>
   15928:	e0bffc17 	ldw	r2,-16(fp)
   1592c:	1007883a 	mov	r3,r2
   15930:	e0bffe17 	ldw	r2,-8(fp)
   15934:	1885883a 	add	r2,r3,r2
   15938:	10800003 	ldbu	r2,0(r2)
   1593c:	10803fcc 	andi	r2,r2,255
   15940:	1080201c 	xori	r2,r2,128
   15944:	10bfe004 	addi	r2,r2,-128
   15948:	1004c03a 	cmpne	r2,r2,zero
   1594c:	10000a1e 	bne	r2,zero,15978 <alt_find_file+0xe8>
   15950:	e0bffd17 	ldw	r2,-12(fp)
   15954:	11000217 	ldw	r4,8(r2)
   15958:	e1bffc17 	ldw	r6,-16(fp)
   1595c:	e17ffe17 	ldw	r5,-8(fp)
   15960:	00052140 	call	5214 <memcmp>
   15964:	1004c03a 	cmpne	r2,r2,zero
   15968:	1000031e 	bne	r2,zero,15978 <alt_find_file+0xe8>
   1596c:	e0bffd17 	ldw	r2,-12(fp)
   15970:	e0bfff15 	stw	r2,-4(fp)
   15974:	00000806 	br	15998 <alt_find_file+0x108>
   15978:	e0bffd17 	ldw	r2,-12(fp)
   1597c:	10800017 	ldw	r2,0(r2)
   15980:	e0bffd15 	stw	r2,-12(fp)
   15984:	00c20034 	movhi	r3,2048
   15988:	18c93204 	addi	r3,r3,9416
   1598c:	e0bffd17 	ldw	r2,-12(fp)
   15990:	10ffc91e 	bne	r2,r3,158b8 <alt_find_file+0x28>
   15994:	e03fff15 	stw	zero,-4(fp)
   15998:	e0bfff17 	ldw	r2,-4(fp)
   1599c:	e037883a 	mov	sp,fp
   159a0:	dfc00117 	ldw	ra,4(sp)
   159a4:	df000017 	ldw	fp,0(sp)
   159a8:	dec00204 	addi	sp,sp,8
   159ac:	f800283a 	ret

000159b0 <alt_get_fd>:
   159b0:	defffc04 	addi	sp,sp,-16
   159b4:	df000315 	stw	fp,12(sp)
   159b8:	df000304 	addi	fp,sp,12
   159bc:	e13fff15 	stw	r4,-4(fp)
   159c0:	00bffa04 	movi	r2,-24
   159c4:	e0bffd15 	stw	r2,-12(fp)
   159c8:	e03ffe15 	stw	zero,-8(fp)
   159cc:	00001e06 	br	15a48 <alt_get_fd+0x98>
   159d0:	e0bffe17 	ldw	r2,-8(fp)
   159d4:	00c20034 	movhi	r3,2048
   159d8:	18c3cc04 	addi	r3,r3,3888
   159dc:	10800324 	muli	r2,r2,12
   159e0:	10c5883a 	add	r2,r2,r3
   159e4:	10800017 	ldw	r2,0(r2)
   159e8:	1004c03a 	cmpne	r2,r2,zero
   159ec:	1000131e 	bne	r2,zero,15a3c <alt_get_fd+0x8c>
   159f0:	e0bffe17 	ldw	r2,-8(fp)
   159f4:	00c20034 	movhi	r3,2048
   159f8:	18c3cc04 	addi	r3,r3,3888
   159fc:	10800324 	muli	r2,r2,12
   15a00:	10c7883a 	add	r3,r2,r3
   15a04:	e0bfff17 	ldw	r2,-4(fp)
   15a08:	18800015 	stw	r2,0(r3)
   15a0c:	00820034 	movhi	r2,2048
   15a10:	10893604 	addi	r2,r2,9432
   15a14:	10c00017 	ldw	r3,0(r2)
   15a18:	e0bffe17 	ldw	r2,-8(fp)
   15a1c:	1880040e 	bge	r3,r2,15a30 <alt_get_fd+0x80>
   15a20:	00c20034 	movhi	r3,2048
   15a24:	18c93604 	addi	r3,r3,9432
   15a28:	e0bffe17 	ldw	r2,-8(fp)
   15a2c:	18800015 	stw	r2,0(r3)
   15a30:	e0bffe17 	ldw	r2,-8(fp)
   15a34:	e0bffd15 	stw	r2,-12(fp)
   15a38:	00000606 	br	15a54 <alt_get_fd+0xa4>
   15a3c:	e0bffe17 	ldw	r2,-8(fp)
   15a40:	10800044 	addi	r2,r2,1
   15a44:	e0bffe15 	stw	r2,-8(fp)
   15a48:	e0bffe17 	ldw	r2,-8(fp)
   15a4c:	10800810 	cmplti	r2,r2,32
   15a50:	103fdf1e 	bne	r2,zero,159d0 <alt_get_fd+0x20>
   15a54:	e0bffd17 	ldw	r2,-12(fp)
   15a58:	e037883a 	mov	sp,fp
   15a5c:	df000017 	ldw	fp,0(sp)
   15a60:	dec00104 	addi	sp,sp,4
   15a64:	f800283a 	ret

00015a68 <atexit>:
   15a68:	200b883a 	mov	r5,r4
   15a6c:	000d883a 	mov	r6,zero
   15a70:	0009883a 	mov	r4,zero
   15a74:	000f883a 	mov	r7,zero
   15a78:	0015ab41 	jmpi	15ab4 <__register_exitproc>

00015a7c <exit>:
   15a7c:	defffe04 	addi	sp,sp,-8
   15a80:	000b883a 	mov	r5,zero
   15a84:	dc000015 	stw	r16,0(sp)
   15a88:	dfc00115 	stw	ra,4(sp)
   15a8c:	2021883a 	mov	r16,r4
   15a90:	0015bec0 	call	15bec <__call_exitprocs>
   15a94:	00820034 	movhi	r2,2048
   15a98:	10892d04 	addi	r2,r2,9396
   15a9c:	11000017 	ldw	r4,0(r2)
   15aa0:	20800f17 	ldw	r2,60(r4)
   15aa4:	10000126 	beq	r2,zero,15aac <exit+0x30>
   15aa8:	103ee83a 	callr	r2
   15aac:	8009883a 	mov	r4,r16
   15ab0:	0015ddc0 	call	15ddc <_exit>

00015ab4 <__register_exitproc>:
   15ab4:	defffa04 	addi	sp,sp,-24
   15ab8:	00820034 	movhi	r2,2048
   15abc:	10892d04 	addi	r2,r2,9396
   15ac0:	dc000015 	stw	r16,0(sp)
   15ac4:	14000017 	ldw	r16,0(r2)
   15ac8:	dd000415 	stw	r20,16(sp)
   15acc:	2829883a 	mov	r20,r5
   15ad0:	81405217 	ldw	r5,328(r16)
   15ad4:	dcc00315 	stw	r19,12(sp)
   15ad8:	dc800215 	stw	r18,8(sp)
   15adc:	dc400115 	stw	r17,4(sp)
   15ae0:	dfc00515 	stw	ra,20(sp)
   15ae4:	2023883a 	mov	r17,r4
   15ae8:	3027883a 	mov	r19,r6
   15aec:	3825883a 	mov	r18,r7
   15af0:	28002526 	beq	r5,zero,15b88 <__register_exitproc+0xd4>
   15af4:	29000117 	ldw	r4,4(r5)
   15af8:	008007c4 	movi	r2,31
   15afc:	11002716 	blt	r2,r4,15b9c <__register_exitproc+0xe8>
   15b00:	8800101e 	bne	r17,zero,15b44 <__register_exitproc+0x90>
   15b04:	2105883a 	add	r2,r4,r4
   15b08:	1085883a 	add	r2,r2,r2
   15b0c:	20c00044 	addi	r3,r4,1
   15b10:	1145883a 	add	r2,r2,r5
   15b14:	0009883a 	mov	r4,zero
   15b18:	15000215 	stw	r20,8(r2)
   15b1c:	28c00115 	stw	r3,4(r5)
   15b20:	2005883a 	mov	r2,r4
   15b24:	dfc00517 	ldw	ra,20(sp)
   15b28:	dd000417 	ldw	r20,16(sp)
   15b2c:	dcc00317 	ldw	r19,12(sp)
   15b30:	dc800217 	ldw	r18,8(sp)
   15b34:	dc400117 	ldw	r17,4(sp)
   15b38:	dc000017 	ldw	r16,0(sp)
   15b3c:	dec00604 	addi	sp,sp,24
   15b40:	f800283a 	ret
   15b44:	29802204 	addi	r6,r5,136
   15b48:	00800044 	movi	r2,1
   15b4c:	110e983a 	sll	r7,r2,r4
   15b50:	30c04017 	ldw	r3,256(r6)
   15b54:	2105883a 	add	r2,r4,r4
   15b58:	1085883a 	add	r2,r2,r2
   15b5c:	1185883a 	add	r2,r2,r6
   15b60:	19c6b03a 	or	r3,r3,r7
   15b64:	14802015 	stw	r18,128(r2)
   15b68:	14c00015 	stw	r19,0(r2)
   15b6c:	00800084 	movi	r2,2
   15b70:	30c04015 	stw	r3,256(r6)
   15b74:	88bfe31e 	bne	r17,r2,15b04 <__register_exitproc+0x50>
   15b78:	30804117 	ldw	r2,260(r6)
   15b7c:	11c4b03a 	or	r2,r2,r7
   15b80:	30804115 	stw	r2,260(r6)
   15b84:	003fdf06 	br	15b04 <__register_exitproc+0x50>
   15b88:	00820234 	movhi	r2,2056
   15b8c:	10be2504 	addi	r2,r2,-1900
   15b90:	100b883a 	mov	r5,r2
   15b94:	80805215 	stw	r2,328(r16)
   15b98:	003fd606 	br	15af4 <__register_exitproc+0x40>
   15b9c:	00800034 	movhi	r2,0
   15ba0:	10800004 	addi	r2,r2,0
   15ba4:	1000021e 	bne	r2,zero,15bb0 <__register_exitproc+0xfc>
   15ba8:	013fffc4 	movi	r4,-1
   15bac:	003fdc06 	br	15b20 <__register_exitproc+0x6c>
   15bb0:	01006404 	movi	r4,400
   15bb4:	103ee83a 	callr	r2
   15bb8:	1007883a 	mov	r3,r2
   15bbc:	103ffa26 	beq	r2,zero,15ba8 <__register_exitproc+0xf4>
   15bc0:	80805217 	ldw	r2,328(r16)
   15bc4:	180b883a 	mov	r5,r3
   15bc8:	18000115 	stw	zero,4(r3)
   15bcc:	18800015 	stw	r2,0(r3)
   15bd0:	80c05215 	stw	r3,328(r16)
   15bd4:	18006215 	stw	zero,392(r3)
   15bd8:	18006315 	stw	zero,396(r3)
   15bdc:	0009883a 	mov	r4,zero
   15be0:	883fc826 	beq	r17,zero,15b04 <__register_exitproc+0x50>
   15be4:	003fd706 	br	15b44 <__register_exitproc+0x90>

00015be8 <register_fini>:
   15be8:	f800283a 	ret

00015bec <__call_exitprocs>:
   15bec:	00820034 	movhi	r2,2048
   15bf0:	10892d04 	addi	r2,r2,9396
   15bf4:	10800017 	ldw	r2,0(r2)
   15bf8:	defff304 	addi	sp,sp,-52
   15bfc:	df000b15 	stw	fp,44(sp)
   15c00:	d8800115 	stw	r2,4(sp)
   15c04:	00800034 	movhi	r2,0
   15c08:	10800004 	addi	r2,r2,0
   15c0c:	1005003a 	cmpeq	r2,r2,zero
   15c10:	d8800215 	stw	r2,8(sp)
   15c14:	d8800117 	ldw	r2,4(sp)
   15c18:	dd400815 	stw	r21,32(sp)
   15c1c:	dd000715 	stw	r20,28(sp)
   15c20:	10805204 	addi	r2,r2,328
   15c24:	dfc00c15 	stw	ra,48(sp)
   15c28:	ddc00a15 	stw	r23,40(sp)
   15c2c:	dd800915 	stw	r22,36(sp)
   15c30:	dcc00615 	stw	r19,24(sp)
   15c34:	dc800515 	stw	r18,20(sp)
   15c38:	dc400415 	stw	r17,16(sp)
   15c3c:	dc000315 	stw	r16,12(sp)
   15c40:	282b883a 	mov	r21,r5
   15c44:	2039883a 	mov	fp,r4
   15c48:	d8800015 	stw	r2,0(sp)
   15c4c:	2829003a 	cmpeq	r20,r5,zero
   15c50:	d8800117 	ldw	r2,4(sp)
   15c54:	14405217 	ldw	r17,328(r2)
   15c58:	88001026 	beq	r17,zero,15c9c <__call_exitprocs+0xb0>
   15c5c:	ddc00017 	ldw	r23,0(sp)
   15c60:	88800117 	ldw	r2,4(r17)
   15c64:	8c802204 	addi	r18,r17,136
   15c68:	143fffc4 	addi	r16,r2,-1
   15c6c:	80000916 	blt	r16,zero,15c94 <__call_exitprocs+0xa8>
   15c70:	05bfffc4 	movi	r22,-1
   15c74:	a000151e 	bne	r20,zero,15ccc <__call_exitprocs+0xe0>
   15c78:	8409883a 	add	r4,r16,r16
   15c7c:	2105883a 	add	r2,r4,r4
   15c80:	1485883a 	add	r2,r2,r18
   15c84:	10c02017 	ldw	r3,128(r2)
   15c88:	a8c01126 	beq	r21,r3,15cd0 <__call_exitprocs+0xe4>
   15c8c:	843fffc4 	addi	r16,r16,-1
   15c90:	85bff81e 	bne	r16,r22,15c74 <__call_exitprocs+0x88>
   15c94:	d8800217 	ldw	r2,8(sp)
   15c98:	10003126 	beq	r2,zero,15d60 <__call_exitprocs+0x174>
   15c9c:	dfc00c17 	ldw	ra,48(sp)
   15ca0:	df000b17 	ldw	fp,44(sp)
   15ca4:	ddc00a17 	ldw	r23,40(sp)
   15ca8:	dd800917 	ldw	r22,36(sp)
   15cac:	dd400817 	ldw	r21,32(sp)
   15cb0:	dd000717 	ldw	r20,28(sp)
   15cb4:	dcc00617 	ldw	r19,24(sp)
   15cb8:	dc800517 	ldw	r18,20(sp)
   15cbc:	dc400417 	ldw	r17,16(sp)
   15cc0:	dc000317 	ldw	r16,12(sp)
   15cc4:	dec00d04 	addi	sp,sp,52
   15cc8:	f800283a 	ret
   15ccc:	8409883a 	add	r4,r16,r16
   15cd0:	88c00117 	ldw	r3,4(r17)
   15cd4:	2105883a 	add	r2,r4,r4
   15cd8:	1445883a 	add	r2,r2,r17
   15cdc:	18ffffc4 	addi	r3,r3,-1
   15ce0:	11800217 	ldw	r6,8(r2)
   15ce4:	1c001526 	beq	r3,r16,15d3c <__call_exitprocs+0x150>
   15ce8:	10000215 	stw	zero,8(r2)
   15cec:	303fe726 	beq	r6,zero,15c8c <__call_exitprocs+0xa0>
   15cf0:	00c00044 	movi	r3,1
   15cf4:	1c06983a 	sll	r3,r3,r16
   15cf8:	90804017 	ldw	r2,256(r18)
   15cfc:	8cc00117 	ldw	r19,4(r17)
   15d00:	1884703a 	and	r2,r3,r2
   15d04:	10001426 	beq	r2,zero,15d58 <__call_exitprocs+0x16c>
   15d08:	90804117 	ldw	r2,260(r18)
   15d0c:	1884703a 	and	r2,r3,r2
   15d10:	10000c1e 	bne	r2,zero,15d44 <__call_exitprocs+0x158>
   15d14:	2105883a 	add	r2,r4,r4
   15d18:	1485883a 	add	r2,r2,r18
   15d1c:	11400017 	ldw	r5,0(r2)
   15d20:	e009883a 	mov	r4,fp
   15d24:	303ee83a 	callr	r6
   15d28:	88800117 	ldw	r2,4(r17)
   15d2c:	98bfc81e 	bne	r19,r2,15c50 <__call_exitprocs+0x64>
   15d30:	b8800017 	ldw	r2,0(r23)
   15d34:	147fd526 	beq	r2,r17,15c8c <__call_exitprocs+0xa0>
   15d38:	003fc506 	br	15c50 <__call_exitprocs+0x64>
   15d3c:	8c000115 	stw	r16,4(r17)
   15d40:	003fea06 	br	15cec <__call_exitprocs+0x100>
   15d44:	2105883a 	add	r2,r4,r4
   15d48:	1485883a 	add	r2,r2,r18
   15d4c:	11000017 	ldw	r4,0(r2)
   15d50:	303ee83a 	callr	r6
   15d54:	003ff406 	br	15d28 <__call_exitprocs+0x13c>
   15d58:	303ee83a 	callr	r6
   15d5c:	003ff206 	br	15d28 <__call_exitprocs+0x13c>
   15d60:	88800117 	ldw	r2,4(r17)
   15d64:	1000081e 	bne	r2,zero,15d88 <__call_exitprocs+0x19c>
   15d68:	89000017 	ldw	r4,0(r17)
   15d6c:	20000726 	beq	r4,zero,15d8c <__call_exitprocs+0x1a0>
   15d70:	b9000015 	stw	r4,0(r23)
   15d74:	8809883a 	mov	r4,r17
   15d78:	00000000 	call	0 <__alt_mem_onchip_memory>
   15d7c:	bc400017 	ldw	r17,0(r23)
   15d80:	883fb71e 	bne	r17,zero,15c60 <__call_exitprocs+0x74>
   15d84:	003fc506 	br	15c9c <__call_exitprocs+0xb0>
   15d88:	89000017 	ldw	r4,0(r17)
   15d8c:	882f883a 	mov	r23,r17
   15d90:	2023883a 	mov	r17,r4
   15d94:	883fb21e 	bne	r17,zero,15c60 <__call_exitprocs+0x74>
   15d98:	003fc006 	br	15c9c <__call_exitprocs+0xb0>

00015d9c <alt_sim_halt>:
   15d9c:	defffd04 	addi	sp,sp,-12
   15da0:	df000215 	stw	fp,8(sp)
   15da4:	df000204 	addi	fp,sp,8
   15da8:	e13fff15 	stw	r4,-4(fp)
   15dac:	e0bfff17 	ldw	r2,-4(fp)
   15db0:	e0bffe15 	stw	r2,-8(fp)
   15db4:	e0bffe17 	ldw	r2,-8(fp)
   15db8:	1005003a 	cmpeq	r2,r2,zero
   15dbc:	1000021e 	bne	r2,zero,15dc8 <alt_sim_halt+0x2c>
   15dc0:	002af070 	cmpltui	zero,zero,43969
   15dc4:	00000106 	br	15dcc <alt_sim_halt+0x30>
   15dc8:	002af0b0 	cmpltui	zero,zero,43970
   15dcc:	e037883a 	mov	sp,fp
   15dd0:	df000017 	ldw	fp,0(sp)
   15dd4:	dec00104 	addi	sp,sp,4
   15dd8:	f800283a 	ret

00015ddc <_exit>:
   15ddc:	defffd04 	addi	sp,sp,-12
   15de0:	dfc00215 	stw	ra,8(sp)
   15de4:	df000115 	stw	fp,4(sp)
   15de8:	df000104 	addi	fp,sp,4
   15dec:	e13fff15 	stw	r4,-4(fp)
   15df0:	e13fff17 	ldw	r4,-4(fp)
   15df4:	0015d9c0 	call	15d9c <alt_sim_halt>
   15df8:	003fff06 	br	15df8 <_exit+0x1c>
   15dfc:	00015be8 	cmpgeui	zero,zero,1391
