
Assignment01.elf:     file format elf32-littlenios2
Assignment01.elf
architecture: nios2, flags 0x00000112:
EXEC_P, HAS_SYMS, D_PAGED
start address 0x00000248

Program Header:
    LOAD off    0x00001020 vaddr 0x00000020 paddr 0x00000020 align 2**12
         filesz 0x00015de0 memsz 0x00015de0 flags r-x
    LOAD off    0x00017000 vaddr 0x01000000 paddr 0x01000000 align 2**12
         filesz 0x00000000 memsz 0x00000000 flags r-x
    LOAD off    0x00017000 vaddr 0x08000000 paddr 0x08000000 align 2**12
         filesz 0x00002500 memsz 0x0007fa24 flags rw-

Sections:
Idx Name          Size      VMA       LMA       File off  Algn
  0 .entry        00000000  01000000  01000000  00017000  2**5
                  CONTENTS, ALLOC, LOAD, READONLY, CODE
  1 .exceptions   00000228  00000020  00000020  00001020  2**2
                  CONTENTS, ALLOC, LOAD, READONLY, CODE
  2 .text         00015bb8  00000248  00000248  00001248  2**2
                  CONTENTS, ALLOC, LOAD, READONLY, CODE
  3 .rodata       000006f4  08000000  08000000  00017000  2**2
                  CONTENTS, ALLOC, LOAD, READONLY, DATA
  4 .rwdata       00001e0c  080006f4  080006f4  000176f4  2**2
                  CONTENTS, ALLOC, LOAD, DATA, SMALL_DATA
  5 .bss          0007d794  08002500  08002500  00019500  2**2
                  ALLOC, SMALL_DATA
  6 .comment      00000023  00000000  00000000  00019500  2**0
                  CONTENTS, READONLY
  7 .debug_aranges 00000e88  00000000  00000000  00019528  2**3
                  CONTENTS, READONLY, DEBUGGING
  8 .debug_pubnames 000023f1  00000000  00000000  0001a3b0  2**0
                  CONTENTS, READONLY, DEBUGGING
  9 .debug_info   0002edb1  00000000  00000000  0001c7a1  2**0
                  CONTENTS, READONLY, DEBUGGING
 10 .debug_abbrev 000095ce  00000000  00000000  0004b552  2**0
                  CONTENTS, READONLY, DEBUGGING
 11 .debug_line   0001a877  00000000  00000000  00054b20  2**0
                  CONTENTS, READONLY, DEBUGGING
 12 .debug_frame  00002e54  00000000  00000000  0006f398  2**2
                  CONTENTS, READONLY, DEBUGGING
 13 .debug_str    00002a99  00000000  00000000  000721ec  2**0
                  CONTENTS, READONLY, DEBUGGING
 14 .debug_loc    0000ddad  00000000  00000000  00074c85  2**0
                  CONTENTS, READONLY, DEBUGGING
 15 .debug_alt_sim_info 00000050  00000000  00000000  00082a34  2**2
                  CONTENTS, READONLY, DEBUGGING
 16 .debug_ranges 00000950  00000000  00000000  00082a88  2**3
                  CONTENTS, READONLY, DEBUGGING
 17 .thread_model 00000003  00000000  00000000  000888c3  2**0
                  CONTENTS, READONLY
 18 .cpu          00000005  00000000  00000000  000888c6  2**0
                  CONTENTS, READONLY
 19 .qsys         00000001  00000000  00000000  000888cb  2**0
                  CONTENTS, READONLY
 20 .simulation_enabled 00000001  00000000  00000000  000888cc  2**0
                  CONTENTS, READONLY
 21 .sysid_hash   00000004  00000000  00000000  000888cd  2**0
                  CONTENTS, READONLY
 22 .sysid_base   00000004  00000000  00000000  000888d1  2**0
                  CONTENTS, READONLY
 23 .sysid_time   00000004  00000000  00000000  000888d5  2**0
                  CONTENTS, READONLY
 24 .stderr_dev   00000009  00000000  00000000  000888d9  2**0
                  CONTENTS, READONLY
 25 .stdin_dev    00000009  00000000  00000000  000888e2  2**0
                  CONTENTS, READONLY
 26 .stdout_dev   00000009  00000000  00000000  000888eb  2**0
                  CONTENTS, READONLY
 27 .sopc_system_name 00000005  00000000  00000000  000888f4  2**0
                  CONTENTS, READONLY
 28 .sopcinfo     000adc75  00000000  00000000  000888f9  2**0
                  CONTENTS, READONLY
SYMBOL TABLE:
01000000 l    d  .entry	00000000 .entry
00000020 l    d  .exceptions	00000000 .exceptions
00000248 l    d  .text	00000000 .text
08000000 l    d  .rodata	00000000 .rodata
080006f4 l    d  .rwdata	00000000 .rwdata
08002500 l    d  .bss	00000000 .bss
00000000 l    d  .comment	00000000 .comment
00000000 l    d  .debug_aranges	00000000 .debug_aranges
00000000 l    d  .debug_pubnames	00000000 .debug_pubnames
00000000 l    d  .debug_info	00000000 .debug_info
00000000 l    d  .debug_abbrev	00000000 .debug_abbrev
00000000 l    d  .debug_line	00000000 .debug_line
00000000 l    d  .debug_frame	00000000 .debug_frame
00000000 l    d  .debug_str	00000000 .debug_str
00000000 l    d  .debug_loc	00000000 .debug_loc
00000000 l    d  .debug_alt_sim_info	00000000 .debug_alt_sim_info
00000000 l    d  .debug_ranges	00000000 .debug_ranges
0000028c l       .text	00000000 alt_after_alt_main
00000020 l       .exceptions	00000000 save_context
0000009c l       .exceptions	00000000 save_sp_to_pxCurrentTCB
000000ac l       .exceptions	00000000 hw_irq_test
00000150 l       .exceptions	00000000 soft_exceptions
000000c0 l       .exceptions	00000000 hw_irq_handler
000000d4 l       .exceptions	00000000 restore_context
0000016c l       .exceptions	00000000 call_scheduler
00000000 l    df *ABS*	00000000 alt_irq_handler.c
00000000 l    df *ABS*	00000000 croutine.c
08002504 l     O .bss	00000004 uxTopCoRoutineReadyPriority
08002508 l     O .bss	00000004 xCoRoutineTickCount
0800250c l     O .bss	00000004 xLastTickCount
08002510 l     O .bss	00000004 xPassedTicks
00000780 l     F .text	0000009c prvInitialiseCoRoutineLists
080025a0 l     O .bss	00000028 pxReadyCoRoutineLists
08002518 l     O .bss	00000004 pxOverflowDelayedCoRoutineList
08002514 l     O .bss	00000004 pxDelayedCoRoutineList
00000470 l     F .text	000000d4 prvCheckPendingReadyList
080025f0 l     O .bss	00000014 xPendingReadyCoRoutineList
00000544 l     F .text	00000150 prvCheckDelayedList
080025c8 l     O .bss	00000014 xDelayedCoRoutineList1
080025dc l     O .bss	00000014 xDelayedCoRoutineList2
00000000 l    df *ABS*	00000000 event_groups.c
00000f44 l     F .text	00000078 prvTestWaitCondition
00000000 l    df *ABS*	00000000 heap.c
080024a0 l     O .rwdata	00000002 heapSTRUCT_SIZE
080024a4 l     O .rwdata	00000004 xTotalHeapSize
0800251c l     O .bss	00000004 pxEnd
080024a8 l     O .rwdata	00000004 xFreeBytesRemaining
0000120c l     F .text	000000c0 prvHeapInit
08002520 l     O .bss	00000008 xStart
000012cc l     F .text	00000138 prvInsertBlockIntoFreeList
08002604 l     O .bss	0007d000 xHeap
00000000 l    df *ABS*	00000000 list.c
00000000 l    df *ABS*	00000000 port.c
000016cc l     F .text	00000028 prvReadGp
00001830 l     F .text	00000098 prvSetupTimerInterrupt
00000000 l    df *ABS*	00000000 queue.c
0000270c l     F .text	00000194 prvCopyDataToQueue
00002ac4 l     F .text	00000058 prvIsQueueFull
0000293c l     F .text	000000f0 prvUnlockQueue
000028a0 l     F .text	0000009c prvCopyDataFromQueue
00002a2c l     F .text	00000054 prvIsQueueEmpty
00000000 l    df *ABS*	00000000 tasks.c
0800252c l     O .bss	00000004 uxTasksDeleted
08002530 l     O .bss	00000004 uxCurrentNumberOfTasks
08002534 l     O .bss	00000004 xTickCount
08002538 l     O .bss	00000004 uxTopReadyPriority
0800253c l     O .bss	00000004 xSchedulerRunning
08002540 l     O .bss	00000004 uxPendedTicks
08002544 l     O .bss	00000004 xYieldPending
08002548 l     O .bss	00000004 xNumOfOverflows
0800254c l     O .bss	00000004 uxTaskNumber
080024ac l     O .rwdata	00000004 xNextTaskUnblockTime
08002550 l     O .bss	00000004 uxSchedulerSuspended
00003c10 l     F .text	000000d8 prvAllocateTCBAndStack
00003910 l     F .text	0000013c prvInitialiseTCBVariables
00003a4c l     F .text	000000a8 prvInitialiseTaskLists
0807f604 l     O .bss	000000f0 pxReadyTasksLists
0807f730 l     O .bss	00000014 xTasksWaitingTermination
00003dfc l     F .text	00000070 prvResetNextTaskUnblockTime
00003b98 l     F .text	00000078 prvAddCurrentTaskToDelayedList
000038f4 l     F .text	0000001c prvIdleTask
0807f71c l     O .bss	00000014 xPendingReadyList
08002554 l     O .bss	00000004 pxDelayedTaskList
08002558 l     O .bss	00000004 pxOverflowDelayedTaskList
0800003c l     O .rodata	00000014 ucExpectedStackBytes.2768
00003af4 l     F .text	000000a4 prvCheckTasksWaitingTermination
0807f6f4 l     O .bss	00000014 xDelayedTaskList1
0807f708 l     O .bss	00000014 xDelayedTaskList2
00003dc0 l     F .text	0000003c prvDeleteTCB
00003ce8 l     F .text	00000068 prvTaskCheckFreeStackSpace
00000000 l    df *ABS*	00000000 timers.c
0800255c l     O .bss	00000004 xTimerQueue
00005044 l     F .text	0000007c prvCheckForValidListAndQueue
00004b50 l     F .text	00000034 prvTimerTask
00004aa4 l     F .text	000000ac prvProcessExpiredTimer
08002564 l     O .bss	00000004 pxCurrentTimerList
00004ce8 l     F .text	000000cc prvInsertTimerInActiveList
00004c24 l     F .text	00000060 prvGetNextExpireTime
00004b84 l     F .text	000000a0 prvProcessTimerOrBlockTask
00004db4 l     F .text	0000018c prvProcessReceivedCommands
00004c84 l     F .text	00000064 prvSampleTimeNow
08002560 l     O .bss	00000004 xLastTime.2546
00004f40 l     F .text	00000104 prvSwitchTimerLists
08002568 l     O .bss	00000004 pxOverflowTimerList
0807f744 l     O .bss	00000014 xActiveTimerList1
0807f758 l     O .bss	00000014 xActiveTimerList2
00000000 l    df *ABS*	00000000 freertos_test.c
000051bc l     F .text	0000002c prvFirstRegTestTask
000051e8 l     F .text	0000002c prvSecondRegTestTask
00000000 l    df *ABS*	00000000 memcmp.c
00000000 l    df *ABS*	00000000 memcpy.c
00000000 l    df *ABS*	00000000 memset.c
00000000 l    df *ABS*	00000000 printf.c
00000000 l    df *ABS*	00000000 puts.c
00000000 l    df *ABS*	00000000 strlen.c
00000000 l    df *ABS*	00000000 vfprintf.c
00005560 l     F .text	00000058 __sprint_r
080000ec l     O .rodata	00000010 blanks.3452
080000dc l     O .rodata	00000010 zeroes.3453
00000000 l    df *ABS*	00000000 wsetup.c
00000000 l    df *ABS*	00000000 dtoa.c
000075c4 l     F .text	00000218 quorem
00000000 l    df *ABS*	00000000 fflush.c
00000000 l    df *ABS*	00000000 findfp.c
00008fc0 l     F .text	00000058 std
000090cc l     F .text	00000008 __fp_lock
000090d4 l     F .text	00000008 __fp_unlock
00000000 l    df *ABS*	00000000 mallocr.c
00000000 l    df *ABS*	00000000 fvwrite.c
00000000 l    df *ABS*	00000000 fwalk.c
00000000 l    df *ABS*	00000000 impure.c
080006f4 l     O .rwdata	00000400 impure_data
00000000 l    df *ABS*	00000000 locale.c
080024bc l     O .rwdata	00000004 charset
08000120 l     O .rodata	00000030 lconv
00000000 l    df *ABS*	00000000 makebuf.c
00000000 l    df *ABS*	00000000 mallocr.c
00000000 l    df *ABS*	00000000 memchr.c
00000000 l    df *ABS*	00000000 memmove.c
00000000 l    df *ABS*	00000000 mprec.c
08000268 l     O .rodata	0000000c p05.2458
00000000 l    df *ABS*	00000000 mallocr.c
00000000 l    df *ABS*	00000000 s_isinfd.c
00000000 l    df *ABS*	00000000 s_isnand.c
00000000 l    df *ABS*	00000000 sbrkr.c
00000000 l    df *ABS*	00000000 stdio.c
00000000 l    df *ABS*	00000000 strcmp.c
00000000 l    df *ABS*	00000000 writer.c
00000000 l    df *ABS*	00000000 mallocr.c
00000000 l    df *ABS*	00000000 closer.c
00000000 l    df *ABS*	00000000 fclose.c
00000000 l    df *ABS*	00000000 fstatr.c
00000000 l    df *ABS*	00000000 int_errno.c
00000000 l    df *ABS*	00000000 isattyr.c
00000000 l    df *ABS*	00000000 lseekr.c
00000000 l    df *ABS*	00000000 readr.c
00000000 l    df *ABS*	00000000 libgcc2.c
00000000 l    df *ABS*	00000000 libgcc2.c
00000000 l    df *ABS*	00000000 dp-bit.c
0000d128 l     F .text	00000410 _fpadd_parts
00000000 l    df *ABS*	00000000 dp-bit.c
00000000 l    df *ABS*	00000000 dp-bit.c
00000000 l    df *ABS*	00000000 dp-bit.c
00000000 l    df *ABS*	00000000 dp-bit.c
00000000 l    df *ABS*	00000000 dp-bit.c
00000000 l    df *ABS*	00000000 dp-bit.c
00000000 l    df *ABS*	00000000 dp-bit.c
00000000 l    df *ABS*	00000000 dp-bit.c
00000000 l    df *ABS*	00000000 dp-bit.c
00000000 l    df *ABS*	00000000 dp-bit.c
00000000 l    df *ABS*	00000000 dp-bit.c
00000000 l    df *ABS*	00000000 lib2-divmod.c
0000e254 l     F .text	0000007c udivmodsi4
00000000 l    df *ABS*	00000000 libgcc2.c
00000000 l    df *ABS*	00000000 libgcc2.c
00000000 l    df *ABS*	00000000 libgcc2.c
00000000 l    df *ABS*	00000000 dp-bit.c
00000000 l    df *ABS*	00000000 dp-bit.c
00000000 l    df *ABS*	00000000 dp-bit.c
00000000 l    df *ABS*	00000000 alt_close.c
0000eac8 l     F .text	00000060 alt_get_errno
00000000 l    df *ABS*	00000000 alt_dev.c
0000eb28 l     F .text	0000002c alt_dev_null_write
00000000 l    df *ABS*	00000000 alt_errno.c
00000000 l    df *ABS*	00000000 alt_fstat.c
0000ec28 l     F .text	00000060 alt_get_errno
00000000 l    df *ABS*	00000000 alt_irq_vars.c
00000000 l    df *ABS*	00000000 alt_isatty.c
0000ed48 l     F .text	00000060 alt_get_errno
00000000 l    df *ABS*	00000000 alt_lseek.c
0000ee98 l     F .text	00000060 alt_get_errno
00000000 l    df *ABS*	00000000 alt_main.c
00000000 l    df *ABS*	00000000 alt_malloc_lock.c
00000000 l    df *ABS*	00000000 alt_read.c
0000f0c4 l     F .text	00000060 alt_get_errno
00000000 l    df *ABS*	00000000 alt_release_fd.c
00000000 l    df *ABS*	00000000 alt_sbrk.c
080024e4 l     O .rwdata	00000004 heap_end
00000000 l    df *ABS*	00000000 alt_write.c
0000f360 l     F .text	00000060 alt_get_errno
00000000 l    df *ABS*	00000000 alt_sys_init.c
080010b0 l     O .rwdata	000000d8 flash_controller
08001188 l     O .rwdata	00001060 jtag_uart
080021e8 l     O .rwdata	00000120 character_lcd
08002308 l     O .rwdata	000000c4 uart
080023cc l     O .rwdata	00000038 ps2
08002404 l     O .rwdata	00000048 video_character_buffer_with_dma
0800244c l     O .rwdata	00000054 video_pixel_buffer_dma
0000f760 l     F .text	00000038 alt_dev_reg
00000000 l    df *ABS*	00000000 altera_avalon_cfi_flash.c
0000f834 l     F .text	00000038 alt_flash_device_register
00000000 l    df *ABS*	00000000 altera_avalon_cfi_flash_table.c
00010634 l     F .text	0000007c alt_read_16bit_query_entry
00000000 l    df *ABS*	00000000 altera_avalon_jtag_uart_fd.c
00000000 l    df *ABS*	00000000 altera_avalon_jtag_uart_init.c
00011718 l     F .text	0000022c altera_avalon_jtag_uart_irq
00011944 l     F .text	000000b0 altera_avalon_jtag_uart_timeout
00000000 l    df *ABS*	00000000 altera_avalon_jtag_uart_ioctl.c
00000000 l    df *ABS*	00000000 altera_avalon_jtag_uart_read.c
00000000 l    df *ABS*	00000000 altera_avalon_jtag_uart_write.c
00000000 l    df *ABS*	00000000 altera_avalon_lcd_16207.c
080024e8 l     O .rwdata	00000004 colstart
00011fc0 l     F .text	000000b8 lcd_write_command
00012078 l     F .text	000000d4 lcd_write_data
0001214c l     F .text	000000c4 lcd_clear_screen
00012210 l     F .text	000001ec lcd_repaint_screen
000123fc l     F .text	000000c8 lcd_scroll_up
000124c4 l     F .text	000002d0 lcd_handle_escape
00012c98 l     F .text	000000cc alt_lcd_16207_timeout
00000000 l    df *ABS*	00000000 altera_avalon_lcd_16207_fd.c
00000000 l    df *ABS*	00000000 altera_avalon_timer_sc.c
00012ef8 l     F .text	00000074 alt_avalon_timer_sc_irq
00000000 l    df *ABS*	00000000 altera_avalon_uart_fd.c
00000000 l    df *ABS*	00000000 altera_avalon_uart_init.c
000131ac l     F .text	000000a0 altera_avalon_uart_irq
0001324c l     F .text	000000e0 altera_avalon_uart_rxirq
0001332c l     F .text	0000015c altera_avalon_uart_txirq
00000000 l    df *ABS*	00000000 altera_avalon_uart_read.c
00013718 l     F .text	00000060 alt_get_errno
00000000 l    df *ABS*	00000000 altera_avalon_uart_write.c
00013940 l     F .text	00000060 alt_get_errno
00000000 l    df *ABS*	00000000 altera_up_avalon_ps2.c
00000000 l    df *ABS*	00000000 altera_up_avalon_video_character_buffer_with_dma.c
00000000 l    df *ABS*	00000000 alt_alarm_start.c
00000000 l    df *ABS*	00000000 alt_dcache_flush.c
00000000 l    df *ABS*	00000000 alt_dev_llist_insert.c
00014624 l     F .text	00000060 alt_get_errno
00000000 l    df *ABS*	00000000 alt_do_ctors.c
00000000 l    df *ABS*	00000000 alt_do_dtors.c
00000000 l    df *ABS*	00000000 alt_find_dev.c
00000000 l    df *ABS*	00000000 alt_flash_dev.c
00000000 l    df *ABS*	00000000 alt_io_redirect.c
000148b0 l     F .text	000000c4 alt_open_fd
00000000 l    df *ABS*	00000000 alt_open.c
000149ec l     F .text	000000dc alt_file_locked
00014c50 l     F .text	00000060 alt_get_errno
00000000 l    df *ABS*	00000000 alt_tick.c
00000000 l    df *ABS*	00000000 alt_usleep.c
00000000 l    df *ABS*	00000000 altera_nios2_qsys_irq.c
00000000 l    df *ABS*	00000000 altera_avalon_cfi_flash_amd.c
00015248 l     F .text	000000bc alt_write_word_amd
00015124 l     F .text	00000124 alt_wait_for_command_to_complete_amd
00000000 l    df *ABS*	00000000 altera_avalon_cfi_flash_intel.c
000154fc l     F .text	0000018c alt_unlock_block_intel
00015688 l     F .text	000000dc alt_write_word_intel
00000000 l    df *ABS*	00000000 alt_busy_sleep.c
00000000 l    df *ABS*	00000000 alt_find_file.c
00000000 l    df *ABS*	00000000 alt_get_fd.c
00000000 l    df *ABS*	00000000 atexit.c
00000000 l    df *ABS*	00000000 ctype_.c
08000574 l     O .rodata	00000180 _ctype_b
00000000 l    df *ABS*	00000000 exit.c
00000000 l    df *ABS*	00000000 __atexit.c
00000000 l    df *ABS*	00000000 __call_atexit.c
00015be8 l     F .text	00000004 register_fini
00000000 l    df *ABS*	00000000 alt_exit.c
00015d9c l     F .text	00000040 alt_sim_halt
0000ac44 g     F .text	00000094 _mprec_log10
0000ad30 g     F .text	00000088 __any_on
0000c43c g     F .text	00000070 _isatty_r
08000240 g     O .rodata	00000028 __mprec_tinytens
0000eef8 g     F .text	0000006c alt_main
00005438 g     F .text	000000a0 _puts_r
000100f4 g     F .text	00000048 alt_read_query_entry_32bit
00013bec g     F .text	00000058 alt_up_ps2_disable_read_interrupt
0807f794 g     O .bss	00000100 alt_irq
0000c4ac g     F .text	00000078 _lseek_r
000000c4 g       .exceptions	00000000 restore_sp_from_pxCurrentTCB
00003548 g     F .text	00000074 vTaskPlaceOnUnorderedEventList
000011d0 g     F .text	00000020 xPortGetFreeHeapSize
0000f86c g     F .text	000002c0 alt_flash_cfi_write
00000c9c g     F .text	0000003c xEventGroupGetBitsFromISR
0000dc48 g     F .text	00000088 __eqdf2
0807fa24 g       *ABS*	00000000 __alt_heap_start
000048fc g     F .text	000000b0 xTimerCreate
000053c0 g     F .text	00000044 printf
0000bf08 g     F .text	00000068 __sseek
00009028 g     F .text	000000a4 __sinit
00014234 g     F .text	00000114 alt_up_char_buffer_string
00013a04 g     F .text	00000034 read_CE_bit
00002b64 g     F .text	00000094 vQueueWaitForMessageRestricted
00009d00 g     F .text	00000084 _setlocale_r
00009128 g     F .text	00000068 __sfmoreglue
0000ef84 g     F .text	00000020 __malloc_unlock
00013d98 g     F .text	000000b0 alt_up_ps2_read_data_byte_timeout
00014164 g     F .text	000000d0 alt_up_char_buffer_draw
000008f0 g     F .text	00000184 xEventGroupSync
0000a758 g     F .text	000000e0 memmove
0000081c g     F .text	00000080 xCoRoutineRemoveFromEventList
00004114 g     F .text	00000054 vTaskEnterCritical
00009118 g     F .text	00000010 _cleanup
000020c0 g     F .text	000000e8 xQueueGenericSendFromISR
0000adb8 g     F .text	000000bc _Balloc
0000dd58 g     F .text	00000088 __gtdf2
00000000  w      *UND*	00000000 __errno
00010280 g     F .text	00000048 alt_write_flash_command_32bit_device_16bit_mode
01000000 g     F .entry	00000000 __reset
00001d78 g     F .text	00000094 xQueueGiveMutexRecursive
08002528 g     O .bss	00000004 pxCurrentTCB
0000c3c8 g     F .text	00000074 _fstat_r
0000fd88 g     F .text	000002e8 alt_flash_program_block
08002584 g     O .bss	00000004 errno
08002590 g     O .bss	00000004 alt_argv
00004434 g     F .text	00000188 xTaskNotify
0800a4a0 g       *ABS*	00000000 _gp
00014e54 g     F .text	00000030 usleep
00000a74 g     F .text	000001c0 xEventGroupWaitBits
08000f30 g     O .rwdata	00000180 alt_fd_list
000017dc g     F .text	00000038 xPortStartScheduler
00002fac g     F .text	00000044 vTaskEndScheduler
0001474c g     F .text	00000094 alt_find_dev
00005288 g     F .text	000000a0 memcpy
000034e8 g     F .text	00000060 vTaskPlaceOnEventList
00002bf8 g     F .text	000001c8 xTaskGenericCreate
00014348 g     F .text	0000005c alt_up_char_buffer_clear
0000910c g     F .text	0000000c _cleanup_r
0000def0 g     F .text	000000f8 __floatsidf
00014974 g     F .text	00000078 alt_io_redirect
0000de68 g     F .text	00000088 __ltdf2
00002590 g     F .text	00000080 xQueuePeekFromISR
00015e00 g       *ABS*	00000000 __DTOR_END__
000054d8 g     F .text	00000014 puts
00001150 g     F .text	00000080 vPortFree
00000290 g     F .text	00000140 xCoRoutineCreate
0000ab94 g     F .text	000000b0 __ratio
01000000 g       *ABS*	00000000 __alt_mem_flash_controller
00011b5c g     F .text	00000224 altera_avalon_jtag_uart_read
00000000  w      *UND*	00000000 malloc
00005404 g     F .text	00000034 _printf_r
0000e390 g     F .text	00000008 __udivsi3
0000ec88 g     F .text	000000c0 isatty
08000150 g     O .rodata	000000c8 __mprec_tens
00003d50 g     F .text	00000070 uxTaskGetStackHighWaterMark
00009cdc g     F .text	00000008 __locale_charset
0000149c g     F .text	00000088 vListInsertEnd
08002578 g     O .bss	00000004 __malloc_top_pad
0000089c g     F .text	00000054 xEventGroupCreate
080024b8 g     O .rwdata	00000004 __mb_cur_max
00009ce4 g     F .text	0000000c _localeconv_r
0000b4b0 g     F .text	0000003c __i2b
000096c0 g     F .text	0000049c __sfvwrite_r
0000be90 g     F .text	00000070 _sbrk_r
00015304 g     F .text	00000084 alt_program_intel
00000ed4 g     F .text	00000038 vEventGroupSetBitsCallback
0000c524 g     F .text	00000078 _read_r
00001474 g     F .text	00000028 vListInitialiseItem
000144f8 g     F .text	00000078 alt_dcache_flush
08000af4 g     O .rwdata	0000000c __lc_ctype
080024d8 g     O .rwdata	00000004 alt_max_fd
00010070 g     F .text	00000040 alt_read_query_entry_8bit
000018c8 g     F .text	0000004c vPortSysTickHandler
0000e7cc g     F .text	00000138 __unpack_d
0000c2a4 g     F .text	00000110 _fclose_r
00013a38 g     F .text	00000034 read_num_bytes_available
00015388 g     F .text	00000174 alt_erase_block_intel
00008f8c g     F .text	00000034 fflush
0800257c g     O .bss	00000004 __malloc_max_sbrked_mem
00001914 g     F .text	000001b0 alt_irq_register
000139a0 g     F .text	00000034 read_RI_bit
0000d5b8 g     F .text	00000074 __adddf3
0000aa74 g     F .text	00000120 __b2d
0000cb78 g     F .text	000005b0 __umoddi3
0000eda8 g     F .text	000000f0 lseek
080024b4 g     O .rwdata	00000004 _global_impure_ptr
00000cd8 g     F .text	0000018c xEventGroupSetBits
0000b82c g     F .text	000005f4 _realloc_r
0807fa24 g       *ABS*	00000000 __bss_end
00014d48 g     F .text	0000010c alt_tick
0000c59c g     F .text	000005dc __udivdi3
08000218 g     O .rodata	00000028 __mprec_bigtens
0000b70c g     F .text	00000120 __s2b
0000e0c0 g     F .text	00000194 __floatunsidf
0000a994 g     F .text	00000060 __mcmp
00000fbc g     F .text	00000194 pvPortMalloc
000130ec g     F .text	000000c0 altera_avalon_uart_init
00013aa0 g     F .text	0000002c read_data_byte
080024fc g     O .rwdata	00000004 __ctype_ptr
000090f4 g     F .text	00000018 __fp_lock_all
000026d4 g     F .text	00000038 vQueueDelete
00001814 g     F .text	0000001c vPortEndScheduler
00001404 g     F .text	00000070 vListInitialise
00014cb0 g     F .text	00000098 alt_alarm_stop
000139d4 g     F .text	00000030 read_RE_bit
08002588 g     O .bss	00000004 alt_irq_active
0000017c g     F .exceptions	000000cc alt_irq_handler
08000f08 g     O .rwdata	00000028 alt_dev_null
00003168 g     F .text	00000028 xTaskGetTickCount
00001f10 g     F .text	000001b0 xQueueGenericSend
00010588 g     F .text	000000ac alt_set_flash_algorithm_func
00013c44 g     F .text	00000078 alt_up_ps2_write_data_byte
0000a860 g     F .text	00000070 __hi0bits
0000dfe8 g     F .text	000000d8 __fixdfsi
00004018 g     F .text	000000fc xTaskPriorityDisinherit
0001013c g     F .text	0000003c alt_write_flash_command_8bit_device_8bit_mode
00000000 g       *ABS*	00000000 __alt_mem_onchip_memory
080024d0 g     O .rwdata	00000008 alt_dev_list
0000f240 g     F .text	00000120 write
0000361c g     F .text	000000e8 xTaskRemoveFromEventList
0000eb54 g     F .text	000000d4 fstat
00000c34 g     F .text	00000068 xEventGroupClearBits
0001143c g     F .text	000000dc alt_check_primary_table
0000b5ec g     F .text	00000120 __pow5mult
0800256c g     O .bss	00000004 __nlocale_changed
0000e398 g     F .text	00000008 __umodsi3
0000fbbc g     F .text	00000068 alt_flash_cfi_read
00010310 g     F .text	00000034 alt_write_native_8bit
0807fa24 g       *ABS*	00000000 end
00013fb8 g     F .text	000000a8 alt_up_ps2_write_fd
00010178 g     F .text	0000007c alt_write_flash_command_16bit_device_8bit_mode
00012794 g     F .text	00000504 altera_avalon_lcd_16207_write
00002dc0 g     F .text	000000d8 vTaskDelete
000140a0 g     F .text	00000084 alt_up_char_buffer_init
00013778 g     F .text	000001c8 altera_avalon_uart_write
000106b0 g     F .text	000005e0 alt_read_cfi_table
00011660 g     F .text	000000b8 altera_avalon_jtag_uart_init
00004214 g     F .text	0000003c pvTaskIncrementMutexHeldCount
00015dfc g       *ABS*	00000000 __CTOR_LIST__
10000000 g       *ABS*	00000000 __alt_stack_pointer
00012f6c g     F .text	00000088 alt_avalon_timer_sc_init
0001304c g     F .text	00000058 altera_avalon_uart_write_fd
0000e438 g     F .text	00000080 __clzsi2
000130a4 g     F .text	00000048 altera_avalon_uart_close_fd
00011d80 g     F .text	00000240 altera_avalon_jtag_uart_write
0000f798 g     F .text	0000009c alt_flash_cfi_init
00009018 g     F .text	00000004 __sfp_lock_acquire
0000a674 g     F .text	000000e4 memchr
000055b8 g     F .text	00001eac ___vfprintf_internal_r
0000380c g     F .text	000000c4 xTaskCheckForTimeOut
00000694 g     F .text	000000ec vCoRoutineSchedule
000093ac g     F .text	00000314 _free_r
08002500 g     O .bss	00000004 pxCurrentCoRoutine
00015bec g     F .text	000001b0 __call_exitprocs
08002570 g     O .bss	00000004 __mlocale_changed
00004250 g     F .text	000000d8 ulTaskNotifyTake
080024c4 g     O .rwdata	00000004 __malloc_sbrk_base
00000248 g     F .text	00000048 _start
08002598 g     O .bss	00000004 _alt_tick_rate
00002ff0 g     F .text	00000028 vTaskSuspendAll
00003190 g     F .text	0000002c xTaskGetTickCountFromISR
0000b17c g     F .text	0000014c __lshift
0800259c g     O .bss	00000004 _alt_nticks
0000efa4 g     F .text	00000120 read
0000f3f4 g     F .text	0000036c alt_sys_init
000015f8 g     F .text	00000098 uxListRemove
00015ab4 g     F .text	00000134 __register_exitproc
00013ec4 g     F .text	00000058 alt_up_ps2_clear_fifo
000100b0 g     F .text	00000044 alt_read_query_entry_16bit
0000b2c8 g     F .text	000001e8 __multiply
000119f4 g     F .text	00000074 altera_avalon_jtag_uart_close
00003ee8 g     F .text	00000130 vTaskPriorityInherit
0807f76c g     O .bss	00000028 __malloc_current_mallinfo
000103a8 g     F .text	000001e0 alt_set_flash_width_func
0000ae74 g     F .text	0000017c __d2b
000033b8 g     F .text	00000130 vTaskSwitchContext
000045bc g     F .text	000001c0 xTaskNotifyFromISR
00011518 g     F .text	00000058 altera_avalon_jtag_uart_read_fd
000159b0 g     F .text	000000b8 alt_get_fd
000035bc g     F .text	00000060 vTaskPlaceOnEventListRestricted
00015764 g     F .text	0000012c alt_busy_sleep
0000e904 g     F .text	000000c8 __fpcmp_parts_d
0000c234 g     F .text	00000070 _close_r
00004328 g     F .text	0000010c xTaskNotifyWait
00014f0c g     F .text	00000218 alt_erase_block_amd
00005214 g     F .text	00000074 memcmp
000115c8 g     F .text	00000048 altera_avalon_jtag_uart_close_fd
0807fa24 g       *ABS*	00000000 __alt_stack_base
00011610 g     F .text	00000050 altera_avalon_jtag_uart_ioctl_fd
000049ac g     F .text	000000c8 xTimerGenericCommand
00007488 g     F .text	0000013c __swsetup_r
00010c90 g     F .text	000007ac alt_read_cfi_width
00001690 g     F .text	0000003c vApplicationStackOverflowHook
0000d9f0 g     F .text	00000258 __divdf3
00009190 g     F .text	000000f0 __sfp
0000acd8 g     F .text	00000058 __copybits
000031bc g     F .text	00000020 uxTaskGetNumberOfTasks
00000000         *UND*	00000000 save_context
08000b00 g     O .rwdata	00000408 __malloc_av_
00009024 g     F .text	00000004 __sinit_lock_release
0000d62c g     F .text	000003c4 __muldf3
0000bfec g     F .text	00000060 __sread
00015890 g     F .text	00000120 alt_find_file
00014570 g     F .text	000000b4 alt_dev_llist_insert
0000ef64 g     F .text	00000020 __malloc_lock
0000f184 g     F .text	000000bc sbrk
00001e0c g     F .text	000000a8 xQueueTakeMutexRecursive
00008d90 g     F .text	000001fc _fflush_r
00000e64 g     F .text	00000070 vEventGroupDelete
0000c180 g     F .text	000000b4 _calloc_r
080024ec g     O .rwdata	00000008 alt_flash_dev_list
0001023c g     F .text	00000044 alt_write_flash_command_16bit_device_16bit_mode
08002500 g       *ABS*	00000000 __bss_start
00005328 g     F .text	00000098 memset
0000513c g     F .text	00000080 main
08002594 g     O .bss	00000004 alt_envp
08002580 g     O .bss	00000004 __malloc_max_total_mem
00014124 g     F .text	00000040 alt_up_char_buffer_open_dev
00011570 g     F .text	00000058 altera_avalon_jtag_uart_write_fd
00001524 g     F .text	000000d4 vListInsert
00012d64 g     F .text	0000013c altera_avalon_lcd_16207_init
0000bf00 g     F .text	00000008 __sclose
10000000 g       *ABS*	00000000 __alt_heap_limit
0000c3b4 g     F .text	00000014 fclose
0000488c g     F .text	00000070 xTimerCreateTimerTask
00013e48 g     F .text	0000007c alt_up_ps2_read_data_byte
0807f894 g     O .bss	00000190 _atexit0
000077dc g     F .text	000015b4 _dtoa_r
00009f34 g     F .text	00000740 _malloc_r
00004a74 g     F .text	00000030 pcTimerGetTimerName
080024dc g     O .rwdata	00000004 alt_errno
000102c8 g     F .text	00000048 alt_write_flash_command_32bit_device_32bit_mode
00009c24 g     F .text	000000b8 _fwalk
000024ac g     F .text	000000e4 xQueueReceiveFromISR
0000fc24 g     F .text	00000164 alt_write_value_to_flash
00003e6c g     F .text	00000028 xTaskGetCurrentTaskHandle
00014060 g     F .text	00000040 alt_up_ps2_open_dev
00010344 g     F .text	00000034 alt_write_native_16bit
0000e2d0 g     F .text	00000060 __divsi3
08000274 g     O .rodata	00000014 __thenan_df
00001bd8 g     F .text	000000dc xQueueGenericCreate
00009280 g     F .text	0000012c _malloc_trim_r
00013b98 g     F .text	00000054 alt_up_ps2_enable_read_interrupt
00015e00 g       *ABS*	00000000 __CTOR_END__
0000c04c g     F .text	000000bc strcmp
00001eb4 g     F .text	0000005c xQueueCreateCountingSemaphore
00015e00 g       *ABS*	00000000 __DTOR_LIST__
0000dcd0 g     F .text	00000088 __nedf2
0000f3c0 g     F .text	00000034 alt_irq_init
00003704 g     F .text	000000d0 xTaskRemoveFromUnorderedEventList
0000f124 g     F .text	00000060 alt_release_fd
00003018 g     F .text	00000150 xTaskResumeAll
00002650 g     F .text	00000054 uxQueueSpacesAvailable
00013a6c g     F .text	00000034 read_data_valid
08000288 g     O .rodata	00000100 __clz_tab
00002f10 g     F .text	0000009c vTaskStartScheduler
08002574 g     O .bss	00000004 _PathLocale
00013d2c g     F .text	0000006c alt_up_ps2_write_data_byte_with_ack
00015a68 g     F .text	00000014 atexit
0000c108 g     F .text	00000078 _write_r
00009d84 g     F .text	0000001c setlocale
00002b1c g     F .text	00000048 xQueueIsQueueFullFromISR
0000510c g     F .text	00000030 pvTimerGetTimerID
000003d0 g     F .text	000000a0 vCoRoutineAddToDelayedList
080024b0 g     O .rwdata	00000004 _impure_ptr
0800258c g     O .bss	00000004 alt_argc
000146e8 g     F .text	00000064 _do_dtors
0000a9f4 g     F .text	00000080 __ulp
0000be20 g     F .text	00000040 __isinfd
000090dc g     F .text	00000018 __fp_unlock_all
000038d0 g     F .text	00000024 vTaskMissedYield
00012ea0 g     F .text	00000058 altera_avalon_lcd_16207_write_fd
080024c8 g     O .rwdata	00000008 alt_fs_list
000101f4 g     F .text	00000048 alt_write_flash_command_32bit_device_8bit_mode
00002610 g     F .text	00000040 uxQueueMessagesWaiting
00002280 g     F .text	0000022c xQueueGenericReceive
000031dc g     F .text	000001dc xTaskIncrementTick
00009cf0 g     F .text	00000010 localeconv
00001ac4 g     F .text	00000114 xQueueGenericReset
08002500 g       *ABS*	00000000 _edata
00012ff4 g     F .text	00000058 altera_avalon_uart_read_fd
0807fa24 g       *ABS*	00000000 _end
000147e0 g     F .text	0000007c alt_flash_open_dev
00011a68 g     F .text	000000f4 altera_avalon_jtag_uart_ioctl
000011f0 g     F .text	0000001c vPortInitialiseBlocks
000050c0 g     F .text	0000004c xTimerIsTimerActive
0000bf70 g     F .text	0000007c __swrite
080024c0 g     O .rwdata	00000004 __malloc_trim_threshold
00014e84 g     F .text	00000020 altera_nios2_qsys_irq_init
00015a7c g     F .text	00000038 exit
00009b5c g     F .text	000000c8 _fwalk_reent
00013acc g     F .text	000000cc alt_up_ps2_init
0000aff0 g     F .text	0000018c __mdiff
0001485c g     F .text	00000054 alt_flash_close_dev
0000e330 g     F .text	00000060 __modsi3
00002e98 g     F .text	00000078 vTaskDelay
10000000 g       *ABS*	00000000 __alt_data_end
0000901c g     F .text	00000004 __sfp_lock_release
08000000 g       *ABS*	00000000 __alt_mem_sdram
00003e94 g     F .text	00000054 xTaskGetSchedulerState
08000470 g     O .rodata	00000101 _ctype_
00013488 g     F .text	00000060 altera_avalon_uart_close
00015ddc g     F .text	00000020 _exit
0000be60 g     F .text	00000030 __isnand
000143a4 g     F .text	00000154 alt_alarm_start
0000e3a0 g     F .text	00000098 __muldi3
00009da0 g     F .text	00000194 __smakebuf_r
00010378 g     F .text	00000030 alt_write_native_32bit
00013cbc g     F .text	00000070 alt_up_ps2_wait_for_ack
00004168 g     F .text	00000068 vTaskExitCritical
000054ec g     F .text	00000074 strlen
000016f4 g     F .text	000000e8 pxPortInitialiseStack
00014ac8 g     F .text	00000188 open
0000dde0 g     F .text	00000088 __gedf2
0000fb2c g     F .text	00000090 alt_flash_cfi_get_info
000037d4 g     F .text	00000038 vTaskSetTimeOutState
080024e0 g     O .rwdata	00000004 alt_priority_mask
00007464 g     F .text	00000024 __vfprintf_internal
000134e8 g     F .text	00000230 altera_avalon_uart_read
000026a4 g     F .text	00000030 uxQueueMessagesWaitingFromISR
00002a80 g     F .text	00000044 xQueueIsQueueEmptyFromISR
00013f1c g     F .text	0000009c alt_up_ps2_read_fd
0000d538 g     F .text	00000080 __subdf3
0000a8d0 g     F .text	000000c4 __lo0bits
080024f4 g     O .rwdata	00000008 alt_alarm_list
00014684 g     F .text	00000064 _do_ctors
000041d0 g     F .text	00000044 uxTaskResetEventItemValue
00001cb4 g     F .text	000000c4 xQueueCreateMutex
0000e9cc g     F .text	000000fc close
00014ea4 g     F .text	00000068 alt_program_amd
0000477c g     F .text	00000110 vTaskNotifyGiveFromISR
0000e4b8 g     F .text	00000314 __pack_d
00000f0c g     F .text	00000038 vEventGroupClearBitsCallback
000021a8 g     F .text	000000d8 xQueueGiveFromISR
00000000  w      *UND*	00000000 free
00009020 g     F .text	00000004 __sinit_lock_acquire
0000b4ec g     F .text	00000100 __multadd
0000a838 g     F .text	00000028 _Bfree



Disassembly of section .exceptions:

00000020 <save_context>:
  20:	ef7fff04 	addi	ea,ea,-4
  24:	deffe304 	addi	sp,sp,-116
  28:	dfc00015 	stw	ra,0(sp)
  2c:	d8400215 	stw	at,8(sp)
  30:	d8800315 	stw	r2,12(sp)
  34:	d8c00415 	stw	r3,16(sp)
  38:	d9000515 	stw	r4,20(sp)
  3c:	d9400615 	stw	r5,24(sp)
  40:	d9800715 	stw	r6,28(sp)
  44:	d9c00815 	stw	r7,32(sp)
  48:	da000915 	stw	r8,36(sp)
  4c:	da400a15 	stw	r9,40(sp)
  50:	da800b15 	stw	r10,44(sp)
  54:	dac00c15 	stw	r11,48(sp)
  58:	db000d15 	stw	r12,52(sp)
  5c:	db400e15 	stw	r13,56(sp)
  60:	db800f15 	stw	r14,60(sp)
  64:	dbc01015 	stw	r15,64(sp)
  68:	000b307a 	rdctl	r5,estatus
  6c:	d9401115 	stw	r5,68(sp)
  70:	df401215 	stw	ea,72(sp)
  74:	dc001315 	stw	r16,76(sp)
  78:	dc401415 	stw	r17,80(sp)
  7c:	dc801515 	stw	r18,84(sp)
  80:	dcc01615 	stw	r19,88(sp)
  84:	dd001715 	stw	r20,92(sp)
  88:	dd401815 	stw	r21,96(sp)
  8c:	dd801915 	stw	r22,100(sp)
  90:	ddc01a15 	stw	r23,104(sp)
  94:	de801b15 	stw	gp,108(sp)
  98:	df001c15 	stw	fp,112(sp)

0000009c <save_sp_to_pxCurrentTCB>:
  9c:	06020034 	movhi	et,2048
  a0:	c6094a04 	addi	et,et,9512
  a4:	c6000017 	ldw	et,0(et)
  a8:	c6c00015 	stw	sp,0(et)

000000ac <hw_irq_test>:
  ac:	0009313a 	rdctl	r4,ipending
  b0:	000b307a 	rdctl	r5,estatus
  b4:	2880004c 	andi	r2,r5,1
  b8:	10002526 	beq	r2,zero,150 <soft_exceptions>
  bc:	20002426 	beq	r4,zero,150 <soft_exceptions>

000000c0 <hw_irq_handler>:
  c0:	000017c0 	call	17c <alt_irq_handler>

000000c4 <restore_sp_from_pxCurrentTCB>:
  c4:	06020034 	movhi	et,2048
  c8:	c6094a04 	addi	et,et,9512
  cc:	c6000017 	ldw	et,0(et)
  d0:	c6c00017 	ldw	sp,0(et)

000000d4 <restore_context>:
  d4:	dfc00017 	ldw	ra,0(sp)
  d8:	d8400217 	ldw	at,8(sp)
  dc:	d8800317 	ldw	r2,12(sp)
  e0:	d8c00417 	ldw	r3,16(sp)
  e4:	d9000517 	ldw	r4,20(sp)
  e8:	d9400617 	ldw	r5,24(sp)
  ec:	d9800717 	ldw	r6,28(sp)
  f0:	d9c00817 	ldw	r7,32(sp)
  f4:	da000917 	ldw	r8,36(sp)
  f8:	da400a17 	ldw	r9,40(sp)
  fc:	da800b17 	ldw	r10,44(sp)
 100:	dac00c17 	ldw	r11,48(sp)
 104:	db000d17 	ldw	r12,52(sp)
 108:	db400e17 	ldw	r13,56(sp)
 10c:	db800f17 	ldw	r14,60(sp)
 110:	dbc01017 	ldw	r15,64(sp)
 114:	de001117 	ldw	et,68(sp)
 118:	c001707a 	wrctl	estatus,et
 11c:	df401217 	ldw	ea,72(sp)
 120:	dc001317 	ldw	r16,76(sp)
 124:	dc401417 	ldw	r17,80(sp)
 128:	dc801517 	ldw	r18,84(sp)
 12c:	dcc01617 	ldw	r19,88(sp)
 130:	dd001717 	ldw	r20,92(sp)
 134:	dd401817 	ldw	r21,96(sp)
 138:	dd801917 	ldw	r22,100(sp)
 13c:	ddc01a17 	ldw	r23,104(sp)
 140:	de801b17 	ldw	gp,108(sp)
 144:	df001c17 	ldw	fp,112(sp)
 148:	dec01d04 	addi	sp,sp,116
 14c:	ef80083a 	eret

00000150 <soft_exceptions>:
 150:	ee000017 	ldw	et,0(ea)
 154:	00400ef4 	movhi	at,59
 158:	085a0e94 	ori	at,at,26682
 15c:	c070c03a 	cmpne	et,et,at
 160:	c0000226 	beq	et,zero,16c <call_scheduler>
 164:	003da03a 	break	0
 168:	003fda06 	br	d4 <restore_context>

0000016c <call_scheduler>:
 16c:	ef400104 	addi	ea,ea,4
 170:	df401215 	stw	ea,72(sp)
 174:	00033b80 	call	33b8 <vTaskSwitchContext>
 178:	003fd206 	br	c4 <restore_sp_from_pxCurrentTCB>

0000017c <alt_irq_handler>:
 17c:	defff904 	addi	sp,sp,-28
 180:	dfc00615 	stw	ra,24(sp)
 184:	df000515 	stw	fp,20(sp)
 188:	df000504 	addi	fp,sp,20
 18c:	0005313a 	rdctl	r2,ipending
 190:	e0bffc15 	stw	r2,-16(fp)
 194:	e0bffc17 	ldw	r2,-16(fp)
 198:	e0bfff15 	stw	r2,-4(fp)
 19c:	e03ffd15 	stw	zero,-12(fp)
 1a0:	00800044 	movi	r2,1
 1a4:	e0bffe15 	stw	r2,-8(fp)
 1a8:	e0ffff17 	ldw	r3,-4(fp)
 1ac:	e0bffe17 	ldw	r2,-8(fp)
 1b0:	1884703a 	and	r2,r3,r2
 1b4:	1005003a 	cmpeq	r2,r2,zero
 1b8:	1000171e 	bne	r2,zero,218 <alt_irq_handler+0x9c>
 1bc:	e0bffd17 	ldw	r2,-12(fp)
 1c0:	00c20234 	movhi	r3,2056
 1c4:	18fde504 	addi	r3,r3,-2156
 1c8:	100490fa 	slli	r2,r2,3
 1cc:	10c5883a 	add	r2,r2,r3
 1d0:	11800017 	ldw	r6,0(r2)
 1d4:	e0bffd17 	ldw	r2,-12(fp)
 1d8:	00c20234 	movhi	r3,2056
 1dc:	18fde504 	addi	r3,r3,-2156
 1e0:	100490fa 	slli	r2,r2,3
 1e4:	10c5883a 	add	r2,r2,r3
 1e8:	10800104 	addi	r2,r2,4
 1ec:	11000017 	ldw	r4,0(r2)
 1f0:	e17ffd17 	ldw	r5,-12(fp)
 1f4:	303ee83a 	callr	r6
 1f8:	0005313a 	rdctl	r2,ipending
 1fc:	e0bffb15 	stw	r2,-20(fp)
 200:	e0bffb17 	ldw	r2,-20(fp)
 204:	e0bfff15 	stw	r2,-4(fp)
 208:	e0bfff17 	ldw	r2,-4(fp)
 20c:	1004c03a 	cmpne	r2,r2,zero
 210:	103fe21e 	bne	r2,zero,19c <alt_irq_handler+0x20>
 214:	00000706 	br	234 <alt_irq_handler+0xb8>
 218:	e0bffe17 	ldw	r2,-8(fp)
 21c:	1085883a 	add	r2,r2,r2
 220:	e0bffe15 	stw	r2,-8(fp)
 224:	e0bffd17 	ldw	r2,-12(fp)
 228:	10800044 	addi	r2,r2,1
 22c:	e0bffd15 	stw	r2,-12(fp)
 230:	003fdd06 	br	1a8 <alt_irq_handler+0x2c>
 234:	e037883a 	mov	sp,fp
 238:	dfc00117 	ldw	ra,4(sp)
 23c:	df000017 	ldw	fp,0(sp)
 240:	dec00204 	addi	sp,sp,8
 244:	f800283a 	ret

Disassembly of section .text:

00000248 <_start>:
     248:	00820014 	movui	r2,2048
     24c:	10000033 	initd	0(r2)
     250:	10bff804 	addi	r2,r2,-32
     254:	00bffd16 	blt	zero,r2,24c <_start+0x4>
     258:	06c40034 	movhi	sp,4096
     25c:	dec00014 	ori	sp,sp,0
     260:	06820034 	movhi	gp,2048
     264:	d6a92814 	ori	gp,gp,42144
     268:	00820034 	movhi	r2,2048
     26c:	10894014 	ori	r2,r2,9472
     270:	00c201f4 	movhi	r3,2055
     274:	18fe8914 	ori	r3,r3,64036
     278:	10c00326 	beq	r2,r3,288 <_start+0x40>
     27c:	10000015 	stw	zero,0(r2)
     280:	10800104 	addi	r2,r2,4
     284:	10fffd36 	bltu	r2,r3,27c <_start+0x34>
     288:	000eef80 	call	eef8 <alt_main>

0000028c <alt_after_alt_main>:
     28c:	003fff06 	br	28c <alt_after_alt_main>

00000290 <xCoRoutineCreate>:
     290:	defff904 	addi	sp,sp,-28
     294:	dfc00615 	stw	ra,24(sp)
     298:	df000515 	stw	fp,20(sp)
     29c:	df000504 	addi	fp,sp,20
     2a0:	e13ffd15 	stw	r4,-12(fp)
     2a4:	e17ffe15 	stw	r5,-8(fp)
     2a8:	e1bfff15 	stw	r6,-4(fp)
     2ac:	01000e04 	movi	r4,56
     2b0:	0000fbc0 	call	fbc <pvPortMalloc>
     2b4:	e0bffb15 	stw	r2,-20(fp)
     2b8:	e0bffb17 	ldw	r2,-20(fp)
     2bc:	1005003a 	cmpeq	r2,r2,zero
     2c0:	10003b1e 	bne	r2,zero,3b0 <xCoRoutineCreate+0x120>
     2c4:	d0a01817 	ldw	r2,-32672(gp)
     2c8:	1004c03a 	cmpne	r2,r2,zero
     2cc:	1000031e 	bne	r2,zero,2dc <xCoRoutineCreate+0x4c>
     2d0:	e0bffb17 	ldw	r2,-20(fp)
     2d4:	d0a01815 	stw	r2,-32672(gp)
     2d8:	00007800 	call	780 <prvInitialiseCoRoutineLists>
     2dc:	e0bffe17 	ldw	r2,-8(fp)
     2e0:	108000b0 	cmpltui	r2,r2,2
     2e4:	1000021e 	bne	r2,zero,2f0 <xCoRoutineCreate+0x60>
     2e8:	00800044 	movi	r2,1
     2ec:	e0bffe15 	stw	r2,-8(fp)
     2f0:	e0bffb17 	ldw	r2,-20(fp)
     2f4:	10000d0d 	sth	zero,52(r2)
     2f8:	e0fffb17 	ldw	r3,-20(fp)
     2fc:	e0bffe17 	ldw	r2,-8(fp)
     300:	18800b15 	stw	r2,44(r3)
     304:	e0fffb17 	ldw	r3,-20(fp)
     308:	e0bfff17 	ldw	r2,-4(fp)
     30c:	18800c15 	stw	r2,48(r3)
     310:	e0fffb17 	ldw	r3,-20(fp)
     314:	e0bffd17 	ldw	r2,-12(fp)
     318:	18800015 	stw	r2,0(r3)
     31c:	e0bffb17 	ldw	r2,-20(fp)
     320:	11000104 	addi	r4,r2,4
     324:	00014740 	call	1474 <vListInitialiseItem>
     328:	e0bffb17 	ldw	r2,-20(fp)
     32c:	11000604 	addi	r4,r2,24
     330:	00014740 	call	1474 <vListInitialiseItem>
     334:	e0fffb17 	ldw	r3,-20(fp)
     338:	e0bffb17 	ldw	r2,-20(fp)
     33c:	18800415 	stw	r2,16(r3)
     340:	e0fffb17 	ldw	r3,-20(fp)
     344:	e0bffb17 	ldw	r2,-20(fp)
     348:	18800915 	stw	r2,36(r3)
     34c:	00c00084 	movi	r3,2
     350:	e0bffe17 	ldw	r2,-8(fp)
     354:	1887c83a 	sub	r3,r3,r2
     358:	e0bffb17 	ldw	r2,-20(fp)
     35c:	10c00615 	stw	r3,24(r2)
     360:	e0bffb17 	ldw	r2,-20(fp)
     364:	10c00b17 	ldw	r3,44(r2)
     368:	d0a01917 	ldw	r2,-32668(gp)
     36c:	10c0032e 	bgeu	r2,r3,37c <xCoRoutineCreate+0xec>
     370:	e0bffb17 	ldw	r2,-20(fp)
     374:	10800b17 	ldw	r2,44(r2)
     378:	d0a01915 	stw	r2,-32668(gp)
     37c:	e0bffb17 	ldw	r2,-20(fp)
     380:	10800b17 	ldw	r2,44(r2)
     384:	10800524 	muli	r2,r2,20
     388:	1007883a 	mov	r3,r2
     38c:	00820034 	movhi	r2,2048
     390:	10896804 	addi	r2,r2,9632
     394:	1889883a 	add	r4,r3,r2
     398:	e0bffb17 	ldw	r2,-20(fp)
     39c:	11400104 	addi	r5,r2,4
     3a0:	000149c0 	call	149c <vListInsertEnd>
     3a4:	00800044 	movi	r2,1
     3a8:	e0bffc15 	stw	r2,-16(fp)
     3ac:	00000206 	br	3b8 <xCoRoutineCreate+0x128>
     3b0:	00bfffc4 	movi	r2,-1
     3b4:	e0bffc15 	stw	r2,-16(fp)
     3b8:	e0bffc17 	ldw	r2,-16(fp)
     3bc:	e037883a 	mov	sp,fp
     3c0:	dfc00117 	ldw	ra,4(sp)
     3c4:	df000017 	ldw	fp,0(sp)
     3c8:	dec00204 	addi	sp,sp,8
     3cc:	f800283a 	ret

000003d0 <vCoRoutineAddToDelayedList>:
     3d0:	defffb04 	addi	sp,sp,-20
     3d4:	dfc00415 	stw	ra,16(sp)
     3d8:	df000315 	stw	fp,12(sp)
     3dc:	df000304 	addi	fp,sp,12
     3e0:	e13ffe15 	stw	r4,-8(fp)
     3e4:	e17fff15 	stw	r5,-4(fp)
     3e8:	d0e01a17 	ldw	r3,-32664(gp)
     3ec:	e0bffe17 	ldw	r2,-8(fp)
     3f0:	1885883a 	add	r2,r3,r2
     3f4:	e0bffd15 	stw	r2,-12(fp)
     3f8:	d0a01817 	ldw	r2,-32672(gp)
     3fc:	11000104 	addi	r4,r2,4
     400:	00015f80 	call	15f8 <uxListRemove>
     404:	d0e01817 	ldw	r3,-32672(gp)
     408:	e0bffd17 	ldw	r2,-12(fp)
     40c:	18800115 	stw	r2,4(r3)
     410:	d0e01a17 	ldw	r3,-32664(gp)
     414:	e0bffd17 	ldw	r2,-12(fp)
     418:	10c0052e 	bgeu	r2,r3,430 <vCoRoutineAddToDelayedList+0x60>
     41c:	d1201e17 	ldw	r4,-32648(gp)
     420:	d0a01817 	ldw	r2,-32672(gp)
     424:	11400104 	addi	r5,r2,4
     428:	00015240 	call	1524 <vListInsert>
     42c:	00000406 	br	440 <vCoRoutineAddToDelayedList+0x70>
     430:	d1201d17 	ldw	r4,-32652(gp)
     434:	d0a01817 	ldw	r2,-32672(gp)
     438:	11400104 	addi	r5,r2,4
     43c:	00015240 	call	1524 <vListInsert>
     440:	e0bfff17 	ldw	r2,-4(fp)
     444:	1005003a 	cmpeq	r2,r2,zero
     448:	1000041e 	bne	r2,zero,45c <vCoRoutineAddToDelayedList+0x8c>
     44c:	d0a01817 	ldw	r2,-32672(gp)
     450:	11400604 	addi	r5,r2,24
     454:	e13fff17 	ldw	r4,-4(fp)
     458:	00015240 	call	1524 <vListInsert>
     45c:	e037883a 	mov	sp,fp
     460:	dfc00117 	ldw	ra,4(sp)
     464:	df000017 	ldw	fp,0(sp)
     468:	dec00204 	addi	sp,sp,8
     46c:	f800283a 	ret

00000470 <prvCheckPendingReadyList>:
     470:	defffb04 	addi	sp,sp,-20
     474:	dfc00415 	stw	ra,16(sp)
     478:	df000315 	stw	fp,12(sp)
     47c:	df000304 	addi	fp,sp,12
     480:	00002606 	br	51c <prvCheckPendingReadyList+0xac>
     484:	0005303a 	rdctl	r2,status
     488:	e0bffe15 	stw	r2,-8(fp)
     48c:	e0fffe17 	ldw	r3,-8(fp)
     490:	00bfff84 	movi	r2,-2
     494:	1884703a 	and	r2,r3,r2
     498:	1001703a 	wrctl	status,r2
     49c:	00820034 	movhi	r2,2048
     4a0:	10897c04 	addi	r2,r2,9712
     4a4:	10800317 	ldw	r2,12(r2)
     4a8:	10800317 	ldw	r2,12(r2)
     4ac:	e0bfff15 	stw	r2,-4(fp)
     4b0:	e0bfff17 	ldw	r2,-4(fp)
     4b4:	11000604 	addi	r4,r2,24
     4b8:	00015f80 	call	15f8 <uxListRemove>
     4bc:	00800044 	movi	r2,1
     4c0:	e0bffd15 	stw	r2,-12(fp)
     4c4:	e0bffd17 	ldw	r2,-12(fp)
     4c8:	1001703a 	wrctl	status,r2
     4cc:	e0bfff17 	ldw	r2,-4(fp)
     4d0:	11000104 	addi	r4,r2,4
     4d4:	00015f80 	call	15f8 <uxListRemove>
     4d8:	e0bfff17 	ldw	r2,-4(fp)
     4dc:	10c00b17 	ldw	r3,44(r2)
     4e0:	d0a01917 	ldw	r2,-32668(gp)
     4e4:	10c0032e 	bgeu	r2,r3,4f4 <prvCheckPendingReadyList+0x84>
     4e8:	e0bfff17 	ldw	r2,-4(fp)
     4ec:	10800b17 	ldw	r2,44(r2)
     4f0:	d0a01915 	stw	r2,-32668(gp)
     4f4:	e0bfff17 	ldw	r2,-4(fp)
     4f8:	10800b17 	ldw	r2,44(r2)
     4fc:	10800524 	muli	r2,r2,20
     500:	1007883a 	mov	r3,r2
     504:	00820034 	movhi	r2,2048
     508:	10896804 	addi	r2,r2,9632
     50c:	1889883a 	add	r4,r3,r2
     510:	e0bfff17 	ldw	r2,-4(fp)
     514:	11400104 	addi	r5,r2,4
     518:	000149c0 	call	149c <vListInsertEnd>
     51c:	00820034 	movhi	r2,2048
     520:	10897c04 	addi	r2,r2,9712
     524:	10800017 	ldw	r2,0(r2)
     528:	1004c03a 	cmpne	r2,r2,zero
     52c:	103fd51e 	bne	r2,zero,484 <prvCheckPendingReadyList+0x14>
     530:	e037883a 	mov	sp,fp
     534:	dfc00117 	ldw	ra,4(sp)
     538:	df000017 	ldw	fp,0(sp)
     53c:	dec00204 	addi	sp,sp,8
     540:	f800283a 	ret

00000544 <prvCheckDelayedList>:
     544:	defffa04 	addi	sp,sp,-24
     548:	dfc00515 	stw	ra,20(sp)
     54c:	df000415 	stw	fp,16(sp)
     550:	df000404 	addi	fp,sp,16
     554:	00031680 	call	3168 <xTaskGetTickCount>
     558:	d0e01b17 	ldw	r3,-32660(gp)
     55c:	10c5c83a 	sub	r2,r2,r3
     560:	d0a01c15 	stw	r2,-32656(gp)
     564:	00004106 	br	66c <prvCheckDelayedList+0x128>
     568:	d0a01a17 	ldw	r2,-32664(gp)
     56c:	10800044 	addi	r2,r2,1
     570:	d0a01a15 	stw	r2,-32664(gp)
     574:	d0a01c17 	ldw	r2,-32656(gp)
     578:	10bfffc4 	addi	r2,r2,-1
     57c:	d0a01c15 	stw	r2,-32656(gp)
     580:	d0a01a17 	ldw	r2,-32664(gp)
     584:	1004c03a 	cmpne	r2,r2,zero
     588:	1000341e 	bne	r2,zero,65c <prvCheckDelayedList+0x118>
     58c:	d0a01d17 	ldw	r2,-32652(gp)
     590:	e0bffe15 	stw	r2,-8(fp)
     594:	d0a01e17 	ldw	r2,-32648(gp)
     598:	d0a01d15 	stw	r2,-32652(gp)
     59c:	e0bffe17 	ldw	r2,-8(fp)
     5a0:	d0a01e15 	stw	r2,-32648(gp)
     5a4:	00002d06 	br	65c <prvCheckDelayedList+0x118>
     5a8:	d0a01d17 	ldw	r2,-32652(gp)
     5ac:	10800317 	ldw	r2,12(r2)
     5b0:	10800317 	ldw	r2,12(r2)
     5b4:	e0bfff15 	stw	r2,-4(fp)
     5b8:	e0bfff17 	ldw	r2,-4(fp)
     5bc:	10c00117 	ldw	r3,4(r2)
     5c0:	d0a01a17 	ldw	r2,-32664(gp)
     5c4:	10c02936 	bltu	r2,r3,66c <prvCheckDelayedList+0x128>
     5c8:	0005303a 	rdctl	r2,status
     5cc:	e0bffd15 	stw	r2,-12(fp)
     5d0:	e0fffd17 	ldw	r3,-12(fp)
     5d4:	00bfff84 	movi	r2,-2
     5d8:	1884703a 	and	r2,r3,r2
     5dc:	1001703a 	wrctl	status,r2
     5e0:	e0bfff17 	ldw	r2,-4(fp)
     5e4:	11000104 	addi	r4,r2,4
     5e8:	00015f80 	call	15f8 <uxListRemove>
     5ec:	e0bfff17 	ldw	r2,-4(fp)
     5f0:	10800a17 	ldw	r2,40(r2)
     5f4:	1005003a 	cmpeq	r2,r2,zero
     5f8:	1000031e 	bne	r2,zero,608 <prvCheckDelayedList+0xc4>
     5fc:	e0bfff17 	ldw	r2,-4(fp)
     600:	11000604 	addi	r4,r2,24
     604:	00015f80 	call	15f8 <uxListRemove>
     608:	00800044 	movi	r2,1
     60c:	e0bffc15 	stw	r2,-16(fp)
     610:	e0bffc17 	ldw	r2,-16(fp)
     614:	1001703a 	wrctl	status,r2
     618:	e0bfff17 	ldw	r2,-4(fp)
     61c:	10c00b17 	ldw	r3,44(r2)
     620:	d0a01917 	ldw	r2,-32668(gp)
     624:	10c0032e 	bgeu	r2,r3,634 <prvCheckDelayedList+0xf0>
     628:	e0bfff17 	ldw	r2,-4(fp)
     62c:	10800b17 	ldw	r2,44(r2)
     630:	d0a01915 	stw	r2,-32668(gp)
     634:	e0bfff17 	ldw	r2,-4(fp)
     638:	10800b17 	ldw	r2,44(r2)
     63c:	10800524 	muli	r2,r2,20
     640:	1007883a 	mov	r3,r2
     644:	00820034 	movhi	r2,2048
     648:	10896804 	addi	r2,r2,9632
     64c:	1889883a 	add	r4,r3,r2
     650:	e0bfff17 	ldw	r2,-4(fp)
     654:	11400104 	addi	r5,r2,4
     658:	000149c0 	call	149c <vListInsertEnd>
     65c:	d0a01d17 	ldw	r2,-32652(gp)
     660:	10800017 	ldw	r2,0(r2)
     664:	1004c03a 	cmpne	r2,r2,zero
     668:	103fcf1e 	bne	r2,zero,5a8 <prvCheckDelayedList+0x64>
     66c:	d0a01c17 	ldw	r2,-32656(gp)
     670:	1004c03a 	cmpne	r2,r2,zero
     674:	103fbc1e 	bne	r2,zero,568 <prvCheckDelayedList+0x24>
     678:	d0a01a17 	ldw	r2,-32664(gp)
     67c:	d0a01b15 	stw	r2,-32660(gp)
     680:	e037883a 	mov	sp,fp
     684:	dfc00117 	ldw	ra,4(sp)
     688:	df000017 	ldw	fp,0(sp)
     68c:	dec00204 	addi	sp,sp,8
     690:	f800283a 	ret

00000694 <vCoRoutineSchedule>:
     694:	defffd04 	addi	sp,sp,-12
     698:	dfc00215 	stw	ra,8(sp)
     69c:	df000115 	stw	fp,4(sp)
     6a0:	df000104 	addi	fp,sp,4
     6a4:	00004700 	call	470 <prvCheckPendingReadyList>
     6a8:	00005440 	call	544 <prvCheckDelayedList>
     6ac:	00000606 	br	6c8 <vCoRoutineSchedule+0x34>
     6b0:	d0a01917 	ldw	r2,-32668(gp)
     6b4:	1005003a 	cmpeq	r2,r2,zero
     6b8:	10002c1e 	bne	r2,zero,76c <vCoRoutineSchedule+0xd8>
     6bc:	d0a01917 	ldw	r2,-32668(gp)
     6c0:	10bfffc4 	addi	r2,r2,-1
     6c4:	d0a01915 	stw	r2,-32668(gp)
     6c8:	d0a01917 	ldw	r2,-32668(gp)
     6cc:	10800524 	muli	r2,r2,20
     6d0:	1007883a 	mov	r3,r2
     6d4:	00820034 	movhi	r2,2048
     6d8:	10896804 	addi	r2,r2,9632
     6dc:	1885883a 	add	r2,r3,r2
     6e0:	10800017 	ldw	r2,0(r2)
     6e4:	1005003a 	cmpeq	r2,r2,zero
     6e8:	103ff11e 	bne	r2,zero,6b0 <vCoRoutineSchedule+0x1c>
     6ec:	d0a01917 	ldw	r2,-32668(gp)
     6f0:	10800524 	muli	r2,r2,20
     6f4:	1007883a 	mov	r3,r2
     6f8:	00820034 	movhi	r2,2048
     6fc:	10896804 	addi	r2,r2,9632
     700:	1885883a 	add	r2,r3,r2
     704:	e0bfff15 	stw	r2,-4(fp)
     708:	e0bfff17 	ldw	r2,-4(fp)
     70c:	10800117 	ldw	r2,4(r2)
     710:	10c00117 	ldw	r3,4(r2)
     714:	e0bfff17 	ldw	r2,-4(fp)
     718:	10c00115 	stw	r3,4(r2)
     71c:	e0bfff17 	ldw	r2,-4(fp)
     720:	10c00117 	ldw	r3,4(r2)
     724:	e0bfff17 	ldw	r2,-4(fp)
     728:	10800204 	addi	r2,r2,8
     72c:	1880051e 	bne	r3,r2,744 <vCoRoutineSchedule+0xb0>
     730:	e0bfff17 	ldw	r2,-4(fp)
     734:	10800117 	ldw	r2,4(r2)
     738:	10c00117 	ldw	r3,4(r2)
     73c:	e0bfff17 	ldw	r2,-4(fp)
     740:	10c00115 	stw	r3,4(r2)
     744:	e0bfff17 	ldw	r2,-4(fp)
     748:	10800117 	ldw	r2,4(r2)
     74c:	10800317 	ldw	r2,12(r2)
     750:	d0a01815 	stw	r2,-32672(gp)
     754:	d0a01817 	ldw	r2,-32672(gp)
     758:	10c00017 	ldw	r3,0(r2)
     75c:	d1201817 	ldw	r4,-32672(gp)
     760:	d0a01817 	ldw	r2,-32672(gp)
     764:	11400c17 	ldw	r5,48(r2)
     768:	183ee83a 	callr	r3
     76c:	e037883a 	mov	sp,fp
     770:	dfc00117 	ldw	ra,4(sp)
     774:	df000017 	ldw	fp,0(sp)
     778:	dec00204 	addi	sp,sp,8
     77c:	f800283a 	ret

00000780 <prvInitialiseCoRoutineLists>:
     780:	defffd04 	addi	sp,sp,-12
     784:	dfc00215 	stw	ra,8(sp)
     788:	df000115 	stw	fp,4(sp)
     78c:	df000104 	addi	fp,sp,4
     790:	e03fff15 	stw	zero,-4(fp)
     794:	00000a06 	br	7c0 <prvInitialiseCoRoutineLists+0x40>
     798:	e0bfff17 	ldw	r2,-4(fp)
     79c:	10800524 	muli	r2,r2,20
     7a0:	1007883a 	mov	r3,r2
     7a4:	00820034 	movhi	r2,2048
     7a8:	10896804 	addi	r2,r2,9632
     7ac:	1889883a 	add	r4,r3,r2
     7b0:	00014040 	call	1404 <vListInitialise>
     7b4:	e0bfff17 	ldw	r2,-4(fp)
     7b8:	10800044 	addi	r2,r2,1
     7bc:	e0bfff15 	stw	r2,-4(fp)
     7c0:	e0bfff17 	ldw	r2,-4(fp)
     7c4:	108000b0 	cmpltui	r2,r2,2
     7c8:	103ff31e 	bne	r2,zero,798 <prvInitialiseCoRoutineLists+0x18>
     7cc:	01020034 	movhi	r4,2048
     7d0:	21097204 	addi	r4,r4,9672
     7d4:	00014040 	call	1404 <vListInitialise>
     7d8:	01020034 	movhi	r4,2048
     7dc:	21097704 	addi	r4,r4,9692
     7e0:	00014040 	call	1404 <vListInitialise>
     7e4:	01020034 	movhi	r4,2048
     7e8:	21097c04 	addi	r4,r4,9712
     7ec:	00014040 	call	1404 <vListInitialise>
     7f0:	00820034 	movhi	r2,2048
     7f4:	10897204 	addi	r2,r2,9672
     7f8:	d0a01d15 	stw	r2,-32652(gp)
     7fc:	00820034 	movhi	r2,2048
     800:	10897704 	addi	r2,r2,9692
     804:	d0a01e15 	stw	r2,-32648(gp)
     808:	e037883a 	mov	sp,fp
     80c:	dfc00117 	ldw	ra,4(sp)
     810:	df000017 	ldw	fp,0(sp)
     814:	dec00204 	addi	sp,sp,8
     818:	f800283a 	ret

0000081c <xCoRoutineRemoveFromEventList>:
     81c:	defffb04 	addi	sp,sp,-20
     820:	dfc00415 	stw	ra,16(sp)
     824:	df000315 	stw	fp,12(sp)
     828:	df000304 	addi	fp,sp,12
     82c:	e13fff15 	stw	r4,-4(fp)
     830:	e0bfff17 	ldw	r2,-4(fp)
     834:	10800317 	ldw	r2,12(r2)
     838:	10800317 	ldw	r2,12(r2)
     83c:	e0bffe15 	stw	r2,-8(fp)
     840:	e0bffe17 	ldw	r2,-8(fp)
     844:	11000604 	addi	r4,r2,24
     848:	00015f80 	call	15f8 <uxListRemove>
     84c:	e0bffe17 	ldw	r2,-8(fp)
     850:	11400604 	addi	r5,r2,24
     854:	01020034 	movhi	r4,2048
     858:	21097c04 	addi	r4,r4,9712
     85c:	000149c0 	call	149c <vListInsertEnd>
     860:	e0bffe17 	ldw	r2,-8(fp)
     864:	10c00b17 	ldw	r3,44(r2)
     868:	d0a01817 	ldw	r2,-32672(gp)
     86c:	10800b17 	ldw	r2,44(r2)
     870:	18800336 	bltu	r3,r2,880 <xCoRoutineRemoveFromEventList+0x64>
     874:	00800044 	movi	r2,1
     878:	e0bffd15 	stw	r2,-12(fp)
     87c:	00000106 	br	884 <xCoRoutineRemoveFromEventList+0x68>
     880:	e03ffd15 	stw	zero,-12(fp)
     884:	e0bffd17 	ldw	r2,-12(fp)
     888:	e037883a 	mov	sp,fp
     88c:	dfc00117 	ldw	ra,4(sp)
     890:	df000017 	ldw	fp,0(sp)
     894:	dec00204 	addi	sp,sp,8
     898:	f800283a 	ret

0000089c <xEventGroupCreate>:
     89c:	defffd04 	addi	sp,sp,-12
     8a0:	dfc00215 	stw	ra,8(sp)
     8a4:	df000115 	stw	fp,4(sp)
     8a8:	df000104 	addi	fp,sp,4
     8ac:	01000604 	movi	r4,24
     8b0:	0000fbc0 	call	fbc <pvPortMalloc>
     8b4:	e0bfff15 	stw	r2,-4(fp)
     8b8:	e0bfff17 	ldw	r2,-4(fp)
     8bc:	1005003a 	cmpeq	r2,r2,zero
     8c0:	1000051e 	bne	r2,zero,8d8 <xEventGroupCreate+0x3c>
     8c4:	e0bfff17 	ldw	r2,-4(fp)
     8c8:	10000015 	stw	zero,0(r2)
     8cc:	e0bfff17 	ldw	r2,-4(fp)
     8d0:	11000104 	addi	r4,r2,4
     8d4:	00014040 	call	1404 <vListInitialise>
     8d8:	e0bfff17 	ldw	r2,-4(fp)
     8dc:	e037883a 	mov	sp,fp
     8e0:	dfc00117 	ldw	ra,4(sp)
     8e4:	df000017 	ldw	fp,0(sp)
     8e8:	dec00204 	addi	sp,sp,8
     8ec:	f800283a 	ret

000008f0 <xEventGroupSync>:
     8f0:	defff504 	addi	sp,sp,-44
     8f4:	dfc00a15 	stw	ra,40(sp)
     8f8:	df000915 	stw	fp,36(sp)
     8fc:	df000904 	addi	fp,sp,36
     900:	e13ffc15 	stw	r4,-16(fp)
     904:	e17ffd15 	stw	r5,-12(fp)
     908:	e1bffe15 	stw	r6,-8(fp)
     90c:	e1ffff15 	stw	r7,-4(fp)
     910:	e0bffc17 	ldw	r2,-16(fp)
     914:	e0bff915 	stw	r2,-28(fp)
     918:	e03ff715 	stw	zero,-36(fp)
     91c:	0002ff00 	call	2ff0 <vTaskSuspendAll>
     920:	e0bff917 	ldw	r2,-28(fp)
     924:	10800017 	ldw	r2,0(r2)
     928:	e0bffb15 	stw	r2,-20(fp)
     92c:	e13ffc17 	ldw	r4,-16(fp)
     930:	e17ffd17 	ldw	r5,-12(fp)
     934:	0000cd80 	call	cd8 <xEventGroupSetBits>
     938:	e0fffb17 	ldw	r3,-20(fp)
     93c:	e0bffd17 	ldw	r2,-12(fp)
     940:	1886b03a 	or	r3,r3,r2
     944:	e0bffe17 	ldw	r2,-8(fp)
     948:	1886703a 	and	r3,r3,r2
     94c:	e0bffe17 	ldw	r2,-8(fp)
     950:	18800d1e 	bne	r3,r2,988 <xEventGroupSync+0x98>
     954:	e0fffb17 	ldw	r3,-20(fp)
     958:	e0bffd17 	ldw	r2,-12(fp)
     95c:	1884b03a 	or	r2,r3,r2
     960:	e0bffa15 	stw	r2,-24(fp)
     964:	e0bff917 	ldw	r2,-28(fp)
     968:	10c00017 	ldw	r3,0(r2)
     96c:	e0bffe17 	ldw	r2,-8(fp)
     970:	0084303a 	nor	r2,zero,r2
     974:	1886703a 	and	r3,r3,r2
     978:	e0bff917 	ldw	r2,-28(fp)
     97c:	10c00015 	stw	r3,0(r2)
     980:	e03fff15 	stw	zero,-4(fp)
     984:	00000e06 	br	9c0 <xEventGroupSync+0xd0>
     988:	e0bfff17 	ldw	r2,-4(fp)
     98c:	1005003a 	cmpeq	r2,r2,zero
     990:	1000081e 	bne	r2,zero,9b4 <xEventGroupSync+0xc4>
     994:	e0bff917 	ldw	r2,-28(fp)
     998:	11000104 	addi	r4,r2,4
     99c:	e0bffe17 	ldw	r2,-8(fp)
     9a0:	11414034 	orhi	r5,r2,1280
     9a4:	e1bfff17 	ldw	r6,-4(fp)
     9a8:	00035480 	call	3548 <vTaskPlaceOnUnorderedEventList>
     9ac:	e03ffa15 	stw	zero,-24(fp)
     9b0:	00000306 	br	9c0 <xEventGroupSync+0xd0>
     9b4:	e0bff917 	ldw	r2,-28(fp)
     9b8:	10800017 	ldw	r2,0(r2)
     9bc:	e0bffa15 	stw	r2,-24(fp)
     9c0:	00030180 	call	3018 <xTaskResumeAll>
     9c4:	e0bff815 	stw	r2,-32(fp)
     9c8:	e0bfff17 	ldw	r2,-4(fp)
     9cc:	1005003a 	cmpeq	r2,r2,zero
     9d0:	1000221e 	bne	r2,zero,a5c <xEventGroupSync+0x16c>
     9d4:	e0bff817 	ldw	r2,-32(fp)
     9d8:	1004c03a 	cmpne	r2,r2,zero
     9dc:	1000011e 	bne	r2,zero,9e4 <xEventGroupSync+0xf4>
     9e0:	003b683a 	trap	0
     9e4:	00041d00 	call	41d0 <uxTaskResetEventItemValue>
     9e8:	e0bffa15 	stw	r2,-24(fp)
     9ec:	e0bffa17 	ldw	r2,-24(fp)
     9f0:	1080802c 	andhi	r2,r2,512
     9f4:	1004c03a 	cmpne	r2,r2,zero
     9f8:	1000131e 	bne	r2,zero,a48 <xEventGroupSync+0x158>
     9fc:	00041140 	call	4114 <vTaskEnterCritical>
     a00:	e0bff917 	ldw	r2,-28(fp)
     a04:	10800017 	ldw	r2,0(r2)
     a08:	e0bffa15 	stw	r2,-24(fp)
     a0c:	e0fffa17 	ldw	r3,-24(fp)
     a10:	e0bffe17 	ldw	r2,-8(fp)
     a14:	1886703a 	and	r3,r3,r2
     a18:	e0bffe17 	ldw	r2,-8(fp)
     a1c:	1880071e 	bne	r3,r2,a3c <xEventGroupSync+0x14c>
     a20:	e0bff917 	ldw	r2,-28(fp)
     a24:	10c00017 	ldw	r3,0(r2)
     a28:	e0bffe17 	ldw	r2,-8(fp)
     a2c:	0084303a 	nor	r2,zero,r2
     a30:	1886703a 	and	r3,r3,r2
     a34:	e0bff917 	ldw	r2,-28(fp)
     a38:	10c00015 	stw	r3,0(r2)
     a3c:	00041680 	call	4168 <vTaskExitCritical>
     a40:	00800044 	movi	r2,1
     a44:	e0bff715 	stw	r2,-36(fp)
     a48:	e0bffa17 	ldw	r2,-24(fp)
     a4c:	00c04034 	movhi	r3,256
     a50:	18ffffc4 	addi	r3,r3,-1
     a54:	10c4703a 	and	r2,r2,r3
     a58:	e0bffa15 	stw	r2,-24(fp)
     a5c:	e0bffa17 	ldw	r2,-24(fp)
     a60:	e037883a 	mov	sp,fp
     a64:	dfc00117 	ldw	ra,4(sp)
     a68:	df000017 	ldw	fp,0(sp)
     a6c:	dec00204 	addi	sp,sp,8
     a70:	f800283a 	ret

00000a74 <xEventGroupWaitBits>:
     a74:	defff304 	addi	sp,sp,-52
     a78:	dfc00c15 	stw	ra,48(sp)
     a7c:	df000b15 	stw	fp,44(sp)
     a80:	df000b04 	addi	fp,sp,44
     a84:	e13ffc15 	stw	r4,-16(fp)
     a88:	e17ffd15 	stw	r5,-12(fp)
     a8c:	e1bffe15 	stw	r6,-8(fp)
     a90:	e1ffff15 	stw	r7,-4(fp)
     a94:	e0bffc17 	ldw	r2,-16(fp)
     a98:	e0bffb15 	stw	r2,-20(fp)
     a9c:	e03ff915 	stw	zero,-28(fp)
     aa0:	e03ff615 	stw	zero,-40(fp)
     aa4:	0002ff00 	call	2ff0 <vTaskSuspendAll>
     aa8:	e0bffb17 	ldw	r2,-20(fp)
     aac:	10800017 	ldw	r2,0(r2)
     ab0:	e0bff515 	stw	r2,-44(fp)
     ab4:	e13ff517 	ldw	r4,-44(fp)
     ab8:	e17ffd17 	ldw	r5,-12(fp)
     abc:	e1bfff17 	ldw	r6,-4(fp)
     ac0:	0000f440 	call	f44 <prvTestWaitCondition>
     ac4:	e0bff815 	stw	r2,-32(fp)
     ac8:	e0bff817 	ldw	r2,-32(fp)
     acc:	1005003a 	cmpeq	r2,r2,zero
     ad0:	10000e1e 	bne	r2,zero,b0c <xEventGroupWaitBits+0x98>
     ad4:	e0bff517 	ldw	r2,-44(fp)
     ad8:	e0bffa15 	stw	r2,-24(fp)
     adc:	e0000215 	stw	zero,8(fp)
     ae0:	e0bffe17 	ldw	r2,-8(fp)
     ae4:	1005003a 	cmpeq	r2,r2,zero
     ae8:	1000221e 	bne	r2,zero,b74 <xEventGroupWaitBits+0x100>
     aec:	e0bffb17 	ldw	r2,-20(fp)
     af0:	10c00017 	ldw	r3,0(r2)
     af4:	e0bffd17 	ldw	r2,-12(fp)
     af8:	0084303a 	nor	r2,zero,r2
     afc:	1886703a 	and	r3,r3,r2
     b00:	e0bffb17 	ldw	r2,-20(fp)
     b04:	10c00015 	stw	r3,0(r2)
     b08:	00001a06 	br	b74 <xEventGroupWaitBits+0x100>
     b0c:	e0800217 	ldw	r2,8(fp)
     b10:	1004c03a 	cmpne	r2,r2,zero
     b14:	1000031e 	bne	r2,zero,b24 <xEventGroupWaitBits+0xb0>
     b18:	e0bff517 	ldw	r2,-44(fp)
     b1c:	e0bffa15 	stw	r2,-24(fp)
     b20:	00001406 	br	b74 <xEventGroupWaitBits+0x100>
     b24:	e0bffe17 	ldw	r2,-8(fp)
     b28:	1005003a 	cmpeq	r2,r2,zero
     b2c:	1000031e 	bne	r2,zero,b3c <xEventGroupWaitBits+0xc8>
     b30:	e0bff917 	ldw	r2,-28(fp)
     b34:	10804034 	orhi	r2,r2,256
     b38:	e0bff915 	stw	r2,-28(fp)
     b3c:	e0bfff17 	ldw	r2,-4(fp)
     b40:	1005003a 	cmpeq	r2,r2,zero
     b44:	1000031e 	bne	r2,zero,b54 <xEventGroupWaitBits+0xe0>
     b48:	e0bff917 	ldw	r2,-28(fp)
     b4c:	10810034 	orhi	r2,r2,1024
     b50:	e0bff915 	stw	r2,-28(fp)
     b54:	e0bffb17 	ldw	r2,-20(fp)
     b58:	11000104 	addi	r4,r2,4
     b5c:	e0fffd17 	ldw	r3,-12(fp)
     b60:	e0bff917 	ldw	r2,-28(fp)
     b64:	188ab03a 	or	r5,r3,r2
     b68:	e1800217 	ldw	r6,8(fp)
     b6c:	00035480 	call	3548 <vTaskPlaceOnUnorderedEventList>
     b70:	e03ffa15 	stw	zero,-24(fp)
     b74:	00030180 	call	3018 <xTaskResumeAll>
     b78:	e0bff715 	stw	r2,-36(fp)
     b7c:	e0800217 	ldw	r2,8(fp)
     b80:	1005003a 	cmpeq	r2,r2,zero
     b84:	1000251e 	bne	r2,zero,c1c <xEventGroupWaitBits+0x1a8>
     b88:	e0bff717 	ldw	r2,-36(fp)
     b8c:	1004c03a 	cmpne	r2,r2,zero
     b90:	1000011e 	bne	r2,zero,b98 <xEventGroupWaitBits+0x124>
     b94:	003b683a 	trap	0
     b98:	00041d00 	call	41d0 <uxTaskResetEventItemValue>
     b9c:	e0bffa15 	stw	r2,-24(fp)
     ba0:	e0bffa17 	ldw	r2,-24(fp)
     ba4:	1080802c 	andhi	r2,r2,512
     ba8:	1004c03a 	cmpne	r2,r2,zero
     bac:	1000161e 	bne	r2,zero,c08 <xEventGroupWaitBits+0x194>
     bb0:	00041140 	call	4114 <vTaskEnterCritical>
     bb4:	e0bffb17 	ldw	r2,-20(fp)
     bb8:	10800017 	ldw	r2,0(r2)
     bbc:	e0bffa15 	stw	r2,-24(fp)
     bc0:	e13ffa17 	ldw	r4,-24(fp)
     bc4:	e17ffd17 	ldw	r5,-12(fp)
     bc8:	e1bfff17 	ldw	r6,-4(fp)
     bcc:	0000f440 	call	f44 <prvTestWaitCondition>
     bd0:	1005003a 	cmpeq	r2,r2,zero
     bd4:	10000a1e 	bne	r2,zero,c00 <xEventGroupWaitBits+0x18c>
     bd8:	e0bffe17 	ldw	r2,-8(fp)
     bdc:	1005003a 	cmpeq	r2,r2,zero
     be0:	1000071e 	bne	r2,zero,c00 <xEventGroupWaitBits+0x18c>
     be4:	e0bffb17 	ldw	r2,-20(fp)
     be8:	10c00017 	ldw	r3,0(r2)
     bec:	e0bffd17 	ldw	r2,-12(fp)
     bf0:	0084303a 	nor	r2,zero,r2
     bf4:	1886703a 	and	r3,r3,r2
     bf8:	e0bffb17 	ldw	r2,-20(fp)
     bfc:	10c00015 	stw	r3,0(r2)
     c00:	00041680 	call	4168 <vTaskExitCritical>
     c04:	e03ff615 	stw	zero,-40(fp)
     c08:	e0bffa17 	ldw	r2,-24(fp)
     c0c:	00c04034 	movhi	r3,256
     c10:	18ffffc4 	addi	r3,r3,-1
     c14:	10c4703a 	and	r2,r2,r3
     c18:	e0bffa15 	stw	r2,-24(fp)
     c1c:	e0bffa17 	ldw	r2,-24(fp)
     c20:	e037883a 	mov	sp,fp
     c24:	dfc00117 	ldw	ra,4(sp)
     c28:	df000017 	ldw	fp,0(sp)
     c2c:	dec00204 	addi	sp,sp,8
     c30:	f800283a 	ret

00000c34 <xEventGroupClearBits>:
     c34:	defffa04 	addi	sp,sp,-24
     c38:	dfc00515 	stw	ra,20(sp)
     c3c:	df000415 	stw	fp,16(sp)
     c40:	df000404 	addi	fp,sp,16
     c44:	e13ffe15 	stw	r4,-8(fp)
     c48:	e17fff15 	stw	r5,-4(fp)
     c4c:	e0bffe17 	ldw	r2,-8(fp)
     c50:	e0bffd15 	stw	r2,-12(fp)
     c54:	00041140 	call	4114 <vTaskEnterCritical>
     c58:	e0bffd17 	ldw	r2,-12(fp)
     c5c:	10800017 	ldw	r2,0(r2)
     c60:	e0bffc15 	stw	r2,-16(fp)
     c64:	e0bffd17 	ldw	r2,-12(fp)
     c68:	10c00017 	ldw	r3,0(r2)
     c6c:	e0bfff17 	ldw	r2,-4(fp)
     c70:	0084303a 	nor	r2,zero,r2
     c74:	1886703a 	and	r3,r3,r2
     c78:	e0bffd17 	ldw	r2,-12(fp)
     c7c:	10c00015 	stw	r3,0(r2)
     c80:	00041680 	call	4168 <vTaskExitCritical>
     c84:	e0bffc17 	ldw	r2,-16(fp)
     c88:	e037883a 	mov	sp,fp
     c8c:	dfc00117 	ldw	ra,4(sp)
     c90:	df000017 	ldw	fp,0(sp)
     c94:	dec00204 	addi	sp,sp,8
     c98:	f800283a 	ret

00000c9c <xEventGroupGetBitsFromISR>:
     c9c:	defffb04 	addi	sp,sp,-20
     ca0:	df000415 	stw	fp,16(sp)
     ca4:	df000404 	addi	fp,sp,16
     ca8:	e13fff15 	stw	r4,-4(fp)
     cac:	e0bfff17 	ldw	r2,-4(fp)
     cb0:	e0bffd15 	stw	r2,-12(fp)
     cb4:	e03ffe15 	stw	zero,-8(fp)
     cb8:	e0bffd17 	ldw	r2,-12(fp)
     cbc:	10800017 	ldw	r2,0(r2)
     cc0:	e0bffc15 	stw	r2,-16(fp)
     cc4:	e0bffc17 	ldw	r2,-16(fp)
     cc8:	e037883a 	mov	sp,fp
     ccc:	df000017 	ldw	fp,0(sp)
     cd0:	dec00104 	addi	sp,sp,4
     cd4:	f800283a 	ret

00000cd8 <xEventGroupSetBits>:
     cd8:	defff304 	addi	sp,sp,-52
     cdc:	dfc00c15 	stw	ra,48(sp)
     ce0:	df000b15 	stw	fp,44(sp)
     ce4:	df000b04 	addi	fp,sp,44
     ce8:	e13ffe15 	stw	r4,-8(fp)
     cec:	e17fff15 	stw	r5,-4(fp)
     cf0:	e03ff915 	stw	zero,-28(fp)
     cf4:	e0bffe17 	ldw	r2,-8(fp)
     cf8:	e0bff615 	stw	r2,-40(fp)
     cfc:	e03ff515 	stw	zero,-44(fp)
     d00:	e0bff617 	ldw	r2,-40(fp)
     d04:	10800104 	addi	r2,r2,4
     d08:	e0bffa15 	stw	r2,-24(fp)
     d0c:	e0bffa17 	ldw	r2,-24(fp)
     d10:	10800204 	addi	r2,r2,8
     d14:	e0bffb15 	stw	r2,-20(fp)
     d18:	0002ff00 	call	2ff0 <vTaskSuspendAll>
     d1c:	e0bffa17 	ldw	r2,-24(fp)
     d20:	10800317 	ldw	r2,12(r2)
     d24:	e0bffd15 	stw	r2,-12(fp)
     d28:	e0bff617 	ldw	r2,-40(fp)
     d2c:	10c00017 	ldw	r3,0(r2)
     d30:	e0bfff17 	ldw	r2,-4(fp)
     d34:	1886b03a 	or	r3,r3,r2
     d38:	e0bff617 	ldw	r2,-40(fp)
     d3c:	10c00015 	stw	r3,0(r2)
     d40:	00003606 	br	e1c <xEventGroupSetBits+0x144>
     d44:	e0bffd17 	ldw	r2,-12(fp)
     d48:	10800117 	ldw	r2,4(r2)
     d4c:	e0bffc15 	stw	r2,-16(fp)
     d50:	e0bffd17 	ldw	r2,-12(fp)
     d54:	10800017 	ldw	r2,0(r2)
     d58:	e0bff815 	stw	r2,-32(fp)
     d5c:	e03ff515 	stw	zero,-44(fp)
     d60:	e0bff817 	ldw	r2,-32(fp)
     d64:	10bfc02c 	andhi	r2,r2,65280
     d68:	e0bff715 	stw	r2,-36(fp)
     d6c:	e0fff817 	ldw	r3,-32(fp)
     d70:	00804034 	movhi	r2,256
     d74:	10bfffc4 	addi	r2,r2,-1
     d78:	1884703a 	and	r2,r3,r2
     d7c:	e0bff815 	stw	r2,-32(fp)
     d80:	e0bff717 	ldw	r2,-36(fp)
     d84:	1081002c 	andhi	r2,r2,1024
     d88:	1004c03a 	cmpne	r2,r2,zero
     d8c:	1000091e 	bne	r2,zero,db4 <xEventGroupSetBits+0xdc>
     d90:	e0bff617 	ldw	r2,-40(fp)
     d94:	10c00017 	ldw	r3,0(r2)
     d98:	e0bff817 	ldw	r2,-32(fp)
     d9c:	1884703a 	and	r2,r3,r2
     da0:	1005003a 	cmpeq	r2,r2,zero
     da4:	10000b1e 	bne	r2,zero,dd4 <xEventGroupSetBits+0xfc>
     da8:	00800044 	movi	r2,1
     dac:	e0bff515 	stw	r2,-44(fp)
     db0:	00000806 	br	dd4 <xEventGroupSetBits+0xfc>
     db4:	e0bff617 	ldw	r2,-40(fp)
     db8:	10c00017 	ldw	r3,0(r2)
     dbc:	e0bff817 	ldw	r2,-32(fp)
     dc0:	1886703a 	and	r3,r3,r2
     dc4:	e0bff817 	ldw	r2,-32(fp)
     dc8:	1880021e 	bne	r3,r2,dd4 <xEventGroupSetBits+0xfc>
     dcc:	00800044 	movi	r2,1
     dd0:	e0bff515 	stw	r2,-44(fp)
     dd4:	e0bff517 	ldw	r2,-44(fp)
     dd8:	1005003a 	cmpeq	r2,r2,zero
     ddc:	10000d1e 	bne	r2,zero,e14 <xEventGroupSetBits+0x13c>
     de0:	e0bff717 	ldw	r2,-36(fp)
     de4:	1080402c 	andhi	r2,r2,256
     de8:	1005003a 	cmpeq	r2,r2,zero
     dec:	1000041e 	bne	r2,zero,e00 <xEventGroupSetBits+0x128>
     df0:	e0bff917 	ldw	r2,-28(fp)
     df4:	e0fff817 	ldw	r3,-32(fp)
     df8:	10c4b03a 	or	r2,r2,r3
     dfc:	e0bff915 	stw	r2,-28(fp)
     e00:	e0bff617 	ldw	r2,-40(fp)
     e04:	10800017 	ldw	r2,0(r2)
     e08:	11408034 	orhi	r5,r2,512
     e0c:	e13ffd17 	ldw	r4,-12(fp)
     e10:	00037040 	call	3704 <xTaskRemoveFromUnorderedEventList>
     e14:	e0bffc17 	ldw	r2,-16(fp)
     e18:	e0bffd15 	stw	r2,-12(fp)
     e1c:	e0fffd17 	ldw	r3,-12(fp)
     e20:	e0bffb17 	ldw	r2,-20(fp)
     e24:	18bfc71e 	bne	r3,r2,d44 <xEventGroupSetBits+0x6c>
     e28:	e0bff617 	ldw	r2,-40(fp)
     e2c:	10c00017 	ldw	r3,0(r2)
     e30:	e0bff917 	ldw	r2,-28(fp)
     e34:	0084303a 	nor	r2,zero,r2
     e38:	1886703a 	and	r3,r3,r2
     e3c:	e0bff617 	ldw	r2,-40(fp)
     e40:	10c00015 	stw	r3,0(r2)
     e44:	00030180 	call	3018 <xTaskResumeAll>
     e48:	e0bff617 	ldw	r2,-40(fp)
     e4c:	10800017 	ldw	r2,0(r2)
     e50:	e037883a 	mov	sp,fp
     e54:	dfc00117 	ldw	ra,4(sp)
     e58:	df000017 	ldw	fp,0(sp)
     e5c:	dec00204 	addi	sp,sp,8
     e60:	f800283a 	ret

00000e64 <vEventGroupDelete>:
     e64:	defffb04 	addi	sp,sp,-20
     e68:	dfc00415 	stw	ra,16(sp)
     e6c:	df000315 	stw	fp,12(sp)
     e70:	df000304 	addi	fp,sp,12
     e74:	e13fff15 	stw	r4,-4(fp)
     e78:	e0bfff17 	ldw	r2,-4(fp)
     e7c:	e0bffe15 	stw	r2,-8(fp)
     e80:	e0bffe17 	ldw	r2,-8(fp)
     e84:	10800104 	addi	r2,r2,4
     e88:	e0bffd15 	stw	r2,-12(fp)
     e8c:	0002ff00 	call	2ff0 <vTaskSuspendAll>
     e90:	00000406 	br	ea4 <vEventGroupDelete+0x40>
     e94:	e0bffd17 	ldw	r2,-12(fp)
     e98:	11000317 	ldw	r4,12(r2)
     e9c:	01408034 	movhi	r5,512
     ea0:	00037040 	call	3704 <xTaskRemoveFromUnorderedEventList>
     ea4:	e0bffd17 	ldw	r2,-12(fp)
     ea8:	10800017 	ldw	r2,0(r2)
     eac:	1004c03a 	cmpne	r2,r2,zero
     eb0:	103ff81e 	bne	r2,zero,e94 <vEventGroupDelete+0x30>
     eb4:	e13ffe17 	ldw	r4,-8(fp)
     eb8:	00011500 	call	1150 <vPortFree>
     ebc:	00030180 	call	3018 <xTaskResumeAll>
     ec0:	e037883a 	mov	sp,fp
     ec4:	dfc00117 	ldw	ra,4(sp)
     ec8:	df000017 	ldw	fp,0(sp)
     ecc:	dec00204 	addi	sp,sp,8
     ed0:	f800283a 	ret

00000ed4 <vEventGroupSetBitsCallback>:
     ed4:	defffc04 	addi	sp,sp,-16
     ed8:	dfc00315 	stw	ra,12(sp)
     edc:	df000215 	stw	fp,8(sp)
     ee0:	df000204 	addi	fp,sp,8
     ee4:	e13ffe15 	stw	r4,-8(fp)
     ee8:	e17fff15 	stw	r5,-4(fp)
     eec:	e13ffe17 	ldw	r4,-8(fp)
     ef0:	e17fff17 	ldw	r5,-4(fp)
     ef4:	0000cd80 	call	cd8 <xEventGroupSetBits>
     ef8:	e037883a 	mov	sp,fp
     efc:	dfc00117 	ldw	ra,4(sp)
     f00:	df000017 	ldw	fp,0(sp)
     f04:	dec00204 	addi	sp,sp,8
     f08:	f800283a 	ret

00000f0c <vEventGroupClearBitsCallback>:
     f0c:	defffc04 	addi	sp,sp,-16
     f10:	dfc00315 	stw	ra,12(sp)
     f14:	df000215 	stw	fp,8(sp)
     f18:	df000204 	addi	fp,sp,8
     f1c:	e13ffe15 	stw	r4,-8(fp)
     f20:	e17fff15 	stw	r5,-4(fp)
     f24:	e13ffe17 	ldw	r4,-8(fp)
     f28:	e17fff17 	ldw	r5,-4(fp)
     f2c:	0000c340 	call	c34 <xEventGroupClearBits>
     f30:	e037883a 	mov	sp,fp
     f34:	dfc00117 	ldw	ra,4(sp)
     f38:	df000017 	ldw	fp,0(sp)
     f3c:	dec00204 	addi	sp,sp,8
     f40:	f800283a 	ret

00000f44 <prvTestWaitCondition>:
     f44:	defffb04 	addi	sp,sp,-20
     f48:	df000415 	stw	fp,16(sp)
     f4c:	df000404 	addi	fp,sp,16
     f50:	e13ffd15 	stw	r4,-12(fp)
     f54:	e17ffe15 	stw	r5,-8(fp)
     f58:	e1bfff15 	stw	r6,-4(fp)
     f5c:	e03ffc15 	stw	zero,-16(fp)
     f60:	e0bfff17 	ldw	r2,-4(fp)
     f64:	1004c03a 	cmpne	r2,r2,zero
     f68:	1000081e 	bne	r2,zero,f8c <prvTestWaitCondition+0x48>
     f6c:	e0fffd17 	ldw	r3,-12(fp)
     f70:	e0bffe17 	ldw	r2,-8(fp)
     f74:	1884703a 	and	r2,r3,r2
     f78:	1005003a 	cmpeq	r2,r2,zero
     f7c:	10000a1e 	bne	r2,zero,fa8 <prvTestWaitCondition+0x64>
     f80:	00800044 	movi	r2,1
     f84:	e0bffc15 	stw	r2,-16(fp)
     f88:	00000706 	br	fa8 <prvTestWaitCondition+0x64>
     f8c:	e0fffd17 	ldw	r3,-12(fp)
     f90:	e0bffe17 	ldw	r2,-8(fp)
     f94:	1886703a 	and	r3,r3,r2
     f98:	e0bffe17 	ldw	r2,-8(fp)
     f9c:	1880021e 	bne	r3,r2,fa8 <prvTestWaitCondition+0x64>
     fa0:	00800044 	movi	r2,1
     fa4:	e0bffc15 	stw	r2,-16(fp)
     fa8:	e0bffc17 	ldw	r2,-16(fp)
     fac:	e037883a 	mov	sp,fp
     fb0:	df000017 	ldw	fp,0(sp)
     fb4:	dec00104 	addi	sp,sp,4
     fb8:	f800283a 	ret

00000fbc <pvPortMalloc>:
     fbc:	defff904 	addi	sp,sp,-28
     fc0:	dfc00615 	stw	ra,24(sp)
     fc4:	df000515 	stw	fp,20(sp)
     fc8:	df000504 	addi	fp,sp,20
     fcc:	e13fff15 	stw	r4,-4(fp)
     fd0:	e03ffb15 	stw	zero,-20(fp)
     fd4:	0002ff00 	call	2ff0 <vTaskSuspendAll>
     fd8:	d0a01f17 	ldw	r2,-32644(gp)
     fdc:	1004c03a 	cmpne	r2,r2,zero
     fe0:	1000011e 	bne	r2,zero,fe8 <pvPortMalloc+0x2c>
     fe4:	000120c0 	call	120c <prvHeapInit>
     fe8:	e0bfff17 	ldw	r2,-4(fp)
     fec:	1005003a 	cmpeq	r2,r2,zero
     ff0:	10000e1e 	bne	r2,zero,102c <pvPortMalloc+0x70>
     ff4:	d0a0000b 	ldhu	r2,-32768(gp)
     ff8:	10ffffcc 	andi	r3,r2,65535
     ffc:	e0bfff17 	ldw	r2,-4(fp)
    1000:	10c5883a 	add	r2,r2,r3
    1004:	e0bfff15 	stw	r2,-4(fp)
    1008:	e0bfff17 	ldw	r2,-4(fp)
    100c:	108000cc 	andi	r2,r2,3
    1010:	1005003a 	cmpeq	r2,r2,zero
    1014:	1000051e 	bne	r2,zero,102c <pvPortMalloc+0x70>
    1018:	e0ffff17 	ldw	r3,-4(fp)
    101c:	00bfff04 	movi	r2,-4
    1020:	1884703a 	and	r2,r3,r2
    1024:	10800104 	addi	r2,r2,4
    1028:	e0bfff15 	stw	r2,-4(fp)
    102c:	e0bfff17 	ldw	r2,-4(fp)
    1030:	1005003a 	cmpeq	r2,r2,zero
    1034:	10003f1e 	bne	r2,zero,1134 <pvPortMalloc+0x178>
    1038:	d0e00117 	ldw	r3,-32764(gp)
    103c:	e0bfff17 	ldw	r2,-4(fp)
    1040:	10c03c2e 	bgeu	r2,r3,1134 <pvPortMalloc+0x178>
    1044:	d0a02004 	addi	r2,gp,-32640
    1048:	e0bffd15 	stw	r2,-12(fp)
    104c:	d0a02017 	ldw	r2,-32640(gp)
    1050:	e0bffe15 	stw	r2,-8(fp)
    1054:	00000506 	br	106c <pvPortMalloc+0xb0>
    1058:	e0bffe17 	ldw	r2,-8(fp)
    105c:	e0bffd15 	stw	r2,-12(fp)
    1060:	e0bffe17 	ldw	r2,-8(fp)
    1064:	10800017 	ldw	r2,0(r2)
    1068:	e0bffe15 	stw	r2,-8(fp)
    106c:	e0bffe17 	ldw	r2,-8(fp)
    1070:	10c00117 	ldw	r3,4(r2)
    1074:	e0bfff17 	ldw	r2,-4(fp)
    1078:	1880042e 	bgeu	r3,r2,108c <pvPortMalloc+0xd0>
    107c:	e0bffe17 	ldw	r2,-8(fp)
    1080:	10800017 	ldw	r2,0(r2)
    1084:	1004c03a 	cmpne	r2,r2,zero
    1088:	103ff31e 	bne	r2,zero,1058 <pvPortMalloc+0x9c>
    108c:	d0e01f17 	ldw	r3,-32644(gp)
    1090:	e0bffe17 	ldw	r2,-8(fp)
    1094:	10c02726 	beq	r2,r3,1134 <pvPortMalloc+0x178>
    1098:	e0bffd17 	ldw	r2,-12(fp)
    109c:	10800017 	ldw	r2,0(r2)
    10a0:	1007883a 	mov	r3,r2
    10a4:	d0a0000b 	ldhu	r2,-32768(gp)
    10a8:	10bfffcc 	andi	r2,r2,65535
    10ac:	1885883a 	add	r2,r3,r2
    10b0:	e0bffb15 	stw	r2,-20(fp)
    10b4:	e0bffe17 	ldw	r2,-8(fp)
    10b8:	10c00017 	ldw	r3,0(r2)
    10bc:	e0bffd17 	ldw	r2,-12(fp)
    10c0:	10c00015 	stw	r3,0(r2)
    10c4:	e0bffe17 	ldw	r2,-8(fp)
    10c8:	10c00117 	ldw	r3,4(r2)
    10cc:	e0bfff17 	ldw	r2,-4(fp)
    10d0:	1887c83a 	sub	r3,r3,r2
    10d4:	d0a0000b 	ldhu	r2,-32768(gp)
    10d8:	10bfffcc 	andi	r2,r2,65535
    10dc:	1085883a 	add	r2,r2,r2
    10e0:	10c00f2e 	bgeu	r2,r3,1120 <pvPortMalloc+0x164>
    10e4:	e0fffe17 	ldw	r3,-8(fp)
    10e8:	e0bfff17 	ldw	r2,-4(fp)
    10ec:	1885883a 	add	r2,r3,r2
    10f0:	e0bffc15 	stw	r2,-16(fp)
    10f4:	e0bffe17 	ldw	r2,-8(fp)
    10f8:	10c00117 	ldw	r3,4(r2)
    10fc:	e0bfff17 	ldw	r2,-4(fp)
    1100:	1887c83a 	sub	r3,r3,r2
    1104:	e0bffc17 	ldw	r2,-16(fp)
    1108:	10c00115 	stw	r3,4(r2)
    110c:	e0fffe17 	ldw	r3,-8(fp)
    1110:	e0bfff17 	ldw	r2,-4(fp)
    1114:	18800115 	stw	r2,4(r3)
    1118:	e13ffc17 	ldw	r4,-16(fp)
    111c:	00012cc0 	call	12cc <prvInsertBlockIntoFreeList>
    1120:	d0e00217 	ldw	r3,-32760(gp)
    1124:	e0bffe17 	ldw	r2,-8(fp)
    1128:	10800117 	ldw	r2,4(r2)
    112c:	1885c83a 	sub	r2,r3,r2
    1130:	d0a00215 	stw	r2,-32760(gp)
    1134:	00030180 	call	3018 <xTaskResumeAll>
    1138:	e0bffb17 	ldw	r2,-20(fp)
    113c:	e037883a 	mov	sp,fp
    1140:	dfc00117 	ldw	ra,4(sp)
    1144:	df000017 	ldw	fp,0(sp)
    1148:	dec00204 	addi	sp,sp,8
    114c:	f800283a 	ret

00001150 <vPortFree>:
    1150:	defffb04 	addi	sp,sp,-20
    1154:	dfc00415 	stw	ra,16(sp)
    1158:	df000315 	stw	fp,12(sp)
    115c:	df000304 	addi	fp,sp,12
    1160:	e13fff15 	stw	r4,-4(fp)
    1164:	e0bfff17 	ldw	r2,-4(fp)
    1168:	e0bffe15 	stw	r2,-8(fp)
    116c:	e0bfff17 	ldw	r2,-4(fp)
    1170:	1005003a 	cmpeq	r2,r2,zero
    1174:	1000111e 	bne	r2,zero,11bc <vPortFree+0x6c>
    1178:	d0a0000b 	ldhu	r2,-32768(gp)
    117c:	10bfffcc 	andi	r2,r2,65535
    1180:	1007883a 	mov	r3,r2
    1184:	e0bffe17 	ldw	r2,-8(fp)
    1188:	10c5c83a 	sub	r2,r2,r3
    118c:	e0bffe15 	stw	r2,-8(fp)
    1190:	e0bffe17 	ldw	r2,-8(fp)
    1194:	e0bffd15 	stw	r2,-12(fp)
    1198:	0002ff00 	call	2ff0 <vTaskSuspendAll>
    119c:	e0bffd17 	ldw	r2,-12(fp)
    11a0:	10c00117 	ldw	r3,4(r2)
    11a4:	d0a00217 	ldw	r2,-32760(gp)
    11a8:	1885883a 	add	r2,r3,r2
    11ac:	d0a00215 	stw	r2,-32760(gp)
    11b0:	e13ffd17 	ldw	r4,-12(fp)
    11b4:	00012cc0 	call	12cc <prvInsertBlockIntoFreeList>
    11b8:	00030180 	call	3018 <xTaskResumeAll>
    11bc:	e037883a 	mov	sp,fp
    11c0:	dfc00117 	ldw	ra,4(sp)
    11c4:	df000017 	ldw	fp,0(sp)
    11c8:	dec00204 	addi	sp,sp,8
    11cc:	f800283a 	ret

000011d0 <xPortGetFreeHeapSize>:
    11d0:	deffff04 	addi	sp,sp,-4
    11d4:	df000015 	stw	fp,0(sp)
    11d8:	d839883a 	mov	fp,sp
    11dc:	d0a00217 	ldw	r2,-32760(gp)
    11e0:	e037883a 	mov	sp,fp
    11e4:	df000017 	ldw	fp,0(sp)
    11e8:	dec00104 	addi	sp,sp,4
    11ec:	f800283a 	ret

000011f0 <vPortInitialiseBlocks>:
    11f0:	deffff04 	addi	sp,sp,-4
    11f4:	df000015 	stw	fp,0(sp)
    11f8:	d839883a 	mov	fp,sp
    11fc:	e037883a 	mov	sp,fp
    1200:	df000017 	ldw	fp,0(sp)
    1204:	dec00104 	addi	sp,sp,4
    1208:	f800283a 	ret

0000120c <prvHeapInit>:
    120c:	defffd04 	addi	sp,sp,-12
    1210:	df000215 	stw	fp,8(sp)
    1214:	df000204 	addi	fp,sp,8
    1218:	00820034 	movhi	r2,2048
    121c:	10898104 	addi	r2,r2,9732
    1220:	d0a02015 	stw	r2,-32640(gp)
    1224:	00820034 	movhi	r2,2048
    1228:	10894904 	addi	r2,r2,9508
    122c:	10000015 	stw	zero,0(r2)
    1230:	d0a00117 	ldw	r2,-32764(gp)
    1234:	1007883a 	mov	r3,r2
    1238:	00820034 	movhi	r2,2048
    123c:	10898104 	addi	r2,r2,9732
    1240:	1885883a 	add	r2,r3,r2
    1244:	e0bffe15 	stw	r2,-8(fp)
    1248:	d0a0000b 	ldhu	r2,-32768(gp)
    124c:	10bfffcc 	andi	r2,r2,65535
    1250:	1007883a 	mov	r3,r2
    1254:	e0bffe17 	ldw	r2,-8(fp)
    1258:	10c5c83a 	sub	r2,r2,r3
    125c:	e0bffe15 	stw	r2,-8(fp)
    1260:	e0bffe17 	ldw	r2,-8(fp)
    1264:	d0a01f15 	stw	r2,-32644(gp)
    1268:	d0a01f17 	ldw	r2,-32644(gp)
    126c:	10000115 	stw	zero,4(r2)
    1270:	d0a01f17 	ldw	r2,-32644(gp)
    1274:	10000015 	stw	zero,0(r2)
    1278:	00820034 	movhi	r2,2048
    127c:	10898104 	addi	r2,r2,9732
    1280:	e0bfff15 	stw	r2,-4(fp)
    1284:	d0e00117 	ldw	r3,-32764(gp)
    1288:	d0a0000b 	ldhu	r2,-32768(gp)
    128c:	10bfffcc 	andi	r2,r2,65535
    1290:	1887c83a 	sub	r3,r3,r2
    1294:	e0bfff17 	ldw	r2,-4(fp)
    1298:	10c00115 	stw	r3,4(r2)
    129c:	d0e01f17 	ldw	r3,-32644(gp)
    12a0:	e0bfff17 	ldw	r2,-4(fp)
    12a4:	10c00015 	stw	r3,0(r2)
    12a8:	d0e00217 	ldw	r3,-32760(gp)
    12ac:	d0a0000b 	ldhu	r2,-32768(gp)
    12b0:	10bfffcc 	andi	r2,r2,65535
    12b4:	1885c83a 	sub	r2,r3,r2
    12b8:	d0a00215 	stw	r2,-32760(gp)
    12bc:	e037883a 	mov	sp,fp
    12c0:	df000017 	ldw	fp,0(sp)
    12c4:	dec00104 	addi	sp,sp,4
    12c8:	f800283a 	ret

000012cc <prvInsertBlockIntoFreeList>:
    12cc:	defffc04 	addi	sp,sp,-16
    12d0:	df000315 	stw	fp,12(sp)
    12d4:	df000304 	addi	fp,sp,12
    12d8:	e13fff15 	stw	r4,-4(fp)
    12dc:	d0a02004 	addi	r2,gp,-32640
    12e0:	e0bffe15 	stw	r2,-8(fp)
    12e4:	00000306 	br	12f4 <prvInsertBlockIntoFreeList+0x28>
    12e8:	e0bffe17 	ldw	r2,-8(fp)
    12ec:	10800017 	ldw	r2,0(r2)
    12f0:	e0bffe15 	stw	r2,-8(fp)
    12f4:	e0bffe17 	ldw	r2,-8(fp)
    12f8:	10c00017 	ldw	r3,0(r2)
    12fc:	e0bfff17 	ldw	r2,-4(fp)
    1300:	18bff936 	bltu	r3,r2,12e8 <prvInsertBlockIntoFreeList+0x1c>
    1304:	e0bffe17 	ldw	r2,-8(fp)
    1308:	e0bffd15 	stw	r2,-12(fp)
    130c:	e0bffe17 	ldw	r2,-8(fp)
    1310:	10800117 	ldw	r2,4(r2)
    1314:	1007883a 	mov	r3,r2
    1318:	e0bffd17 	ldw	r2,-12(fp)
    131c:	1887883a 	add	r3,r3,r2
    1320:	e0bfff17 	ldw	r2,-4(fp)
    1324:	1880091e 	bne	r3,r2,134c <prvInsertBlockIntoFreeList+0x80>
    1328:	e0bffe17 	ldw	r2,-8(fp)
    132c:	10c00117 	ldw	r3,4(r2)
    1330:	e0bfff17 	ldw	r2,-4(fp)
    1334:	10800117 	ldw	r2,4(r2)
    1338:	1887883a 	add	r3,r3,r2
    133c:	e0bffe17 	ldw	r2,-8(fp)
    1340:	10c00115 	stw	r3,4(r2)
    1344:	e0bffe17 	ldw	r2,-8(fp)
    1348:	e0bfff15 	stw	r2,-4(fp)
    134c:	e0bfff17 	ldw	r2,-4(fp)
    1350:	e0bffd15 	stw	r2,-12(fp)
    1354:	e0bfff17 	ldw	r2,-4(fp)
    1358:	10800117 	ldw	r2,4(r2)
    135c:	1007883a 	mov	r3,r2
    1360:	e0bffd17 	ldw	r2,-12(fp)
    1364:	1887883a 	add	r3,r3,r2
    1368:	e0bffe17 	ldw	r2,-8(fp)
    136c:	10800017 	ldw	r2,0(r2)
    1370:	1880161e 	bne	r3,r2,13cc <prvInsertBlockIntoFreeList+0x100>
    1374:	e0bffe17 	ldw	r2,-8(fp)
    1378:	10c00017 	ldw	r3,0(r2)
    137c:	d0a01f17 	ldw	r2,-32644(gp)
    1380:	18800e26 	beq	r3,r2,13bc <prvInsertBlockIntoFreeList+0xf0>
    1384:	e0bfff17 	ldw	r2,-4(fp)
    1388:	10c00117 	ldw	r3,4(r2)
    138c:	e0bffe17 	ldw	r2,-8(fp)
    1390:	10800017 	ldw	r2,0(r2)
    1394:	10800117 	ldw	r2,4(r2)
    1398:	1887883a 	add	r3,r3,r2
    139c:	e0bfff17 	ldw	r2,-4(fp)
    13a0:	10c00115 	stw	r3,4(r2)
    13a4:	e0bffe17 	ldw	r2,-8(fp)
    13a8:	10800017 	ldw	r2,0(r2)
    13ac:	10c00017 	ldw	r3,0(r2)
    13b0:	e0bfff17 	ldw	r2,-4(fp)
    13b4:	10c00015 	stw	r3,0(r2)
    13b8:	00000806 	br	13dc <prvInsertBlockIntoFreeList+0x110>
    13bc:	d0e01f17 	ldw	r3,-32644(gp)
    13c0:	e0bfff17 	ldw	r2,-4(fp)
    13c4:	10c00015 	stw	r3,0(r2)
    13c8:	00000406 	br	13dc <prvInsertBlockIntoFreeList+0x110>
    13cc:	e0bffe17 	ldw	r2,-8(fp)
    13d0:	10c00017 	ldw	r3,0(r2)
    13d4:	e0bfff17 	ldw	r2,-4(fp)
    13d8:	10c00015 	stw	r3,0(r2)
    13dc:	e0fffe17 	ldw	r3,-8(fp)
    13e0:	e0bfff17 	ldw	r2,-4(fp)
    13e4:	18800326 	beq	r3,r2,13f4 <prvInsertBlockIntoFreeList+0x128>
    13e8:	e0fffe17 	ldw	r3,-8(fp)
    13ec:	e0bfff17 	ldw	r2,-4(fp)
    13f0:	18800015 	stw	r2,0(r3)
    13f4:	e037883a 	mov	sp,fp
    13f8:	df000017 	ldw	fp,0(sp)
    13fc:	dec00104 	addi	sp,sp,4
    1400:	f800283a 	ret

00001404 <vListInitialise>:
    1404:	defffe04 	addi	sp,sp,-8
    1408:	df000115 	stw	fp,4(sp)
    140c:	df000104 	addi	fp,sp,4
    1410:	e13fff15 	stw	r4,-4(fp)
    1414:	e0bfff17 	ldw	r2,-4(fp)
    1418:	10800204 	addi	r2,r2,8
    141c:	1007883a 	mov	r3,r2
    1420:	e0bfff17 	ldw	r2,-4(fp)
    1424:	10c00115 	stw	r3,4(r2)
    1428:	e0ffff17 	ldw	r3,-4(fp)
    142c:	00bfffc4 	movi	r2,-1
    1430:	18800215 	stw	r2,8(r3)
    1434:	e0bfff17 	ldw	r2,-4(fp)
    1438:	10800204 	addi	r2,r2,8
    143c:	1007883a 	mov	r3,r2
    1440:	e0bfff17 	ldw	r2,-4(fp)
    1444:	10c00315 	stw	r3,12(r2)
    1448:	e0bfff17 	ldw	r2,-4(fp)
    144c:	10800204 	addi	r2,r2,8
    1450:	1007883a 	mov	r3,r2
    1454:	e0bfff17 	ldw	r2,-4(fp)
    1458:	10c00415 	stw	r3,16(r2)
    145c:	e0bfff17 	ldw	r2,-4(fp)
    1460:	10000015 	stw	zero,0(r2)
    1464:	e037883a 	mov	sp,fp
    1468:	df000017 	ldw	fp,0(sp)
    146c:	dec00104 	addi	sp,sp,4
    1470:	f800283a 	ret

00001474 <vListInitialiseItem>:
    1474:	defffe04 	addi	sp,sp,-8
    1478:	df000115 	stw	fp,4(sp)
    147c:	df000104 	addi	fp,sp,4
    1480:	e13fff15 	stw	r4,-4(fp)
    1484:	e0bfff17 	ldw	r2,-4(fp)
    1488:	10000415 	stw	zero,16(r2)
    148c:	e037883a 	mov	sp,fp
    1490:	df000017 	ldw	fp,0(sp)
    1494:	dec00104 	addi	sp,sp,4
    1498:	f800283a 	ret

0000149c <vListInsertEnd>:
    149c:	defffc04 	addi	sp,sp,-16
    14a0:	df000315 	stw	fp,12(sp)
    14a4:	df000304 	addi	fp,sp,12
    14a8:	e13ffe15 	stw	r4,-8(fp)
    14ac:	e17fff15 	stw	r5,-4(fp)
    14b0:	e0bffe17 	ldw	r2,-8(fp)
    14b4:	10800117 	ldw	r2,4(r2)
    14b8:	e0bffd15 	stw	r2,-12(fp)
    14bc:	e0ffff17 	ldw	r3,-4(fp)
    14c0:	e0bffd17 	ldw	r2,-12(fp)
    14c4:	18800115 	stw	r2,4(r3)
    14c8:	e0bffd17 	ldw	r2,-12(fp)
    14cc:	10c00217 	ldw	r3,8(r2)
    14d0:	e0bfff17 	ldw	r2,-4(fp)
    14d4:	10c00215 	stw	r3,8(r2)
    14d8:	e0bffd17 	ldw	r2,-12(fp)
    14dc:	10c00217 	ldw	r3,8(r2)
    14e0:	e0bfff17 	ldw	r2,-4(fp)
    14e4:	18800115 	stw	r2,4(r3)
    14e8:	e0fffd17 	ldw	r3,-12(fp)
    14ec:	e0bfff17 	ldw	r2,-4(fp)
    14f0:	18800215 	stw	r2,8(r3)
    14f4:	e0ffff17 	ldw	r3,-4(fp)
    14f8:	e0bffe17 	ldw	r2,-8(fp)
    14fc:	18800415 	stw	r2,16(r3)
    1500:	e0bffe17 	ldw	r2,-8(fp)
    1504:	10800017 	ldw	r2,0(r2)
    1508:	10c00044 	addi	r3,r2,1
    150c:	e0bffe17 	ldw	r2,-8(fp)
    1510:	10c00015 	stw	r3,0(r2)
    1514:	e037883a 	mov	sp,fp
    1518:	df000017 	ldw	fp,0(sp)
    151c:	dec00104 	addi	sp,sp,4
    1520:	f800283a 	ret

00001524 <vListInsert>:
    1524:	defffb04 	addi	sp,sp,-20
    1528:	df000415 	stw	fp,16(sp)
    152c:	df000404 	addi	fp,sp,16
    1530:	e13ffe15 	stw	r4,-8(fp)
    1534:	e17fff15 	stw	r5,-4(fp)
    1538:	e0bfff17 	ldw	r2,-4(fp)
    153c:	10800017 	ldw	r2,0(r2)
    1540:	e0bffc15 	stw	r2,-16(fp)
    1544:	e0bffc17 	ldw	r2,-16(fp)
    1548:	10bfffd8 	cmpnei	r2,r2,-1
    154c:	1000041e 	bne	r2,zero,1560 <vListInsert+0x3c>
    1550:	e0bffe17 	ldw	r2,-8(fp)
    1554:	10800417 	ldw	r2,16(r2)
    1558:	e0bffd15 	stw	r2,-12(fp)
    155c:	00000c06 	br	1590 <vListInsert+0x6c>
    1560:	e0bffe17 	ldw	r2,-8(fp)
    1564:	10800204 	addi	r2,r2,8
    1568:	e0bffd15 	stw	r2,-12(fp)
    156c:	00000306 	br	157c <vListInsert+0x58>
    1570:	e0bffd17 	ldw	r2,-12(fp)
    1574:	10800117 	ldw	r2,4(r2)
    1578:	e0bffd15 	stw	r2,-12(fp)
    157c:	e0bffd17 	ldw	r2,-12(fp)
    1580:	10800117 	ldw	r2,4(r2)
    1584:	10c00017 	ldw	r3,0(r2)
    1588:	e0bffc17 	ldw	r2,-16(fp)
    158c:	10fff82e 	bgeu	r2,r3,1570 <vListInsert+0x4c>
    1590:	e0bffd17 	ldw	r2,-12(fp)
    1594:	10c00117 	ldw	r3,4(r2)
    1598:	e0bfff17 	ldw	r2,-4(fp)
    159c:	10c00115 	stw	r3,4(r2)
    15a0:	e0bfff17 	ldw	r2,-4(fp)
    15a4:	10c00117 	ldw	r3,4(r2)
    15a8:	e0bfff17 	ldw	r2,-4(fp)
    15ac:	18800215 	stw	r2,8(r3)
    15b0:	e0ffff17 	ldw	r3,-4(fp)
    15b4:	e0bffd17 	ldw	r2,-12(fp)
    15b8:	18800215 	stw	r2,8(r3)
    15bc:	e0fffd17 	ldw	r3,-12(fp)
    15c0:	e0bfff17 	ldw	r2,-4(fp)
    15c4:	18800115 	stw	r2,4(r3)
    15c8:	e0ffff17 	ldw	r3,-4(fp)
    15cc:	e0bffe17 	ldw	r2,-8(fp)
    15d0:	18800415 	stw	r2,16(r3)
    15d4:	e0bffe17 	ldw	r2,-8(fp)
    15d8:	10800017 	ldw	r2,0(r2)
    15dc:	10c00044 	addi	r3,r2,1
    15e0:	e0bffe17 	ldw	r2,-8(fp)
    15e4:	10c00015 	stw	r3,0(r2)
    15e8:	e037883a 	mov	sp,fp
    15ec:	df000017 	ldw	fp,0(sp)
    15f0:	dec00104 	addi	sp,sp,4
    15f4:	f800283a 	ret

000015f8 <uxListRemove>:
    15f8:	defffd04 	addi	sp,sp,-12
    15fc:	df000215 	stw	fp,8(sp)
    1600:	df000204 	addi	fp,sp,8
    1604:	e13fff15 	stw	r4,-4(fp)
    1608:	e0bfff17 	ldw	r2,-4(fp)
    160c:	10800417 	ldw	r2,16(r2)
    1610:	e0bffe15 	stw	r2,-8(fp)
    1614:	e0bfff17 	ldw	r2,-4(fp)
    1618:	10c00117 	ldw	r3,4(r2)
    161c:	e0bfff17 	ldw	r2,-4(fp)
    1620:	10800217 	ldw	r2,8(r2)
    1624:	18800215 	stw	r2,8(r3)
    1628:	e0bfff17 	ldw	r2,-4(fp)
    162c:	10c00217 	ldw	r3,8(r2)
    1630:	e0bfff17 	ldw	r2,-4(fp)
    1634:	10800117 	ldw	r2,4(r2)
    1638:	18800115 	stw	r2,4(r3)
    163c:	e0bffe17 	ldw	r2,-8(fp)
    1640:	10c00117 	ldw	r3,4(r2)
    1644:	e0bfff17 	ldw	r2,-4(fp)
    1648:	1880041e 	bne	r3,r2,165c <uxListRemove+0x64>
    164c:	e0bfff17 	ldw	r2,-4(fp)
    1650:	10c00217 	ldw	r3,8(r2)
    1654:	e0bffe17 	ldw	r2,-8(fp)
    1658:	10c00115 	stw	r3,4(r2)
    165c:	e0bfff17 	ldw	r2,-4(fp)
    1660:	10000415 	stw	zero,16(r2)
    1664:	e0bffe17 	ldw	r2,-8(fp)
    1668:	10800017 	ldw	r2,0(r2)
    166c:	10ffffc4 	addi	r3,r2,-1
    1670:	e0bffe17 	ldw	r2,-8(fp)
    1674:	10c00015 	stw	r3,0(r2)
    1678:	e0bffe17 	ldw	r2,-8(fp)
    167c:	10800017 	ldw	r2,0(r2)
    1680:	e037883a 	mov	sp,fp
    1684:	df000017 	ldw	fp,0(sp)
    1688:	dec00104 	addi	sp,sp,4
    168c:	f800283a 	ret

00001690 <vApplicationStackOverflowHook>:
    1690:	defffc04 	addi	sp,sp,-16
    1694:	dfc00315 	stw	ra,12(sp)
    1698:	df000215 	stw	fp,8(sp)
    169c:	df000204 	addi	fp,sp,8
    16a0:	e13ffe15 	stw	r4,-8(fp)
    16a4:	e17fff15 	stw	r5,-4(fp)
    16a8:	01020034 	movhi	r4,2048
    16ac:	21000004 	addi	r4,r4,0
    16b0:	e17fff17 	ldw	r5,-4(fp)
    16b4:	00053c00 	call	53c0 <printf>
    16b8:	e037883a 	mov	sp,fp
    16bc:	dfc00117 	ldw	ra,4(sp)
    16c0:	df000017 	ldw	fp,0(sp)
    16c4:	dec00204 	addi	sp,sp,8
    16c8:	f800283a 	ret

000016cc <prvReadGp>:
    16cc:	defffe04 	addi	sp,sp,-8
    16d0:	df000115 	stw	fp,4(sp)
    16d4:	df000104 	addi	fp,sp,4
    16d8:	e13fff15 	stw	r4,-4(fp)
    16dc:	e0bfff17 	ldw	r2,-4(fp)
    16e0:	16800015 	stw	gp,0(r2)
    16e4:	e037883a 	mov	sp,fp
    16e8:	df000017 	ldw	fp,0(sp)
    16ec:	dec00104 	addi	sp,sp,4
    16f0:	f800283a 	ret

000016f4 <pxPortInitialiseStack>:
    16f4:	defff904 	addi	sp,sp,-28
    16f8:	dfc00615 	stw	ra,24(sp)
    16fc:	df000515 	stw	fp,20(sp)
    1700:	df000504 	addi	fp,sp,20
    1704:	e13ffd15 	stw	r4,-12(fp)
    1708:	e17ffe15 	stw	r5,-8(fp)
    170c:	e1bfff15 	stw	r6,-4(fp)
    1710:	e0bffd17 	ldw	r2,-12(fp)
    1714:	10bfff04 	addi	r2,r2,-4
    1718:	e0bffb15 	stw	r2,-20(fp)
    171c:	e13ffc04 	addi	r4,fp,-16
    1720:	00016cc0 	call	16cc <prvReadGp>
    1724:	e0fffd17 	ldw	r3,-12(fp)
    1728:	00b7abb4 	movhi	r2,57006
    172c:	10afbbc4 	addi	r2,r2,-16657
    1730:	18800015 	stw	r2,0(r3)
    1734:	e0bffd17 	ldw	r2,-12(fp)
    1738:	10bfff04 	addi	r2,r2,-4
    173c:	e0bffd15 	stw	r2,-12(fp)
    1740:	e0bffb17 	ldw	r2,-20(fp)
    1744:	1007883a 	mov	r3,r2
    1748:	e0bffd17 	ldw	r2,-12(fp)
    174c:	10c00015 	stw	r3,0(r2)
    1750:	e0bffd17 	ldw	r2,-12(fp)
    1754:	10bfff04 	addi	r2,r2,-4
    1758:	e0bffd15 	stw	r2,-12(fp)
    175c:	e0fffc17 	ldw	r3,-16(fp)
    1760:	e0bffd17 	ldw	r2,-12(fp)
    1764:	10c00015 	stw	r3,0(r2)
    1768:	e0bffd17 	ldw	r2,-12(fp)
    176c:	10bff704 	addi	r2,r2,-36
    1770:	e0bffd15 	stw	r2,-12(fp)
    1774:	e0bffe17 	ldw	r2,-8(fp)
    1778:	1007883a 	mov	r3,r2
    177c:	e0bffd17 	ldw	r2,-12(fp)
    1780:	10c00015 	stw	r3,0(r2)
    1784:	e0bffd17 	ldw	r2,-12(fp)
    1788:	10bfff04 	addi	r2,r2,-4
    178c:	e0bffd15 	stw	r2,-12(fp)
    1790:	e0fffd17 	ldw	r3,-12(fp)
    1794:	00800044 	movi	r2,1
    1798:	18800015 	stw	r2,0(r3)
    179c:	e0bffd17 	ldw	r2,-12(fp)
    17a0:	10bff404 	addi	r2,r2,-48
    17a4:	e0bffd15 	stw	r2,-12(fp)
    17a8:	e0bfff17 	ldw	r2,-4(fp)
    17ac:	1007883a 	mov	r3,r2
    17b0:	e0bffd17 	ldw	r2,-12(fp)
    17b4:	10c00015 	stw	r3,0(r2)
    17b8:	e0bffd17 	ldw	r2,-12(fp)
    17bc:	10bffb04 	addi	r2,r2,-20
    17c0:	e0bffd15 	stw	r2,-12(fp)
    17c4:	e0bffd17 	ldw	r2,-12(fp)
    17c8:	e037883a 	mov	sp,fp
    17cc:	dfc00117 	ldw	ra,4(sp)
    17d0:	df000017 	ldw	fp,0(sp)
    17d4:	dec00204 	addi	sp,sp,8
    17d8:	f800283a 	ret

000017dc <xPortStartScheduler>:
    17dc:	defffe04 	addi	sp,sp,-8
    17e0:	dfc00115 	stw	ra,4(sp)
    17e4:	df000015 	stw	fp,0(sp)
    17e8:	d839883a 	mov	fp,sp
    17ec:	00018300 	call	1830 <prvSetupTimerInterrupt>
    17f0:	00800034 	movhi	r2,0
    17f4:	10803104 	addi	r2,r2,196
    17f8:	1000683a 	jmp	r2
    17fc:	0005883a 	mov	r2,zero
    1800:	e037883a 	mov	sp,fp
    1804:	dfc00117 	ldw	ra,4(sp)
    1808:	df000017 	ldw	fp,0(sp)
    180c:	dec00204 	addi	sp,sp,8
    1810:	f800283a 	ret

00001814 <vPortEndScheduler>:
    1814:	deffff04 	addi	sp,sp,-4
    1818:	df000015 	stw	fp,0(sp)
    181c:	d839883a 	mov	fp,sp
    1820:	e037883a 	mov	sp,fp
    1824:	df000017 	ldw	fp,0(sp)
    1828:	dec00104 	addi	sp,sp,4
    182c:	f800283a 	ret

00001830 <prvSetupTimerInterrupt>:
    1830:	defffe04 	addi	sp,sp,-8
    1834:	dfc00115 	stw	ra,4(sp)
    1838:	df000015 	stw	fp,0(sp)
    183c:	d839883a 	mov	fp,sp
    1840:	0009883a 	mov	r4,zero
    1844:	000b883a 	mov	r5,zero
    1848:	01800034 	movhi	r6,0
    184c:	31863204 	addi	r6,r6,6344
    1850:	00019140 	call	1914 <alt_irq_register>
    1854:	10bffa98 	cmpnei	r2,r2,-22
    1858:	1000021e 	bne	r2,zero,1864 <prvSetupTimerInterrupt+0x34>
    185c:	003da03a 	break	0
    1860:	00001006 	br	18a4 <prvSetupTimerInterrupt+0x74>
    1864:	00c00134 	movhi	r3,4
    1868:	18cc1104 	addi	r3,r3,12356
    186c:	00800204 	movi	r2,8
    1870:	18800035 	stwio	r2,0(r3)
    1874:	00c00134 	movhi	r3,4
    1878:	18cc1204 	addi	r3,r3,12360
    187c:	00a1a814 	movui	r2,34464
    1880:	18800035 	stwio	r2,0(r3)
    1884:	00c00134 	movhi	r3,4
    1888:	18cc1304 	addi	r3,r3,12364
    188c:	00800044 	movi	r2,1
    1890:	18800035 	stwio	r2,0(r3)
    1894:	00c00134 	movhi	r3,4
    1898:	18cc1104 	addi	r3,r3,12356
    189c:	008001c4 	movi	r2,7
    18a0:	18800035 	stwio	r2,0(r3)
    18a4:	00c00134 	movhi	r3,4
    18a8:	18cc1004 	addi	r3,r3,12352
    18ac:	00bfff84 	movi	r2,-2
    18b0:	18800035 	stwio	r2,0(r3)
    18b4:	e037883a 	mov	sp,fp
    18b8:	dfc00117 	ldw	ra,4(sp)
    18bc:	df000017 	ldw	fp,0(sp)
    18c0:	dec00204 	addi	sp,sp,8
    18c4:	f800283a 	ret

000018c8 <vPortSysTickHandler>:
    18c8:	defffc04 	addi	sp,sp,-16
    18cc:	dfc00315 	stw	ra,12(sp)
    18d0:	df000215 	stw	fp,8(sp)
    18d4:	df000204 	addi	fp,sp,8
    18d8:	e13ffe15 	stw	r4,-8(fp)
    18dc:	e17fff15 	stw	r5,-4(fp)
    18e0:	00031dc0 	call	31dc <xTaskIncrementTick>
    18e4:	1005003a 	cmpeq	r2,r2,zero
    18e8:	1000011e 	bne	r2,zero,18f0 <vPortSysTickHandler+0x28>
    18ec:	00033b80 	call	33b8 <vTaskSwitchContext>
    18f0:	00c00134 	movhi	r3,4
    18f4:	18cc1004 	addi	r3,r3,12352
    18f8:	00bfff84 	movi	r2,-2
    18fc:	18800035 	stwio	r2,0(r3)
    1900:	e037883a 	mov	sp,fp
    1904:	dfc00117 	ldw	ra,4(sp)
    1908:	df000017 	ldw	fp,0(sp)
    190c:	dec00204 	addi	sp,sp,8
    1910:	f800283a 	ret

00001914 <alt_irq_register>:
    1914:	defff004 	addi	sp,sp,-64
    1918:	df000f15 	stw	fp,60(sp)
    191c:	df000f04 	addi	fp,sp,60
    1920:	e13ffc15 	stw	r4,-16(fp)
    1924:	e17ffd15 	stw	r5,-12(fp)
    1928:	e1bffe15 	stw	r6,-8(fp)
    192c:	00bffa84 	movi	r2,-22
    1930:	e0bffb15 	stw	r2,-20(fp)
    1934:	e0bffc17 	ldw	r2,-16(fp)
    1938:	10800828 	cmpgeui	r2,r2,32
    193c:	10005c1e 	bne	r2,zero,1ab0 <alt_irq_register+0x19c>
    1940:	0005303a 	rdctl	r2,status
    1944:	e0bff915 	stw	r2,-28(fp)
    1948:	e0fff917 	ldw	r3,-28(fp)
    194c:	00bfff84 	movi	r2,-2
    1950:	1884703a 	and	r2,r3,r2
    1954:	1001703a 	wrctl	status,r2
    1958:	e0bff917 	ldw	r2,-28(fp)
    195c:	e0bffa15 	stw	r2,-24(fp)
    1960:	e0bffc17 	ldw	r2,-16(fp)
    1964:	00c20234 	movhi	r3,2056
    1968:	18fde504 	addi	r3,r3,-2156
    196c:	100490fa 	slli	r2,r2,3
    1970:	10c7883a 	add	r3,r2,r3
    1974:	e0bffe17 	ldw	r2,-8(fp)
    1978:	18800015 	stw	r2,0(r3)
    197c:	e0bffc17 	ldw	r2,-16(fp)
    1980:	00c20234 	movhi	r3,2056
    1984:	18fde504 	addi	r3,r3,-2156
    1988:	100490fa 	slli	r2,r2,3
    198c:	10c5883a 	add	r2,r2,r3
    1990:	10c00104 	addi	r3,r2,4
    1994:	e0bffd17 	ldw	r2,-12(fp)
    1998:	18800015 	stw	r2,0(r3)
    199c:	e0bffe17 	ldw	r2,-8(fp)
    19a0:	1005003a 	cmpeq	r2,r2,zero
    19a4:	1000201e 	bne	r2,zero,1a28 <alt_irq_register+0x114>
    19a8:	e0bffc17 	ldw	r2,-16(fp)
    19ac:	e0bff715 	stw	r2,-36(fp)
    19b0:	0005303a 	rdctl	r2,status
    19b4:	e0bff615 	stw	r2,-40(fp)
    19b8:	e0fff617 	ldw	r3,-40(fp)
    19bc:	00bfff84 	movi	r2,-2
    19c0:	1884703a 	and	r2,r3,r2
    19c4:	1001703a 	wrctl	status,r2
    19c8:	e0bff617 	ldw	r2,-40(fp)
    19cc:	e0bff815 	stw	r2,-32(fp)
    19d0:	e0fff717 	ldw	r3,-36(fp)
    19d4:	00800044 	movi	r2,1
    19d8:	10c4983a 	sll	r2,r2,r3
    19dc:	1007883a 	mov	r3,r2
    19e0:	00820034 	movhi	r2,2048
    19e4:	10896204 	addi	r2,r2,9608
    19e8:	10800017 	ldw	r2,0(r2)
    19ec:	1886b03a 	or	r3,r3,r2
    19f0:	00820034 	movhi	r2,2048
    19f4:	10896204 	addi	r2,r2,9608
    19f8:	10c00015 	stw	r3,0(r2)
    19fc:	00820034 	movhi	r2,2048
    1a00:	10896204 	addi	r2,r2,9608
    1a04:	10800017 	ldw	r2,0(r2)
    1a08:	100170fa 	wrctl	ienable,r2
    1a0c:	e0bff817 	ldw	r2,-32(fp)
    1a10:	e0bff515 	stw	r2,-44(fp)
    1a14:	e0bff517 	ldw	r2,-44(fp)
    1a18:	1001703a 	wrctl	status,r2
    1a1c:	0005883a 	mov	r2,zero
    1a20:	e0bfff15 	stw	r2,-4(fp)
    1a24:	00002006 	br	1aa8 <alt_irq_register+0x194>
    1a28:	e0bffc17 	ldw	r2,-16(fp)
    1a2c:	e0bff315 	stw	r2,-52(fp)
    1a30:	0005303a 	rdctl	r2,status
    1a34:	e0bff215 	stw	r2,-56(fp)
    1a38:	e0fff217 	ldw	r3,-56(fp)
    1a3c:	00bfff84 	movi	r2,-2
    1a40:	1884703a 	and	r2,r3,r2
    1a44:	1001703a 	wrctl	status,r2
    1a48:	e0bff217 	ldw	r2,-56(fp)
    1a4c:	e0bff415 	stw	r2,-48(fp)
    1a50:	e0fff317 	ldw	r3,-52(fp)
    1a54:	00800044 	movi	r2,1
    1a58:	10c4983a 	sll	r2,r2,r3
    1a5c:	0084303a 	nor	r2,zero,r2
    1a60:	1007883a 	mov	r3,r2
    1a64:	00820034 	movhi	r2,2048
    1a68:	10896204 	addi	r2,r2,9608
    1a6c:	10800017 	ldw	r2,0(r2)
    1a70:	1886703a 	and	r3,r3,r2
    1a74:	00820034 	movhi	r2,2048
    1a78:	10896204 	addi	r2,r2,9608
    1a7c:	10c00015 	stw	r3,0(r2)
    1a80:	00820034 	movhi	r2,2048
    1a84:	10896204 	addi	r2,r2,9608
    1a88:	10800017 	ldw	r2,0(r2)
    1a8c:	100170fa 	wrctl	ienable,r2
    1a90:	e0bff417 	ldw	r2,-48(fp)
    1a94:	e0bff115 	stw	r2,-60(fp)
    1a98:	e0bff117 	ldw	r2,-60(fp)
    1a9c:	1001703a 	wrctl	status,r2
    1aa0:	0005883a 	mov	r2,zero
    1aa4:	e0bfff15 	stw	r2,-4(fp)
    1aa8:	e0bfff17 	ldw	r2,-4(fp)
    1aac:	e0bffb15 	stw	r2,-20(fp)
    1ab0:	e0bffb17 	ldw	r2,-20(fp)
    1ab4:	e037883a 	mov	sp,fp
    1ab8:	df000017 	ldw	fp,0(sp)
    1abc:	dec00104 	addi	sp,sp,4
    1ac0:	f800283a 	ret

00001ac4 <xQueueGenericReset>:
    1ac4:	defffb04 	addi	sp,sp,-20
    1ac8:	dfc00415 	stw	ra,16(sp)
    1acc:	df000315 	stw	fp,12(sp)
    1ad0:	df000304 	addi	fp,sp,12
    1ad4:	e13ffe15 	stw	r4,-8(fp)
    1ad8:	e17fff15 	stw	r5,-4(fp)
    1adc:	e0bffe17 	ldw	r2,-8(fp)
    1ae0:	e0bffd15 	stw	r2,-12(fp)
    1ae4:	00041140 	call	4114 <vTaskEnterCritical>
    1ae8:	e0bffd17 	ldw	r2,-12(fp)
    1aec:	11000017 	ldw	r4,0(r2)
    1af0:	e0bffd17 	ldw	r2,-12(fp)
    1af4:	10c00f17 	ldw	r3,60(r2)
    1af8:	e0bffd17 	ldw	r2,-12(fp)
    1afc:	10801017 	ldw	r2,64(r2)
    1b00:	1885383a 	mul	r2,r3,r2
    1b04:	2087883a 	add	r3,r4,r2
    1b08:	e0bffd17 	ldw	r2,-12(fp)
    1b0c:	10c00115 	stw	r3,4(r2)
    1b10:	e0bffd17 	ldw	r2,-12(fp)
    1b14:	10000e15 	stw	zero,56(r2)
    1b18:	e0bffd17 	ldw	r2,-12(fp)
    1b1c:	10c00017 	ldw	r3,0(r2)
    1b20:	e0bffd17 	ldw	r2,-12(fp)
    1b24:	10c00215 	stw	r3,8(r2)
    1b28:	e0bffd17 	ldw	r2,-12(fp)
    1b2c:	11000017 	ldw	r4,0(r2)
    1b30:	e0bffd17 	ldw	r2,-12(fp)
    1b34:	10800f17 	ldw	r2,60(r2)
    1b38:	10ffffc4 	addi	r3,r2,-1
    1b3c:	e0bffd17 	ldw	r2,-12(fp)
    1b40:	10801017 	ldw	r2,64(r2)
    1b44:	1885383a 	mul	r2,r3,r2
    1b48:	2087883a 	add	r3,r4,r2
    1b4c:	e0bffd17 	ldw	r2,-12(fp)
    1b50:	10c00315 	stw	r3,12(r2)
    1b54:	e0fffd17 	ldw	r3,-12(fp)
    1b58:	00bfffc4 	movi	r2,-1
    1b5c:	18801115 	stw	r2,68(r3)
    1b60:	e0fffd17 	ldw	r3,-12(fp)
    1b64:	00bfffc4 	movi	r2,-1
    1b68:	18801215 	stw	r2,72(r3)
    1b6c:	e0bfff17 	ldw	r2,-4(fp)
    1b70:	1004c03a 	cmpne	r2,r2,zero
    1b74:	10000b1e 	bne	r2,zero,1ba4 <xQueueGenericReset+0xe0>
    1b78:	e0bffd17 	ldw	r2,-12(fp)
    1b7c:	10800417 	ldw	r2,16(r2)
    1b80:	1005003a 	cmpeq	r2,r2,zero
    1b84:	10000d1e 	bne	r2,zero,1bbc <xQueueGenericReset+0xf8>
    1b88:	e0bffd17 	ldw	r2,-12(fp)
    1b8c:	11000404 	addi	r4,r2,16
    1b90:	000361c0 	call	361c <xTaskRemoveFromEventList>
    1b94:	10800058 	cmpnei	r2,r2,1
    1b98:	1000081e 	bne	r2,zero,1bbc <xQueueGenericReset+0xf8>
    1b9c:	003b683a 	trap	0
    1ba0:	00000606 	br	1bbc <xQueueGenericReset+0xf8>
    1ba4:	e0bffd17 	ldw	r2,-12(fp)
    1ba8:	11000404 	addi	r4,r2,16
    1bac:	00014040 	call	1404 <vListInitialise>
    1bb0:	e0bffd17 	ldw	r2,-12(fp)
    1bb4:	11000904 	addi	r4,r2,36
    1bb8:	00014040 	call	1404 <vListInitialise>
    1bbc:	00041680 	call	4168 <vTaskExitCritical>
    1bc0:	00800044 	movi	r2,1
    1bc4:	e037883a 	mov	sp,fp
    1bc8:	dfc00117 	ldw	ra,4(sp)
    1bcc:	df000017 	ldw	fp,0(sp)
    1bd0:	dec00204 	addi	sp,sp,8
    1bd4:	f800283a 	ret

00001bd8 <xQueueGenericCreate>:
    1bd8:	defff704 	addi	sp,sp,-36
    1bdc:	dfc00815 	stw	ra,32(sp)
    1be0:	df000715 	stw	fp,28(sp)
    1be4:	df000704 	addi	fp,sp,28
    1be8:	e13ffd15 	stw	r4,-12(fp)
    1bec:	e17ffe15 	stw	r5,-8(fp)
    1bf0:	e1bfff05 	stb	r6,-4(fp)
    1bf4:	e03ffa15 	stw	zero,-24(fp)
    1bf8:	e0bffe17 	ldw	r2,-8(fp)
    1bfc:	1004c03a 	cmpne	r2,r2,zero
    1c00:	1000021e 	bne	r2,zero,1c0c <xQueueGenericCreate+0x34>
    1c04:	e03ffb15 	stw	zero,-20(fp)
    1c08:	00000506 	br	1c20 <xQueueGenericCreate+0x48>
    1c0c:	e0fffd17 	ldw	r3,-12(fp)
    1c10:	e0bffe17 	ldw	r2,-8(fp)
    1c14:	1885383a 	mul	r2,r3,r2
    1c18:	10800044 	addi	r2,r2,1
    1c1c:	e0bffb15 	stw	r2,-20(fp)
    1c20:	e0bffb17 	ldw	r2,-20(fp)
    1c24:	11001304 	addi	r4,r2,76
    1c28:	0000fbc0 	call	fbc <pvPortMalloc>
    1c2c:	e0bff915 	stw	r2,-28(fp)
    1c30:	e0bff917 	ldw	r2,-28(fp)
    1c34:	1005003a 	cmpeq	r2,r2,zero
    1c38:	1000181e 	bne	r2,zero,1c9c <xQueueGenericCreate+0xc4>
    1c3c:	e0bff917 	ldw	r2,-28(fp)
    1c40:	e0bffc15 	stw	r2,-16(fp)
    1c44:	e0bffe17 	ldw	r2,-8(fp)
    1c48:	1004c03a 	cmpne	r2,r2,zero
    1c4c:	1000041e 	bne	r2,zero,1c60 <xQueueGenericCreate+0x88>
    1c50:	e0fffc17 	ldw	r3,-16(fp)
    1c54:	e0bffc17 	ldw	r2,-16(fp)
    1c58:	10c00015 	stw	r3,0(r2)
    1c5c:	00000406 	br	1c70 <xQueueGenericCreate+0x98>
    1c60:	e0bff917 	ldw	r2,-28(fp)
    1c64:	10c01304 	addi	r3,r2,76
    1c68:	e0bffc17 	ldw	r2,-16(fp)
    1c6c:	10c00015 	stw	r3,0(r2)
    1c70:	e0fffc17 	ldw	r3,-16(fp)
    1c74:	e0bffd17 	ldw	r2,-12(fp)
    1c78:	18800f15 	stw	r2,60(r3)
    1c7c:	e0fffc17 	ldw	r3,-16(fp)
    1c80:	e0bffe17 	ldw	r2,-8(fp)
    1c84:	18801015 	stw	r2,64(r3)
    1c88:	e13ffc17 	ldw	r4,-16(fp)
    1c8c:	01400044 	movi	r5,1
    1c90:	0001ac40 	call	1ac4 <xQueueGenericReset>
    1c94:	e0bffc17 	ldw	r2,-16(fp)
    1c98:	e0bffa15 	stw	r2,-24(fp)
    1c9c:	e0bffa17 	ldw	r2,-24(fp)
    1ca0:	e037883a 	mov	sp,fp
    1ca4:	dfc00117 	ldw	ra,4(sp)
    1ca8:	df000017 	ldw	fp,0(sp)
    1cac:	dec00204 	addi	sp,sp,8
    1cb0:	f800283a 	ret

00001cb4 <xQueueCreateMutex>:
    1cb4:	defffc04 	addi	sp,sp,-16
    1cb8:	dfc00315 	stw	ra,12(sp)
    1cbc:	df000215 	stw	fp,8(sp)
    1cc0:	df000204 	addi	fp,sp,8
    1cc4:	e13fff05 	stb	r4,-4(fp)
    1cc8:	01001304 	movi	r4,76
    1ccc:	0000fbc0 	call	fbc <pvPortMalloc>
    1cd0:	e0bffe15 	stw	r2,-8(fp)
    1cd4:	e0bffe17 	ldw	r2,-8(fp)
    1cd8:	1005003a 	cmpeq	r2,r2,zero
    1cdc:	1000201e 	bne	r2,zero,1d60 <xQueueCreateMutex+0xac>
    1ce0:	e0bffe17 	ldw	r2,-8(fp)
    1ce4:	10000115 	stw	zero,4(r2)
    1ce8:	e0bffe17 	ldw	r2,-8(fp)
    1cec:	10000015 	stw	zero,0(r2)
    1cf0:	e0bffe17 	ldw	r2,-8(fp)
    1cf4:	10000215 	stw	zero,8(r2)
    1cf8:	e0bffe17 	ldw	r2,-8(fp)
    1cfc:	10000315 	stw	zero,12(r2)
    1d00:	e0bffe17 	ldw	r2,-8(fp)
    1d04:	10000e15 	stw	zero,56(r2)
    1d08:	e0fffe17 	ldw	r3,-8(fp)
    1d0c:	00800044 	movi	r2,1
    1d10:	18800f15 	stw	r2,60(r3)
    1d14:	e0bffe17 	ldw	r2,-8(fp)
    1d18:	10001015 	stw	zero,64(r2)
    1d1c:	e0fffe17 	ldw	r3,-8(fp)
    1d20:	00bfffc4 	movi	r2,-1
    1d24:	18801115 	stw	r2,68(r3)
    1d28:	e0fffe17 	ldw	r3,-8(fp)
    1d2c:	00bfffc4 	movi	r2,-1
    1d30:	18801215 	stw	r2,72(r3)
    1d34:	e0bffe17 	ldw	r2,-8(fp)
    1d38:	11000404 	addi	r4,r2,16
    1d3c:	00014040 	call	1404 <vListInitialise>
    1d40:	e0bffe17 	ldw	r2,-8(fp)
    1d44:	11000904 	addi	r4,r2,36
    1d48:	00014040 	call	1404 <vListInitialise>
    1d4c:	e13ffe17 	ldw	r4,-8(fp)
    1d50:	000b883a 	mov	r5,zero
    1d54:	000d883a 	mov	r6,zero
    1d58:	000f883a 	mov	r7,zero
    1d5c:	0001f100 	call	1f10 <xQueueGenericSend>
    1d60:	e0bffe17 	ldw	r2,-8(fp)
    1d64:	e037883a 	mov	sp,fp
    1d68:	dfc00117 	ldw	ra,4(sp)
    1d6c:	df000017 	ldw	fp,0(sp)
    1d70:	dec00204 	addi	sp,sp,8
    1d74:	f800283a 	ret

00001d78 <xQueueGiveMutexRecursive>:
    1d78:	defffa04 	addi	sp,sp,-24
    1d7c:	dfc00515 	stw	ra,20(sp)
    1d80:	df000415 	stw	fp,16(sp)
    1d84:	dc000315 	stw	r16,12(sp)
    1d88:	df000304 	addi	fp,sp,12
    1d8c:	e13fff15 	stw	r4,-4(fp)
    1d90:	e0bfff17 	ldw	r2,-4(fp)
    1d94:	e0bffd15 	stw	r2,-12(fp)
    1d98:	e0bffd17 	ldw	r2,-12(fp)
    1d9c:	14000117 	ldw	r16,4(r2)
    1da0:	0003e6c0 	call	3e6c <xTaskGetCurrentTaskHandle>
    1da4:	8080111e 	bne	r16,r2,1dec <xQueueGiveMutexRecursive+0x74>
    1da8:	e0bffd17 	ldw	r2,-12(fp)
    1dac:	10800317 	ldw	r2,12(r2)
    1db0:	10ffffc4 	addi	r3,r2,-1
    1db4:	e0bffd17 	ldw	r2,-12(fp)
    1db8:	10c00315 	stw	r3,12(r2)
    1dbc:	e0bffd17 	ldw	r2,-12(fp)
    1dc0:	10800317 	ldw	r2,12(r2)
    1dc4:	1004c03a 	cmpne	r2,r2,zero
    1dc8:	1000051e 	bne	r2,zero,1de0 <xQueueGiveMutexRecursive+0x68>
    1dcc:	e13ffd17 	ldw	r4,-12(fp)
    1dd0:	000b883a 	mov	r5,zero
    1dd4:	000d883a 	mov	r6,zero
    1dd8:	000f883a 	mov	r7,zero
    1ddc:	0001f100 	call	1f10 <xQueueGenericSend>
    1de0:	00800044 	movi	r2,1
    1de4:	e0bffe15 	stw	r2,-8(fp)
    1de8:	00000106 	br	1df0 <xQueueGiveMutexRecursive+0x78>
    1dec:	e03ffe15 	stw	zero,-8(fp)
    1df0:	e0bffe17 	ldw	r2,-8(fp)
    1df4:	e037883a 	mov	sp,fp
    1df8:	dfc00217 	ldw	ra,8(sp)
    1dfc:	df000117 	ldw	fp,4(sp)
    1e00:	dc000017 	ldw	r16,0(sp)
    1e04:	dec00304 	addi	sp,sp,12
    1e08:	f800283a 	ret

00001e0c <xQueueTakeMutexRecursive>:
    1e0c:	defff904 	addi	sp,sp,-28
    1e10:	dfc00615 	stw	ra,24(sp)
    1e14:	df000515 	stw	fp,20(sp)
    1e18:	dc000415 	stw	r16,16(sp)
    1e1c:	df000404 	addi	fp,sp,16
    1e20:	e13ffe15 	stw	r4,-8(fp)
    1e24:	e17fff15 	stw	r5,-4(fp)
    1e28:	e0bffe17 	ldw	r2,-8(fp)
    1e2c:	e0bffc15 	stw	r2,-16(fp)
    1e30:	e0bffc17 	ldw	r2,-16(fp)
    1e34:	14000117 	ldw	r16,4(r2)
    1e38:	0003e6c0 	call	3e6c <xTaskGetCurrentTaskHandle>
    1e3c:	8080081e 	bne	r16,r2,1e60 <xQueueTakeMutexRecursive+0x54>
    1e40:	e0bffc17 	ldw	r2,-16(fp)
    1e44:	10800317 	ldw	r2,12(r2)
    1e48:	10c00044 	addi	r3,r2,1
    1e4c:	e0bffc17 	ldw	r2,-16(fp)
    1e50:	10c00315 	stw	r3,12(r2)
    1e54:	00800044 	movi	r2,1
    1e58:	e0bffd15 	stw	r2,-12(fp)
    1e5c:	00000e06 	br	1e98 <xQueueTakeMutexRecursive+0x8c>
    1e60:	e13ffc17 	ldw	r4,-16(fp)
    1e64:	000b883a 	mov	r5,zero
    1e68:	e1bfff17 	ldw	r6,-4(fp)
    1e6c:	000f883a 	mov	r7,zero
    1e70:	00022800 	call	2280 <xQueueGenericReceive>
    1e74:	e0bffd15 	stw	r2,-12(fp)
    1e78:	e0bffd17 	ldw	r2,-12(fp)
    1e7c:	10800058 	cmpnei	r2,r2,1
    1e80:	1000051e 	bne	r2,zero,1e98 <xQueueTakeMutexRecursive+0x8c>
    1e84:	e0bffc17 	ldw	r2,-16(fp)
    1e88:	10800317 	ldw	r2,12(r2)
    1e8c:	10c00044 	addi	r3,r2,1
    1e90:	e0bffc17 	ldw	r2,-16(fp)
    1e94:	10c00315 	stw	r3,12(r2)
    1e98:	e0bffd17 	ldw	r2,-12(fp)
    1e9c:	e037883a 	mov	sp,fp
    1ea0:	dfc00217 	ldw	ra,8(sp)
    1ea4:	df000117 	ldw	fp,4(sp)
    1ea8:	dc000017 	ldw	r16,0(sp)
    1eac:	dec00304 	addi	sp,sp,12
    1eb0:	f800283a 	ret

00001eb4 <xQueueCreateCountingSemaphore>:
    1eb4:	defffb04 	addi	sp,sp,-20
    1eb8:	dfc00415 	stw	ra,16(sp)
    1ebc:	df000315 	stw	fp,12(sp)
    1ec0:	df000304 	addi	fp,sp,12
    1ec4:	e13ffe15 	stw	r4,-8(fp)
    1ec8:	e17fff15 	stw	r5,-4(fp)
    1ecc:	e13ffe17 	ldw	r4,-8(fp)
    1ed0:	000b883a 	mov	r5,zero
    1ed4:	01800084 	movi	r6,2
    1ed8:	0001bd80 	call	1bd8 <xQueueGenericCreate>
    1edc:	e0bffd15 	stw	r2,-12(fp)
    1ee0:	e0bffd17 	ldw	r2,-12(fp)
    1ee4:	1005003a 	cmpeq	r2,r2,zero
    1ee8:	1000031e 	bne	r2,zero,1ef8 <xQueueCreateCountingSemaphore+0x44>
    1eec:	e0fffd17 	ldw	r3,-12(fp)
    1ef0:	e0bfff17 	ldw	r2,-4(fp)
    1ef4:	18800e15 	stw	r2,56(r3)
    1ef8:	e0bffd17 	ldw	r2,-12(fp)
    1efc:	e037883a 	mov	sp,fp
    1f00:	dfc00117 	ldw	ra,4(sp)
    1f04:	df000017 	ldw	fp,0(sp)
    1f08:	dec00204 	addi	sp,sp,8
    1f0c:	f800283a 	ret

00001f10 <xQueueGenericSend>:
    1f10:	defff404 	addi	sp,sp,-48
    1f14:	dfc00b15 	stw	ra,44(sp)
    1f18:	df000a15 	stw	fp,40(sp)
    1f1c:	df000a04 	addi	fp,sp,40
    1f20:	e13ffb15 	stw	r4,-20(fp)
    1f24:	e17ffc15 	stw	r5,-16(fp)
    1f28:	e1bffd15 	stw	r6,-12(fp)
    1f2c:	e1fffe15 	stw	r7,-8(fp)
    1f30:	e03ff815 	stw	zero,-32(fp)
    1f34:	e0bffb17 	ldw	r2,-20(fp)
    1f38:	e0bff615 	stw	r2,-40(fp)
    1f3c:	00000006 	br	1f40 <xQueueGenericSend+0x30>
    1f40:	00041140 	call	4114 <vTaskEnterCritical>
    1f44:	e0bff617 	ldw	r2,-40(fp)
    1f48:	10c00e17 	ldw	r3,56(r2)
    1f4c:	e0bff617 	ldw	r2,-40(fp)
    1f50:	10800f17 	ldw	r2,60(r2)
    1f54:	18800336 	bltu	r3,r2,1f64 <xQueueGenericSend+0x54>
    1f58:	e0bffe17 	ldw	r2,-8(fp)
    1f5c:	10800098 	cmpnei	r2,r2,2
    1f60:	1000181e 	bne	r2,zero,1fc4 <xQueueGenericSend+0xb4>
    1f64:	e13ff617 	ldw	r4,-40(fp)
    1f68:	e17ffc17 	ldw	r5,-16(fp)
    1f6c:	e1bffe17 	ldw	r6,-8(fp)
    1f70:	000270c0 	call	270c <prvCopyDataToQueue>
    1f74:	e0bff715 	stw	r2,-36(fp)
    1f78:	e0bff617 	ldw	r2,-40(fp)
    1f7c:	10800917 	ldw	r2,36(r2)
    1f80:	1005003a 	cmpeq	r2,r2,zero
    1f84:	1000071e 	bne	r2,zero,1fa4 <xQueueGenericSend+0x94>
    1f88:	e0bff617 	ldw	r2,-40(fp)
    1f8c:	11000904 	addi	r4,r2,36
    1f90:	000361c0 	call	361c <xTaskRemoveFromEventList>
    1f94:	10800058 	cmpnei	r2,r2,1
    1f98:	1000061e 	bne	r2,zero,1fb4 <xQueueGenericSend+0xa4>
    1f9c:	003b683a 	trap	0
    1fa0:	00000406 	br	1fb4 <xQueueGenericSend+0xa4>
    1fa4:	e0bff717 	ldw	r2,-36(fp)
    1fa8:	1005003a 	cmpeq	r2,r2,zero
    1fac:	1000011e 	bne	r2,zero,1fb4 <xQueueGenericSend+0xa4>
    1fb0:	003b683a 	trap	0
    1fb4:	00041680 	call	4168 <vTaskExitCritical>
    1fb8:	00800044 	movi	r2,1
    1fbc:	e0bfff15 	stw	r2,-4(fp)
    1fc0:	00003906 	br	20a8 <xQueueGenericSend+0x198>
    1fc4:	e0bffd17 	ldw	r2,-12(fp)
    1fc8:	1004c03a 	cmpne	r2,r2,zero
    1fcc:	1000031e 	bne	r2,zero,1fdc <xQueueGenericSend+0xcc>
    1fd0:	00041680 	call	4168 <vTaskExitCritical>
    1fd4:	e03fff15 	stw	zero,-4(fp)
    1fd8:	00003306 	br	20a8 <xQueueGenericSend+0x198>
    1fdc:	e0bff817 	ldw	r2,-32(fp)
    1fe0:	1004c03a 	cmpne	r2,r2,zero
    1fe4:	1000041e 	bne	r2,zero,1ff8 <xQueueGenericSend+0xe8>
    1fe8:	e13ff904 	addi	r4,fp,-28
    1fec:	00037d40 	call	37d4 <vTaskSetTimeOutState>
    1ff0:	00800044 	movi	r2,1
    1ff4:	e0bff815 	stw	r2,-32(fp)
    1ff8:	00041680 	call	4168 <vTaskExitCritical>
    1ffc:	0002ff00 	call	2ff0 <vTaskSuspendAll>
    2000:	00041140 	call	4114 <vTaskEnterCritical>
    2004:	e0bff617 	ldw	r2,-40(fp)
    2008:	10801117 	ldw	r2,68(r2)
    200c:	10bfffd8 	cmpnei	r2,r2,-1
    2010:	1000021e 	bne	r2,zero,201c <xQueueGenericSend+0x10c>
    2014:	e0bff617 	ldw	r2,-40(fp)
    2018:	10001115 	stw	zero,68(r2)
    201c:	e0bff617 	ldw	r2,-40(fp)
    2020:	10801217 	ldw	r2,72(r2)
    2024:	10bfffd8 	cmpnei	r2,r2,-1
    2028:	1000021e 	bne	r2,zero,2034 <xQueueGenericSend+0x124>
    202c:	e0bff617 	ldw	r2,-40(fp)
    2030:	10001215 	stw	zero,72(r2)
    2034:	00041680 	call	4168 <vTaskExitCritical>
    2038:	e13ff904 	addi	r4,fp,-28
    203c:	e17ffd04 	addi	r5,fp,-12
    2040:	000380c0 	call	380c <xTaskCheckForTimeOut>
    2044:	1004c03a 	cmpne	r2,r2,zero
    2048:	1000131e 	bne	r2,zero,2098 <xQueueGenericSend+0x188>
    204c:	e13ff617 	ldw	r4,-40(fp)
    2050:	0002ac40 	call	2ac4 <prvIsQueueFull>
    2054:	1005003a 	cmpeq	r2,r2,zero
    2058:	10000b1e 	bne	r2,zero,2088 <xQueueGenericSend+0x178>
    205c:	e0bff617 	ldw	r2,-40(fp)
    2060:	11000404 	addi	r4,r2,16
    2064:	e17ffd17 	ldw	r5,-12(fp)
    2068:	00034e80 	call	34e8 <vTaskPlaceOnEventList>
    206c:	e13ff617 	ldw	r4,-40(fp)
    2070:	000293c0 	call	293c <prvUnlockQueue>
    2074:	00030180 	call	3018 <xTaskResumeAll>
    2078:	1004c03a 	cmpne	r2,r2,zero
    207c:	103fb01e 	bne	r2,zero,1f40 <xQueueGenericSend+0x30>
    2080:	003b683a 	trap	0
    2084:	003fae06 	br	1f40 <xQueueGenericSend+0x30>
    2088:	e13ff617 	ldw	r4,-40(fp)
    208c:	000293c0 	call	293c <prvUnlockQueue>
    2090:	00030180 	call	3018 <xTaskResumeAll>
    2094:	003faa06 	br	1f40 <xQueueGenericSend+0x30>
    2098:	e13ff617 	ldw	r4,-40(fp)
    209c:	000293c0 	call	293c <prvUnlockQueue>
    20a0:	00030180 	call	3018 <xTaskResumeAll>
    20a4:	e03fff15 	stw	zero,-4(fp)
    20a8:	e0bfff17 	ldw	r2,-4(fp)
    20ac:	e037883a 	mov	sp,fp
    20b0:	dfc00117 	ldw	ra,4(sp)
    20b4:	df000017 	ldw	fp,0(sp)
    20b8:	dec00204 	addi	sp,sp,8
    20bc:	f800283a 	ret

000020c0 <xQueueGenericSendFromISR>:
    20c0:	defff704 	addi	sp,sp,-36
    20c4:	dfc00815 	stw	ra,32(sp)
    20c8:	df000715 	stw	fp,28(sp)
    20cc:	df000704 	addi	fp,sp,28
    20d0:	e13ffc15 	stw	r4,-16(fp)
    20d4:	e17ffd15 	stw	r5,-12(fp)
    20d8:	e1bffe15 	stw	r6,-8(fp)
    20dc:	e1ffff15 	stw	r7,-4(fp)
    20e0:	e0bffc17 	ldw	r2,-16(fp)
    20e4:	e0bff915 	stw	r2,-28(fp)
    20e8:	e03ffa15 	stw	zero,-24(fp)
    20ec:	e0bff917 	ldw	r2,-28(fp)
    20f0:	10c00e17 	ldw	r3,56(r2)
    20f4:	e0bff917 	ldw	r2,-28(fp)
    20f8:	10800f17 	ldw	r2,60(r2)
    20fc:	18800336 	bltu	r3,r2,210c <xQueueGenericSendFromISR+0x4c>
    2100:	e0bfff17 	ldw	r2,-4(fp)
    2104:	10800098 	cmpnei	r2,r2,2
    2108:	1000201e 	bne	r2,zero,218c <xQueueGenericSendFromISR+0xcc>
    210c:	e13ff917 	ldw	r4,-28(fp)
    2110:	e17ffd17 	ldw	r5,-12(fp)
    2114:	e1bfff17 	ldw	r6,-4(fp)
    2118:	000270c0 	call	270c <prvCopyDataToQueue>
    211c:	e0bff917 	ldw	r2,-28(fp)
    2120:	10801217 	ldw	r2,72(r2)
    2124:	10bfffd8 	cmpnei	r2,r2,-1
    2128:	1000101e 	bne	r2,zero,216c <xQueueGenericSendFromISR+0xac>
    212c:	e0bff917 	ldw	r2,-28(fp)
    2130:	10800917 	ldw	r2,36(r2)
    2134:	1005003a 	cmpeq	r2,r2,zero
    2138:	1000111e 	bne	r2,zero,2180 <xQueueGenericSendFromISR+0xc0>
    213c:	e0bff917 	ldw	r2,-28(fp)
    2140:	11000904 	addi	r4,r2,36
    2144:	000361c0 	call	361c <xTaskRemoveFromEventList>
    2148:	1005003a 	cmpeq	r2,r2,zero
    214c:	10000c1e 	bne	r2,zero,2180 <xQueueGenericSendFromISR+0xc0>
    2150:	e0bffe17 	ldw	r2,-8(fp)
    2154:	1005003a 	cmpeq	r2,r2,zero
    2158:	1000091e 	bne	r2,zero,2180 <xQueueGenericSendFromISR+0xc0>
    215c:	e0fffe17 	ldw	r3,-8(fp)
    2160:	00800044 	movi	r2,1
    2164:	18800015 	stw	r2,0(r3)
    2168:	00000506 	br	2180 <xQueueGenericSendFromISR+0xc0>
    216c:	e0bff917 	ldw	r2,-28(fp)
    2170:	10801217 	ldw	r2,72(r2)
    2174:	10c00044 	addi	r3,r2,1
    2178:	e0bff917 	ldw	r2,-28(fp)
    217c:	10c01215 	stw	r3,72(r2)
    2180:	00800044 	movi	r2,1
    2184:	e0bffb15 	stw	r2,-20(fp)
    2188:	00000106 	br	2190 <xQueueGenericSendFromISR+0xd0>
    218c:	e03ffb15 	stw	zero,-20(fp)
    2190:	e0bffb17 	ldw	r2,-20(fp)
    2194:	e037883a 	mov	sp,fp
    2198:	dfc00117 	ldw	ra,4(sp)
    219c:	df000017 	ldw	fp,0(sp)
    21a0:	dec00204 	addi	sp,sp,8
    21a4:	f800283a 	ret

000021a8 <xQueueGiveFromISR>:
    21a8:	defff904 	addi	sp,sp,-28
    21ac:	dfc00615 	stw	ra,24(sp)
    21b0:	df000515 	stw	fp,20(sp)
    21b4:	df000504 	addi	fp,sp,20
    21b8:	e13ffe15 	stw	r4,-8(fp)
    21bc:	e17fff15 	stw	r5,-4(fp)
    21c0:	e0bffe17 	ldw	r2,-8(fp)
    21c4:	e0bffb15 	stw	r2,-20(fp)
    21c8:	e03ffc15 	stw	zero,-16(fp)
    21cc:	e0bffb17 	ldw	r2,-20(fp)
    21d0:	10c00e17 	ldw	r3,56(r2)
    21d4:	e0bffb17 	ldw	r2,-20(fp)
    21d8:	10800f17 	ldw	r2,60(r2)
    21dc:	1880212e 	bgeu	r3,r2,2264 <xQueueGiveFromISR+0xbc>
    21e0:	e0bffb17 	ldw	r2,-20(fp)
    21e4:	10800e17 	ldw	r2,56(r2)
    21e8:	10c00044 	addi	r3,r2,1
    21ec:	e0bffb17 	ldw	r2,-20(fp)
    21f0:	10c00e15 	stw	r3,56(r2)
    21f4:	e0bffb17 	ldw	r2,-20(fp)
    21f8:	10801217 	ldw	r2,72(r2)
    21fc:	10bfffd8 	cmpnei	r2,r2,-1
    2200:	1000101e 	bne	r2,zero,2244 <xQueueGiveFromISR+0x9c>
    2204:	e0bffb17 	ldw	r2,-20(fp)
    2208:	10800917 	ldw	r2,36(r2)
    220c:	1005003a 	cmpeq	r2,r2,zero
    2210:	1000111e 	bne	r2,zero,2258 <xQueueGiveFromISR+0xb0>
    2214:	e0bffb17 	ldw	r2,-20(fp)
    2218:	11000904 	addi	r4,r2,36
    221c:	000361c0 	call	361c <xTaskRemoveFromEventList>
    2220:	1005003a 	cmpeq	r2,r2,zero
    2224:	10000c1e 	bne	r2,zero,2258 <xQueueGiveFromISR+0xb0>
    2228:	e0bfff17 	ldw	r2,-4(fp)
    222c:	1005003a 	cmpeq	r2,r2,zero
    2230:	1000091e 	bne	r2,zero,2258 <xQueueGiveFromISR+0xb0>
    2234:	e0ffff17 	ldw	r3,-4(fp)
    2238:	00800044 	movi	r2,1
    223c:	18800015 	stw	r2,0(r3)
    2240:	00000506 	br	2258 <xQueueGiveFromISR+0xb0>
    2244:	e0bffb17 	ldw	r2,-20(fp)
    2248:	10801217 	ldw	r2,72(r2)
    224c:	10c00044 	addi	r3,r2,1
    2250:	e0bffb17 	ldw	r2,-20(fp)
    2254:	10c01215 	stw	r3,72(r2)
    2258:	00800044 	movi	r2,1
    225c:	e0bffd15 	stw	r2,-12(fp)
    2260:	00000106 	br	2268 <xQueueGiveFromISR+0xc0>
    2264:	e03ffd15 	stw	zero,-12(fp)
    2268:	e0bffd17 	ldw	r2,-12(fp)
    226c:	e037883a 	mov	sp,fp
    2270:	dfc00117 	ldw	ra,4(sp)
    2274:	df000017 	ldw	fp,0(sp)
    2278:	dec00204 	addi	sp,sp,8
    227c:	f800283a 	ret

00002280 <xQueueGenericReceive>:
    2280:	defff404 	addi	sp,sp,-48
    2284:	dfc00b15 	stw	ra,44(sp)
    2288:	df000a15 	stw	fp,40(sp)
    228c:	df000a04 	addi	fp,sp,40
    2290:	e13ffb15 	stw	r4,-20(fp)
    2294:	e17ffc15 	stw	r5,-16(fp)
    2298:	e1bffd15 	stw	r6,-12(fp)
    229c:	e1fffe15 	stw	r7,-8(fp)
    22a0:	e03ff815 	stw	zero,-32(fp)
    22a4:	e0bffb17 	ldw	r2,-20(fp)
    22a8:	e0bff615 	stw	r2,-40(fp)
    22ac:	00000006 	br	22b0 <xQueueGenericReceive+0x30>
    22b0:	00041140 	call	4114 <vTaskEnterCritical>
    22b4:	e0bff617 	ldw	r2,-40(fp)
    22b8:	10800e17 	ldw	r2,56(r2)
    22bc:	1005003a 	cmpeq	r2,r2,zero
    22c0:	1000321e 	bne	r2,zero,238c <xQueueGenericReceive+0x10c>
    22c4:	e0bff617 	ldw	r2,-40(fp)
    22c8:	10800317 	ldw	r2,12(r2)
    22cc:	e0bff715 	stw	r2,-36(fp)
    22d0:	e13ff617 	ldw	r4,-40(fp)
    22d4:	e17ffc17 	ldw	r5,-16(fp)
    22d8:	00028a00 	call	28a0 <prvCopyDataFromQueue>
    22dc:	e0bffe17 	ldw	r2,-8(fp)
    22e0:	1004c03a 	cmpne	r2,r2,zero
    22e4:	1000181e 	bne	r2,zero,2348 <xQueueGenericReceive+0xc8>
    22e8:	e0bff617 	ldw	r2,-40(fp)
    22ec:	10800e17 	ldw	r2,56(r2)
    22f0:	10ffffc4 	addi	r3,r2,-1
    22f4:	e0bff617 	ldw	r2,-40(fp)
    22f8:	10c00e15 	stw	r3,56(r2)
    22fc:	e0bff617 	ldw	r2,-40(fp)
    2300:	10800017 	ldw	r2,0(r2)
    2304:	1004c03a 	cmpne	r2,r2,zero
    2308:	1000041e 	bne	r2,zero,231c <xQueueGenericReceive+0x9c>
    230c:	00042140 	call	4214 <pvTaskIncrementMutexHeldCount>
    2310:	1007883a 	mov	r3,r2
    2314:	e0bff617 	ldw	r2,-40(fp)
    2318:	10c00115 	stw	r3,4(r2)
    231c:	e0bff617 	ldw	r2,-40(fp)
    2320:	10800417 	ldw	r2,16(r2)
    2324:	1005003a 	cmpeq	r2,r2,zero
    2328:	1000141e 	bne	r2,zero,237c <xQueueGenericReceive+0xfc>
    232c:	e0bff617 	ldw	r2,-40(fp)
    2330:	11000404 	addi	r4,r2,16
    2334:	000361c0 	call	361c <xTaskRemoveFromEventList>
    2338:	10800058 	cmpnei	r2,r2,1
    233c:	10000f1e 	bne	r2,zero,237c <xQueueGenericReceive+0xfc>
    2340:	003b683a 	trap	0
    2344:	00000d06 	br	237c <xQueueGenericReceive+0xfc>
    2348:	e0fff617 	ldw	r3,-40(fp)
    234c:	e0bff717 	ldw	r2,-36(fp)
    2350:	18800315 	stw	r2,12(r3)
    2354:	e0bff617 	ldw	r2,-40(fp)
    2358:	10800917 	ldw	r2,36(r2)
    235c:	1005003a 	cmpeq	r2,r2,zero
    2360:	1000061e 	bne	r2,zero,237c <xQueueGenericReceive+0xfc>
    2364:	e0bff617 	ldw	r2,-40(fp)
    2368:	11000904 	addi	r4,r2,36
    236c:	000361c0 	call	361c <xTaskRemoveFromEventList>
    2370:	1005003a 	cmpeq	r2,r2,zero
    2374:	1000011e 	bne	r2,zero,237c <xQueueGenericReceive+0xfc>
    2378:	003b683a 	trap	0
    237c:	00041680 	call	4168 <vTaskExitCritical>
    2380:	00800044 	movi	r2,1
    2384:	e0bfff15 	stw	r2,-4(fp)
    2388:	00004206 	br	2494 <xQueueGenericReceive+0x214>
    238c:	e0bffd17 	ldw	r2,-12(fp)
    2390:	1004c03a 	cmpne	r2,r2,zero
    2394:	1000031e 	bne	r2,zero,23a4 <xQueueGenericReceive+0x124>
    2398:	00041680 	call	4168 <vTaskExitCritical>
    239c:	e03fff15 	stw	zero,-4(fp)
    23a0:	00003c06 	br	2494 <xQueueGenericReceive+0x214>
    23a4:	e0bff817 	ldw	r2,-32(fp)
    23a8:	1004c03a 	cmpne	r2,r2,zero
    23ac:	1000041e 	bne	r2,zero,23c0 <xQueueGenericReceive+0x140>
    23b0:	e13ff904 	addi	r4,fp,-28
    23b4:	00037d40 	call	37d4 <vTaskSetTimeOutState>
    23b8:	00800044 	movi	r2,1
    23bc:	e0bff815 	stw	r2,-32(fp)
    23c0:	00041680 	call	4168 <vTaskExitCritical>
    23c4:	0002ff00 	call	2ff0 <vTaskSuspendAll>
    23c8:	00041140 	call	4114 <vTaskEnterCritical>
    23cc:	e0bff617 	ldw	r2,-40(fp)
    23d0:	10801117 	ldw	r2,68(r2)
    23d4:	10bfffd8 	cmpnei	r2,r2,-1
    23d8:	1000021e 	bne	r2,zero,23e4 <xQueueGenericReceive+0x164>
    23dc:	e0bff617 	ldw	r2,-40(fp)
    23e0:	10001115 	stw	zero,68(r2)
    23e4:	e0bff617 	ldw	r2,-40(fp)
    23e8:	10801217 	ldw	r2,72(r2)
    23ec:	10bfffd8 	cmpnei	r2,r2,-1
    23f0:	1000021e 	bne	r2,zero,23fc <xQueueGenericReceive+0x17c>
    23f4:	e0bff617 	ldw	r2,-40(fp)
    23f8:	10001215 	stw	zero,72(r2)
    23fc:	00041680 	call	4168 <vTaskExitCritical>
    2400:	e13ff904 	addi	r4,fp,-28
    2404:	e17ffd04 	addi	r5,fp,-12
    2408:	000380c0 	call	380c <xTaskCheckForTimeOut>
    240c:	1004c03a 	cmpne	r2,r2,zero
    2410:	10001c1e 	bne	r2,zero,2484 <xQueueGenericReceive+0x204>
    2414:	e13ff617 	ldw	r4,-40(fp)
    2418:	0002a2c0 	call	2a2c <prvIsQueueEmpty>
    241c:	1005003a 	cmpeq	r2,r2,zero
    2420:	1000141e 	bne	r2,zero,2474 <xQueueGenericReceive+0x1f4>
    2424:	e0bff617 	ldw	r2,-40(fp)
    2428:	10800017 	ldw	r2,0(r2)
    242c:	1004c03a 	cmpne	r2,r2,zero
    2430:	1000051e 	bne	r2,zero,2448 <xQueueGenericReceive+0x1c8>
    2434:	00041140 	call	4114 <vTaskEnterCritical>
    2438:	e0bff617 	ldw	r2,-40(fp)
    243c:	11000117 	ldw	r4,4(r2)
    2440:	0003ee80 	call	3ee8 <vTaskPriorityInherit>
    2444:	00041680 	call	4168 <vTaskExitCritical>
    2448:	e0bff617 	ldw	r2,-40(fp)
    244c:	11000904 	addi	r4,r2,36
    2450:	e17ffd17 	ldw	r5,-12(fp)
    2454:	00034e80 	call	34e8 <vTaskPlaceOnEventList>
    2458:	e13ff617 	ldw	r4,-40(fp)
    245c:	000293c0 	call	293c <prvUnlockQueue>
    2460:	00030180 	call	3018 <xTaskResumeAll>
    2464:	1004c03a 	cmpne	r2,r2,zero
    2468:	103f911e 	bne	r2,zero,22b0 <xQueueGenericReceive+0x30>
    246c:	003b683a 	trap	0
    2470:	003f8f06 	br	22b0 <xQueueGenericReceive+0x30>
    2474:	e13ff617 	ldw	r4,-40(fp)
    2478:	000293c0 	call	293c <prvUnlockQueue>
    247c:	00030180 	call	3018 <xTaskResumeAll>
    2480:	003f8b06 	br	22b0 <xQueueGenericReceive+0x30>
    2484:	e13ff617 	ldw	r4,-40(fp)
    2488:	000293c0 	call	293c <prvUnlockQueue>
    248c:	00030180 	call	3018 <xTaskResumeAll>
    2490:	e03fff15 	stw	zero,-4(fp)
    2494:	e0bfff17 	ldw	r2,-4(fp)
    2498:	e037883a 	mov	sp,fp
    249c:	dfc00117 	ldw	ra,4(sp)
    24a0:	df000017 	ldw	fp,0(sp)
    24a4:	dec00204 	addi	sp,sp,8
    24a8:	f800283a 	ret

000024ac <xQueueReceiveFromISR>:
    24ac:	defff804 	addi	sp,sp,-32
    24b0:	dfc00715 	stw	ra,28(sp)
    24b4:	df000615 	stw	fp,24(sp)
    24b8:	df000604 	addi	fp,sp,24
    24bc:	e13ffd15 	stw	r4,-12(fp)
    24c0:	e17ffe15 	stw	r5,-8(fp)
    24c4:	e1bfff15 	stw	r6,-4(fp)
    24c8:	e0bffd17 	ldw	r2,-12(fp)
    24cc:	e0bffa15 	stw	r2,-24(fp)
    24d0:	e03ffb15 	stw	zero,-20(fp)
    24d4:	e0bffa17 	ldw	r2,-24(fp)
    24d8:	10800e17 	ldw	r2,56(r2)
    24dc:	1005003a 	cmpeq	r2,r2,zero
    24e0:	1000241e 	bne	r2,zero,2574 <xQueueReceiveFromISR+0xc8>
    24e4:	e13ffa17 	ldw	r4,-24(fp)
    24e8:	e17ffe17 	ldw	r5,-8(fp)
    24ec:	00028a00 	call	28a0 <prvCopyDataFromQueue>
    24f0:	e0bffa17 	ldw	r2,-24(fp)
    24f4:	10800e17 	ldw	r2,56(r2)
    24f8:	10ffffc4 	addi	r3,r2,-1
    24fc:	e0bffa17 	ldw	r2,-24(fp)
    2500:	10c00e15 	stw	r3,56(r2)
    2504:	e0bffa17 	ldw	r2,-24(fp)
    2508:	10801117 	ldw	r2,68(r2)
    250c:	10bfffd8 	cmpnei	r2,r2,-1
    2510:	1000101e 	bne	r2,zero,2554 <xQueueReceiveFromISR+0xa8>
    2514:	e0bffa17 	ldw	r2,-24(fp)
    2518:	10800417 	ldw	r2,16(r2)
    251c:	1005003a 	cmpeq	r2,r2,zero
    2520:	1000111e 	bne	r2,zero,2568 <xQueueReceiveFromISR+0xbc>
    2524:	e0bffa17 	ldw	r2,-24(fp)
    2528:	11000404 	addi	r4,r2,16
    252c:	000361c0 	call	361c <xTaskRemoveFromEventList>
    2530:	1005003a 	cmpeq	r2,r2,zero
    2534:	10000c1e 	bne	r2,zero,2568 <xQueueReceiveFromISR+0xbc>
    2538:	e0bfff17 	ldw	r2,-4(fp)
    253c:	1005003a 	cmpeq	r2,r2,zero
    2540:	1000091e 	bne	r2,zero,2568 <xQueueReceiveFromISR+0xbc>
    2544:	e0ffff17 	ldw	r3,-4(fp)
    2548:	00800044 	movi	r2,1
    254c:	18800015 	stw	r2,0(r3)
    2550:	00000506 	br	2568 <xQueueReceiveFromISR+0xbc>
    2554:	e0bffa17 	ldw	r2,-24(fp)
    2558:	10801117 	ldw	r2,68(r2)
    255c:	10c00044 	addi	r3,r2,1
    2560:	e0bffa17 	ldw	r2,-24(fp)
    2564:	10c01115 	stw	r3,68(r2)
    2568:	00800044 	movi	r2,1
    256c:	e0bffc15 	stw	r2,-16(fp)
    2570:	00000106 	br	2578 <xQueueReceiveFromISR+0xcc>
    2574:	e03ffc15 	stw	zero,-16(fp)
    2578:	e0bffc17 	ldw	r2,-16(fp)
    257c:	e037883a 	mov	sp,fp
    2580:	dfc00117 	ldw	ra,4(sp)
    2584:	df000017 	ldw	fp,0(sp)
    2588:	dec00204 	addi	sp,sp,8
    258c:	f800283a 	ret

00002590 <xQueuePeekFromISR>:
    2590:	defff804 	addi	sp,sp,-32
    2594:	dfc00715 	stw	ra,28(sp)
    2598:	df000615 	stw	fp,24(sp)
    259c:	df000604 	addi	fp,sp,24
    25a0:	e13ffe15 	stw	r4,-8(fp)
    25a4:	e17fff15 	stw	r5,-4(fp)
    25a8:	e0bffe17 	ldw	r2,-8(fp)
    25ac:	e0bffa15 	stw	r2,-24(fp)
    25b0:	e03ffc15 	stw	zero,-16(fp)
    25b4:	e0bffa17 	ldw	r2,-24(fp)
    25b8:	10800e17 	ldw	r2,56(r2)
    25bc:	1005003a 	cmpeq	r2,r2,zero
    25c0:	10000c1e 	bne	r2,zero,25f4 <xQueuePeekFromISR+0x64>
    25c4:	e0bffa17 	ldw	r2,-24(fp)
    25c8:	10800317 	ldw	r2,12(r2)
    25cc:	e0bffb15 	stw	r2,-20(fp)
    25d0:	e13ffa17 	ldw	r4,-24(fp)
    25d4:	e17fff17 	ldw	r5,-4(fp)
    25d8:	00028a00 	call	28a0 <prvCopyDataFromQueue>
    25dc:	e0fffa17 	ldw	r3,-24(fp)
    25e0:	e0bffb17 	ldw	r2,-20(fp)
    25e4:	18800315 	stw	r2,12(r3)
    25e8:	00800044 	movi	r2,1
    25ec:	e0bffd15 	stw	r2,-12(fp)
    25f0:	00000106 	br	25f8 <xQueuePeekFromISR+0x68>
    25f4:	e03ffd15 	stw	zero,-12(fp)
    25f8:	e0bffd17 	ldw	r2,-12(fp)
    25fc:	e037883a 	mov	sp,fp
    2600:	dfc00117 	ldw	ra,4(sp)
    2604:	df000017 	ldw	fp,0(sp)
    2608:	dec00204 	addi	sp,sp,8
    260c:	f800283a 	ret

00002610 <uxQueueMessagesWaiting>:
    2610:	defffc04 	addi	sp,sp,-16
    2614:	dfc00315 	stw	ra,12(sp)
    2618:	df000215 	stw	fp,8(sp)
    261c:	df000204 	addi	fp,sp,8
    2620:	e13fff15 	stw	r4,-4(fp)
    2624:	00041140 	call	4114 <vTaskEnterCritical>
    2628:	e0bfff17 	ldw	r2,-4(fp)
    262c:	10800e17 	ldw	r2,56(r2)
    2630:	e0bffe15 	stw	r2,-8(fp)
    2634:	00041680 	call	4168 <vTaskExitCritical>
    2638:	e0bffe17 	ldw	r2,-8(fp)
    263c:	e037883a 	mov	sp,fp
    2640:	dfc00117 	ldw	ra,4(sp)
    2644:	df000017 	ldw	fp,0(sp)
    2648:	dec00204 	addi	sp,sp,8
    264c:	f800283a 	ret

00002650 <uxQueueSpacesAvailable>:
    2650:	defffb04 	addi	sp,sp,-20
    2654:	dfc00415 	stw	ra,16(sp)
    2658:	df000315 	stw	fp,12(sp)
    265c:	df000304 	addi	fp,sp,12
    2660:	e13fff15 	stw	r4,-4(fp)
    2664:	e0bfff17 	ldw	r2,-4(fp)
    2668:	e0bffd15 	stw	r2,-12(fp)
    266c:	00041140 	call	4114 <vTaskEnterCritical>
    2670:	e0bffd17 	ldw	r2,-12(fp)
    2674:	10c00f17 	ldw	r3,60(r2)
    2678:	e0bffd17 	ldw	r2,-12(fp)
    267c:	10800e17 	ldw	r2,56(r2)
    2680:	1885c83a 	sub	r2,r3,r2
    2684:	e0bffe15 	stw	r2,-8(fp)
    2688:	00041680 	call	4168 <vTaskExitCritical>
    268c:	e0bffe17 	ldw	r2,-8(fp)
    2690:	e037883a 	mov	sp,fp
    2694:	dfc00117 	ldw	ra,4(sp)
    2698:	df000017 	ldw	fp,0(sp)
    269c:	dec00204 	addi	sp,sp,8
    26a0:	f800283a 	ret

000026a4 <uxQueueMessagesWaitingFromISR>:
    26a4:	defffd04 	addi	sp,sp,-12
    26a8:	df000215 	stw	fp,8(sp)
    26ac:	df000204 	addi	fp,sp,8
    26b0:	e13fff15 	stw	r4,-4(fp)
    26b4:	e0bfff17 	ldw	r2,-4(fp)
    26b8:	10800e17 	ldw	r2,56(r2)
    26bc:	e0bffe15 	stw	r2,-8(fp)
    26c0:	e0bffe17 	ldw	r2,-8(fp)
    26c4:	e037883a 	mov	sp,fp
    26c8:	df000017 	ldw	fp,0(sp)
    26cc:	dec00104 	addi	sp,sp,4
    26d0:	f800283a 	ret

000026d4 <vQueueDelete>:
    26d4:	defffc04 	addi	sp,sp,-16
    26d8:	dfc00315 	stw	ra,12(sp)
    26dc:	df000215 	stw	fp,8(sp)
    26e0:	df000204 	addi	fp,sp,8
    26e4:	e13fff15 	stw	r4,-4(fp)
    26e8:	e0bfff17 	ldw	r2,-4(fp)
    26ec:	e0bffe15 	stw	r2,-8(fp)
    26f0:	e13ffe17 	ldw	r4,-8(fp)
    26f4:	00011500 	call	1150 <vPortFree>
    26f8:	e037883a 	mov	sp,fp
    26fc:	dfc00117 	ldw	ra,4(sp)
    2700:	df000017 	ldw	fp,0(sp)
    2704:	dec00204 	addi	sp,sp,8
    2708:	f800283a 	ret

0000270c <prvCopyDataToQueue>:
    270c:	defffa04 	addi	sp,sp,-24
    2710:	dfc00515 	stw	ra,20(sp)
    2714:	df000415 	stw	fp,16(sp)
    2718:	df000404 	addi	fp,sp,16
    271c:	e13ffd15 	stw	r4,-12(fp)
    2720:	e17ffe15 	stw	r5,-8(fp)
    2724:	e1bfff15 	stw	r6,-4(fp)
    2728:	e03ffc15 	stw	zero,-16(fp)
    272c:	e0bffd17 	ldw	r2,-12(fp)
    2730:	10801017 	ldw	r2,64(r2)
    2734:	1004c03a 	cmpne	r2,r2,zero
    2738:	10000b1e 	bne	r2,zero,2768 <prvCopyDataToQueue+0x5c>
    273c:	e0bffd17 	ldw	r2,-12(fp)
    2740:	10800017 	ldw	r2,0(r2)
    2744:	1004c03a 	cmpne	r2,r2,zero
    2748:	10004a1e 	bne	r2,zero,2874 <prvCopyDataToQueue+0x168>
    274c:	e0bffd17 	ldw	r2,-12(fp)
    2750:	11000117 	ldw	r4,4(r2)
    2754:	00040180 	call	4018 <xTaskPriorityDisinherit>
    2758:	e0bffc15 	stw	r2,-16(fp)
    275c:	e0bffd17 	ldw	r2,-12(fp)
    2760:	10000115 	stw	zero,4(r2)
    2764:	00004306 	br	2874 <prvCopyDataToQueue+0x168>
    2768:	e0bfff17 	ldw	r2,-4(fp)
    276c:	1004c03a 	cmpne	r2,r2,zero
    2770:	1000191e 	bne	r2,zero,27d8 <prvCopyDataToQueue+0xcc>
    2774:	e0bffd17 	ldw	r2,-12(fp)
    2778:	10c00217 	ldw	r3,8(r2)
    277c:	e0bffd17 	ldw	r2,-12(fp)
    2780:	11801017 	ldw	r6,64(r2)
    2784:	e0bffe17 	ldw	r2,-8(fp)
    2788:	1809883a 	mov	r4,r3
    278c:	100b883a 	mov	r5,r2
    2790:	00052880 	call	5288 <memcpy>
    2794:	e0bffd17 	ldw	r2,-12(fp)
    2798:	10c00217 	ldw	r3,8(r2)
    279c:	e0bffd17 	ldw	r2,-12(fp)
    27a0:	10801017 	ldw	r2,64(r2)
    27a4:	1887883a 	add	r3,r3,r2
    27a8:	e0bffd17 	ldw	r2,-12(fp)
    27ac:	10c00215 	stw	r3,8(r2)
    27b0:	e0bffd17 	ldw	r2,-12(fp)
    27b4:	10c00217 	ldw	r3,8(r2)
    27b8:	e0bffd17 	ldw	r2,-12(fp)
    27bc:	10800117 	ldw	r2,4(r2)
    27c0:	18802c36 	bltu	r3,r2,2874 <prvCopyDataToQueue+0x168>
    27c4:	e0bffd17 	ldw	r2,-12(fp)
    27c8:	10c00017 	ldw	r3,0(r2)
    27cc:	e0bffd17 	ldw	r2,-12(fp)
    27d0:	10c00215 	stw	r3,8(r2)
    27d4:	00002706 	br	2874 <prvCopyDataToQueue+0x168>
    27d8:	e0bffd17 	ldw	r2,-12(fp)
    27dc:	10c00317 	ldw	r3,12(r2)
    27e0:	e0bffd17 	ldw	r2,-12(fp)
    27e4:	11801017 	ldw	r6,64(r2)
    27e8:	e0bffe17 	ldw	r2,-8(fp)
    27ec:	1809883a 	mov	r4,r3
    27f0:	100b883a 	mov	r5,r2
    27f4:	00052880 	call	5288 <memcpy>
    27f8:	e0bffd17 	ldw	r2,-12(fp)
    27fc:	10c00317 	ldw	r3,12(r2)
    2800:	e0bffd17 	ldw	r2,-12(fp)
    2804:	10801017 	ldw	r2,64(r2)
    2808:	1887c83a 	sub	r3,r3,r2
    280c:	e0bffd17 	ldw	r2,-12(fp)
    2810:	10c00315 	stw	r3,12(r2)
    2814:	e0bffd17 	ldw	r2,-12(fp)
    2818:	10c00317 	ldw	r3,12(r2)
    281c:	e0bffd17 	ldw	r2,-12(fp)
    2820:	10800017 	ldw	r2,0(r2)
    2824:	1880072e 	bgeu	r3,r2,2844 <prvCopyDataToQueue+0x138>
    2828:	e0bffd17 	ldw	r2,-12(fp)
    282c:	10c00117 	ldw	r3,4(r2)
    2830:	e0bffd17 	ldw	r2,-12(fp)
    2834:	10801017 	ldw	r2,64(r2)
    2838:	1887c83a 	sub	r3,r3,r2
    283c:	e0bffd17 	ldw	r2,-12(fp)
    2840:	10c00315 	stw	r3,12(r2)
    2844:	e0bfff17 	ldw	r2,-4(fp)
    2848:	10800098 	cmpnei	r2,r2,2
    284c:	1000091e 	bne	r2,zero,2874 <prvCopyDataToQueue+0x168>
    2850:	e0bffd17 	ldw	r2,-12(fp)
    2854:	10800e17 	ldw	r2,56(r2)
    2858:	1005003a 	cmpeq	r2,r2,zero
    285c:	1000051e 	bne	r2,zero,2874 <prvCopyDataToQueue+0x168>
    2860:	e0bffd17 	ldw	r2,-12(fp)
    2864:	10800e17 	ldw	r2,56(r2)
    2868:	10ffffc4 	addi	r3,r2,-1
    286c:	e0bffd17 	ldw	r2,-12(fp)
    2870:	10c00e15 	stw	r3,56(r2)
    2874:	e0bffd17 	ldw	r2,-12(fp)
    2878:	10800e17 	ldw	r2,56(r2)
    287c:	10c00044 	addi	r3,r2,1
    2880:	e0bffd17 	ldw	r2,-12(fp)
    2884:	10c00e15 	stw	r3,56(r2)
    2888:	e0bffc17 	ldw	r2,-16(fp)
    288c:	e037883a 	mov	sp,fp
    2890:	dfc00117 	ldw	ra,4(sp)
    2894:	df000017 	ldw	fp,0(sp)
    2898:	dec00204 	addi	sp,sp,8
    289c:	f800283a 	ret

000028a0 <prvCopyDataFromQueue>:
    28a0:	defffc04 	addi	sp,sp,-16
    28a4:	dfc00315 	stw	ra,12(sp)
    28a8:	df000215 	stw	fp,8(sp)
    28ac:	df000204 	addi	fp,sp,8
    28b0:	e13ffe15 	stw	r4,-8(fp)
    28b4:	e17fff15 	stw	r5,-4(fp)
    28b8:	e0bffe17 	ldw	r2,-8(fp)
    28bc:	10801017 	ldw	r2,64(r2)
    28c0:	1005003a 	cmpeq	r2,r2,zero
    28c4:	1000181e 	bne	r2,zero,2928 <prvCopyDataFromQueue+0x88>
    28c8:	e0bffe17 	ldw	r2,-8(fp)
    28cc:	10c00317 	ldw	r3,12(r2)
    28d0:	e0bffe17 	ldw	r2,-8(fp)
    28d4:	10801017 	ldw	r2,64(r2)
    28d8:	1887883a 	add	r3,r3,r2
    28dc:	e0bffe17 	ldw	r2,-8(fp)
    28e0:	10c00315 	stw	r3,12(r2)
    28e4:	e0bffe17 	ldw	r2,-8(fp)
    28e8:	10c00317 	ldw	r3,12(r2)
    28ec:	e0bffe17 	ldw	r2,-8(fp)
    28f0:	10800117 	ldw	r2,4(r2)
    28f4:	18800436 	bltu	r3,r2,2908 <prvCopyDataFromQueue+0x68>
    28f8:	e0bffe17 	ldw	r2,-8(fp)
    28fc:	10c00017 	ldw	r3,0(r2)
    2900:	e0bffe17 	ldw	r2,-8(fp)
    2904:	10c00315 	stw	r3,12(r2)
    2908:	e0bffe17 	ldw	r2,-8(fp)
    290c:	10c00317 	ldw	r3,12(r2)
    2910:	e0bffe17 	ldw	r2,-8(fp)
    2914:	11801017 	ldw	r6,64(r2)
    2918:	e0bfff17 	ldw	r2,-4(fp)
    291c:	1009883a 	mov	r4,r2
    2920:	180b883a 	mov	r5,r3
    2924:	00052880 	call	5288 <memcpy>
    2928:	e037883a 	mov	sp,fp
    292c:	dfc00117 	ldw	ra,4(sp)
    2930:	df000017 	ldw	fp,0(sp)
    2934:	dec00204 	addi	sp,sp,8
    2938:	f800283a 	ret

0000293c <prvUnlockQueue>:
    293c:	defffd04 	addi	sp,sp,-12
    2940:	dfc00215 	stw	ra,8(sp)
    2944:	df000115 	stw	fp,4(sp)
    2948:	df000104 	addi	fp,sp,4
    294c:	e13fff15 	stw	r4,-4(fp)
    2950:	00041140 	call	4114 <vTaskEnterCritical>
    2954:	00000f06 	br	2994 <prvUnlockQueue+0x58>
    2958:	e0bfff17 	ldw	r2,-4(fp)
    295c:	10800917 	ldw	r2,36(r2)
    2960:	1005003a 	cmpeq	r2,r2,zero
    2964:	10000f1e 	bne	r2,zero,29a4 <prvUnlockQueue+0x68>
    2968:	e0bfff17 	ldw	r2,-4(fp)
    296c:	11000904 	addi	r4,r2,36
    2970:	000361c0 	call	361c <xTaskRemoveFromEventList>
    2974:	1005003a 	cmpeq	r2,r2,zero
    2978:	1000011e 	bne	r2,zero,2980 <prvUnlockQueue+0x44>
    297c:	00038d00 	call	38d0 <vTaskMissedYield>
    2980:	e0bfff17 	ldw	r2,-4(fp)
    2984:	10801217 	ldw	r2,72(r2)
    2988:	10ffffc4 	addi	r3,r2,-1
    298c:	e0bfff17 	ldw	r2,-4(fp)
    2990:	10c01215 	stw	r3,72(r2)
    2994:	e0bfff17 	ldw	r2,-4(fp)
    2998:	10801217 	ldw	r2,72(r2)
    299c:	10800048 	cmpgei	r2,r2,1
    29a0:	103fed1e 	bne	r2,zero,2958 <prvUnlockQueue+0x1c>
    29a4:	e0ffff17 	ldw	r3,-4(fp)
    29a8:	00bfffc4 	movi	r2,-1
    29ac:	18801215 	stw	r2,72(r3)
    29b0:	00041680 	call	4168 <vTaskExitCritical>
    29b4:	00041140 	call	4114 <vTaskEnterCritical>
    29b8:	00000f06 	br	29f8 <prvUnlockQueue+0xbc>
    29bc:	e0bfff17 	ldw	r2,-4(fp)
    29c0:	10800417 	ldw	r2,16(r2)
    29c4:	1005003a 	cmpeq	r2,r2,zero
    29c8:	10000f1e 	bne	r2,zero,2a08 <prvUnlockQueue+0xcc>
    29cc:	e0bfff17 	ldw	r2,-4(fp)
    29d0:	11000404 	addi	r4,r2,16
    29d4:	000361c0 	call	361c <xTaskRemoveFromEventList>
    29d8:	1005003a 	cmpeq	r2,r2,zero
    29dc:	1000011e 	bne	r2,zero,29e4 <prvUnlockQueue+0xa8>
    29e0:	00038d00 	call	38d0 <vTaskMissedYield>
    29e4:	e0bfff17 	ldw	r2,-4(fp)
    29e8:	10801117 	ldw	r2,68(r2)
    29ec:	10ffffc4 	addi	r3,r2,-1
    29f0:	e0bfff17 	ldw	r2,-4(fp)
    29f4:	10c01115 	stw	r3,68(r2)
    29f8:	e0bfff17 	ldw	r2,-4(fp)
    29fc:	10801117 	ldw	r2,68(r2)
    2a00:	10800048 	cmpgei	r2,r2,1
    2a04:	103fed1e 	bne	r2,zero,29bc <prvUnlockQueue+0x80>
    2a08:	e0ffff17 	ldw	r3,-4(fp)
    2a0c:	00bfffc4 	movi	r2,-1
    2a10:	18801115 	stw	r2,68(r3)
    2a14:	00041680 	call	4168 <vTaskExitCritical>
    2a18:	e037883a 	mov	sp,fp
    2a1c:	dfc00117 	ldw	ra,4(sp)
    2a20:	df000017 	ldw	fp,0(sp)
    2a24:	dec00204 	addi	sp,sp,8
    2a28:	f800283a 	ret

00002a2c <prvIsQueueEmpty>:
    2a2c:	defffc04 	addi	sp,sp,-16
    2a30:	dfc00315 	stw	ra,12(sp)
    2a34:	df000215 	stw	fp,8(sp)
    2a38:	df000204 	addi	fp,sp,8
    2a3c:	e13fff15 	stw	r4,-4(fp)
    2a40:	00041140 	call	4114 <vTaskEnterCritical>
    2a44:	e0bfff17 	ldw	r2,-4(fp)
    2a48:	10800e17 	ldw	r2,56(r2)
    2a4c:	1004c03a 	cmpne	r2,r2,zero
    2a50:	1000031e 	bne	r2,zero,2a60 <prvIsQueueEmpty+0x34>
    2a54:	00800044 	movi	r2,1
    2a58:	e0bffe15 	stw	r2,-8(fp)
    2a5c:	00000106 	br	2a64 <prvIsQueueEmpty+0x38>
    2a60:	e03ffe15 	stw	zero,-8(fp)
    2a64:	00041680 	call	4168 <vTaskExitCritical>
    2a68:	e0bffe17 	ldw	r2,-8(fp)
    2a6c:	e037883a 	mov	sp,fp
    2a70:	dfc00117 	ldw	ra,4(sp)
    2a74:	df000017 	ldw	fp,0(sp)
    2a78:	dec00204 	addi	sp,sp,8
    2a7c:	f800283a 	ret

00002a80 <xQueueIsQueueEmptyFromISR>:
    2a80:	defffd04 	addi	sp,sp,-12
    2a84:	df000215 	stw	fp,8(sp)
    2a88:	df000204 	addi	fp,sp,8
    2a8c:	e13fff15 	stw	r4,-4(fp)
    2a90:	e0bfff17 	ldw	r2,-4(fp)
    2a94:	10800e17 	ldw	r2,56(r2)
    2a98:	1004c03a 	cmpne	r2,r2,zero
    2a9c:	1000031e 	bne	r2,zero,2aac <xQueueIsQueueEmptyFromISR+0x2c>
    2aa0:	00800044 	movi	r2,1
    2aa4:	e0bffe15 	stw	r2,-8(fp)
    2aa8:	00000106 	br	2ab0 <xQueueIsQueueEmptyFromISR+0x30>
    2aac:	e03ffe15 	stw	zero,-8(fp)
    2ab0:	e0bffe17 	ldw	r2,-8(fp)
    2ab4:	e037883a 	mov	sp,fp
    2ab8:	df000017 	ldw	fp,0(sp)
    2abc:	dec00104 	addi	sp,sp,4
    2ac0:	f800283a 	ret

00002ac4 <prvIsQueueFull>:
    2ac4:	defffc04 	addi	sp,sp,-16
    2ac8:	dfc00315 	stw	ra,12(sp)
    2acc:	df000215 	stw	fp,8(sp)
    2ad0:	df000204 	addi	fp,sp,8
    2ad4:	e13fff15 	stw	r4,-4(fp)
    2ad8:	00041140 	call	4114 <vTaskEnterCritical>
    2adc:	e0bfff17 	ldw	r2,-4(fp)
    2ae0:	10c00e17 	ldw	r3,56(r2)
    2ae4:	e0bfff17 	ldw	r2,-4(fp)
    2ae8:	10800f17 	ldw	r2,60(r2)
    2aec:	1880031e 	bne	r3,r2,2afc <prvIsQueueFull+0x38>
    2af0:	00800044 	movi	r2,1
    2af4:	e0bffe15 	stw	r2,-8(fp)
    2af8:	00000106 	br	2b00 <prvIsQueueFull+0x3c>
    2afc:	e03ffe15 	stw	zero,-8(fp)
    2b00:	00041680 	call	4168 <vTaskExitCritical>
    2b04:	e0bffe17 	ldw	r2,-8(fp)
    2b08:	e037883a 	mov	sp,fp
    2b0c:	dfc00117 	ldw	ra,4(sp)
    2b10:	df000017 	ldw	fp,0(sp)
    2b14:	dec00204 	addi	sp,sp,8
    2b18:	f800283a 	ret

00002b1c <xQueueIsQueueFullFromISR>:
    2b1c:	defffd04 	addi	sp,sp,-12
    2b20:	df000215 	stw	fp,8(sp)
    2b24:	df000204 	addi	fp,sp,8
    2b28:	e13fff15 	stw	r4,-4(fp)
    2b2c:	e0bfff17 	ldw	r2,-4(fp)
    2b30:	10c00e17 	ldw	r3,56(r2)
    2b34:	e0bfff17 	ldw	r2,-4(fp)
    2b38:	10800f17 	ldw	r2,60(r2)
    2b3c:	1880031e 	bne	r3,r2,2b4c <xQueueIsQueueFullFromISR+0x30>
    2b40:	00800044 	movi	r2,1
    2b44:	e0bffe15 	stw	r2,-8(fp)
    2b48:	00000106 	br	2b50 <xQueueIsQueueFullFromISR+0x34>
    2b4c:	e03ffe15 	stw	zero,-8(fp)
    2b50:	e0bffe17 	ldw	r2,-8(fp)
    2b54:	e037883a 	mov	sp,fp
    2b58:	df000017 	ldw	fp,0(sp)
    2b5c:	dec00104 	addi	sp,sp,4
    2b60:	f800283a 	ret

00002b64 <vQueueWaitForMessageRestricted>:
    2b64:	defffb04 	addi	sp,sp,-20
    2b68:	dfc00415 	stw	ra,16(sp)
    2b6c:	df000315 	stw	fp,12(sp)
    2b70:	df000304 	addi	fp,sp,12
    2b74:	e13ffe15 	stw	r4,-8(fp)
    2b78:	e17fff15 	stw	r5,-4(fp)
    2b7c:	e0bffe17 	ldw	r2,-8(fp)
    2b80:	e0bffd15 	stw	r2,-12(fp)
    2b84:	00041140 	call	4114 <vTaskEnterCritical>
    2b88:	e0bffd17 	ldw	r2,-12(fp)
    2b8c:	10801117 	ldw	r2,68(r2)
    2b90:	10bfffd8 	cmpnei	r2,r2,-1
    2b94:	1000021e 	bne	r2,zero,2ba0 <vQueueWaitForMessageRestricted+0x3c>
    2b98:	e0bffd17 	ldw	r2,-12(fp)
    2b9c:	10001115 	stw	zero,68(r2)
    2ba0:	e0bffd17 	ldw	r2,-12(fp)
    2ba4:	10801217 	ldw	r2,72(r2)
    2ba8:	10bfffd8 	cmpnei	r2,r2,-1
    2bac:	1000021e 	bne	r2,zero,2bb8 <vQueueWaitForMessageRestricted+0x54>
    2bb0:	e0bffd17 	ldw	r2,-12(fp)
    2bb4:	10001215 	stw	zero,72(r2)
    2bb8:	00041680 	call	4168 <vTaskExitCritical>
    2bbc:	e0bffd17 	ldw	r2,-12(fp)
    2bc0:	10800e17 	ldw	r2,56(r2)
    2bc4:	1004c03a 	cmpne	r2,r2,zero
    2bc8:	1000041e 	bne	r2,zero,2bdc <vQueueWaitForMessageRestricted+0x78>
    2bcc:	e0bffd17 	ldw	r2,-12(fp)
    2bd0:	11000904 	addi	r4,r2,36
    2bd4:	e17fff17 	ldw	r5,-4(fp)
    2bd8:	00035bc0 	call	35bc <vTaskPlaceOnEventListRestricted>
    2bdc:	e13ffd17 	ldw	r4,-12(fp)
    2be0:	000293c0 	call	293c <prvUnlockQueue>
    2be4:	e037883a 	mov	sp,fp
    2be8:	dfc00117 	ldw	ra,4(sp)
    2bec:	df000017 	ldw	fp,0(sp)
    2bf0:	dec00204 	addi	sp,sp,8
    2bf4:	f800283a 	ret

00002bf8 <xTaskGenericCreate>:
    2bf8:	defff604 	addi	sp,sp,-40
    2bfc:	dfc00915 	stw	ra,36(sp)
    2c00:	df000815 	stw	fp,32(sp)
    2c04:	df000804 	addi	fp,sp,32
    2c08:	e13ffc15 	stw	r4,-16(fp)
    2c0c:	e17ffd15 	stw	r5,-12(fp)
    2c10:	e1ffff15 	stw	r7,-4(fp)
    2c14:	e1bffe0d 	sth	r6,-8(fp)
    2c18:	e13ffe0b 	ldhu	r4,-8(fp)
    2c1c:	e1400417 	ldw	r5,16(fp)
    2c20:	0003c100 	call	3c10 <prvAllocateTCBAndStack>
    2c24:	e0bffa15 	stw	r2,-24(fp)
    2c28:	e0bffa17 	ldw	r2,-24(fp)
    2c2c:	1005003a 	cmpeq	r2,r2,zero
    2c30:	1000501e 	bne	r2,zero,2d74 <xTaskGenericCreate+0x17c>
    2c34:	e0bffa17 	ldw	r2,-24(fp)
    2c38:	10c00c17 	ldw	r3,48(r2)
    2c3c:	e0bffe0b 	ldhu	r2,-8(fp)
    2c40:	1085883a 	add	r2,r2,r2
    2c44:	1085883a 	add	r2,r2,r2
    2c48:	1885883a 	add	r2,r3,r2
    2c4c:	10bfff04 	addi	r2,r2,-4
    2c50:	e0bff915 	stw	r2,-28(fp)
    2c54:	e0bff917 	ldw	r2,-28(fp)
    2c58:	1007883a 	mov	r3,r2
    2c5c:	00bfff04 	movi	r2,-4
    2c60:	1884703a 	and	r2,r3,r2
    2c64:	e0bff915 	stw	r2,-28(fp)
    2c68:	e0bffe0b 	ldhu	r2,-8(fp)
    2c6c:	d8800015 	stw	r2,0(sp)
    2c70:	e13ffa17 	ldw	r4,-24(fp)
    2c74:	e17ffd17 	ldw	r5,-12(fp)
    2c78:	e1800217 	ldw	r6,8(fp)
    2c7c:	e1c00517 	ldw	r7,20(fp)
    2c80:	00039100 	call	3910 <prvInitialiseTCBVariables>
    2c84:	e13ff917 	ldw	r4,-28(fp)
    2c88:	e17ffc17 	ldw	r5,-16(fp)
    2c8c:	e1bfff17 	ldw	r6,-4(fp)
    2c90:	00016f40 	call	16f4 <pxPortInitialiseStack>
    2c94:	1007883a 	mov	r3,r2
    2c98:	e0bffa17 	ldw	r2,-24(fp)
    2c9c:	10c00015 	stw	r3,0(r2)
    2ca0:	e0800317 	ldw	r2,12(fp)
    2ca4:	1005003a 	cmpeq	r2,r2,zero
    2ca8:	1000031e 	bne	r2,zero,2cb8 <xTaskGenericCreate+0xc0>
    2cac:	e0c00317 	ldw	r3,12(fp)
    2cb0:	e0bffa17 	ldw	r2,-24(fp)
    2cb4:	18800015 	stw	r2,0(r3)
    2cb8:	00041140 	call	4114 <vTaskEnterCritical>
    2cbc:	d0a02417 	ldw	r2,-32624(gp)
    2cc0:	10800044 	addi	r2,r2,1
    2cc4:	d0a02415 	stw	r2,-32624(gp)
    2cc8:	d0a02217 	ldw	r2,-32632(gp)
    2ccc:	1004c03a 	cmpne	r2,r2,zero
    2cd0:	1000071e 	bne	r2,zero,2cf0 <xTaskGenericCreate+0xf8>
    2cd4:	e0bffa17 	ldw	r2,-24(fp)
    2cd8:	d0a02215 	stw	r2,-32632(gp)
    2cdc:	d0a02417 	ldw	r2,-32624(gp)
    2ce0:	10800058 	cmpnei	r2,r2,1
    2ce4:	10000b1e 	bne	r2,zero,2d14 <xTaskGenericCreate+0x11c>
    2ce8:	0003a4c0 	call	3a4c <prvInitialiseTaskLists>
    2cec:	00000906 	br	2d14 <xTaskGenericCreate+0x11c>
    2cf0:	d0a02717 	ldw	r2,-32612(gp)
    2cf4:	1004c03a 	cmpne	r2,r2,zero
    2cf8:	1000061e 	bne	r2,zero,2d14 <xTaskGenericCreate+0x11c>
    2cfc:	d0a02217 	ldw	r2,-32632(gp)
    2d00:	10c00b17 	ldw	r3,44(r2)
    2d04:	e0800217 	ldw	r2,8(fp)
    2d08:	10c00236 	bltu	r2,r3,2d14 <xTaskGenericCreate+0x11c>
    2d0c:	e0bffa17 	ldw	r2,-24(fp)
    2d10:	d0a02215 	stw	r2,-32632(gp)
    2d14:	d0a02b17 	ldw	r2,-32596(gp)
    2d18:	10800044 	addi	r2,r2,1
    2d1c:	d0a02b15 	stw	r2,-32596(gp)
    2d20:	e0bffa17 	ldw	r2,-24(fp)
    2d24:	10c00b17 	ldw	r3,44(r2)
    2d28:	d0a02617 	ldw	r2,-32616(gp)
    2d2c:	10c0032e 	bgeu	r2,r3,2d3c <xTaskGenericCreate+0x144>
    2d30:	e0bffa17 	ldw	r2,-24(fp)
    2d34:	10800b17 	ldw	r2,44(r2)
    2d38:	d0a02615 	stw	r2,-32616(gp)
    2d3c:	e0bffa17 	ldw	r2,-24(fp)
    2d40:	10800b17 	ldw	r2,44(r2)
    2d44:	10800524 	muli	r2,r2,20
    2d48:	1007883a 	mov	r3,r2
    2d4c:	00820234 	movhi	r2,2056
    2d50:	10bd8104 	addi	r2,r2,-2556
    2d54:	1889883a 	add	r4,r3,r2
    2d58:	e0bffa17 	ldw	r2,-24(fp)
    2d5c:	11400104 	addi	r5,r2,4
    2d60:	000149c0 	call	149c <vListInsertEnd>
    2d64:	00800044 	movi	r2,1
    2d68:	e0bffb15 	stw	r2,-20(fp)
    2d6c:	00041680 	call	4168 <vTaskExitCritical>
    2d70:	00000206 	br	2d7c <xTaskGenericCreate+0x184>
    2d74:	00bfffc4 	movi	r2,-1
    2d78:	e0bffb15 	stw	r2,-20(fp)
    2d7c:	e0bffb17 	ldw	r2,-20(fp)
    2d80:	10800058 	cmpnei	r2,r2,1
    2d84:	1000081e 	bne	r2,zero,2da8 <xTaskGenericCreate+0x1b0>
    2d88:	d0a02717 	ldw	r2,-32612(gp)
    2d8c:	1005003a 	cmpeq	r2,r2,zero
    2d90:	1000051e 	bne	r2,zero,2da8 <xTaskGenericCreate+0x1b0>
    2d94:	d0a02217 	ldw	r2,-32632(gp)
    2d98:	10c00b17 	ldw	r3,44(r2)
    2d9c:	e0800217 	ldw	r2,8(fp)
    2da0:	1880012e 	bgeu	r3,r2,2da8 <xTaskGenericCreate+0x1b0>
    2da4:	003b683a 	trap	0
    2da8:	e0bffb17 	ldw	r2,-20(fp)
    2dac:	e037883a 	mov	sp,fp
    2db0:	dfc00117 	ldw	ra,4(sp)
    2db4:	df000017 	ldw	fp,0(sp)
    2db8:	dec00204 	addi	sp,sp,8
    2dbc:	f800283a 	ret

00002dc0 <vTaskDelete>:
    2dc0:	defffb04 	addi	sp,sp,-20
    2dc4:	dfc00415 	stw	ra,16(sp)
    2dc8:	df000315 	stw	fp,12(sp)
    2dcc:	df000304 	addi	fp,sp,12
    2dd0:	e13ffe15 	stw	r4,-8(fp)
    2dd4:	00041140 	call	4114 <vTaskEnterCritical>
    2dd8:	e0bffe17 	ldw	r2,-8(fp)
    2ddc:	1004c03a 	cmpne	r2,r2,zero
    2de0:	1000031e 	bne	r2,zero,2df0 <vTaskDelete+0x30>
    2de4:	d0a02217 	ldw	r2,-32632(gp)
    2de8:	e0bfff15 	stw	r2,-4(fp)
    2dec:	00000206 	br	2df8 <vTaskDelete+0x38>
    2df0:	e0bffe17 	ldw	r2,-8(fp)
    2df4:	e0bfff15 	stw	r2,-4(fp)
    2df8:	e0bfff17 	ldw	r2,-4(fp)
    2dfc:	e0bffd15 	stw	r2,-12(fp)
    2e00:	e0bffd17 	ldw	r2,-12(fp)
    2e04:	11000104 	addi	r4,r2,4
    2e08:	00015f80 	call	15f8 <uxListRemove>
    2e0c:	e0bffd17 	ldw	r2,-12(fp)
    2e10:	10800a17 	ldw	r2,40(r2)
    2e14:	1005003a 	cmpeq	r2,r2,zero
    2e18:	1000031e 	bne	r2,zero,2e28 <vTaskDelete+0x68>
    2e1c:	e0bffd17 	ldw	r2,-12(fp)
    2e20:	11000604 	addi	r4,r2,24
    2e24:	00015f80 	call	15f8 <uxListRemove>
    2e28:	e0bffd17 	ldw	r2,-12(fp)
    2e2c:	11400104 	addi	r5,r2,4
    2e30:	01020234 	movhi	r4,2056
    2e34:	213dcc04 	addi	r4,r4,-2256
    2e38:	000149c0 	call	149c <vListInsertEnd>
    2e3c:	d0a02317 	ldw	r2,-32628(gp)
    2e40:	10800044 	addi	r2,r2,1
    2e44:	d0a02315 	stw	r2,-32628(gp)
    2e48:	d0a02b17 	ldw	r2,-32596(gp)
    2e4c:	10800044 	addi	r2,r2,1
    2e50:	d0a02b15 	stw	r2,-32596(gp)
    2e54:	00041680 	call	4168 <vTaskExitCritical>
    2e58:	d0a02717 	ldw	r2,-32612(gp)
    2e5c:	1005003a 	cmpeq	r2,r2,zero
    2e60:	1000081e 	bne	r2,zero,2e84 <vTaskDelete+0xc4>
    2e64:	d0e02217 	ldw	r3,-32632(gp)
    2e68:	e0bffd17 	ldw	r2,-12(fp)
    2e6c:	10c0021e 	bne	r2,r3,2e78 <vTaskDelete+0xb8>
    2e70:	003b683a 	trap	0
    2e74:	00000306 	br	2e84 <vTaskDelete+0xc4>
    2e78:	00041140 	call	4114 <vTaskEnterCritical>
    2e7c:	0003dfc0 	call	3dfc <prvResetNextTaskUnblockTime>
    2e80:	00041680 	call	4168 <vTaskExitCritical>
    2e84:	e037883a 	mov	sp,fp
    2e88:	dfc00117 	ldw	ra,4(sp)
    2e8c:	df000017 	ldw	fp,0(sp)
    2e90:	dec00204 	addi	sp,sp,8
    2e94:	f800283a 	ret

00002e98 <vTaskDelay>:
    2e98:	defffb04 	addi	sp,sp,-20
    2e9c:	dfc00415 	stw	ra,16(sp)
    2ea0:	df000315 	stw	fp,12(sp)
    2ea4:	df000304 	addi	fp,sp,12
    2ea8:	e13fff15 	stw	r4,-4(fp)
    2eac:	e03ffd15 	stw	zero,-12(fp)
    2eb0:	e0bfff17 	ldw	r2,-4(fp)
    2eb4:	1005003a 	cmpeq	r2,r2,zero
    2eb8:	10000c1e 	bne	r2,zero,2eec <vTaskDelay+0x54>
    2ebc:	0002ff00 	call	2ff0 <vTaskSuspendAll>
    2ec0:	d0e02517 	ldw	r3,-32620(gp)
    2ec4:	e0bfff17 	ldw	r2,-4(fp)
    2ec8:	1885883a 	add	r2,r3,r2
    2ecc:	e0bffe15 	stw	r2,-8(fp)
    2ed0:	d0a02217 	ldw	r2,-32632(gp)
    2ed4:	11000104 	addi	r4,r2,4
    2ed8:	00015f80 	call	15f8 <uxListRemove>
    2edc:	e13ffe17 	ldw	r4,-8(fp)
    2ee0:	0003b980 	call	3b98 <prvAddCurrentTaskToDelayedList>
    2ee4:	00030180 	call	3018 <xTaskResumeAll>
    2ee8:	e0bffd15 	stw	r2,-12(fp)
    2eec:	e0bffd17 	ldw	r2,-12(fp)
    2ef0:	1004c03a 	cmpne	r2,r2,zero
    2ef4:	1000011e 	bne	r2,zero,2efc <vTaskDelay+0x64>
    2ef8:	003b683a 	trap	0
    2efc:	e037883a 	mov	sp,fp
    2f00:	dfc00117 	ldw	ra,4(sp)
    2f04:	df000017 	ldw	fp,0(sp)
    2f08:	dec00204 	addi	sp,sp,8
    2f0c:	f800283a 	ret

00002f10 <vTaskStartScheduler>:
    2f10:	defff804 	addi	sp,sp,-32
    2f14:	dfc00715 	stw	ra,28(sp)
    2f18:	df000615 	stw	fp,24(sp)
    2f1c:	df000604 	addi	fp,sp,24
    2f20:	d8000015 	stw	zero,0(sp)
    2f24:	d8000115 	stw	zero,4(sp)
    2f28:	d8000215 	stw	zero,8(sp)
    2f2c:	d8000315 	stw	zero,12(sp)
    2f30:	01000034 	movhi	r4,0
    2f34:	210e3d04 	addi	r4,r4,14580
    2f38:	01420034 	movhi	r5,2048
    2f3c:	29400d04 	addi	r5,r5,52
    2f40:	01840004 	movi	r6,4096
    2f44:	000f883a 	mov	r7,zero
    2f48:	0002bf80 	call	2bf8 <xTaskGenericCreate>
    2f4c:	e0bfff15 	stw	r2,-4(fp)
    2f50:	e0bfff17 	ldw	r2,-4(fp)
    2f54:	10800058 	cmpnei	r2,r2,1
    2f58:	1000021e 	bne	r2,zero,2f64 <vTaskStartScheduler+0x54>
    2f5c:	000488c0 	call	488c <xTimerCreateTimerTask>
    2f60:	e0bfff15 	stw	r2,-4(fp)
    2f64:	e0bfff17 	ldw	r2,-4(fp)
    2f68:	10800058 	cmpnei	r2,r2,1
    2f6c:	10000a1e 	bne	r2,zero,2f98 <vTaskStartScheduler+0x88>
    2f70:	0005303a 	rdctl	r2,status
    2f74:	e0bffe15 	stw	r2,-8(fp)
    2f78:	e0fffe17 	ldw	r3,-8(fp)
    2f7c:	00bfff84 	movi	r2,-2
    2f80:	1884703a 	and	r2,r3,r2
    2f84:	1001703a 	wrctl	status,r2
    2f88:	00800044 	movi	r2,1
    2f8c:	d0a02715 	stw	r2,-32612(gp)
    2f90:	d0202515 	stw	zero,-32620(gp)
    2f94:	00017dc0 	call	17dc <xPortStartScheduler>
    2f98:	e037883a 	mov	sp,fp
    2f9c:	dfc00117 	ldw	ra,4(sp)
    2fa0:	df000017 	ldw	fp,0(sp)
    2fa4:	dec00204 	addi	sp,sp,8
    2fa8:	f800283a 	ret

00002fac <vTaskEndScheduler>:
    2fac:	defffd04 	addi	sp,sp,-12
    2fb0:	dfc00215 	stw	ra,8(sp)
    2fb4:	df000115 	stw	fp,4(sp)
    2fb8:	df000104 	addi	fp,sp,4
    2fbc:	0005303a 	rdctl	r2,status
    2fc0:	e0bfff15 	stw	r2,-4(fp)
    2fc4:	e0ffff17 	ldw	r3,-4(fp)
    2fc8:	00bfff84 	movi	r2,-2
    2fcc:	1884703a 	and	r2,r3,r2
    2fd0:	1001703a 	wrctl	status,r2
    2fd4:	d0202715 	stw	zero,-32612(gp)
    2fd8:	00018140 	call	1814 <vPortEndScheduler>
    2fdc:	e037883a 	mov	sp,fp
    2fe0:	dfc00117 	ldw	ra,4(sp)
    2fe4:	df000017 	ldw	fp,0(sp)
    2fe8:	dec00204 	addi	sp,sp,8
    2fec:	f800283a 	ret

00002ff0 <vTaskSuspendAll>:
    2ff0:	deffff04 	addi	sp,sp,-4
    2ff4:	df000015 	stw	fp,0(sp)
    2ff8:	d839883a 	mov	fp,sp
    2ffc:	d0a02c17 	ldw	r2,-32592(gp)
    3000:	10800044 	addi	r2,r2,1
    3004:	d0a02c15 	stw	r2,-32592(gp)
    3008:	e037883a 	mov	sp,fp
    300c:	df000017 	ldw	fp,0(sp)
    3010:	dec00104 	addi	sp,sp,4
    3014:	f800283a 	ret

00003018 <xTaskResumeAll>:
    3018:	defffc04 	addi	sp,sp,-16
    301c:	dfc00315 	stw	ra,12(sp)
    3020:	df000215 	stw	fp,8(sp)
    3024:	df000204 	addi	fp,sp,8
    3028:	e03ffe15 	stw	zero,-8(fp)
    302c:	00041140 	call	4114 <vTaskEnterCritical>
    3030:	d0a02c17 	ldw	r2,-32592(gp)
    3034:	10bfffc4 	addi	r2,r2,-1
    3038:	d0a02c15 	stw	r2,-32592(gp)
    303c:	d0a02c17 	ldw	r2,-32592(gp)
    3040:	1004c03a 	cmpne	r2,r2,zero
    3044:	1000411e 	bne	r2,zero,314c <xTaskResumeAll+0x134>
    3048:	d0a02417 	ldw	r2,-32624(gp)
    304c:	1005003a 	cmpeq	r2,r2,zero
    3050:	10003e1e 	bne	r2,zero,314c <xTaskResumeAll+0x134>
    3054:	00002306 	br	30e4 <xTaskResumeAll+0xcc>
    3058:	00820234 	movhi	r2,2056
    305c:	10bdc704 	addi	r2,r2,-2276
    3060:	10800317 	ldw	r2,12(r2)
    3064:	10800317 	ldw	r2,12(r2)
    3068:	e0bfff15 	stw	r2,-4(fp)
    306c:	e0bfff17 	ldw	r2,-4(fp)
    3070:	11000604 	addi	r4,r2,24
    3074:	00015f80 	call	15f8 <uxListRemove>
    3078:	e0bfff17 	ldw	r2,-4(fp)
    307c:	11000104 	addi	r4,r2,4
    3080:	00015f80 	call	15f8 <uxListRemove>
    3084:	e0bfff17 	ldw	r2,-4(fp)
    3088:	10c00b17 	ldw	r3,44(r2)
    308c:	d0a02617 	ldw	r2,-32616(gp)
    3090:	10c0032e 	bgeu	r2,r3,30a0 <xTaskResumeAll+0x88>
    3094:	e0bfff17 	ldw	r2,-4(fp)
    3098:	10800b17 	ldw	r2,44(r2)
    309c:	d0a02615 	stw	r2,-32616(gp)
    30a0:	e0bfff17 	ldw	r2,-4(fp)
    30a4:	10800b17 	ldw	r2,44(r2)
    30a8:	10800524 	muli	r2,r2,20
    30ac:	1007883a 	mov	r3,r2
    30b0:	00820234 	movhi	r2,2056
    30b4:	10bd8104 	addi	r2,r2,-2556
    30b8:	1889883a 	add	r4,r3,r2
    30bc:	e0bfff17 	ldw	r2,-4(fp)
    30c0:	11400104 	addi	r5,r2,4
    30c4:	000149c0 	call	149c <vListInsertEnd>
    30c8:	e0bfff17 	ldw	r2,-4(fp)
    30cc:	10c00b17 	ldw	r3,44(r2)
    30d0:	d0a02217 	ldw	r2,-32632(gp)
    30d4:	10800b17 	ldw	r2,44(r2)
    30d8:	18800236 	bltu	r3,r2,30e4 <xTaskResumeAll+0xcc>
    30dc:	00800044 	movi	r2,1
    30e0:	d0a02915 	stw	r2,-32604(gp)
    30e4:	00820234 	movhi	r2,2056
    30e8:	10bdc704 	addi	r2,r2,-2276
    30ec:	10800017 	ldw	r2,0(r2)
    30f0:	1004c03a 	cmpne	r2,r2,zero
    30f4:	103fd81e 	bne	r2,zero,3058 <xTaskResumeAll+0x40>
    30f8:	d0a02817 	ldw	r2,-32608(gp)
    30fc:	1005003a 	cmpeq	r2,r2,zero
    3100:	10000c1e 	bne	r2,zero,3134 <xTaskResumeAll+0x11c>
    3104:	00000806 	br	3128 <xTaskResumeAll+0x110>
    3108:	00031dc0 	call	31dc <xTaskIncrementTick>
    310c:	1005003a 	cmpeq	r2,r2,zero
    3110:	1000021e 	bne	r2,zero,311c <xTaskResumeAll+0x104>
    3114:	00800044 	movi	r2,1
    3118:	d0a02915 	stw	r2,-32604(gp)
    311c:	d0a02817 	ldw	r2,-32608(gp)
    3120:	10bfffc4 	addi	r2,r2,-1
    3124:	d0a02815 	stw	r2,-32608(gp)
    3128:	d0a02817 	ldw	r2,-32608(gp)
    312c:	1004c03a 	cmpne	r2,r2,zero
    3130:	103ff51e 	bne	r2,zero,3108 <xTaskResumeAll+0xf0>
    3134:	d0a02917 	ldw	r2,-32604(gp)
    3138:	10800058 	cmpnei	r2,r2,1
    313c:	1000031e 	bne	r2,zero,314c <xTaskResumeAll+0x134>
    3140:	00800044 	movi	r2,1
    3144:	e0bffe15 	stw	r2,-8(fp)
    3148:	003b683a 	trap	0
    314c:	00041680 	call	4168 <vTaskExitCritical>
    3150:	e0bffe17 	ldw	r2,-8(fp)
    3154:	e037883a 	mov	sp,fp
    3158:	dfc00117 	ldw	ra,4(sp)
    315c:	df000017 	ldw	fp,0(sp)
    3160:	dec00204 	addi	sp,sp,8
    3164:	f800283a 	ret

00003168 <xTaskGetTickCount>:
    3168:	defffe04 	addi	sp,sp,-8
    316c:	df000115 	stw	fp,4(sp)
    3170:	df000104 	addi	fp,sp,4
    3174:	d0a02517 	ldw	r2,-32620(gp)
    3178:	e0bfff15 	stw	r2,-4(fp)
    317c:	e0bfff17 	ldw	r2,-4(fp)
    3180:	e037883a 	mov	sp,fp
    3184:	df000017 	ldw	fp,0(sp)
    3188:	dec00104 	addi	sp,sp,4
    318c:	f800283a 	ret

00003190 <xTaskGetTickCountFromISR>:
    3190:	defffd04 	addi	sp,sp,-12
    3194:	df000215 	stw	fp,8(sp)
    3198:	df000204 	addi	fp,sp,8
    319c:	e03ffe15 	stw	zero,-8(fp)
    31a0:	d0a02517 	ldw	r2,-32620(gp)
    31a4:	e0bfff15 	stw	r2,-4(fp)
    31a8:	e0bfff17 	ldw	r2,-4(fp)
    31ac:	e037883a 	mov	sp,fp
    31b0:	df000017 	ldw	fp,0(sp)
    31b4:	dec00104 	addi	sp,sp,4
    31b8:	f800283a 	ret

000031bc <uxTaskGetNumberOfTasks>:
    31bc:	deffff04 	addi	sp,sp,-4
    31c0:	df000015 	stw	fp,0(sp)
    31c4:	d839883a 	mov	fp,sp
    31c8:	d0a02417 	ldw	r2,-32624(gp)
    31cc:	e037883a 	mov	sp,fp
    31d0:	df000017 	ldw	fp,0(sp)
    31d4:	dec00104 	addi	sp,sp,4
    31d8:	f800283a 	ret

000031dc <xTaskIncrementTick>:
    31dc:	defff804 	addi	sp,sp,-32
    31e0:	dfc00715 	stw	ra,28(sp)
    31e4:	df000615 	stw	fp,24(sp)
    31e8:	df000604 	addi	fp,sp,24
    31ec:	e03ffc15 	stw	zero,-16(fp)
    31f0:	d0a02c17 	ldw	r2,-32592(gp)
    31f4:	1004c03a 	cmpne	r2,r2,zero
    31f8:	1000611e 	bne	r2,zero,3380 <xTaskIncrementTick+0x1a4>
    31fc:	d0a02517 	ldw	r2,-32620(gp)
    3200:	10800044 	addi	r2,r2,1
    3204:	d0a02515 	stw	r2,-32620(gp)
    3208:	d0a02517 	ldw	r2,-32620(gp)
    320c:	e0bffb15 	stw	r2,-20(fp)
    3210:	e0bffb17 	ldw	r2,-20(fp)
    3214:	1004c03a 	cmpne	r2,r2,zero
    3218:	10000a1e 	bne	r2,zero,3244 <xTaskIncrementTick+0x68>
    321c:	d0a02d17 	ldw	r2,-32588(gp)
    3220:	e0bffa15 	stw	r2,-24(fp)
    3224:	d0a02e17 	ldw	r2,-32584(gp)
    3228:	d0a02d15 	stw	r2,-32588(gp)
    322c:	e0bffa17 	ldw	r2,-24(fp)
    3230:	d0a02e15 	stw	r2,-32584(gp)
    3234:	d0a02a17 	ldw	r2,-32600(gp)
    3238:	10800044 	addi	r2,r2,1
    323c:	d0a02a15 	stw	r2,-32600(gp)
    3240:	0003dfc0 	call	3dfc <prvResetNextTaskUnblockTime>
    3244:	d0e00317 	ldw	r3,-32756(gp)
    3248:	e0bffb17 	ldw	r2,-20(fp)
    324c:	10c03f36 	bltu	r2,r3,334c <xTaskIncrementTick+0x170>
    3250:	00000006 	br	3254 <xTaskIncrementTick+0x78>
    3254:	d0a02d17 	ldw	r2,-32588(gp)
    3258:	10800017 	ldw	r2,0(r2)
    325c:	1004c03a 	cmpne	r2,r2,zero
    3260:	1000031e 	bne	r2,zero,3270 <xTaskIncrementTick+0x94>
    3264:	00800044 	movi	r2,1
    3268:	e0bfff05 	stb	r2,-4(fp)
    326c:	00000106 	br	3274 <xTaskIncrementTick+0x98>
    3270:	e03fff05 	stb	zero,-4(fp)
    3274:	e0bfff03 	ldbu	r2,-4(fp)
    3278:	1005003a 	cmpeq	r2,r2,zero
    327c:	1000031e 	bne	r2,zero,328c <xTaskIncrementTick+0xb0>
    3280:	00bfffc4 	movi	r2,-1
    3284:	d0a00315 	stw	r2,-32756(gp)
    3288:	00003006 	br	334c <xTaskIncrementTick+0x170>
    328c:	d0a02d17 	ldw	r2,-32588(gp)
    3290:	10800317 	ldw	r2,12(r2)
    3294:	10800317 	ldw	r2,12(r2)
    3298:	e0bffe15 	stw	r2,-8(fp)
    329c:	e0bffe17 	ldw	r2,-8(fp)
    32a0:	10800117 	ldw	r2,4(r2)
    32a4:	e0bffd15 	stw	r2,-12(fp)
    32a8:	e0fffb17 	ldw	r3,-20(fp)
    32ac:	e0bffd17 	ldw	r2,-12(fp)
    32b0:	1880032e 	bgeu	r3,r2,32c0 <xTaskIncrementTick+0xe4>
    32b4:	e0bffd17 	ldw	r2,-12(fp)
    32b8:	d0a00315 	stw	r2,-32756(gp)
    32bc:	00002306 	br	334c <xTaskIncrementTick+0x170>
    32c0:	e0bffe17 	ldw	r2,-8(fp)
    32c4:	11000104 	addi	r4,r2,4
    32c8:	00015f80 	call	15f8 <uxListRemove>
    32cc:	e0bffe17 	ldw	r2,-8(fp)
    32d0:	10800a17 	ldw	r2,40(r2)
    32d4:	1005003a 	cmpeq	r2,r2,zero
    32d8:	1000031e 	bne	r2,zero,32e8 <xTaskIncrementTick+0x10c>
    32dc:	e0bffe17 	ldw	r2,-8(fp)
    32e0:	11000604 	addi	r4,r2,24
    32e4:	00015f80 	call	15f8 <uxListRemove>
    32e8:	e0bffe17 	ldw	r2,-8(fp)
    32ec:	10c00b17 	ldw	r3,44(r2)
    32f0:	d0a02617 	ldw	r2,-32616(gp)
    32f4:	10c0032e 	bgeu	r2,r3,3304 <xTaskIncrementTick+0x128>
    32f8:	e0bffe17 	ldw	r2,-8(fp)
    32fc:	10800b17 	ldw	r2,44(r2)
    3300:	d0a02615 	stw	r2,-32616(gp)
    3304:	e0bffe17 	ldw	r2,-8(fp)
    3308:	10800b17 	ldw	r2,44(r2)
    330c:	10800524 	muli	r2,r2,20
    3310:	1007883a 	mov	r3,r2
    3314:	00820234 	movhi	r2,2056
    3318:	10bd8104 	addi	r2,r2,-2556
    331c:	1889883a 	add	r4,r3,r2
    3320:	e0bffe17 	ldw	r2,-8(fp)
    3324:	11400104 	addi	r5,r2,4
    3328:	000149c0 	call	149c <vListInsertEnd>
    332c:	e0bffe17 	ldw	r2,-8(fp)
    3330:	10c00b17 	ldw	r3,44(r2)
    3334:	d0a02217 	ldw	r2,-32632(gp)
    3338:	10800b17 	ldw	r2,44(r2)
    333c:	18bfc536 	bltu	r3,r2,3254 <xTaskIncrementTick+0x78>
    3340:	00800044 	movi	r2,1
    3344:	e0bffc15 	stw	r2,-16(fp)
    3348:	003fc206 	br	3254 <xTaskIncrementTick+0x78>
    334c:	d0a02217 	ldw	r2,-32632(gp)
    3350:	10800b17 	ldw	r2,44(r2)
    3354:	10800524 	muli	r2,r2,20
    3358:	1007883a 	mov	r3,r2
    335c:	00820234 	movhi	r2,2056
    3360:	10bd8104 	addi	r2,r2,-2556
    3364:	1885883a 	add	r2,r3,r2
    3368:	10800017 	ldw	r2,0(r2)
    336c:	108000b0 	cmpltui	r2,r2,2
    3370:	1000061e 	bne	r2,zero,338c <xTaskIncrementTick+0x1b0>
    3374:	00800044 	movi	r2,1
    3378:	e0bffc15 	stw	r2,-16(fp)
    337c:	00000306 	br	338c <xTaskIncrementTick+0x1b0>
    3380:	d0a02817 	ldw	r2,-32608(gp)
    3384:	10800044 	addi	r2,r2,1
    3388:	d0a02815 	stw	r2,-32608(gp)
    338c:	d0a02917 	ldw	r2,-32604(gp)
    3390:	1005003a 	cmpeq	r2,r2,zero
    3394:	1000021e 	bne	r2,zero,33a0 <xTaskIncrementTick+0x1c4>
    3398:	00800044 	movi	r2,1
    339c:	e0bffc15 	stw	r2,-16(fp)
    33a0:	e0bffc17 	ldw	r2,-16(fp)
    33a4:	e037883a 	mov	sp,fp
    33a8:	dfc00117 	ldw	ra,4(sp)
    33ac:	df000017 	ldw	fp,0(sp)
    33b0:	dec00204 	addi	sp,sp,8
    33b4:	f800283a 	ret

000033b8 <vTaskSwitchContext>:
    33b8:	defffd04 	addi	sp,sp,-12
    33bc:	dfc00215 	stw	ra,8(sp)
    33c0:	df000115 	stw	fp,4(sp)
    33c4:	df000104 	addi	fp,sp,4
    33c8:	d0a02c17 	ldw	r2,-32592(gp)
    33cc:	1005003a 	cmpeq	r2,r2,zero
    33d0:	1000031e 	bne	r2,zero,33e0 <vTaskSwitchContext+0x28>
    33d4:	00800044 	movi	r2,1
    33d8:	d0a02915 	stw	r2,-32604(gp)
    33dc:	00003d06 	br	34d4 <vTaskSwitchContext+0x11c>
    33e0:	d0202915 	stw	zero,-32604(gp)
    33e4:	d0a02217 	ldw	r2,-32632(gp)
    33e8:	10c00017 	ldw	r3,0(r2)
    33ec:	d0a02217 	ldw	r2,-32632(gp)
    33f0:	10800c17 	ldw	r2,48(r2)
    33f4:	10c00436 	bltu	r2,r3,3408 <vTaskSwitchContext+0x50>
    33f8:	d1202217 	ldw	r4,-32632(gp)
    33fc:	d0a02217 	ldw	r2,-32632(gp)
    3400:	11400d04 	addi	r5,r2,52
    3404:	00016900 	call	1690 <vApplicationStackOverflowHook>
    3408:	d0a02217 	ldw	r2,-32632(gp)
    340c:	11000c17 	ldw	r4,48(r2)
    3410:	01420034 	movhi	r5,2048
    3414:	29400f04 	addi	r5,r5,60
    3418:	01800504 	movi	r6,20
    341c:	00052140 	call	5214 <memcmp>
    3420:	1005003a 	cmpeq	r2,r2,zero
    3424:	1000081e 	bne	r2,zero,3448 <vTaskSwitchContext+0x90>
    3428:	d1202217 	ldw	r4,-32632(gp)
    342c:	d0a02217 	ldw	r2,-32632(gp)
    3430:	11400d04 	addi	r5,r2,52
    3434:	00016900 	call	1690 <vApplicationStackOverflowHook>
    3438:	00000306 	br	3448 <vTaskSwitchContext+0x90>
    343c:	d0a02617 	ldw	r2,-32616(gp)
    3440:	10bfffc4 	addi	r2,r2,-1
    3444:	d0a02615 	stw	r2,-32616(gp)
    3448:	d0a02617 	ldw	r2,-32616(gp)
    344c:	10800524 	muli	r2,r2,20
    3450:	1007883a 	mov	r3,r2
    3454:	00820234 	movhi	r2,2056
    3458:	10bd8104 	addi	r2,r2,-2556
    345c:	1885883a 	add	r2,r3,r2
    3460:	10800017 	ldw	r2,0(r2)
    3464:	1005003a 	cmpeq	r2,r2,zero
    3468:	103ff41e 	bne	r2,zero,343c <vTaskSwitchContext+0x84>
    346c:	d0a02617 	ldw	r2,-32616(gp)
    3470:	10800524 	muli	r2,r2,20
    3474:	1007883a 	mov	r3,r2
    3478:	00820234 	movhi	r2,2056
    347c:	10bd8104 	addi	r2,r2,-2556
    3480:	1885883a 	add	r2,r3,r2
    3484:	e0bfff15 	stw	r2,-4(fp)
    3488:	e0bfff17 	ldw	r2,-4(fp)
    348c:	10800117 	ldw	r2,4(r2)
    3490:	10c00117 	ldw	r3,4(r2)
    3494:	e0bfff17 	ldw	r2,-4(fp)
    3498:	10c00115 	stw	r3,4(r2)
    349c:	e0bfff17 	ldw	r2,-4(fp)
    34a0:	10c00117 	ldw	r3,4(r2)
    34a4:	e0bfff17 	ldw	r2,-4(fp)
    34a8:	10800204 	addi	r2,r2,8
    34ac:	1880051e 	bne	r3,r2,34c4 <vTaskSwitchContext+0x10c>
    34b0:	e0bfff17 	ldw	r2,-4(fp)
    34b4:	10800117 	ldw	r2,4(r2)
    34b8:	10c00117 	ldw	r3,4(r2)
    34bc:	e0bfff17 	ldw	r2,-4(fp)
    34c0:	10c00115 	stw	r3,4(r2)
    34c4:	e0bfff17 	ldw	r2,-4(fp)
    34c8:	10800117 	ldw	r2,4(r2)
    34cc:	10800317 	ldw	r2,12(r2)
    34d0:	d0a02215 	stw	r2,-32632(gp)
    34d4:	e037883a 	mov	sp,fp
    34d8:	dfc00117 	ldw	ra,4(sp)
    34dc:	df000017 	ldw	fp,0(sp)
    34e0:	dec00204 	addi	sp,sp,8
    34e4:	f800283a 	ret

000034e8 <vTaskPlaceOnEventList>:
    34e8:	defffb04 	addi	sp,sp,-20
    34ec:	dfc00415 	stw	ra,16(sp)
    34f0:	df000315 	stw	fp,12(sp)
    34f4:	df000304 	addi	fp,sp,12
    34f8:	e13ffe15 	stw	r4,-8(fp)
    34fc:	e17fff15 	stw	r5,-4(fp)
    3500:	d0a02217 	ldw	r2,-32632(gp)
    3504:	11400604 	addi	r5,r2,24
    3508:	e13ffe17 	ldw	r4,-8(fp)
    350c:	00015240 	call	1524 <vListInsert>
    3510:	d0a02217 	ldw	r2,-32632(gp)
    3514:	11000104 	addi	r4,r2,4
    3518:	00015f80 	call	15f8 <uxListRemove>
    351c:	d0e02517 	ldw	r3,-32620(gp)
    3520:	e0bfff17 	ldw	r2,-4(fp)
    3524:	1885883a 	add	r2,r3,r2
    3528:	e0bffd15 	stw	r2,-12(fp)
    352c:	e13ffd17 	ldw	r4,-12(fp)
    3530:	0003b980 	call	3b98 <prvAddCurrentTaskToDelayedList>
    3534:	e037883a 	mov	sp,fp
    3538:	dfc00117 	ldw	ra,4(sp)
    353c:	df000017 	ldw	fp,0(sp)
    3540:	dec00204 	addi	sp,sp,8
    3544:	f800283a 	ret

00003548 <vTaskPlaceOnUnorderedEventList>:
    3548:	defffa04 	addi	sp,sp,-24
    354c:	dfc00515 	stw	ra,20(sp)
    3550:	df000415 	stw	fp,16(sp)
    3554:	df000404 	addi	fp,sp,16
    3558:	e13ffd15 	stw	r4,-12(fp)
    355c:	e17ffe15 	stw	r5,-8(fp)
    3560:	e1bfff15 	stw	r6,-4(fp)
    3564:	d0e02217 	ldw	r3,-32632(gp)
    3568:	e0bffe17 	ldw	r2,-8(fp)
    356c:	10a00034 	orhi	r2,r2,32768
    3570:	18800615 	stw	r2,24(r3)
    3574:	d0a02217 	ldw	r2,-32632(gp)
    3578:	11400604 	addi	r5,r2,24
    357c:	e13ffd17 	ldw	r4,-12(fp)
    3580:	000149c0 	call	149c <vListInsertEnd>
    3584:	d0a02217 	ldw	r2,-32632(gp)
    3588:	11000104 	addi	r4,r2,4
    358c:	00015f80 	call	15f8 <uxListRemove>
    3590:	d0e02517 	ldw	r3,-32620(gp)
    3594:	e0bfff17 	ldw	r2,-4(fp)
    3598:	1885883a 	add	r2,r3,r2
    359c:	e0bffc15 	stw	r2,-16(fp)
    35a0:	e13ffc17 	ldw	r4,-16(fp)
    35a4:	0003b980 	call	3b98 <prvAddCurrentTaskToDelayedList>
    35a8:	e037883a 	mov	sp,fp
    35ac:	dfc00117 	ldw	ra,4(sp)
    35b0:	df000017 	ldw	fp,0(sp)
    35b4:	dec00204 	addi	sp,sp,8
    35b8:	f800283a 	ret

000035bc <vTaskPlaceOnEventListRestricted>:
    35bc:	defffb04 	addi	sp,sp,-20
    35c0:	dfc00415 	stw	ra,16(sp)
    35c4:	df000315 	stw	fp,12(sp)
    35c8:	df000304 	addi	fp,sp,12
    35cc:	e13ffe15 	stw	r4,-8(fp)
    35d0:	e17fff15 	stw	r5,-4(fp)
    35d4:	d0a02217 	ldw	r2,-32632(gp)
    35d8:	11400604 	addi	r5,r2,24
    35dc:	e13ffe17 	ldw	r4,-8(fp)
    35e0:	000149c0 	call	149c <vListInsertEnd>
    35e4:	d0a02217 	ldw	r2,-32632(gp)
    35e8:	11000104 	addi	r4,r2,4
    35ec:	00015f80 	call	15f8 <uxListRemove>
    35f0:	d0e02517 	ldw	r3,-32620(gp)
    35f4:	e0bfff17 	ldw	r2,-4(fp)
    35f8:	1885883a 	add	r2,r3,r2
    35fc:	e0bffd15 	stw	r2,-12(fp)
    3600:	e13ffd17 	ldw	r4,-12(fp)
    3604:	0003b980 	call	3b98 <prvAddCurrentTaskToDelayedList>
    3608:	e037883a 	mov	sp,fp
    360c:	dfc00117 	ldw	ra,4(sp)
    3610:	df000017 	ldw	fp,0(sp)
    3614:	dec00204 	addi	sp,sp,8
    3618:	f800283a 	ret

0000361c <xTaskRemoveFromEventList>:
    361c:	defffb04 	addi	sp,sp,-20
    3620:	dfc00415 	stw	ra,16(sp)
    3624:	df000315 	stw	fp,12(sp)
    3628:	df000304 	addi	fp,sp,12
    362c:	e13fff15 	stw	r4,-4(fp)
    3630:	e0bfff17 	ldw	r2,-4(fp)
    3634:	10800317 	ldw	r2,12(r2)
    3638:	10800317 	ldw	r2,12(r2)
    363c:	e0bffe15 	stw	r2,-8(fp)
    3640:	e0bffe17 	ldw	r2,-8(fp)
    3644:	11000604 	addi	r4,r2,24
    3648:	00015f80 	call	15f8 <uxListRemove>
    364c:	d0a02c17 	ldw	r2,-32592(gp)
    3650:	1004c03a 	cmpne	r2,r2,zero
    3654:	1000151e 	bne	r2,zero,36ac <xTaskRemoveFromEventList+0x90>
    3658:	e0bffe17 	ldw	r2,-8(fp)
    365c:	11000104 	addi	r4,r2,4
    3660:	00015f80 	call	15f8 <uxListRemove>
    3664:	e0bffe17 	ldw	r2,-8(fp)
    3668:	10c00b17 	ldw	r3,44(r2)
    366c:	d0a02617 	ldw	r2,-32616(gp)
    3670:	10c0032e 	bgeu	r2,r3,3680 <xTaskRemoveFromEventList+0x64>
    3674:	e0bffe17 	ldw	r2,-8(fp)
    3678:	10800b17 	ldw	r2,44(r2)
    367c:	d0a02615 	stw	r2,-32616(gp)
    3680:	e0bffe17 	ldw	r2,-8(fp)
    3684:	10800b17 	ldw	r2,44(r2)
    3688:	10800524 	muli	r2,r2,20
    368c:	1007883a 	mov	r3,r2
    3690:	00820234 	movhi	r2,2056
    3694:	10bd8104 	addi	r2,r2,-2556
    3698:	1889883a 	add	r4,r3,r2
    369c:	e0bffe17 	ldw	r2,-8(fp)
    36a0:	11400104 	addi	r5,r2,4
    36a4:	000149c0 	call	149c <vListInsertEnd>
    36a8:	00000506 	br	36c0 <xTaskRemoveFromEventList+0xa4>
    36ac:	e0bffe17 	ldw	r2,-8(fp)
    36b0:	11400604 	addi	r5,r2,24
    36b4:	01020234 	movhi	r4,2056
    36b8:	213dc704 	addi	r4,r4,-2276
    36bc:	000149c0 	call	149c <vListInsertEnd>
    36c0:	e0bffe17 	ldw	r2,-8(fp)
    36c4:	10c00b17 	ldw	r3,44(r2)
    36c8:	d0a02217 	ldw	r2,-32632(gp)
    36cc:	10800b17 	ldw	r2,44(r2)
    36d0:	10c0052e 	bgeu	r2,r3,36e8 <xTaskRemoveFromEventList+0xcc>
    36d4:	00800044 	movi	r2,1
    36d8:	e0bffd15 	stw	r2,-12(fp)
    36dc:	00800044 	movi	r2,1
    36e0:	d0a02915 	stw	r2,-32604(gp)
    36e4:	00000106 	br	36ec <xTaskRemoveFromEventList+0xd0>
    36e8:	e03ffd15 	stw	zero,-12(fp)
    36ec:	e0bffd17 	ldw	r2,-12(fp)
    36f0:	e037883a 	mov	sp,fp
    36f4:	dfc00117 	ldw	ra,4(sp)
    36f8:	df000017 	ldw	fp,0(sp)
    36fc:	dec00204 	addi	sp,sp,8
    3700:	f800283a 	ret

00003704 <xTaskRemoveFromUnorderedEventList>:
    3704:	defffa04 	addi	sp,sp,-24
    3708:	dfc00515 	stw	ra,20(sp)
    370c:	df000415 	stw	fp,16(sp)
    3710:	df000404 	addi	fp,sp,16
    3714:	e13ffe15 	stw	r4,-8(fp)
    3718:	e17fff15 	stw	r5,-4(fp)
    371c:	e0bfff17 	ldw	r2,-4(fp)
    3720:	10e00034 	orhi	r3,r2,32768
    3724:	e0bffe17 	ldw	r2,-8(fp)
    3728:	10c00015 	stw	r3,0(r2)
    372c:	e0bffe17 	ldw	r2,-8(fp)
    3730:	10800317 	ldw	r2,12(r2)
    3734:	e0bffd15 	stw	r2,-12(fp)
    3738:	e13ffe17 	ldw	r4,-8(fp)
    373c:	00015f80 	call	15f8 <uxListRemove>
    3740:	e0bffd17 	ldw	r2,-12(fp)
    3744:	11000104 	addi	r4,r2,4
    3748:	00015f80 	call	15f8 <uxListRemove>
    374c:	e0bffd17 	ldw	r2,-12(fp)
    3750:	10c00b17 	ldw	r3,44(r2)
    3754:	d0a02617 	ldw	r2,-32616(gp)
    3758:	10c0032e 	bgeu	r2,r3,3768 <xTaskRemoveFromUnorderedEventList+0x64>
    375c:	e0bffd17 	ldw	r2,-12(fp)
    3760:	10800b17 	ldw	r2,44(r2)
    3764:	d0a02615 	stw	r2,-32616(gp)
    3768:	e0bffd17 	ldw	r2,-12(fp)
    376c:	10800b17 	ldw	r2,44(r2)
    3770:	10800524 	muli	r2,r2,20
    3774:	1007883a 	mov	r3,r2
    3778:	00820234 	movhi	r2,2056
    377c:	10bd8104 	addi	r2,r2,-2556
    3780:	1889883a 	add	r4,r3,r2
    3784:	e0bffd17 	ldw	r2,-12(fp)
    3788:	11400104 	addi	r5,r2,4
    378c:	000149c0 	call	149c <vListInsertEnd>
    3790:	e0bffd17 	ldw	r2,-12(fp)
    3794:	10c00b17 	ldw	r3,44(r2)
    3798:	d0a02217 	ldw	r2,-32632(gp)
    379c:	10800b17 	ldw	r2,44(r2)
    37a0:	10c0052e 	bgeu	r2,r3,37b8 <xTaskRemoveFromUnorderedEventList+0xb4>
    37a4:	00800044 	movi	r2,1
    37a8:	e0bffc15 	stw	r2,-16(fp)
    37ac:	00800044 	movi	r2,1
    37b0:	d0a02915 	stw	r2,-32604(gp)
    37b4:	00000106 	br	37bc <xTaskRemoveFromUnorderedEventList+0xb8>
    37b8:	e03ffc15 	stw	zero,-16(fp)
    37bc:	e0bffc17 	ldw	r2,-16(fp)
    37c0:	e037883a 	mov	sp,fp
    37c4:	dfc00117 	ldw	ra,4(sp)
    37c8:	df000017 	ldw	fp,0(sp)
    37cc:	dec00204 	addi	sp,sp,8
    37d0:	f800283a 	ret

000037d4 <vTaskSetTimeOutState>:
    37d4:	defffe04 	addi	sp,sp,-8
    37d8:	df000115 	stw	fp,4(sp)
    37dc:	df000104 	addi	fp,sp,4
    37e0:	e13fff15 	stw	r4,-4(fp)
    37e4:	d0e02a17 	ldw	r3,-32600(gp)
    37e8:	e0bfff17 	ldw	r2,-4(fp)
    37ec:	10c00015 	stw	r3,0(r2)
    37f0:	d0e02517 	ldw	r3,-32620(gp)
    37f4:	e0bfff17 	ldw	r2,-4(fp)
    37f8:	10c00115 	stw	r3,4(r2)
    37fc:	e037883a 	mov	sp,fp
    3800:	df000017 	ldw	fp,0(sp)
    3804:	dec00104 	addi	sp,sp,4
    3808:	f800283a 	ret

0000380c <xTaskCheckForTimeOut>:
    380c:	defffa04 	addi	sp,sp,-24
    3810:	dfc00515 	stw	ra,20(sp)
    3814:	df000415 	stw	fp,16(sp)
    3818:	df000404 	addi	fp,sp,16
    381c:	e13ffe15 	stw	r4,-8(fp)
    3820:	e17fff15 	stw	r5,-4(fp)
    3824:	00041140 	call	4114 <vTaskEnterCritical>
    3828:	d0a02517 	ldw	r2,-32620(gp)
    382c:	e0bffc15 	stw	r2,-16(fp)
    3830:	e0bffe17 	ldw	r2,-8(fp)
    3834:	10c00017 	ldw	r3,0(r2)
    3838:	d0a02a17 	ldw	r2,-32600(gp)
    383c:	18800726 	beq	r3,r2,385c <xTaskCheckForTimeOut+0x50>
    3840:	e0bffe17 	ldw	r2,-8(fp)
    3844:	10c00117 	ldw	r3,4(r2)
    3848:	e0bffc17 	ldw	r2,-16(fp)
    384c:	10c00336 	bltu	r2,r3,385c <xTaskCheckForTimeOut+0x50>
    3850:	00800044 	movi	r2,1
    3854:	e0bffd15 	stw	r2,-12(fp)
    3858:	00001606 	br	38b4 <xTaskCheckForTimeOut+0xa8>
    385c:	e0bffe17 	ldw	r2,-8(fp)
    3860:	10c00117 	ldw	r3,4(r2)
    3864:	e0bffc17 	ldw	r2,-16(fp)
    3868:	10c7c83a 	sub	r3,r2,r3
    386c:	e0bfff17 	ldw	r2,-4(fp)
    3870:	10800017 	ldw	r2,0(r2)
    3874:	18800d2e 	bgeu	r3,r2,38ac <xTaskCheckForTimeOut+0xa0>
    3878:	e0bfff17 	ldw	r2,-4(fp)
    387c:	11000017 	ldw	r4,0(r2)
    3880:	e0bffe17 	ldw	r2,-8(fp)
    3884:	10c00117 	ldw	r3,4(r2)
    3888:	e0bffc17 	ldw	r2,-16(fp)
    388c:	10c5c83a 	sub	r2,r2,r3
    3890:	2087c83a 	sub	r3,r4,r2
    3894:	e0bfff17 	ldw	r2,-4(fp)
    3898:	10c00015 	stw	r3,0(r2)
    389c:	e13ffe17 	ldw	r4,-8(fp)
    38a0:	00037d40 	call	37d4 <vTaskSetTimeOutState>
    38a4:	e03ffd15 	stw	zero,-12(fp)
    38a8:	00000206 	br	38b4 <xTaskCheckForTimeOut+0xa8>
    38ac:	00800044 	movi	r2,1
    38b0:	e0bffd15 	stw	r2,-12(fp)
    38b4:	00041680 	call	4168 <vTaskExitCritical>
    38b8:	e0bffd17 	ldw	r2,-12(fp)
    38bc:	e037883a 	mov	sp,fp
    38c0:	dfc00117 	ldw	ra,4(sp)
    38c4:	df000017 	ldw	fp,0(sp)
    38c8:	dec00204 	addi	sp,sp,8
    38cc:	f800283a 	ret

000038d0 <vTaskMissedYield>:
    38d0:	deffff04 	addi	sp,sp,-4
    38d4:	df000015 	stw	fp,0(sp)
    38d8:	d839883a 	mov	fp,sp
    38dc:	00800044 	movi	r2,1
    38e0:	d0a02915 	stw	r2,-32604(gp)
    38e4:	e037883a 	mov	sp,fp
    38e8:	df000017 	ldw	fp,0(sp)
    38ec:	dec00104 	addi	sp,sp,4
    38f0:	f800283a 	ret

000038f4 <prvIdleTask>:
    38f4:	defffd04 	addi	sp,sp,-12
    38f8:	dfc00215 	stw	ra,8(sp)
    38fc:	df000115 	stw	fp,4(sp)
    3900:	df000104 	addi	fp,sp,4
    3904:	e13fff15 	stw	r4,-4(fp)
    3908:	0003af40 	call	3af4 <prvCheckTasksWaitingTermination>
    390c:	003ffe06 	br	3908 <prvIdleTask+0x14>

00003910 <prvInitialiseTCBVariables>:
    3910:	defff804 	addi	sp,sp,-32
    3914:	dfc00715 	stw	ra,28(sp)
    3918:	df000615 	stw	fp,24(sp)
    391c:	df000604 	addi	fp,sp,24
    3920:	e13ffb15 	stw	r4,-20(fp)
    3924:	e17ffc15 	stw	r5,-16(fp)
    3928:	e1bffd15 	stw	r6,-12(fp)
    392c:	e1fffe15 	stw	r7,-8(fp)
    3930:	e0800217 	ldw	r2,8(fp)
    3934:	e0bfff0d 	sth	r2,-4(fp)
    3938:	e03ffa15 	stw	zero,-24(fp)
    393c:	00001506 	br	3994 <prvInitialiseTCBVariables+0x84>
    3940:	e13ffa17 	ldw	r4,-24(fp)
    3944:	e0fffa17 	ldw	r3,-24(fp)
    3948:	e0bffc17 	ldw	r2,-16(fp)
    394c:	1885883a 	add	r2,r3,r2
    3950:	10c00003 	ldbu	r3,0(r2)
    3954:	e0bffb17 	ldw	r2,-20(fp)
    3958:	2085883a 	add	r2,r4,r2
    395c:	10800d04 	addi	r2,r2,52
    3960:	10c00005 	stb	r3,0(r2)
    3964:	e0fffa17 	ldw	r3,-24(fp)
    3968:	e0bffc17 	ldw	r2,-16(fp)
    396c:	1885883a 	add	r2,r3,r2
    3970:	10800003 	ldbu	r2,0(r2)
    3974:	10803fcc 	andi	r2,r2,255
    3978:	1080201c 	xori	r2,r2,128
    397c:	10bfe004 	addi	r2,r2,-128
    3980:	1005003a 	cmpeq	r2,r2,zero
    3984:	1000061e 	bne	r2,zero,39a0 <prvInitialiseTCBVariables+0x90>
    3988:	e0bffa17 	ldw	r2,-24(fp)
    398c:	10800044 	addi	r2,r2,1
    3990:	e0bffa15 	stw	r2,-24(fp)
    3994:	e0bffa17 	ldw	r2,-24(fp)
    3998:	10800230 	cmpltui	r2,r2,8
    399c:	103fe81e 	bne	r2,zero,3940 <prvInitialiseTCBVariables+0x30>
    39a0:	e0bffb17 	ldw	r2,-20(fp)
    39a4:	10000ec5 	stb	zero,59(r2)
    39a8:	e0bffd17 	ldw	r2,-12(fp)
    39ac:	10800330 	cmpltui	r2,r2,12
    39b0:	1000021e 	bne	r2,zero,39bc <prvInitialiseTCBVariables+0xac>
    39b4:	008002c4 	movi	r2,11
    39b8:	e0bffd15 	stw	r2,-12(fp)
    39bc:	e0fffb17 	ldw	r3,-20(fp)
    39c0:	e0bffd17 	ldw	r2,-12(fp)
    39c4:	18800b15 	stw	r2,44(r3)
    39c8:	e0fffb17 	ldw	r3,-20(fp)
    39cc:	e0bffd17 	ldw	r2,-12(fp)
    39d0:	18801015 	stw	r2,64(r3)
    39d4:	e0bffb17 	ldw	r2,-20(fp)
    39d8:	10001115 	stw	zero,68(r2)
    39dc:	e0bffb17 	ldw	r2,-20(fp)
    39e0:	11000104 	addi	r4,r2,4
    39e4:	00014740 	call	1474 <vListInitialiseItem>
    39e8:	e0bffb17 	ldw	r2,-20(fp)
    39ec:	11000604 	addi	r4,r2,24
    39f0:	00014740 	call	1474 <vListInitialiseItem>
    39f4:	e0fffb17 	ldw	r3,-20(fp)
    39f8:	e0bffb17 	ldw	r2,-20(fp)
    39fc:	18800415 	stw	r2,16(r3)
    3a00:	00c00304 	movi	r3,12
    3a04:	e0bffd17 	ldw	r2,-12(fp)
    3a08:	1887c83a 	sub	r3,r3,r2
    3a0c:	e0bffb17 	ldw	r2,-20(fp)
    3a10:	10c00615 	stw	r3,24(r2)
    3a14:	e0fffb17 	ldw	r3,-20(fp)
    3a18:	e0bffb17 	ldw	r2,-20(fp)
    3a1c:	18800915 	stw	r2,36(r3)
    3a20:	e0bffb17 	ldw	r2,-20(fp)
    3a24:	10000f15 	stw	zero,60(r2)
    3a28:	e0bffb17 	ldw	r2,-20(fp)
    3a2c:	10001215 	stw	zero,72(r2)
    3a30:	e0bffb17 	ldw	r2,-20(fp)
    3a34:	10001315 	stw	zero,76(r2)
    3a38:	e037883a 	mov	sp,fp
    3a3c:	dfc00117 	ldw	ra,4(sp)
    3a40:	df000017 	ldw	fp,0(sp)
    3a44:	dec00204 	addi	sp,sp,8
    3a48:	f800283a 	ret

00003a4c <prvInitialiseTaskLists>:
    3a4c:	defffd04 	addi	sp,sp,-12
    3a50:	dfc00215 	stw	ra,8(sp)
    3a54:	df000115 	stw	fp,4(sp)
    3a58:	df000104 	addi	fp,sp,4
    3a5c:	e03fff15 	stw	zero,-4(fp)
    3a60:	00000a06 	br	3a8c <prvInitialiseTaskLists+0x40>
    3a64:	e0bfff17 	ldw	r2,-4(fp)
    3a68:	10800524 	muli	r2,r2,20
    3a6c:	1007883a 	mov	r3,r2
    3a70:	00820234 	movhi	r2,2056
    3a74:	10bd8104 	addi	r2,r2,-2556
    3a78:	1889883a 	add	r4,r3,r2
    3a7c:	00014040 	call	1404 <vListInitialise>
    3a80:	e0bfff17 	ldw	r2,-4(fp)
    3a84:	10800044 	addi	r2,r2,1
    3a88:	e0bfff15 	stw	r2,-4(fp)
    3a8c:	e0bfff17 	ldw	r2,-4(fp)
    3a90:	10800330 	cmpltui	r2,r2,12
    3a94:	103ff31e 	bne	r2,zero,3a64 <prvInitialiseTaskLists+0x18>
    3a98:	01020234 	movhi	r4,2056
    3a9c:	213dbd04 	addi	r4,r4,-2316
    3aa0:	00014040 	call	1404 <vListInitialise>
    3aa4:	01020234 	movhi	r4,2056
    3aa8:	213dc204 	addi	r4,r4,-2296
    3aac:	00014040 	call	1404 <vListInitialise>
    3ab0:	01020234 	movhi	r4,2056
    3ab4:	213dc704 	addi	r4,r4,-2276
    3ab8:	00014040 	call	1404 <vListInitialise>
    3abc:	01020234 	movhi	r4,2056
    3ac0:	213dcc04 	addi	r4,r4,-2256
    3ac4:	00014040 	call	1404 <vListInitialise>
    3ac8:	00820234 	movhi	r2,2056
    3acc:	10bdbd04 	addi	r2,r2,-2316
    3ad0:	d0a02d15 	stw	r2,-32588(gp)
    3ad4:	00820234 	movhi	r2,2056
    3ad8:	10bdc204 	addi	r2,r2,-2296
    3adc:	d0a02e15 	stw	r2,-32584(gp)
    3ae0:	e037883a 	mov	sp,fp
    3ae4:	dfc00117 	ldw	ra,4(sp)
    3ae8:	df000017 	ldw	fp,0(sp)
    3aec:	dec00204 	addi	sp,sp,8
    3af0:	f800283a 	ret

00003af4 <prvCheckTasksWaitingTermination>:
    3af4:	defffc04 	addi	sp,sp,-16
    3af8:	dfc00315 	stw	ra,12(sp)
    3afc:	df000215 	stw	fp,8(sp)
    3b00:	df000204 	addi	fp,sp,8
    3b04:	00001c06 	br	3b78 <prvCheckTasksWaitingTermination+0x84>
    3b08:	0002ff00 	call	2ff0 <vTaskSuspendAll>
    3b0c:	00820234 	movhi	r2,2056
    3b10:	10bdcc04 	addi	r2,r2,-2256
    3b14:	10800017 	ldw	r2,0(r2)
    3b18:	1005003a 	cmpeq	r2,r2,zero
    3b1c:	e0bfff15 	stw	r2,-4(fp)
    3b20:	00030180 	call	3018 <xTaskResumeAll>
    3b24:	e0bfff17 	ldw	r2,-4(fp)
    3b28:	1004c03a 	cmpne	r2,r2,zero
    3b2c:	1000121e 	bne	r2,zero,3b78 <prvCheckTasksWaitingTermination+0x84>
    3b30:	00041140 	call	4114 <vTaskEnterCritical>
    3b34:	00820234 	movhi	r2,2056
    3b38:	10bdcc04 	addi	r2,r2,-2256
    3b3c:	10800317 	ldw	r2,12(r2)
    3b40:	10800317 	ldw	r2,12(r2)
    3b44:	e0bffe15 	stw	r2,-8(fp)
    3b48:	e0bffe17 	ldw	r2,-8(fp)
    3b4c:	11000104 	addi	r4,r2,4
    3b50:	00015f80 	call	15f8 <uxListRemove>
    3b54:	d0a02417 	ldw	r2,-32624(gp)
    3b58:	10bfffc4 	addi	r2,r2,-1
    3b5c:	d0a02415 	stw	r2,-32624(gp)
    3b60:	d0a02317 	ldw	r2,-32628(gp)
    3b64:	10bfffc4 	addi	r2,r2,-1
    3b68:	d0a02315 	stw	r2,-32628(gp)
    3b6c:	00041680 	call	4168 <vTaskExitCritical>
    3b70:	e13ffe17 	ldw	r4,-8(fp)
    3b74:	0003dc00 	call	3dc0 <prvDeleteTCB>
    3b78:	d0a02317 	ldw	r2,-32628(gp)
    3b7c:	1004c03a 	cmpne	r2,r2,zero
    3b80:	103fe11e 	bne	r2,zero,3b08 <prvCheckTasksWaitingTermination+0x14>
    3b84:	e037883a 	mov	sp,fp
    3b88:	dfc00117 	ldw	ra,4(sp)
    3b8c:	df000017 	ldw	fp,0(sp)
    3b90:	dec00204 	addi	sp,sp,8
    3b94:	f800283a 	ret

00003b98 <prvAddCurrentTaskToDelayedList>:
    3b98:	defffd04 	addi	sp,sp,-12
    3b9c:	dfc00215 	stw	ra,8(sp)
    3ba0:	df000115 	stw	fp,4(sp)
    3ba4:	df000104 	addi	fp,sp,4
    3ba8:	e13fff15 	stw	r4,-4(fp)
    3bac:	d0e02217 	ldw	r3,-32632(gp)
    3bb0:	e0bfff17 	ldw	r2,-4(fp)
    3bb4:	18800115 	stw	r2,4(r3)
    3bb8:	d0e02517 	ldw	r3,-32620(gp)
    3bbc:	e0bfff17 	ldw	r2,-4(fp)
    3bc0:	10c0052e 	bgeu	r2,r3,3bd8 <prvAddCurrentTaskToDelayedList+0x40>
    3bc4:	d1202e17 	ldw	r4,-32584(gp)
    3bc8:	d0a02217 	ldw	r2,-32632(gp)
    3bcc:	11400104 	addi	r5,r2,4
    3bd0:	00015240 	call	1524 <vListInsert>
    3bd4:	00000906 	br	3bfc <prvAddCurrentTaskToDelayedList+0x64>
    3bd8:	d1202d17 	ldw	r4,-32588(gp)
    3bdc:	d0a02217 	ldw	r2,-32632(gp)
    3be0:	11400104 	addi	r5,r2,4
    3be4:	00015240 	call	1524 <vListInsert>
    3be8:	d0e00317 	ldw	r3,-32756(gp)
    3bec:	e0bfff17 	ldw	r2,-4(fp)
    3bf0:	10c0022e 	bgeu	r2,r3,3bfc <prvAddCurrentTaskToDelayedList+0x64>
    3bf4:	e0bfff17 	ldw	r2,-4(fp)
    3bf8:	d0a00315 	stw	r2,-32756(gp)
    3bfc:	e037883a 	mov	sp,fp
    3c00:	dfc00117 	ldw	ra,4(sp)
    3c04:	df000017 	ldw	fp,0(sp)
    3c08:	dec00204 	addi	sp,sp,8
    3c0c:	f800283a 	ret

00003c10 <prvAllocateTCBAndStack>:
    3c10:	defff904 	addi	sp,sp,-28
    3c14:	dfc00615 	stw	ra,24(sp)
    3c18:	df000515 	stw	fp,20(sp)
    3c1c:	df000504 	addi	fp,sp,20
    3c20:	e17ffe15 	stw	r5,-8(fp)
    3c24:	e13ffd0d 	sth	r4,-12(fp)
    3c28:	e0bffe17 	ldw	r2,-8(fp)
    3c2c:	1004c03a 	cmpne	r2,r2,zero
    3c30:	1000071e 	bne	r2,zero,3c50 <prvAllocateTCBAndStack+0x40>
    3c34:	e0bffd0b 	ldhu	r2,-12(fp)
    3c38:	1085883a 	add	r2,r2,r2
    3c3c:	1085883a 	add	r2,r2,r2
    3c40:	1009883a 	mov	r4,r2
    3c44:	0000fbc0 	call	fbc <pvPortMalloc>
    3c48:	e0bfff15 	stw	r2,-4(fp)
    3c4c:	00000206 	br	3c58 <prvAllocateTCBAndStack+0x48>
    3c50:	e0bffe17 	ldw	r2,-8(fp)
    3c54:	e0bfff15 	stw	r2,-4(fp)
    3c58:	e0bfff17 	ldw	r2,-4(fp)
    3c5c:	e0bffb15 	stw	r2,-20(fp)
    3c60:	e0bffb17 	ldw	r2,-20(fp)
    3c64:	1005003a 	cmpeq	r2,r2,zero
    3c68:	10000d1e 	bne	r2,zero,3ca0 <prvAllocateTCBAndStack+0x90>
    3c6c:	01001404 	movi	r4,80
    3c70:	0000fbc0 	call	fbc <pvPortMalloc>
    3c74:	e0bffc15 	stw	r2,-16(fp)
    3c78:	e0bffc17 	ldw	r2,-16(fp)
    3c7c:	1005003a 	cmpeq	r2,r2,zero
    3c80:	1000041e 	bne	r2,zero,3c94 <prvAllocateTCBAndStack+0x84>
    3c84:	e0fffc17 	ldw	r3,-16(fp)
    3c88:	e0bffb17 	ldw	r2,-20(fp)
    3c8c:	18800c15 	stw	r2,48(r3)
    3c90:	00000406 	br	3ca4 <prvAllocateTCBAndStack+0x94>
    3c94:	e13ffb17 	ldw	r4,-20(fp)
    3c98:	00011500 	call	1150 <vPortFree>
    3c9c:	00000106 	br	3ca4 <prvAllocateTCBAndStack+0x94>
    3ca0:	e03ffc15 	stw	zero,-16(fp)
    3ca4:	e0bffc17 	ldw	r2,-16(fp)
    3ca8:	1005003a 	cmpeq	r2,r2,zero
    3cac:	1000081e 	bne	r2,zero,3cd0 <prvAllocateTCBAndStack+0xc0>
    3cb0:	e0bffc17 	ldw	r2,-16(fp)
    3cb4:	11000c17 	ldw	r4,48(r2)
    3cb8:	e0bffd0b 	ldhu	r2,-12(fp)
    3cbc:	1085883a 	add	r2,r2,r2
    3cc0:	1085883a 	add	r2,r2,r2
    3cc4:	100d883a 	mov	r6,r2
    3cc8:	01402944 	movi	r5,165
    3ccc:	00053280 	call	5328 <memset>
    3cd0:	e0bffc17 	ldw	r2,-16(fp)
    3cd4:	e037883a 	mov	sp,fp
    3cd8:	dfc00117 	ldw	ra,4(sp)
    3cdc:	df000017 	ldw	fp,0(sp)
    3ce0:	dec00204 	addi	sp,sp,8
    3ce4:	f800283a 	ret

00003ce8 <prvTaskCheckFreeStackSpace>:
    3ce8:	defffd04 	addi	sp,sp,-12
    3cec:	df000215 	stw	fp,8(sp)
    3cf0:	df000204 	addi	fp,sp,8
    3cf4:	e13fff15 	stw	r4,-4(fp)
    3cf8:	e03ffe15 	stw	zero,-8(fp)
    3cfc:	00000606 	br	3d18 <prvTaskCheckFreeStackSpace+0x30>
    3d00:	e0bfff17 	ldw	r2,-4(fp)
    3d04:	10800044 	addi	r2,r2,1
    3d08:	e0bfff15 	stw	r2,-4(fp)
    3d0c:	e0bffe17 	ldw	r2,-8(fp)
    3d10:	10800044 	addi	r2,r2,1
    3d14:	e0bffe15 	stw	r2,-8(fp)
    3d18:	e0bfff17 	ldw	r2,-4(fp)
    3d1c:	10800003 	ldbu	r2,0(r2)
    3d20:	10803fcc 	andi	r2,r2,255
    3d24:	10802960 	cmpeqi	r2,r2,165
    3d28:	103ff51e 	bne	r2,zero,3d00 <prvTaskCheckFreeStackSpace+0x18>
    3d2c:	e0bffe17 	ldw	r2,-8(fp)
    3d30:	1004d0ba 	srli	r2,r2,2
    3d34:	e0bffe15 	stw	r2,-8(fp)
    3d38:	e0bffe17 	ldw	r2,-8(fp)
    3d3c:	10bfffcc 	andi	r2,r2,65535
    3d40:	e037883a 	mov	sp,fp
    3d44:	df000017 	ldw	fp,0(sp)
    3d48:	dec00104 	addi	sp,sp,4
    3d4c:	f800283a 	ret

00003d50 <uxTaskGetStackHighWaterMark>:
    3d50:	defff904 	addi	sp,sp,-28
    3d54:	dfc00615 	stw	ra,24(sp)
    3d58:	df000515 	stw	fp,20(sp)
    3d5c:	df000504 	addi	fp,sp,20
    3d60:	e13ffe15 	stw	r4,-8(fp)
    3d64:	e0bffe17 	ldw	r2,-8(fp)
    3d68:	1004c03a 	cmpne	r2,r2,zero
    3d6c:	1000031e 	bne	r2,zero,3d7c <uxTaskGetStackHighWaterMark+0x2c>
    3d70:	d0a02217 	ldw	r2,-32632(gp)
    3d74:	e0bfff15 	stw	r2,-4(fp)
    3d78:	00000206 	br	3d84 <uxTaskGetStackHighWaterMark+0x34>
    3d7c:	e0bffe17 	ldw	r2,-8(fp)
    3d80:	e0bfff15 	stw	r2,-4(fp)
    3d84:	e0bfff17 	ldw	r2,-4(fp)
    3d88:	e0bffd15 	stw	r2,-12(fp)
    3d8c:	e0bffd17 	ldw	r2,-12(fp)
    3d90:	10800c17 	ldw	r2,48(r2)
    3d94:	e0bffc15 	stw	r2,-16(fp)
    3d98:	e13ffc17 	ldw	r4,-16(fp)
    3d9c:	0003ce80 	call	3ce8 <prvTaskCheckFreeStackSpace>
    3da0:	10bfffcc 	andi	r2,r2,65535
    3da4:	e0bffb15 	stw	r2,-20(fp)
    3da8:	e0bffb17 	ldw	r2,-20(fp)
    3dac:	e037883a 	mov	sp,fp
    3db0:	dfc00117 	ldw	ra,4(sp)
    3db4:	df000017 	ldw	fp,0(sp)
    3db8:	dec00204 	addi	sp,sp,8
    3dbc:	f800283a 	ret

00003dc0 <prvDeleteTCB>:
    3dc0:	defffd04 	addi	sp,sp,-12
    3dc4:	dfc00215 	stw	ra,8(sp)
    3dc8:	df000115 	stw	fp,4(sp)
    3dcc:	df000104 	addi	fp,sp,4
    3dd0:	e13fff15 	stw	r4,-4(fp)
    3dd4:	e0bfff17 	ldw	r2,-4(fp)
    3dd8:	11000c17 	ldw	r4,48(r2)
    3ddc:	00011500 	call	1150 <vPortFree>
    3de0:	e13fff17 	ldw	r4,-4(fp)
    3de4:	00011500 	call	1150 <vPortFree>
    3de8:	e037883a 	mov	sp,fp
    3dec:	dfc00117 	ldw	ra,4(sp)
    3df0:	df000017 	ldw	fp,0(sp)
    3df4:	dec00204 	addi	sp,sp,8
    3df8:	f800283a 	ret

00003dfc <prvResetNextTaskUnblockTime>:
    3dfc:	defffd04 	addi	sp,sp,-12
    3e00:	df000215 	stw	fp,8(sp)
    3e04:	df000204 	addi	fp,sp,8
    3e08:	d0a02d17 	ldw	r2,-32588(gp)
    3e0c:	10800017 	ldw	r2,0(r2)
    3e10:	1004c03a 	cmpne	r2,r2,zero
    3e14:	1000031e 	bne	r2,zero,3e24 <prvResetNextTaskUnblockTime+0x28>
    3e18:	00800044 	movi	r2,1
    3e1c:	e0bfff05 	stb	r2,-4(fp)
    3e20:	00000106 	br	3e28 <prvResetNextTaskUnblockTime+0x2c>
    3e24:	e03fff05 	stb	zero,-4(fp)
    3e28:	e0bfff03 	ldbu	r2,-4(fp)
    3e2c:	1005003a 	cmpeq	r2,r2,zero
    3e30:	1000031e 	bne	r2,zero,3e40 <prvResetNextTaskUnblockTime+0x44>
    3e34:	00bfffc4 	movi	r2,-1
    3e38:	d0a00315 	stw	r2,-32756(gp)
    3e3c:	00000706 	br	3e5c <prvResetNextTaskUnblockTime+0x60>
    3e40:	d0a02d17 	ldw	r2,-32588(gp)
    3e44:	10800317 	ldw	r2,12(r2)
    3e48:	10800317 	ldw	r2,12(r2)
    3e4c:	e0bffe15 	stw	r2,-8(fp)
    3e50:	e0bffe17 	ldw	r2,-8(fp)
    3e54:	10800117 	ldw	r2,4(r2)
    3e58:	d0a00315 	stw	r2,-32756(gp)
    3e5c:	e037883a 	mov	sp,fp
    3e60:	df000017 	ldw	fp,0(sp)
    3e64:	dec00104 	addi	sp,sp,4
    3e68:	f800283a 	ret

00003e6c <xTaskGetCurrentTaskHandle>:
    3e6c:	defffe04 	addi	sp,sp,-8
    3e70:	df000115 	stw	fp,4(sp)
    3e74:	df000104 	addi	fp,sp,4
    3e78:	d0a02217 	ldw	r2,-32632(gp)
    3e7c:	e0bfff15 	stw	r2,-4(fp)
    3e80:	e0bfff17 	ldw	r2,-4(fp)
    3e84:	e037883a 	mov	sp,fp
    3e88:	df000017 	ldw	fp,0(sp)
    3e8c:	dec00104 	addi	sp,sp,4
    3e90:	f800283a 	ret

00003e94 <xTaskGetSchedulerState>:
    3e94:	defffe04 	addi	sp,sp,-8
    3e98:	df000115 	stw	fp,4(sp)
    3e9c:	df000104 	addi	fp,sp,4
    3ea0:	d0a02717 	ldw	r2,-32612(gp)
    3ea4:	1004c03a 	cmpne	r2,r2,zero
    3ea8:	1000031e 	bne	r2,zero,3eb8 <xTaskGetSchedulerState+0x24>
    3eac:	00800044 	movi	r2,1
    3eb0:	e0bfff15 	stw	r2,-4(fp)
    3eb4:	00000706 	br	3ed4 <xTaskGetSchedulerState+0x40>
    3eb8:	d0a02c17 	ldw	r2,-32592(gp)
    3ebc:	1004c03a 	cmpne	r2,r2,zero
    3ec0:	1000031e 	bne	r2,zero,3ed0 <xTaskGetSchedulerState+0x3c>
    3ec4:	00800084 	movi	r2,2
    3ec8:	e0bfff15 	stw	r2,-4(fp)
    3ecc:	00000106 	br	3ed4 <xTaskGetSchedulerState+0x40>
    3ed0:	e03fff15 	stw	zero,-4(fp)
    3ed4:	e0bfff17 	ldw	r2,-4(fp)
    3ed8:	e037883a 	mov	sp,fp
    3edc:	df000017 	ldw	fp,0(sp)
    3ee0:	dec00104 	addi	sp,sp,4
    3ee4:	f800283a 	ret

00003ee8 <vTaskPriorityInherit>:
    3ee8:	defffb04 	addi	sp,sp,-20
    3eec:	dfc00415 	stw	ra,16(sp)
    3ef0:	df000315 	stw	fp,12(sp)
    3ef4:	df000304 	addi	fp,sp,12
    3ef8:	e13ffe15 	stw	r4,-8(fp)
    3efc:	e0bffe17 	ldw	r2,-8(fp)
    3f00:	e0bffd15 	stw	r2,-12(fp)
    3f04:	e0bffe17 	ldw	r2,-8(fp)
    3f08:	1005003a 	cmpeq	r2,r2,zero
    3f0c:	10003d1e 	bne	r2,zero,4004 <vTaskPriorityInherit+0x11c>
    3f10:	e0bffd17 	ldw	r2,-12(fp)
    3f14:	10c00b17 	ldw	r3,44(r2)
    3f18:	d0a02217 	ldw	r2,-32632(gp)
    3f1c:	10800b17 	ldw	r2,44(r2)
    3f20:	1880382e 	bgeu	r3,r2,4004 <vTaskPriorityInherit+0x11c>
    3f24:	e0bffd17 	ldw	r2,-12(fp)
    3f28:	10800617 	ldw	r2,24(r2)
    3f2c:	1004803a 	cmplt	r2,r2,zero
    3f30:	1000061e 	bne	r2,zero,3f4c <vTaskPriorityInherit+0x64>
    3f34:	d0a02217 	ldw	r2,-32632(gp)
    3f38:	10c00b17 	ldw	r3,44(r2)
    3f3c:	00800304 	movi	r2,12
    3f40:	10c7c83a 	sub	r3,r2,r3
    3f44:	e0bffd17 	ldw	r2,-12(fp)
    3f48:	10c00615 	stw	r3,24(r2)
    3f4c:	e0bffd17 	ldw	r2,-12(fp)
    3f50:	11000517 	ldw	r4,20(r2)
    3f54:	e0bffd17 	ldw	r2,-12(fp)
    3f58:	10800b17 	ldw	r2,44(r2)
    3f5c:	10800524 	muli	r2,r2,20
    3f60:	1007883a 	mov	r3,r2
    3f64:	00820234 	movhi	r2,2056
    3f68:	10bd8104 	addi	r2,r2,-2556
    3f6c:	1885883a 	add	r2,r3,r2
    3f70:	2080031e 	bne	r4,r2,3f80 <vTaskPriorityInherit+0x98>
    3f74:	00800044 	movi	r2,1
    3f78:	e0bfff05 	stb	r2,-4(fp)
    3f7c:	00000106 	br	3f84 <vTaskPriorityInherit+0x9c>
    3f80:	e03fff05 	stb	zero,-4(fp)
    3f84:	e0bfff03 	ldbu	r2,-4(fp)
    3f88:	1005003a 	cmpeq	r2,r2,zero
    3f8c:	1000191e 	bne	r2,zero,3ff4 <vTaskPriorityInherit+0x10c>
    3f90:	e0bffd17 	ldw	r2,-12(fp)
    3f94:	11000104 	addi	r4,r2,4
    3f98:	00015f80 	call	15f8 <uxListRemove>
    3f9c:	d0a02217 	ldw	r2,-32632(gp)
    3fa0:	10c00b17 	ldw	r3,44(r2)
    3fa4:	e0bffd17 	ldw	r2,-12(fp)
    3fa8:	10c00b15 	stw	r3,44(r2)
    3fac:	e0bffd17 	ldw	r2,-12(fp)
    3fb0:	10c00b17 	ldw	r3,44(r2)
    3fb4:	d0a02617 	ldw	r2,-32616(gp)
    3fb8:	10c0032e 	bgeu	r2,r3,3fc8 <vTaskPriorityInherit+0xe0>
    3fbc:	e0bffd17 	ldw	r2,-12(fp)
    3fc0:	10800b17 	ldw	r2,44(r2)
    3fc4:	d0a02615 	stw	r2,-32616(gp)
    3fc8:	e0bffd17 	ldw	r2,-12(fp)
    3fcc:	10800b17 	ldw	r2,44(r2)
    3fd0:	10800524 	muli	r2,r2,20
    3fd4:	1007883a 	mov	r3,r2
    3fd8:	00820234 	movhi	r2,2056
    3fdc:	10bd8104 	addi	r2,r2,-2556
    3fe0:	1889883a 	add	r4,r3,r2
    3fe4:	e0bffd17 	ldw	r2,-12(fp)
    3fe8:	11400104 	addi	r5,r2,4
    3fec:	000149c0 	call	149c <vListInsertEnd>
    3ff0:	00000406 	br	4004 <vTaskPriorityInherit+0x11c>
    3ff4:	d0a02217 	ldw	r2,-32632(gp)
    3ff8:	10c00b17 	ldw	r3,44(r2)
    3ffc:	e0bffd17 	ldw	r2,-12(fp)
    4000:	10c00b15 	stw	r3,44(r2)
    4004:	e037883a 	mov	sp,fp
    4008:	dfc00117 	ldw	ra,4(sp)
    400c:	df000017 	ldw	fp,0(sp)
    4010:	dec00204 	addi	sp,sp,8
    4014:	f800283a 	ret

00004018 <xTaskPriorityDisinherit>:
    4018:	defffb04 	addi	sp,sp,-20
    401c:	dfc00415 	stw	ra,16(sp)
    4020:	df000315 	stw	fp,12(sp)
    4024:	df000304 	addi	fp,sp,12
    4028:	e13fff15 	stw	r4,-4(fp)
    402c:	e0bfff17 	ldw	r2,-4(fp)
    4030:	e0bffe15 	stw	r2,-8(fp)
    4034:	e03ffd15 	stw	zero,-12(fp)
    4038:	e0bfff17 	ldw	r2,-4(fp)
    403c:	1005003a 	cmpeq	r2,r2,zero
    4040:	10002e1e 	bne	r2,zero,40fc <xTaskPriorityDisinherit+0xe4>
    4044:	e0bffe17 	ldw	r2,-8(fp)
    4048:	10801117 	ldw	r2,68(r2)
    404c:	10ffffc4 	addi	r3,r2,-1
    4050:	e0bffe17 	ldw	r2,-8(fp)
    4054:	10c01115 	stw	r3,68(r2)
    4058:	e0bffe17 	ldw	r2,-8(fp)
    405c:	10c00b17 	ldw	r3,44(r2)
    4060:	e0bffe17 	ldw	r2,-8(fp)
    4064:	10801017 	ldw	r2,64(r2)
    4068:	18802426 	beq	r3,r2,40fc <xTaskPriorityDisinherit+0xe4>
    406c:	e0bffe17 	ldw	r2,-8(fp)
    4070:	10801117 	ldw	r2,68(r2)
    4074:	1004c03a 	cmpne	r2,r2,zero
    4078:	1000201e 	bne	r2,zero,40fc <xTaskPriorityDisinherit+0xe4>
    407c:	e0bffe17 	ldw	r2,-8(fp)
    4080:	11000104 	addi	r4,r2,4
    4084:	00015f80 	call	15f8 <uxListRemove>
    4088:	e0bffe17 	ldw	r2,-8(fp)
    408c:	10c01017 	ldw	r3,64(r2)
    4090:	e0bffe17 	ldw	r2,-8(fp)
    4094:	10c00b15 	stw	r3,44(r2)
    4098:	e0bffe17 	ldw	r2,-8(fp)
    409c:	10c00b17 	ldw	r3,44(r2)
    40a0:	00800304 	movi	r2,12
    40a4:	10c7c83a 	sub	r3,r2,r3
    40a8:	e0bffe17 	ldw	r2,-8(fp)
    40ac:	10c00615 	stw	r3,24(r2)
    40b0:	e0bffe17 	ldw	r2,-8(fp)
    40b4:	10c00b17 	ldw	r3,44(r2)
    40b8:	d0a02617 	ldw	r2,-32616(gp)
    40bc:	10c0032e 	bgeu	r2,r3,40cc <xTaskPriorityDisinherit+0xb4>
    40c0:	e0bffe17 	ldw	r2,-8(fp)
    40c4:	10800b17 	ldw	r2,44(r2)
    40c8:	d0a02615 	stw	r2,-32616(gp)
    40cc:	e0bffe17 	ldw	r2,-8(fp)
    40d0:	10800b17 	ldw	r2,44(r2)
    40d4:	10800524 	muli	r2,r2,20
    40d8:	1007883a 	mov	r3,r2
    40dc:	00820234 	movhi	r2,2056
    40e0:	10bd8104 	addi	r2,r2,-2556
    40e4:	1889883a 	add	r4,r3,r2
    40e8:	e0bffe17 	ldw	r2,-8(fp)
    40ec:	11400104 	addi	r5,r2,4
    40f0:	000149c0 	call	149c <vListInsertEnd>
    40f4:	00800044 	movi	r2,1
    40f8:	e0bffd15 	stw	r2,-12(fp)
    40fc:	e0bffd17 	ldw	r2,-12(fp)
    4100:	e037883a 	mov	sp,fp
    4104:	dfc00117 	ldw	ra,4(sp)
    4108:	df000017 	ldw	fp,0(sp)
    410c:	dec00204 	addi	sp,sp,8
    4110:	f800283a 	ret

00004114 <vTaskEnterCritical>:
    4114:	defffe04 	addi	sp,sp,-8
    4118:	df000115 	stw	fp,4(sp)
    411c:	df000104 	addi	fp,sp,4
    4120:	0005303a 	rdctl	r2,status
    4124:	e0bfff15 	stw	r2,-4(fp)
    4128:	e0ffff17 	ldw	r3,-4(fp)
    412c:	00bfff84 	movi	r2,-2
    4130:	1884703a 	and	r2,r3,r2
    4134:	1001703a 	wrctl	status,r2
    4138:	d0a02717 	ldw	r2,-32612(gp)
    413c:	1005003a 	cmpeq	r2,r2,zero
    4140:	1000051e 	bne	r2,zero,4158 <vTaskEnterCritical+0x44>
    4144:	d0e02217 	ldw	r3,-32632(gp)
    4148:	18800f17 	ldw	r2,60(r3)
    414c:	10800044 	addi	r2,r2,1
    4150:	18800f15 	stw	r2,60(r3)
    4154:	d0a02217 	ldw	r2,-32632(gp)
    4158:	e037883a 	mov	sp,fp
    415c:	df000017 	ldw	fp,0(sp)
    4160:	dec00104 	addi	sp,sp,4
    4164:	f800283a 	ret

00004168 <vTaskExitCritical>:
    4168:	defffe04 	addi	sp,sp,-8
    416c:	df000115 	stw	fp,4(sp)
    4170:	df000104 	addi	fp,sp,4
    4174:	d0a02717 	ldw	r2,-32612(gp)
    4178:	1005003a 	cmpeq	r2,r2,zero
    417c:	1000101e 	bne	r2,zero,41c0 <vTaskExitCritical+0x58>
    4180:	d0a02217 	ldw	r2,-32632(gp)
    4184:	10800f17 	ldw	r2,60(r2)
    4188:	1005003a 	cmpeq	r2,r2,zero
    418c:	10000c1e 	bne	r2,zero,41c0 <vTaskExitCritical+0x58>
    4190:	d0e02217 	ldw	r3,-32632(gp)
    4194:	18800f17 	ldw	r2,60(r3)
    4198:	10bfffc4 	addi	r2,r2,-1
    419c:	18800f15 	stw	r2,60(r3)
    41a0:	d0a02217 	ldw	r2,-32632(gp)
    41a4:	10800f17 	ldw	r2,60(r2)
    41a8:	1004c03a 	cmpne	r2,r2,zero
    41ac:	1000041e 	bne	r2,zero,41c0 <vTaskExitCritical+0x58>
    41b0:	00800044 	movi	r2,1
    41b4:	e0bfff15 	stw	r2,-4(fp)
    41b8:	e0bfff17 	ldw	r2,-4(fp)
    41bc:	1001703a 	wrctl	status,r2
    41c0:	e037883a 	mov	sp,fp
    41c4:	df000017 	ldw	fp,0(sp)
    41c8:	dec00104 	addi	sp,sp,4
    41cc:	f800283a 	ret

000041d0 <uxTaskResetEventItemValue>:
    41d0:	defffe04 	addi	sp,sp,-8
    41d4:	df000115 	stw	fp,4(sp)
    41d8:	df000104 	addi	fp,sp,4
    41dc:	d0a02217 	ldw	r2,-32632(gp)
    41e0:	10800617 	ldw	r2,24(r2)
    41e4:	e0bfff15 	stw	r2,-4(fp)
    41e8:	d1202217 	ldw	r4,-32632(gp)
    41ec:	d0a02217 	ldw	r2,-32632(gp)
    41f0:	10c00b17 	ldw	r3,44(r2)
    41f4:	00800304 	movi	r2,12
    41f8:	10c5c83a 	sub	r2,r2,r3
    41fc:	20800615 	stw	r2,24(r4)
    4200:	e0bfff17 	ldw	r2,-4(fp)
    4204:	e037883a 	mov	sp,fp
    4208:	df000017 	ldw	fp,0(sp)
    420c:	dec00104 	addi	sp,sp,4
    4210:	f800283a 	ret

00004214 <pvTaskIncrementMutexHeldCount>:
    4214:	deffff04 	addi	sp,sp,-4
    4218:	df000015 	stw	fp,0(sp)
    421c:	d839883a 	mov	fp,sp
    4220:	d0a02217 	ldw	r2,-32632(gp)
    4224:	1005003a 	cmpeq	r2,r2,zero
    4228:	1000041e 	bne	r2,zero,423c <pvTaskIncrementMutexHeldCount+0x28>
    422c:	d0a02217 	ldw	r2,-32632(gp)
    4230:	10c01117 	ldw	r3,68(r2)
    4234:	18c00044 	addi	r3,r3,1
    4238:	10c01115 	stw	r3,68(r2)
    423c:	d0a02217 	ldw	r2,-32632(gp)
    4240:	e037883a 	mov	sp,fp
    4244:	df000017 	ldw	fp,0(sp)
    4248:	dec00104 	addi	sp,sp,4
    424c:	f800283a 	ret

00004250 <ulTaskNotifyTake>:
    4250:	defffa04 	addi	sp,sp,-24
    4254:	dfc00515 	stw	ra,20(sp)
    4258:	df000415 	stw	fp,16(sp)
    425c:	df000404 	addi	fp,sp,16
    4260:	e13ffe15 	stw	r4,-8(fp)
    4264:	e17fff15 	stw	r5,-4(fp)
    4268:	00041140 	call	4114 <vTaskEnterCritical>
    426c:	d0a02217 	ldw	r2,-32632(gp)
    4270:	10801217 	ldw	r2,72(r2)
    4274:	1004c03a 	cmpne	r2,r2,zero
    4278:	1000101e 	bne	r2,zero,42bc <ulTaskNotifyTake+0x6c>
    427c:	d0e02217 	ldw	r3,-32632(gp)
    4280:	00800044 	movi	r2,1
    4284:	18801315 	stw	r2,76(r3)
    4288:	e0bfff17 	ldw	r2,-4(fp)
    428c:	1005003a 	cmpeq	r2,r2,zero
    4290:	10000a1e 	bne	r2,zero,42bc <ulTaskNotifyTake+0x6c>
    4294:	d0a02217 	ldw	r2,-32632(gp)
    4298:	11000104 	addi	r4,r2,4
    429c:	00015f80 	call	15f8 <uxListRemove>
    42a0:	d0e02517 	ldw	r3,-32620(gp)
    42a4:	e0bfff17 	ldw	r2,-4(fp)
    42a8:	1885883a 	add	r2,r3,r2
    42ac:	e0bffd15 	stw	r2,-12(fp)
    42b0:	e13ffd17 	ldw	r4,-12(fp)
    42b4:	0003b980 	call	3b98 <prvAddCurrentTaskToDelayedList>
    42b8:	003b683a 	trap	0
    42bc:	00041680 	call	4168 <vTaskExitCritical>
    42c0:	00041140 	call	4114 <vTaskEnterCritical>
    42c4:	d0a02217 	ldw	r2,-32632(gp)
    42c8:	10801217 	ldw	r2,72(r2)
    42cc:	e0bffc15 	stw	r2,-16(fp)
    42d0:	e0bffc17 	ldw	r2,-16(fp)
    42d4:	1005003a 	cmpeq	r2,r2,zero
    42d8:	10000a1e 	bne	r2,zero,4304 <ulTaskNotifyTake+0xb4>
    42dc:	e0bffe17 	ldw	r2,-8(fp)
    42e0:	1005003a 	cmpeq	r2,r2,zero
    42e4:	1000031e 	bne	r2,zero,42f4 <ulTaskNotifyTake+0xa4>
    42e8:	d0a02217 	ldw	r2,-32632(gp)
    42ec:	10001215 	stw	zero,72(r2)
    42f0:	00000406 	br	4304 <ulTaskNotifyTake+0xb4>
    42f4:	d0a02217 	ldw	r2,-32632(gp)
    42f8:	10c01217 	ldw	r3,72(r2)
    42fc:	18ffffc4 	addi	r3,r3,-1
    4300:	10c01215 	stw	r3,72(r2)
    4304:	d0a02217 	ldw	r2,-32632(gp)
    4308:	10001315 	stw	zero,76(r2)
    430c:	00041680 	call	4168 <vTaskExitCritical>
    4310:	e0bffc17 	ldw	r2,-16(fp)
    4314:	e037883a 	mov	sp,fp
    4318:	dfc00117 	ldw	ra,4(sp)
    431c:	df000017 	ldw	fp,0(sp)
    4320:	dec00204 	addi	sp,sp,8
    4324:	f800283a 	ret

00004328 <xTaskNotifyWait>:
    4328:	defff804 	addi	sp,sp,-32
    432c:	dfc00715 	stw	ra,28(sp)
    4330:	df000615 	stw	fp,24(sp)
    4334:	df000604 	addi	fp,sp,24
    4338:	e13ffc15 	stw	r4,-16(fp)
    433c:	e17ffd15 	stw	r5,-12(fp)
    4340:	e1bffe15 	stw	r6,-8(fp)
    4344:	e1ffff15 	stw	r7,-4(fp)
    4348:	00041140 	call	4114 <vTaskEnterCritical>
    434c:	d0a02217 	ldw	r2,-32632(gp)
    4350:	10801317 	ldw	r2,76(r2)
    4354:	108000a0 	cmpeqi	r2,r2,2
    4358:	1000161e 	bne	r2,zero,43b4 <xTaskNotifyWait+0x8c>
    435c:	d0e02217 	ldw	r3,-32632(gp)
    4360:	19001217 	ldw	r4,72(r3)
    4364:	e0bffc17 	ldw	r2,-16(fp)
    4368:	0084303a 	nor	r2,zero,r2
    436c:	2084703a 	and	r2,r4,r2
    4370:	18801215 	stw	r2,72(r3)
    4374:	d0e02217 	ldw	r3,-32632(gp)
    4378:	00800044 	movi	r2,1
    437c:	18801315 	stw	r2,76(r3)
    4380:	e0bfff17 	ldw	r2,-4(fp)
    4384:	1005003a 	cmpeq	r2,r2,zero
    4388:	10000a1e 	bne	r2,zero,43b4 <xTaskNotifyWait+0x8c>
    438c:	d0a02217 	ldw	r2,-32632(gp)
    4390:	11000104 	addi	r4,r2,4
    4394:	00015f80 	call	15f8 <uxListRemove>
    4398:	d0e02517 	ldw	r3,-32620(gp)
    439c:	e0bfff17 	ldw	r2,-4(fp)
    43a0:	1885883a 	add	r2,r3,r2
    43a4:	e0bffb15 	stw	r2,-20(fp)
    43a8:	e13ffb17 	ldw	r4,-20(fp)
    43ac:	0003b980 	call	3b98 <prvAddCurrentTaskToDelayedList>
    43b0:	003b683a 	trap	0
    43b4:	00041680 	call	4168 <vTaskExitCritical>
    43b8:	00041140 	call	4114 <vTaskEnterCritical>
    43bc:	e0bffe17 	ldw	r2,-8(fp)
    43c0:	1005003a 	cmpeq	r2,r2,zero
    43c4:	1000041e 	bne	r2,zero,43d8 <xTaskNotifyWait+0xb0>
    43c8:	d0a02217 	ldw	r2,-32632(gp)
    43cc:	10c01217 	ldw	r3,72(r2)
    43d0:	e0bffe17 	ldw	r2,-8(fp)
    43d4:	10c00015 	stw	r3,0(r2)
    43d8:	d0a02217 	ldw	r2,-32632(gp)
    43dc:	10801317 	ldw	r2,76(r2)
    43e0:	10800058 	cmpnei	r2,r2,1
    43e4:	1000021e 	bne	r2,zero,43f0 <xTaskNotifyWait+0xc8>
    43e8:	e03ffa15 	stw	zero,-24(fp)
    43ec:	00000806 	br	4410 <xTaskNotifyWait+0xe8>
    43f0:	d0e02217 	ldw	r3,-32632(gp)
    43f4:	19001217 	ldw	r4,72(r3)
    43f8:	e0bffd17 	ldw	r2,-12(fp)
    43fc:	0084303a 	nor	r2,zero,r2
    4400:	2084703a 	and	r2,r4,r2
    4404:	18801215 	stw	r2,72(r3)
    4408:	00800044 	movi	r2,1
    440c:	e0bffa15 	stw	r2,-24(fp)
    4410:	d0a02217 	ldw	r2,-32632(gp)
    4414:	10001315 	stw	zero,76(r2)
    4418:	00041680 	call	4168 <vTaskExitCritical>
    441c:	e0bffa17 	ldw	r2,-24(fp)
    4420:	e037883a 	mov	sp,fp
    4424:	dfc00117 	ldw	ra,4(sp)
    4428:	df000017 	ldw	fp,0(sp)
    442c:	dec00204 	addi	sp,sp,8
    4430:	f800283a 	ret

00004434 <xTaskNotify>:
    4434:	defff704 	addi	sp,sp,-36
    4438:	dfc00815 	stw	ra,32(sp)
    443c:	df000715 	stw	fp,28(sp)
    4440:	df000704 	addi	fp,sp,28
    4444:	e13ffc15 	stw	r4,-16(fp)
    4448:	e17ffd15 	stw	r5,-12(fp)
    444c:	e1bffe15 	stw	r6,-8(fp)
    4450:	00800044 	movi	r2,1
    4454:	e0bff915 	stw	r2,-28(fp)
    4458:	e0bffc17 	ldw	r2,-16(fp)
    445c:	e0bffb15 	stw	r2,-20(fp)
    4460:	00041140 	call	4114 <vTaskEnterCritical>
    4464:	e0bffb17 	ldw	r2,-20(fp)
    4468:	10801317 	ldw	r2,76(r2)
    446c:	e0bffa15 	stw	r2,-24(fp)
    4470:	e0fffb17 	ldw	r3,-20(fp)
    4474:	00800084 	movi	r2,2
    4478:	18801315 	stw	r2,76(r3)
    447c:	e0bffe17 	ldw	r2,-8(fp)
    4480:	e0bfff15 	stw	r2,-4(fp)
    4484:	e0ffff17 	ldw	r3,-4(fp)
    4488:	188000a0 	cmpeqi	r2,r3,2
    448c:	1000151e 	bne	r2,zero,44e4 <xTaskNotify+0xb0>
    4490:	e0ffff17 	ldw	r3,-4(fp)
    4494:	188000e8 	cmpgeui	r2,r3,3
    4498:	1000041e 	bne	r2,zero,44ac <xTaskNotify+0x78>
    449c:	e0ffff17 	ldw	r3,-4(fp)
    44a0:	18800060 	cmpeqi	r2,r3,1
    44a4:	1000081e 	bne	r2,zero,44c8 <xTaskNotify+0x94>
    44a8:	00002006 	br	452c <xTaskNotify+0xf8>
    44ac:	e0ffff17 	ldw	r3,-4(fp)
    44b0:	188000e0 	cmpeqi	r2,r3,3
    44b4:	1000111e 	bne	r2,zero,44fc <xTaskNotify+0xc8>
    44b8:	e0ffff17 	ldw	r3,-4(fp)
    44bc:	18800120 	cmpeqi	r2,r3,4
    44c0:	1000121e 	bne	r2,zero,450c <xTaskNotify+0xd8>
    44c4:	00001906 	br	452c <xTaskNotify+0xf8>
    44c8:	e0bffb17 	ldw	r2,-20(fp)
    44cc:	10c01217 	ldw	r3,72(r2)
    44d0:	e0bffd17 	ldw	r2,-12(fp)
    44d4:	1886b03a 	or	r3,r3,r2
    44d8:	e0bffb17 	ldw	r2,-20(fp)
    44dc:	10c01215 	stw	r3,72(r2)
    44e0:	00001206 	br	452c <xTaskNotify+0xf8>
    44e4:	e0bffb17 	ldw	r2,-20(fp)
    44e8:	10801217 	ldw	r2,72(r2)
    44ec:	10c00044 	addi	r3,r2,1
    44f0:	e0bffb17 	ldw	r2,-20(fp)
    44f4:	10c01215 	stw	r3,72(r2)
    44f8:	00000c06 	br	452c <xTaskNotify+0xf8>
    44fc:	e0fffb17 	ldw	r3,-20(fp)
    4500:	e0bffd17 	ldw	r2,-12(fp)
    4504:	18801215 	stw	r2,72(r3)
    4508:	00000806 	br	452c <xTaskNotify+0xf8>
    450c:	e0bffa17 	ldw	r2,-24(fp)
    4510:	108000a0 	cmpeqi	r2,r2,2
    4514:	1000041e 	bne	r2,zero,4528 <xTaskNotify+0xf4>
    4518:	e0fffb17 	ldw	r3,-20(fp)
    451c:	e0bffd17 	ldw	r2,-12(fp)
    4520:	18801215 	stw	r2,72(r3)
    4524:	00000106 	br	452c <xTaskNotify+0xf8>
    4528:	e03ff915 	stw	zero,-28(fp)
    452c:	e0bffa17 	ldw	r2,-24(fp)
    4530:	10800058 	cmpnei	r2,r2,1
    4534:	10001a1e 	bne	r2,zero,45a0 <xTaskNotify+0x16c>
    4538:	e0bffb17 	ldw	r2,-20(fp)
    453c:	11000104 	addi	r4,r2,4
    4540:	00015f80 	call	15f8 <uxListRemove>
    4544:	e0bffb17 	ldw	r2,-20(fp)
    4548:	10c00b17 	ldw	r3,44(r2)
    454c:	d0a02617 	ldw	r2,-32616(gp)
    4550:	10c0032e 	bgeu	r2,r3,4560 <xTaskNotify+0x12c>
    4554:	e0bffb17 	ldw	r2,-20(fp)
    4558:	10800b17 	ldw	r2,44(r2)
    455c:	d0a02615 	stw	r2,-32616(gp)
    4560:	e0bffb17 	ldw	r2,-20(fp)
    4564:	10800b17 	ldw	r2,44(r2)
    4568:	10800524 	muli	r2,r2,20
    456c:	1007883a 	mov	r3,r2
    4570:	00820234 	movhi	r2,2056
    4574:	10bd8104 	addi	r2,r2,-2556
    4578:	1889883a 	add	r4,r3,r2
    457c:	e0bffb17 	ldw	r2,-20(fp)
    4580:	11400104 	addi	r5,r2,4
    4584:	000149c0 	call	149c <vListInsertEnd>
    4588:	e0bffb17 	ldw	r2,-20(fp)
    458c:	10c00b17 	ldw	r3,44(r2)
    4590:	d0a02217 	ldw	r2,-32632(gp)
    4594:	10800b17 	ldw	r2,44(r2)
    4598:	10c0012e 	bgeu	r2,r3,45a0 <xTaskNotify+0x16c>
    459c:	003b683a 	trap	0
    45a0:	00041680 	call	4168 <vTaskExitCritical>
    45a4:	e0bff917 	ldw	r2,-28(fp)
    45a8:	e037883a 	mov	sp,fp
    45ac:	dfc00117 	ldw	ra,4(sp)
    45b0:	df000017 	ldw	fp,0(sp)
    45b4:	dec00204 	addi	sp,sp,8
    45b8:	f800283a 	ret

000045bc <xTaskNotifyFromISR>:
    45bc:	defff504 	addi	sp,sp,-44
    45c0:	dfc00a15 	stw	ra,40(sp)
    45c4:	df000915 	stw	fp,36(sp)
    45c8:	df000904 	addi	fp,sp,36
    45cc:	e13ffb15 	stw	r4,-20(fp)
    45d0:	e17ffc15 	stw	r5,-16(fp)
    45d4:	e1bffd15 	stw	r6,-12(fp)
    45d8:	e1fffe15 	stw	r7,-8(fp)
    45dc:	00800044 	movi	r2,1
    45e0:	e0bff815 	stw	r2,-32(fp)
    45e4:	e0bffb17 	ldw	r2,-20(fp)
    45e8:	e0bffa15 	stw	r2,-24(fp)
    45ec:	e03ff715 	stw	zero,-36(fp)
    45f0:	e0bffa17 	ldw	r2,-24(fp)
    45f4:	10801317 	ldw	r2,76(r2)
    45f8:	e0bff915 	stw	r2,-28(fp)
    45fc:	e0fffa17 	ldw	r3,-24(fp)
    4600:	00800084 	movi	r2,2
    4604:	18801315 	stw	r2,76(r3)
    4608:	e0bffd17 	ldw	r2,-12(fp)
    460c:	e0bfff15 	stw	r2,-4(fp)
    4610:	e0ffff17 	ldw	r3,-4(fp)
    4614:	188000a0 	cmpeqi	r2,r3,2
    4618:	1000151e 	bne	r2,zero,4670 <xTaskNotifyFromISR+0xb4>
    461c:	e0ffff17 	ldw	r3,-4(fp)
    4620:	188000e8 	cmpgeui	r2,r3,3
    4624:	1000041e 	bne	r2,zero,4638 <xTaskNotifyFromISR+0x7c>
    4628:	e0ffff17 	ldw	r3,-4(fp)
    462c:	18800060 	cmpeqi	r2,r3,1
    4630:	1000081e 	bne	r2,zero,4654 <xTaskNotifyFromISR+0x98>
    4634:	00002006 	br	46b8 <xTaskNotifyFromISR+0xfc>
    4638:	e0ffff17 	ldw	r3,-4(fp)
    463c:	188000e0 	cmpeqi	r2,r3,3
    4640:	1000111e 	bne	r2,zero,4688 <xTaskNotifyFromISR+0xcc>
    4644:	e0ffff17 	ldw	r3,-4(fp)
    4648:	18800120 	cmpeqi	r2,r3,4
    464c:	1000121e 	bne	r2,zero,4698 <xTaskNotifyFromISR+0xdc>
    4650:	00001906 	br	46b8 <xTaskNotifyFromISR+0xfc>
    4654:	e0bffa17 	ldw	r2,-24(fp)
    4658:	10c01217 	ldw	r3,72(r2)
    465c:	e0bffc17 	ldw	r2,-16(fp)
    4660:	1886b03a 	or	r3,r3,r2
    4664:	e0bffa17 	ldw	r2,-24(fp)
    4668:	10c01215 	stw	r3,72(r2)
    466c:	00001206 	br	46b8 <xTaskNotifyFromISR+0xfc>
    4670:	e0bffa17 	ldw	r2,-24(fp)
    4674:	10801217 	ldw	r2,72(r2)
    4678:	10c00044 	addi	r3,r2,1
    467c:	e0bffa17 	ldw	r2,-24(fp)
    4680:	10c01215 	stw	r3,72(r2)
    4684:	00000c06 	br	46b8 <xTaskNotifyFromISR+0xfc>
    4688:	e0fffa17 	ldw	r3,-24(fp)
    468c:	e0bffc17 	ldw	r2,-16(fp)
    4690:	18801215 	stw	r2,72(r3)
    4694:	00000806 	br	46b8 <xTaskNotifyFromISR+0xfc>
    4698:	e0bff917 	ldw	r2,-28(fp)
    469c:	108000a0 	cmpeqi	r2,r2,2
    46a0:	1000041e 	bne	r2,zero,46b4 <xTaskNotifyFromISR+0xf8>
    46a4:	e0fffa17 	ldw	r3,-24(fp)
    46a8:	e0bffc17 	ldw	r2,-16(fp)
    46ac:	18801215 	stw	r2,72(r3)
    46b0:	00000106 	br	46b8 <xTaskNotifyFromISR+0xfc>
    46b4:	e03ff815 	stw	zero,-32(fp)
    46b8:	e0bff917 	ldw	r2,-28(fp)
    46bc:	10800058 	cmpnei	r2,r2,1
    46c0:	1000281e 	bne	r2,zero,4764 <xTaskNotifyFromISR+0x1a8>
    46c4:	d0a02c17 	ldw	r2,-32592(gp)
    46c8:	1004c03a 	cmpne	r2,r2,zero
    46cc:	1000151e 	bne	r2,zero,4724 <xTaskNotifyFromISR+0x168>
    46d0:	e0bffa17 	ldw	r2,-24(fp)
    46d4:	11000104 	addi	r4,r2,4
    46d8:	00015f80 	call	15f8 <uxListRemove>
    46dc:	e0bffa17 	ldw	r2,-24(fp)
    46e0:	10c00b17 	ldw	r3,44(r2)
    46e4:	d0a02617 	ldw	r2,-32616(gp)
    46e8:	10c0032e 	bgeu	r2,r3,46f8 <xTaskNotifyFromISR+0x13c>
    46ec:	e0bffa17 	ldw	r2,-24(fp)
    46f0:	10800b17 	ldw	r2,44(r2)
    46f4:	d0a02615 	stw	r2,-32616(gp)
    46f8:	e0bffa17 	ldw	r2,-24(fp)
    46fc:	10800b17 	ldw	r2,44(r2)
    4700:	10800524 	muli	r2,r2,20
    4704:	1007883a 	mov	r3,r2
    4708:	00820234 	movhi	r2,2056
    470c:	10bd8104 	addi	r2,r2,-2556
    4710:	1889883a 	add	r4,r3,r2
    4714:	e0bffa17 	ldw	r2,-24(fp)
    4718:	11400104 	addi	r5,r2,4
    471c:	000149c0 	call	149c <vListInsertEnd>
    4720:	00000506 	br	4738 <xTaskNotifyFromISR+0x17c>
    4724:	e0bffa17 	ldw	r2,-24(fp)
    4728:	11400604 	addi	r5,r2,24
    472c:	01020234 	movhi	r4,2056
    4730:	213dc704 	addi	r4,r4,-2276
    4734:	000149c0 	call	149c <vListInsertEnd>
    4738:	e0bffa17 	ldw	r2,-24(fp)
    473c:	10c00b17 	ldw	r3,44(r2)
    4740:	d0a02217 	ldw	r2,-32632(gp)
    4744:	10800b17 	ldw	r2,44(r2)
    4748:	10c0062e 	bgeu	r2,r3,4764 <xTaskNotifyFromISR+0x1a8>
    474c:	e0bffe17 	ldw	r2,-8(fp)
    4750:	1005003a 	cmpeq	r2,r2,zero
    4754:	1000031e 	bne	r2,zero,4764 <xTaskNotifyFromISR+0x1a8>
    4758:	e0fffe17 	ldw	r3,-8(fp)
    475c:	00800044 	movi	r2,1
    4760:	18800015 	stw	r2,0(r3)
    4764:	e0bff817 	ldw	r2,-32(fp)
    4768:	e037883a 	mov	sp,fp
    476c:	dfc00117 	ldw	ra,4(sp)
    4770:	df000017 	ldw	fp,0(sp)
    4774:	dec00204 	addi	sp,sp,8
    4778:	f800283a 	ret

0000477c <vTaskNotifyGiveFromISR>:
    477c:	defff904 	addi	sp,sp,-28
    4780:	dfc00615 	stw	ra,24(sp)
    4784:	df000515 	stw	fp,20(sp)
    4788:	df000504 	addi	fp,sp,20
    478c:	e13ffe15 	stw	r4,-8(fp)
    4790:	e17fff15 	stw	r5,-4(fp)
    4794:	e0bffe17 	ldw	r2,-8(fp)
    4798:	e0bffd15 	stw	r2,-12(fp)
    479c:	e03ffb15 	stw	zero,-20(fp)
    47a0:	e0bffd17 	ldw	r2,-12(fp)
    47a4:	10801317 	ldw	r2,76(r2)
    47a8:	e0bffc15 	stw	r2,-16(fp)
    47ac:	e0fffd17 	ldw	r3,-12(fp)
    47b0:	00800084 	movi	r2,2
    47b4:	18801315 	stw	r2,76(r3)
    47b8:	e0bffd17 	ldw	r2,-12(fp)
    47bc:	10801217 	ldw	r2,72(r2)
    47c0:	10c00044 	addi	r3,r2,1
    47c4:	e0bffd17 	ldw	r2,-12(fp)
    47c8:	10c01215 	stw	r3,72(r2)
    47cc:	e0bffc17 	ldw	r2,-16(fp)
    47d0:	10800058 	cmpnei	r2,r2,1
    47d4:	1000281e 	bne	r2,zero,4878 <vTaskNotifyGiveFromISR+0xfc>
    47d8:	d0a02c17 	ldw	r2,-32592(gp)
    47dc:	1004c03a 	cmpne	r2,r2,zero
    47e0:	1000151e 	bne	r2,zero,4838 <vTaskNotifyGiveFromISR+0xbc>
    47e4:	e0bffd17 	ldw	r2,-12(fp)
    47e8:	11000104 	addi	r4,r2,4
    47ec:	00015f80 	call	15f8 <uxListRemove>
    47f0:	e0bffd17 	ldw	r2,-12(fp)
    47f4:	10c00b17 	ldw	r3,44(r2)
    47f8:	d0a02617 	ldw	r2,-32616(gp)
    47fc:	10c0032e 	bgeu	r2,r3,480c <vTaskNotifyGiveFromISR+0x90>
    4800:	e0bffd17 	ldw	r2,-12(fp)
    4804:	10800b17 	ldw	r2,44(r2)
    4808:	d0a02615 	stw	r2,-32616(gp)
    480c:	e0bffd17 	ldw	r2,-12(fp)
    4810:	10800b17 	ldw	r2,44(r2)
    4814:	10800524 	muli	r2,r2,20
    4818:	1007883a 	mov	r3,r2
    481c:	00820234 	movhi	r2,2056
    4820:	10bd8104 	addi	r2,r2,-2556
    4824:	1889883a 	add	r4,r3,r2
    4828:	e0bffd17 	ldw	r2,-12(fp)
    482c:	11400104 	addi	r5,r2,4
    4830:	000149c0 	call	149c <vListInsertEnd>
    4834:	00000506 	br	484c <vTaskNotifyGiveFromISR+0xd0>
    4838:	e0bffd17 	ldw	r2,-12(fp)
    483c:	11400604 	addi	r5,r2,24
    4840:	01020234 	movhi	r4,2056
    4844:	213dc704 	addi	r4,r4,-2276
    4848:	000149c0 	call	149c <vListInsertEnd>
    484c:	e0bffd17 	ldw	r2,-12(fp)
    4850:	10c00b17 	ldw	r3,44(r2)
    4854:	d0a02217 	ldw	r2,-32632(gp)
    4858:	10800b17 	ldw	r2,44(r2)
    485c:	10c0062e 	bgeu	r2,r3,4878 <vTaskNotifyGiveFromISR+0xfc>
    4860:	e0bfff17 	ldw	r2,-4(fp)
    4864:	1005003a 	cmpeq	r2,r2,zero
    4868:	1000031e 	bne	r2,zero,4878 <vTaskNotifyGiveFromISR+0xfc>
    486c:	e0ffff17 	ldw	r3,-4(fp)
    4870:	00800044 	movi	r2,1
    4874:	18800015 	stw	r2,0(r3)
    4878:	e037883a 	mov	sp,fp
    487c:	dfc00117 	ldw	ra,4(sp)
    4880:	df000017 	ldw	fp,0(sp)
    4884:	dec00204 	addi	sp,sp,8
    4888:	f800283a 	ret

0000488c <xTimerCreateTimerTask>:
    488c:	defff904 	addi	sp,sp,-28
    4890:	dfc00615 	stw	ra,24(sp)
    4894:	df000515 	stw	fp,20(sp)
    4898:	df000504 	addi	fp,sp,20
    489c:	e03fff15 	stw	zero,-4(fp)
    48a0:	00050440 	call	5044 <prvCheckForValidListAndQueue>
    48a4:	d0a02f17 	ldw	r2,-32580(gp)
    48a8:	1005003a 	cmpeq	r2,r2,zero
    48ac:	10000d1e 	bne	r2,zero,48e4 <xTimerCreateTimerTask+0x58>
    48b0:	008000c4 	movi	r2,3
    48b4:	d8800015 	stw	r2,0(sp)
    48b8:	d8000115 	stw	zero,4(sp)
    48bc:	d8000215 	stw	zero,8(sp)
    48c0:	d8000315 	stw	zero,12(sp)
    48c4:	01000034 	movhi	r4,0
    48c8:	2112d404 	addi	r4,r4,19280
    48cc:	01420034 	movhi	r5,2048
    48d0:	29401404 	addi	r5,r5,80
    48d4:	01820004 	movi	r6,2048
    48d8:	000f883a 	mov	r7,zero
    48dc:	0002bf80 	call	2bf8 <xTaskGenericCreate>
    48e0:	e0bfff15 	stw	r2,-4(fp)
    48e4:	e0bfff17 	ldw	r2,-4(fp)
    48e8:	e037883a 	mov	sp,fp
    48ec:	dfc00117 	ldw	ra,4(sp)
    48f0:	df000017 	ldw	fp,0(sp)
    48f4:	dec00204 	addi	sp,sp,8
    48f8:	f800283a 	ret

000048fc <xTimerCreate>:
    48fc:	defff904 	addi	sp,sp,-28
    4900:	dfc00615 	stw	ra,24(sp)
    4904:	df000515 	stw	fp,20(sp)
    4908:	df000504 	addi	fp,sp,20
    490c:	e13ffc15 	stw	r4,-16(fp)
    4910:	e17ffd15 	stw	r5,-12(fp)
    4914:	e1bffe15 	stw	r6,-8(fp)
    4918:	e1ffff15 	stw	r7,-4(fp)
    491c:	e0bffd17 	ldw	r2,-12(fp)
    4920:	1004c03a 	cmpne	r2,r2,zero
    4924:	1000021e 	bne	r2,zero,4930 <xTimerCreate+0x34>
    4928:	e03ffb15 	stw	zero,-20(fp)
    492c:	00001906 	br	4994 <xTimerCreate+0x98>
    4930:	01000a04 	movi	r4,40
    4934:	0000fbc0 	call	fbc <pvPortMalloc>
    4938:	e0bffb15 	stw	r2,-20(fp)
    493c:	e0bffb17 	ldw	r2,-20(fp)
    4940:	1005003a 	cmpeq	r2,r2,zero
    4944:	1000131e 	bne	r2,zero,4994 <xTimerCreate+0x98>
    4948:	00050440 	call	5044 <prvCheckForValidListAndQueue>
    494c:	e0fffb17 	ldw	r3,-20(fp)
    4950:	e0bffc17 	ldw	r2,-16(fp)
    4954:	18800015 	stw	r2,0(r3)
    4958:	e0fffb17 	ldw	r3,-20(fp)
    495c:	e0bffd17 	ldw	r2,-12(fp)
    4960:	18800615 	stw	r2,24(r3)
    4964:	e0fffb17 	ldw	r3,-20(fp)
    4968:	e0bffe17 	ldw	r2,-8(fp)
    496c:	18800715 	stw	r2,28(r3)
    4970:	e0fffb17 	ldw	r3,-20(fp)
    4974:	e0bfff17 	ldw	r2,-4(fp)
    4978:	18800815 	stw	r2,32(r3)
    497c:	e0fffb17 	ldw	r3,-20(fp)
    4980:	e0800217 	ldw	r2,8(fp)
    4984:	18800915 	stw	r2,36(r3)
    4988:	e0bffb17 	ldw	r2,-20(fp)
    498c:	11000104 	addi	r4,r2,4
    4990:	00014740 	call	1474 <vListInitialiseItem>
    4994:	e0bffb17 	ldw	r2,-20(fp)
    4998:	e037883a 	mov	sp,fp
    499c:	dfc00117 	ldw	ra,4(sp)
    49a0:	df000017 	ldw	fp,0(sp)
    49a4:	dec00204 	addi	sp,sp,8
    49a8:	f800283a 	ret

000049ac <xTimerGenericCommand>:
    49ac:	defff604 	addi	sp,sp,-40
    49b0:	dfc00915 	stw	ra,36(sp)
    49b4:	df000815 	stw	fp,32(sp)
    49b8:	df000804 	addi	fp,sp,32
    49bc:	e13ffc15 	stw	r4,-16(fp)
    49c0:	e17ffd15 	stw	r5,-12(fp)
    49c4:	e1bffe15 	stw	r6,-8(fp)
    49c8:	e1ffff15 	stw	r7,-4(fp)
    49cc:	e03ff815 	stw	zero,-32(fp)
    49d0:	d0a02f17 	ldw	r2,-32580(gp)
    49d4:	1005003a 	cmpeq	r2,r2,zero
    49d8:	1000201e 	bne	r2,zero,4a5c <xTimerGenericCommand+0xb0>
    49dc:	e0bffd17 	ldw	r2,-12(fp)
    49e0:	e0bff915 	stw	r2,-28(fp)
    49e4:	e0bffe17 	ldw	r2,-8(fp)
    49e8:	e0bffa15 	stw	r2,-24(fp)
    49ec:	e0bffc17 	ldw	r2,-16(fp)
    49f0:	e0bffb15 	stw	r2,-20(fp)
    49f4:	e0bffd17 	ldw	r2,-12(fp)
    49f8:	10800188 	cmpgei	r2,r2,6
    49fc:	1000111e 	bne	r2,zero,4a44 <xTimerGenericCommand+0x98>
    4a00:	0003e940 	call	3e94 <xTaskGetSchedulerState>
    4a04:	10800098 	cmpnei	r2,r2,2
    4a08:	1000071e 	bne	r2,zero,4a28 <xTimerGenericCommand+0x7c>
    4a0c:	d1202f17 	ldw	r4,-32580(gp)
    4a10:	e17ff904 	addi	r5,fp,-28
    4a14:	e1800217 	ldw	r6,8(fp)
    4a18:	000f883a 	mov	r7,zero
    4a1c:	0001f100 	call	1f10 <xQueueGenericSend>
    4a20:	e0bff815 	stw	r2,-32(fp)
    4a24:	00000d06 	br	4a5c <xTimerGenericCommand+0xb0>
    4a28:	d1202f17 	ldw	r4,-32580(gp)
    4a2c:	e17ff904 	addi	r5,fp,-28
    4a30:	000d883a 	mov	r6,zero
    4a34:	000f883a 	mov	r7,zero
    4a38:	0001f100 	call	1f10 <xQueueGenericSend>
    4a3c:	e0bff815 	stw	r2,-32(fp)
    4a40:	00000606 	br	4a5c <xTimerGenericCommand+0xb0>
    4a44:	d1202f17 	ldw	r4,-32580(gp)
    4a48:	e17ff904 	addi	r5,fp,-28
    4a4c:	e1bfff17 	ldw	r6,-4(fp)
    4a50:	000f883a 	mov	r7,zero
    4a54:	00020c00 	call	20c0 <xQueueGenericSendFromISR>
    4a58:	e0bff815 	stw	r2,-32(fp)
    4a5c:	e0bff817 	ldw	r2,-32(fp)
    4a60:	e037883a 	mov	sp,fp
    4a64:	dfc00117 	ldw	ra,4(sp)
    4a68:	df000017 	ldw	fp,0(sp)
    4a6c:	dec00204 	addi	sp,sp,8
    4a70:	f800283a 	ret

00004a74 <pcTimerGetTimerName>:
    4a74:	defffd04 	addi	sp,sp,-12
    4a78:	df000215 	stw	fp,8(sp)
    4a7c:	df000204 	addi	fp,sp,8
    4a80:	e13fff15 	stw	r4,-4(fp)
    4a84:	e0bfff17 	ldw	r2,-4(fp)
    4a88:	e0bffe15 	stw	r2,-8(fp)
    4a8c:	e0bffe17 	ldw	r2,-8(fp)
    4a90:	10800017 	ldw	r2,0(r2)
    4a94:	e037883a 	mov	sp,fp
    4a98:	df000017 	ldw	fp,0(sp)
    4a9c:	dec00104 	addi	sp,sp,4
    4aa0:	f800283a 	ret

00004aa4 <prvProcessExpiredTimer>:
    4aa4:	defff904 	addi	sp,sp,-28
    4aa8:	dfc00615 	stw	ra,24(sp)
    4aac:	df000515 	stw	fp,20(sp)
    4ab0:	df000504 	addi	fp,sp,20
    4ab4:	e13ffe15 	stw	r4,-8(fp)
    4ab8:	e17fff15 	stw	r5,-4(fp)
    4abc:	d0a03117 	ldw	r2,-32572(gp)
    4ac0:	10800317 	ldw	r2,12(r2)
    4ac4:	10800317 	ldw	r2,12(r2)
    4ac8:	e0bffc15 	stw	r2,-16(fp)
    4acc:	e0bffc17 	ldw	r2,-16(fp)
    4ad0:	11000104 	addi	r4,r2,4
    4ad4:	00015f80 	call	15f8 <uxListRemove>
    4ad8:	e0bffc17 	ldw	r2,-16(fp)
    4adc:	10800717 	ldw	r2,28(r2)
    4ae0:	10800058 	cmpnei	r2,r2,1
    4ae4:	1000111e 	bne	r2,zero,4b2c <prvProcessExpiredTimer+0x88>
    4ae8:	e0bffc17 	ldw	r2,-16(fp)
    4aec:	10c00617 	ldw	r3,24(r2)
    4af0:	e0bffe17 	ldw	r2,-8(fp)
    4af4:	188b883a 	add	r5,r3,r2
    4af8:	e13ffc17 	ldw	r4,-16(fp)
    4afc:	e1bfff17 	ldw	r6,-4(fp)
    4b00:	e1fffe17 	ldw	r7,-8(fp)
    4b04:	0004ce80 	call	4ce8 <prvInsertTimerInActiveList>
    4b08:	10800058 	cmpnei	r2,r2,1
    4b0c:	1000071e 	bne	r2,zero,4b2c <prvProcessExpiredTimer+0x88>
    4b10:	d8000015 	stw	zero,0(sp)
    4b14:	e13ffc17 	ldw	r4,-16(fp)
    4b18:	000b883a 	mov	r5,zero
    4b1c:	e1bffe17 	ldw	r6,-8(fp)
    4b20:	000f883a 	mov	r7,zero
    4b24:	00049ac0 	call	49ac <xTimerGenericCommand>
    4b28:	e0bffd15 	stw	r2,-12(fp)
    4b2c:	e0bffc17 	ldw	r2,-16(fp)
    4b30:	10800917 	ldw	r2,36(r2)
    4b34:	e13ffc17 	ldw	r4,-16(fp)
    4b38:	103ee83a 	callr	r2
    4b3c:	e037883a 	mov	sp,fp
    4b40:	dfc00117 	ldw	ra,4(sp)
    4b44:	df000017 	ldw	fp,0(sp)
    4b48:	dec00204 	addi	sp,sp,8
    4b4c:	f800283a 	ret

00004b50 <prvTimerTask>:
    4b50:	defffb04 	addi	sp,sp,-20
    4b54:	dfc00415 	stw	ra,16(sp)
    4b58:	df000315 	stw	fp,12(sp)
    4b5c:	df000304 	addi	fp,sp,12
    4b60:	e13fff15 	stw	r4,-4(fp)
    4b64:	e13ffe04 	addi	r4,fp,-8
    4b68:	0004c240 	call	4c24 <prvGetNextExpireTime>
    4b6c:	e0bffd15 	stw	r2,-12(fp)
    4b70:	e17ffe17 	ldw	r5,-8(fp)
    4b74:	e13ffd17 	ldw	r4,-12(fp)
    4b78:	0004b840 	call	4b84 <prvProcessTimerOrBlockTask>
    4b7c:	0004db40 	call	4db4 <prvProcessReceivedCommands>
    4b80:	003ff806 	br	4b64 <prvTimerTask+0x14>

00004b84 <prvProcessTimerOrBlockTask>:
    4b84:	defffa04 	addi	sp,sp,-24
    4b88:	dfc00515 	stw	ra,20(sp)
    4b8c:	df000415 	stw	fp,16(sp)
    4b90:	df000404 	addi	fp,sp,16
    4b94:	e13ffe15 	stw	r4,-8(fp)
    4b98:	e17fff15 	stw	r5,-4(fp)
    4b9c:	0002ff00 	call	2ff0 <vTaskSuspendAll>
    4ba0:	e13ffd04 	addi	r4,fp,-12
    4ba4:	0004c840 	call	4c84 <prvSampleTimeNow>
    4ba8:	e0bffc15 	stw	r2,-16(fp)
    4bac:	e0bffd17 	ldw	r2,-12(fp)
    4bb0:	1004c03a 	cmpne	r2,r2,zero
    4bb4:	1000151e 	bne	r2,zero,4c0c <prvProcessTimerOrBlockTask+0x88>
    4bb8:	e0bfff17 	ldw	r2,-4(fp)
    4bbc:	1004c03a 	cmpne	r2,r2,zero
    4bc0:	1000081e 	bne	r2,zero,4be4 <prvProcessTimerOrBlockTask+0x60>
    4bc4:	e0fffe17 	ldw	r3,-8(fp)
    4bc8:	e0bffc17 	ldw	r2,-16(fp)
    4bcc:	10c00536 	bltu	r2,r3,4be4 <prvProcessTimerOrBlockTask+0x60>
    4bd0:	00030180 	call	3018 <xTaskResumeAll>
    4bd4:	e13ffe17 	ldw	r4,-8(fp)
    4bd8:	e17ffc17 	ldw	r5,-16(fp)
    4bdc:	0004aa40 	call	4aa4 <prvProcessExpiredTimer>
    4be0:	00000b06 	br	4c10 <prvProcessTimerOrBlockTask+0x8c>
    4be4:	d1202f17 	ldw	r4,-32580(gp)
    4be8:	e0fffe17 	ldw	r3,-8(fp)
    4bec:	e0bffc17 	ldw	r2,-16(fp)
    4bf0:	188bc83a 	sub	r5,r3,r2
    4bf4:	0002b640 	call	2b64 <vQueueWaitForMessageRestricted>
    4bf8:	00030180 	call	3018 <xTaskResumeAll>
    4bfc:	1004c03a 	cmpne	r2,r2,zero
    4c00:	1000031e 	bne	r2,zero,4c10 <prvProcessTimerOrBlockTask+0x8c>
    4c04:	003b683a 	trap	0
    4c08:	00000106 	br	4c10 <prvProcessTimerOrBlockTask+0x8c>
    4c0c:	00030180 	call	3018 <xTaskResumeAll>
    4c10:	e037883a 	mov	sp,fp
    4c14:	dfc00117 	ldw	ra,4(sp)
    4c18:	df000017 	ldw	fp,0(sp)
    4c1c:	dec00204 	addi	sp,sp,8
    4c20:	f800283a 	ret

00004c24 <prvGetNextExpireTime>:
    4c24:	defffd04 	addi	sp,sp,-12
    4c28:	df000215 	stw	fp,8(sp)
    4c2c:	df000204 	addi	fp,sp,8
    4c30:	e13fff15 	stw	r4,-4(fp)
    4c34:	d0a03117 	ldw	r2,-32572(gp)
    4c38:	10800017 	ldw	r2,0(r2)
    4c3c:	1007003a 	cmpeq	r3,r2,zero
    4c40:	e0bfff17 	ldw	r2,-4(fp)
    4c44:	10c00015 	stw	r3,0(r2)
    4c48:	e0bfff17 	ldw	r2,-4(fp)
    4c4c:	10800017 	ldw	r2,0(r2)
    4c50:	1004c03a 	cmpne	r2,r2,zero
    4c54:	1000051e 	bne	r2,zero,4c6c <prvGetNextExpireTime+0x48>
    4c58:	d0a03117 	ldw	r2,-32572(gp)
    4c5c:	10800317 	ldw	r2,12(r2)
    4c60:	10800017 	ldw	r2,0(r2)
    4c64:	e0bffe15 	stw	r2,-8(fp)
    4c68:	00000106 	br	4c70 <prvGetNextExpireTime+0x4c>
    4c6c:	e03ffe15 	stw	zero,-8(fp)
    4c70:	e0bffe17 	ldw	r2,-8(fp)
    4c74:	e037883a 	mov	sp,fp
    4c78:	df000017 	ldw	fp,0(sp)
    4c7c:	dec00104 	addi	sp,sp,4
    4c80:	f800283a 	ret

00004c84 <prvSampleTimeNow>:
    4c84:	defffc04 	addi	sp,sp,-16
    4c88:	dfc00315 	stw	ra,12(sp)
    4c8c:	df000215 	stw	fp,8(sp)
    4c90:	df000204 	addi	fp,sp,8
    4c94:	e13fff15 	stw	r4,-4(fp)
    4c98:	00031680 	call	3168 <xTaskGetTickCount>
    4c9c:	e0bffe15 	stw	r2,-8(fp)
    4ca0:	d0e03017 	ldw	r3,-32576(gp)
    4ca4:	e0bffe17 	ldw	r2,-8(fp)
    4ca8:	10c0052e 	bgeu	r2,r3,4cc0 <prvSampleTimeNow+0x3c>
    4cac:	0004f400 	call	4f40 <prvSwitchTimerLists>
    4cb0:	e0ffff17 	ldw	r3,-4(fp)
    4cb4:	00800044 	movi	r2,1
    4cb8:	18800015 	stw	r2,0(r3)
    4cbc:	00000206 	br	4cc8 <prvSampleTimeNow+0x44>
    4cc0:	e0bfff17 	ldw	r2,-4(fp)
    4cc4:	10000015 	stw	zero,0(r2)
    4cc8:	e0bffe17 	ldw	r2,-8(fp)
    4ccc:	d0a03015 	stw	r2,-32576(gp)
    4cd0:	e0bffe17 	ldw	r2,-8(fp)
    4cd4:	e037883a 	mov	sp,fp
    4cd8:	dfc00117 	ldw	ra,4(sp)
    4cdc:	df000017 	ldw	fp,0(sp)
    4ce0:	dec00204 	addi	sp,sp,8
    4ce4:	f800283a 	ret

00004ce8 <prvInsertTimerInActiveList>:
    4ce8:	defff904 	addi	sp,sp,-28
    4cec:	dfc00615 	stw	ra,24(sp)
    4cf0:	df000515 	stw	fp,20(sp)
    4cf4:	df000504 	addi	fp,sp,20
    4cf8:	e13ffc15 	stw	r4,-16(fp)
    4cfc:	e17ffd15 	stw	r5,-12(fp)
    4d00:	e1bffe15 	stw	r6,-8(fp)
    4d04:	e1ffff15 	stw	r7,-4(fp)
    4d08:	e03ffb15 	stw	zero,-20(fp)
    4d0c:	e0fffc17 	ldw	r3,-16(fp)
    4d10:	e0bffd17 	ldw	r2,-12(fp)
    4d14:	18800115 	stw	r2,4(r3)
    4d18:	e0fffc17 	ldw	r3,-16(fp)
    4d1c:	e0bffc17 	ldw	r2,-16(fp)
    4d20:	18800415 	stw	r2,16(r3)
    4d24:	e0fffd17 	ldw	r3,-12(fp)
    4d28:	e0bffe17 	ldw	r2,-8(fp)
    4d2c:	10c00e36 	bltu	r2,r3,4d68 <prvInsertTimerInActiveList+0x80>
    4d30:	e0fffe17 	ldw	r3,-8(fp)
    4d34:	e0bfff17 	ldw	r2,-4(fp)
    4d38:	1887c83a 	sub	r3,r3,r2
    4d3c:	e0bffc17 	ldw	r2,-16(fp)
    4d40:	10800617 	ldw	r2,24(r2)
    4d44:	18800336 	bltu	r3,r2,4d54 <prvInsertTimerInActiveList+0x6c>
    4d48:	00800044 	movi	r2,1
    4d4c:	e0bffb15 	stw	r2,-20(fp)
    4d50:	00001206 	br	4d9c <prvInsertTimerInActiveList+0xb4>
    4d54:	d1203217 	ldw	r4,-32568(gp)
    4d58:	e0bffc17 	ldw	r2,-16(fp)
    4d5c:	11400104 	addi	r5,r2,4
    4d60:	00015240 	call	1524 <vListInsert>
    4d64:	00000d06 	br	4d9c <prvInsertTimerInActiveList+0xb4>
    4d68:	e0fffe17 	ldw	r3,-8(fp)
    4d6c:	e0bfff17 	ldw	r2,-4(fp)
    4d70:	1880062e 	bgeu	r3,r2,4d8c <prvInsertTimerInActiveList+0xa4>
    4d74:	e0fffd17 	ldw	r3,-12(fp)
    4d78:	e0bfff17 	ldw	r2,-4(fp)
    4d7c:	18800336 	bltu	r3,r2,4d8c <prvInsertTimerInActiveList+0xa4>
    4d80:	00800044 	movi	r2,1
    4d84:	e0bffb15 	stw	r2,-20(fp)
    4d88:	00000406 	br	4d9c <prvInsertTimerInActiveList+0xb4>
    4d8c:	d1203117 	ldw	r4,-32572(gp)
    4d90:	e0bffc17 	ldw	r2,-16(fp)
    4d94:	11400104 	addi	r5,r2,4
    4d98:	00015240 	call	1524 <vListInsert>
    4d9c:	e0bffb17 	ldw	r2,-20(fp)
    4da0:	e037883a 	mov	sp,fp
    4da4:	dfc00117 	ldw	ra,4(sp)
    4da8:	df000017 	ldw	fp,0(sp)
    4dac:	dec00204 	addi	sp,sp,8
    4db0:	f800283a 	ret

00004db4 <prvProcessReceivedCommands>:
    4db4:	defff504 	addi	sp,sp,-44
    4db8:	dfc00a15 	stw	ra,40(sp)
    4dbc:	df000915 	stw	fp,36(sp)
    4dc0:	df000904 	addi	fp,sp,36
    4dc4:	00005206 	br	4f10 <prvProcessReceivedCommands+0x15c>
    4dc8:	e0bffb17 	ldw	r2,-20(fp)
    4dcc:	1004803a 	cmplt	r2,r2,zero
    4dd0:	10004f1e 	bne	r2,zero,4f10 <prvProcessReceivedCommands+0x15c>
    4dd4:	e0bffd17 	ldw	r2,-12(fp)
    4dd8:	e0bffa15 	stw	r2,-24(fp)
    4ddc:	e0bffa17 	ldw	r2,-24(fp)
    4de0:	10800517 	ldw	r2,20(r2)
    4de4:	1005003a 	cmpeq	r2,r2,zero
    4de8:	1000031e 	bne	r2,zero,4df8 <prvProcessReceivedCommands+0x44>
    4dec:	e0bffa17 	ldw	r2,-24(fp)
    4df0:	11000104 	addi	r4,r2,4
    4df4:	00015f80 	call	15f8 <uxListRemove>
    4df8:	e13ffe04 	addi	r4,fp,-8
    4dfc:	0004c840 	call	4c84 <prvSampleTimeNow>
    4e00:	e0bff815 	stw	r2,-32(fp)
    4e04:	e0bffb17 	ldw	r2,-20(fp)
    4e08:	e0bfff15 	stw	r2,-4(fp)
    4e0c:	e0ffff17 	ldw	r3,-4(fp)
    4e10:	188002a8 	cmpgeui	r2,r3,10
    4e14:	10003e1e 	bne	r2,zero,4f10 <prvProcessReceivedCommands+0x15c>
    4e18:	e13fff17 	ldw	r4,-4(fp)
    4e1c:	e13fff17 	ldw	r4,-4(fp)
    4e20:	2105883a 	add	r2,r4,r4
    4e24:	1087883a 	add	r3,r2,r2
    4e28:	00800034 	movhi	r2,0
    4e2c:	10938f04 	addi	r2,r2,20028
    4e30:	1885883a 	add	r2,r3,r2
    4e34:	10800017 	ldw	r2,0(r2)
    4e38:	1000683a 	jmp	r2
    4e3c:	00004e64 	muli	zero,zero,313
    4e40:	00004e64 	muli	zero,zero,313
    4e44:	00004e64 	muli	zero,zero,313
    4e48:	00004f10 	cmplti	zero,zero,316
    4e4c:	00004ed8 	cmpnei	zero,zero,315
    4e50:	00004f08 	cmpgei	zero,zero,316
    4e54:	00004e64 	muli	zero,zero,313
    4e58:	00004e64 	muli	zero,zero,313
    4e5c:	00004f10 	cmplti	zero,zero,316
    4e60:	00004ed8 	cmpnei	zero,zero,315
    4e64:	e0fffc17 	ldw	r3,-16(fp)
    4e68:	e0bffa17 	ldw	r2,-24(fp)
    4e6c:	10800617 	ldw	r2,24(r2)
    4e70:	188b883a 	add	r5,r3,r2
    4e74:	e1fffc17 	ldw	r7,-16(fp)
    4e78:	e13ffa17 	ldw	r4,-24(fp)
    4e7c:	e1bff817 	ldw	r6,-32(fp)
    4e80:	0004ce80 	call	4ce8 <prvInsertTimerInActiveList>
    4e84:	10800058 	cmpnei	r2,r2,1
    4e88:	1000211e 	bne	r2,zero,4f10 <prvProcessReceivedCommands+0x15c>
    4e8c:	e0bffa17 	ldw	r2,-24(fp)
    4e90:	10800917 	ldw	r2,36(r2)
    4e94:	e13ffa17 	ldw	r4,-24(fp)
    4e98:	103ee83a 	callr	r2
    4e9c:	e0bffa17 	ldw	r2,-24(fp)
    4ea0:	10800717 	ldw	r2,28(r2)
    4ea4:	10800058 	cmpnei	r2,r2,1
    4ea8:	1000191e 	bne	r2,zero,4f10 <prvProcessReceivedCommands+0x15c>
    4eac:	e0fffc17 	ldw	r3,-16(fp)
    4eb0:	e0bffa17 	ldw	r2,-24(fp)
    4eb4:	10800617 	ldw	r2,24(r2)
    4eb8:	188d883a 	add	r6,r3,r2
    4ebc:	d8000015 	stw	zero,0(sp)
    4ec0:	e13ffa17 	ldw	r4,-24(fp)
    4ec4:	000b883a 	mov	r5,zero
    4ec8:	000f883a 	mov	r7,zero
    4ecc:	00049ac0 	call	49ac <xTimerGenericCommand>
    4ed0:	e0bff915 	stw	r2,-28(fp)
    4ed4:	00000e06 	br	4f10 <prvProcessReceivedCommands+0x15c>
    4ed8:	e0fffc17 	ldw	r3,-16(fp)
    4edc:	e0bffa17 	ldw	r2,-24(fp)
    4ee0:	10c00615 	stw	r3,24(r2)
    4ee4:	e0bffa17 	ldw	r2,-24(fp)
    4ee8:	10c00617 	ldw	r3,24(r2)
    4eec:	e0bff817 	ldw	r2,-32(fp)
    4ef0:	188b883a 	add	r5,r3,r2
    4ef4:	e13ffa17 	ldw	r4,-24(fp)
    4ef8:	e1bff817 	ldw	r6,-32(fp)
    4efc:	e1fff817 	ldw	r7,-32(fp)
    4f00:	0004ce80 	call	4ce8 <prvInsertTimerInActiveList>
    4f04:	00000206 	br	4f10 <prvProcessReceivedCommands+0x15c>
    4f08:	e13ffa17 	ldw	r4,-24(fp)
    4f0c:	00011500 	call	1150 <vPortFree>
    4f10:	d1202f17 	ldw	r4,-32580(gp)
    4f14:	e17ffb04 	addi	r5,fp,-20
    4f18:	000d883a 	mov	r6,zero
    4f1c:	000f883a 	mov	r7,zero
    4f20:	00022800 	call	2280 <xQueueGenericReceive>
    4f24:	1004c03a 	cmpne	r2,r2,zero
    4f28:	103fa71e 	bne	r2,zero,4dc8 <prvProcessReceivedCommands+0x14>
    4f2c:	e037883a 	mov	sp,fp
    4f30:	dfc00117 	ldw	ra,4(sp)
    4f34:	df000017 	ldw	fp,0(sp)
    4f38:	dec00204 	addi	sp,sp,8
    4f3c:	f800283a 	ret

00004f40 <prvSwitchTimerLists>:
    4f40:	defff804 	addi	sp,sp,-32
    4f44:	dfc00715 	stw	ra,28(sp)
    4f48:	df000615 	stw	fp,24(sp)
    4f4c:	df000604 	addi	fp,sp,24
    4f50:	00002d06 	br	5008 <prvSwitchTimerLists+0xc8>
    4f54:	d0a03117 	ldw	r2,-32572(gp)
    4f58:	10800317 	ldw	r2,12(r2)
    4f5c:	10800017 	ldw	r2,0(r2)
    4f60:	e0bfff15 	stw	r2,-4(fp)
    4f64:	d0a03117 	ldw	r2,-32572(gp)
    4f68:	10800317 	ldw	r2,12(r2)
    4f6c:	10800317 	ldw	r2,12(r2)
    4f70:	e0bffc15 	stw	r2,-16(fp)
    4f74:	e0bffc17 	ldw	r2,-16(fp)
    4f78:	11000104 	addi	r4,r2,4
    4f7c:	00015f80 	call	15f8 <uxListRemove>
    4f80:	e0bffc17 	ldw	r2,-16(fp)
    4f84:	10800917 	ldw	r2,36(r2)
    4f88:	e13ffc17 	ldw	r4,-16(fp)
    4f8c:	103ee83a 	callr	r2
    4f90:	e0bffc17 	ldw	r2,-16(fp)
    4f94:	10800717 	ldw	r2,28(r2)
    4f98:	10800058 	cmpnei	r2,r2,1
    4f9c:	10001a1e 	bne	r2,zero,5008 <prvSwitchTimerLists+0xc8>
    4fa0:	e0bffc17 	ldw	r2,-16(fp)
    4fa4:	10c00617 	ldw	r3,24(r2)
    4fa8:	e0bfff17 	ldw	r2,-4(fp)
    4fac:	1885883a 	add	r2,r3,r2
    4fb0:	e0bffe15 	stw	r2,-8(fp)
    4fb4:	e0fffe17 	ldw	r3,-8(fp)
    4fb8:	e0bfff17 	ldw	r2,-4(fp)
    4fbc:	10c00b2e 	bgeu	r2,r3,4fec <prvSwitchTimerLists+0xac>
    4fc0:	e0fffc17 	ldw	r3,-16(fp)
    4fc4:	e0bffe17 	ldw	r2,-8(fp)
    4fc8:	18800115 	stw	r2,4(r3)
    4fcc:	e0fffc17 	ldw	r3,-16(fp)
    4fd0:	e0bffc17 	ldw	r2,-16(fp)
    4fd4:	18800415 	stw	r2,16(r3)
    4fd8:	d1203117 	ldw	r4,-32572(gp)
    4fdc:	e0bffc17 	ldw	r2,-16(fp)
    4fe0:	11400104 	addi	r5,r2,4
    4fe4:	00015240 	call	1524 <vListInsert>
    4fe8:	00000706 	br	5008 <prvSwitchTimerLists+0xc8>
    4fec:	d8000015 	stw	zero,0(sp)
    4ff0:	e13ffc17 	ldw	r4,-16(fp)
    4ff4:	000b883a 	mov	r5,zero
    4ff8:	e1bfff17 	ldw	r6,-4(fp)
    4ffc:	000f883a 	mov	r7,zero
    5000:	00049ac0 	call	49ac <xTimerGenericCommand>
    5004:	e0bffb15 	stw	r2,-20(fp)
    5008:	d0a03117 	ldw	r2,-32572(gp)
    500c:	10800017 	ldw	r2,0(r2)
    5010:	1004c03a 	cmpne	r2,r2,zero
    5014:	103fcf1e 	bne	r2,zero,4f54 <prvSwitchTimerLists+0x14>
    5018:	d0a03117 	ldw	r2,-32572(gp)
    501c:	e0bffd15 	stw	r2,-12(fp)
    5020:	d0a03217 	ldw	r2,-32568(gp)
    5024:	d0a03115 	stw	r2,-32572(gp)
    5028:	e0bffd17 	ldw	r2,-12(fp)
    502c:	d0a03215 	stw	r2,-32568(gp)
    5030:	e037883a 	mov	sp,fp
    5034:	dfc00117 	ldw	ra,4(sp)
    5038:	df000017 	ldw	fp,0(sp)
    503c:	dec00204 	addi	sp,sp,8
    5040:	f800283a 	ret

00005044 <prvCheckForValidListAndQueue>:
    5044:	defffe04 	addi	sp,sp,-8
    5048:	dfc00115 	stw	ra,4(sp)
    504c:	df000015 	stw	fp,0(sp)
    5050:	d839883a 	mov	fp,sp
    5054:	00041140 	call	4114 <vTaskEnterCritical>
    5058:	d0a02f17 	ldw	r2,-32580(gp)
    505c:	1004c03a 	cmpne	r2,r2,zero
    5060:	1000111e 	bne	r2,zero,50a8 <prvCheckForValidListAndQueue+0x64>
    5064:	01020234 	movhi	r4,2056
    5068:	213dd104 	addi	r4,r4,-2236
    506c:	00014040 	call	1404 <vListInitialise>
    5070:	01020234 	movhi	r4,2056
    5074:	213dd604 	addi	r4,r4,-2216
    5078:	00014040 	call	1404 <vListInitialise>
    507c:	00820234 	movhi	r2,2056
    5080:	10bdd104 	addi	r2,r2,-2236
    5084:	d0a03115 	stw	r2,-32572(gp)
    5088:	00820234 	movhi	r2,2056
    508c:	10bdd604 	addi	r2,r2,-2216
    5090:	d0a03215 	stw	r2,-32568(gp)
    5094:	01000284 	movi	r4,10
    5098:	01400304 	movi	r5,12
    509c:	000d883a 	mov	r6,zero
    50a0:	0001bd80 	call	1bd8 <xQueueGenericCreate>
    50a4:	d0a02f15 	stw	r2,-32580(gp)
    50a8:	00041680 	call	4168 <vTaskExitCritical>
    50ac:	e037883a 	mov	sp,fp
    50b0:	dfc00117 	ldw	ra,4(sp)
    50b4:	df000017 	ldw	fp,0(sp)
    50b8:	dec00204 	addi	sp,sp,8
    50bc:	f800283a 	ret

000050c0 <xTimerIsTimerActive>:
    50c0:	defffb04 	addi	sp,sp,-20
    50c4:	dfc00415 	stw	ra,16(sp)
    50c8:	df000315 	stw	fp,12(sp)
    50cc:	df000304 	addi	fp,sp,12
    50d0:	e13fff15 	stw	r4,-4(fp)
    50d4:	e0bfff17 	ldw	r2,-4(fp)
    50d8:	e0bffd15 	stw	r2,-12(fp)
    50dc:	00041140 	call	4114 <vTaskEnterCritical>
    50e0:	e0bffd17 	ldw	r2,-12(fp)
    50e4:	10800517 	ldw	r2,20(r2)
    50e8:	1004c03a 	cmpne	r2,r2,zero
    50ec:	e0bffe15 	stw	r2,-8(fp)
    50f0:	00041680 	call	4168 <vTaskExitCritical>
    50f4:	e0bffe17 	ldw	r2,-8(fp)
    50f8:	e037883a 	mov	sp,fp
    50fc:	dfc00117 	ldw	ra,4(sp)
    5100:	df000017 	ldw	fp,0(sp)
    5104:	dec00204 	addi	sp,sp,8
    5108:	f800283a 	ret

0000510c <pvTimerGetTimerID>:
    510c:	defffd04 	addi	sp,sp,-12
    5110:	df000215 	stw	fp,8(sp)
    5114:	df000204 	addi	fp,sp,8
    5118:	e13fff15 	stw	r4,-4(fp)
    511c:	e0bfff17 	ldw	r2,-4(fp)
    5120:	e0bffe15 	stw	r2,-8(fp)
    5124:	e0bffe17 	ldw	r2,-8(fp)
    5128:	10800817 	ldw	r2,32(r2)
    512c:	e037883a 	mov	sp,fp
    5130:	df000017 	ldw	fp,0(sp)
    5134:	dec00104 	addi	sp,sp,4
    5138:	f800283a 	ret

0000513c <main>:
    513c:	defffa04 	addi	sp,sp,-24
    5140:	dfc00515 	stw	ra,20(sp)
    5144:	df000415 	stw	fp,16(sp)
    5148:	df000404 	addi	fp,sp,16
    514c:	00800044 	movi	r2,1
    5150:	d8800015 	stw	r2,0(sp)
    5154:	d8000115 	stw	zero,4(sp)
    5158:	d8000215 	stw	zero,8(sp)
    515c:	d8000315 	stw	zero,12(sp)
    5160:	01000034 	movhi	r4,0
    5164:	21146f04 	addi	r4,r4,20924
    5168:	01420034 	movhi	r5,2048
    516c:	29401604 	addi	r5,r5,88
    5170:	01840004 	movi	r6,4096
    5174:	01c48d34 	movhi	r7,4660
    5178:	39d59e04 	addi	r7,r7,22136
    517c:	0002bf80 	call	2bf8 <xTaskGenericCreate>
    5180:	00800044 	movi	r2,1
    5184:	d8800015 	stw	r2,0(sp)
    5188:	d8000115 	stw	zero,4(sp)
    518c:	d8000215 	stw	zero,8(sp)
    5190:	d8000315 	stw	zero,12(sp)
    5194:	01000034 	movhi	r4,0
    5198:	21147a04 	addi	r4,r4,20968
    519c:	01420034 	movhi	r5,2048
    51a0:	29401804 	addi	r5,r5,96
    51a4:	01840004 	movi	r6,4096
    51a8:	01e1d974 	movhi	r7,34661
    51ac:	39d0c844 	addi	r7,r7,17185
    51b0:	0002bf80 	call	2bf8 <xTaskGenericCreate>
    51b4:	0002f100 	call	2f10 <vTaskStartScheduler>
    51b8:	003fff06 	br	51b8 <main+0x7c>

000051bc <prvFirstRegTestTask>:
    51bc:	defffd04 	addi	sp,sp,-12
    51c0:	dfc00215 	stw	ra,8(sp)
    51c4:	df000115 	stw	fp,4(sp)
    51c8:	df000104 	addi	fp,sp,4
    51cc:	e13fff15 	stw	r4,-4(fp)
    51d0:	01020034 	movhi	r4,2048
    51d4:	21001a04 	addi	r4,r4,104
    51d8:	00054d80 	call	54d8 <puts>
    51dc:	0100fa04 	movi	r4,1000
    51e0:	0002e980 	call	2e98 <vTaskDelay>
    51e4:	003ffa06 	br	51d0 <prvFirstRegTestTask+0x14>

000051e8 <prvSecondRegTestTask>:
    51e8:	defffd04 	addi	sp,sp,-12
    51ec:	dfc00215 	stw	ra,8(sp)
    51f0:	df000115 	stw	fp,4(sp)
    51f4:	df000104 	addi	fp,sp,4
    51f8:	e13fff15 	stw	r4,-4(fp)
    51fc:	01020034 	movhi	r4,2048
    5200:	21001c04 	addi	r4,r4,112
    5204:	00054d80 	call	54d8 <puts>
    5208:	0100fa04 	movi	r4,1000
    520c:	0002e980 	call	2e98 <vTaskDelay>
    5210:	003ffa06 	br	51fc <prvSecondRegTestTask+0x14>

00005214 <memcmp>:
    5214:	00c000c4 	movi	r3,3
    5218:	1980032e 	bgeu	r3,r6,5228 <memcmp+0x14>
    521c:	2144b03a 	or	r2,r4,r5
    5220:	10c4703a 	and	r2,r2,r3
    5224:	10000f26 	beq	r2,zero,5264 <memcmp+0x50>
    5228:	31ffffc4 	addi	r7,r6,-1
    522c:	3000061e 	bne	r6,zero,5248 <memcmp+0x34>
    5230:	00000a06 	br	525c <memcmp+0x48>
    5234:	39ffffc4 	addi	r7,r7,-1
    5238:	00bfffc4 	movi	r2,-1
    523c:	21000044 	addi	r4,r4,1
    5240:	29400044 	addi	r5,r5,1
    5244:	38800526 	beq	r7,r2,525c <memcmp+0x48>
    5248:	20c00003 	ldbu	r3,0(r4)
    524c:	28800003 	ldbu	r2,0(r5)
    5250:	18bff826 	beq	r3,r2,5234 <memcmp+0x20>
    5254:	1885c83a 	sub	r2,r3,r2
    5258:	f800283a 	ret
    525c:	0005883a 	mov	r2,zero
    5260:	f800283a 	ret
    5264:	180f883a 	mov	r7,r3
    5268:	20c00017 	ldw	r3,0(r4)
    526c:	28800017 	ldw	r2,0(r5)
    5270:	18bfed1e 	bne	r3,r2,5228 <memcmp+0x14>
    5274:	31bfff04 	addi	r6,r6,-4
    5278:	21000104 	addi	r4,r4,4
    527c:	29400104 	addi	r5,r5,4
    5280:	39bff936 	bltu	r7,r6,5268 <memcmp+0x54>
    5284:	003fe806 	br	5228 <memcmp+0x14>

00005288 <memcpy>:
    5288:	01c003c4 	movi	r7,15
    528c:	2007883a 	mov	r3,r4
    5290:	3980032e 	bgeu	r7,r6,52a0 <memcpy+0x18>
    5294:	2904b03a 	or	r2,r5,r4
    5298:	108000cc 	andi	r2,r2,3
    529c:	10000926 	beq	r2,zero,52c4 <memcpy+0x3c>
    52a0:	30000626 	beq	r6,zero,52bc <memcpy+0x34>
    52a4:	30cd883a 	add	r6,r6,r3
    52a8:	28800003 	ldbu	r2,0(r5)
    52ac:	29400044 	addi	r5,r5,1
    52b0:	18800005 	stb	r2,0(r3)
    52b4:	18c00044 	addi	r3,r3,1
    52b8:	30fffb1e 	bne	r6,r3,52a8 <memcpy+0x20>
    52bc:	2005883a 	mov	r2,r4
    52c0:	f800283a 	ret
    52c4:	3811883a 	mov	r8,r7
    52c8:	200f883a 	mov	r7,r4
    52cc:	28c00017 	ldw	r3,0(r5)
    52d0:	31bffc04 	addi	r6,r6,-16
    52d4:	38c00015 	stw	r3,0(r7)
    52d8:	28800117 	ldw	r2,4(r5)
    52dc:	38800115 	stw	r2,4(r7)
    52e0:	28c00217 	ldw	r3,8(r5)
    52e4:	38c00215 	stw	r3,8(r7)
    52e8:	28800317 	ldw	r2,12(r5)
    52ec:	29400404 	addi	r5,r5,16
    52f0:	38800315 	stw	r2,12(r7)
    52f4:	39c00404 	addi	r7,r7,16
    52f8:	41bff436 	bltu	r8,r6,52cc <memcpy+0x44>
    52fc:	008000c4 	movi	r2,3
    5300:	1180072e 	bgeu	r2,r6,5320 <memcpy+0x98>
    5304:	1007883a 	mov	r3,r2
    5308:	28800017 	ldw	r2,0(r5)
    530c:	31bfff04 	addi	r6,r6,-4
    5310:	29400104 	addi	r5,r5,4
    5314:	38800015 	stw	r2,0(r7)
    5318:	39c00104 	addi	r7,r7,4
    531c:	19bffa36 	bltu	r3,r6,5308 <memcpy+0x80>
    5320:	3807883a 	mov	r3,r7
    5324:	003fde06 	br	52a0 <memcpy+0x18>

00005328 <memset>:
    5328:	008000c4 	movi	r2,3
    532c:	29403fcc 	andi	r5,r5,255
    5330:	2007883a 	mov	r3,r4
    5334:	1180022e 	bgeu	r2,r6,5340 <memset+0x18>
    5338:	2084703a 	and	r2,r4,r2
    533c:	10000826 	beq	r2,zero,5360 <memset+0x38>
    5340:	30000526 	beq	r6,zero,5358 <memset+0x30>
    5344:	2805883a 	mov	r2,r5
    5348:	30cd883a 	add	r6,r6,r3
    534c:	18800005 	stb	r2,0(r3)
    5350:	18c00044 	addi	r3,r3,1
    5354:	19bffd1e 	bne	r3,r6,534c <memset+0x24>
    5358:	2005883a 	mov	r2,r4
    535c:	f800283a 	ret
    5360:	2804923a 	slli	r2,r5,8
    5364:	020003c4 	movi	r8,15
    5368:	200f883a 	mov	r7,r4
    536c:	2884b03a 	or	r2,r5,r2
    5370:	1006943a 	slli	r3,r2,16
    5374:	10c6b03a 	or	r3,r2,r3
    5378:	41800a2e 	bgeu	r8,r6,53a4 <memset+0x7c>
    537c:	4005883a 	mov	r2,r8
    5380:	31bffc04 	addi	r6,r6,-16
    5384:	38c00015 	stw	r3,0(r7)
    5388:	38c00115 	stw	r3,4(r7)
    538c:	38c00215 	stw	r3,8(r7)
    5390:	38c00315 	stw	r3,12(r7)
    5394:	39c00404 	addi	r7,r7,16
    5398:	11bff936 	bltu	r2,r6,5380 <memset+0x58>
    539c:	008000c4 	movi	r2,3
    53a0:	1180052e 	bgeu	r2,r6,53b8 <memset+0x90>
    53a4:	31bfff04 	addi	r6,r6,-4
    53a8:	008000c4 	movi	r2,3
    53ac:	38c00015 	stw	r3,0(r7)
    53b0:	39c00104 	addi	r7,r7,4
    53b4:	11bffb36 	bltu	r2,r6,53a4 <memset+0x7c>
    53b8:	3807883a 	mov	r3,r7
    53bc:	003fe006 	br	5340 <memset+0x18>

000053c0 <printf>:
    53c0:	defffb04 	addi	sp,sp,-20
    53c4:	dfc00115 	stw	ra,4(sp)
    53c8:	d9400215 	stw	r5,8(sp)
    53cc:	d9800315 	stw	r6,12(sp)
    53d0:	d9c00415 	stw	r7,16(sp)
    53d4:	00820034 	movhi	r2,2048
    53d8:	10892c04 	addi	r2,r2,9392
    53dc:	10c00017 	ldw	r3,0(r2)
    53e0:	200b883a 	mov	r5,r4
    53e4:	d8800204 	addi	r2,sp,8
    53e8:	19000217 	ldw	r4,8(r3)
    53ec:	100d883a 	mov	r6,r2
    53f0:	d8800015 	stw	r2,0(sp)
    53f4:	00074640 	call	7464 <__vfprintf_internal>
    53f8:	dfc00117 	ldw	ra,4(sp)
    53fc:	dec00504 	addi	sp,sp,20
    5400:	f800283a 	ret

00005404 <_printf_r>:
    5404:	defffc04 	addi	sp,sp,-16
    5408:	dfc00115 	stw	ra,4(sp)
    540c:	d9800215 	stw	r6,8(sp)
    5410:	d9c00315 	stw	r7,12(sp)
    5414:	280d883a 	mov	r6,r5
    5418:	21400217 	ldw	r5,8(r4)
    541c:	d8c00204 	addi	r3,sp,8
    5420:	180f883a 	mov	r7,r3
    5424:	d8c00015 	stw	r3,0(sp)
    5428:	00055b80 	call	55b8 <___vfprintf_internal_r>
    542c:	dfc00117 	ldw	ra,4(sp)
    5430:	dec00404 	addi	sp,sp,16
    5434:	f800283a 	ret

00005438 <_puts_r>:
    5438:	defff604 	addi	sp,sp,-40
    543c:	dc400715 	stw	r17,28(sp)
    5440:	2023883a 	mov	r17,r4
    5444:	2809883a 	mov	r4,r5
    5448:	dfc00915 	stw	ra,36(sp)
    544c:	dcc00815 	stw	r19,32(sp)
    5450:	2827883a 	mov	r19,r5
    5454:	00054ec0 	call	54ec <strlen>
    5458:	89400217 	ldw	r5,8(r17)
    545c:	00c20034 	movhi	r3,2048
    5460:	18c01e04 	addi	r3,r3,120
    5464:	01c00044 	movi	r7,1
    5468:	12000044 	addi	r8,r2,1
    546c:	d8c00515 	stw	r3,20(sp)
    5470:	d9c00615 	stw	r7,24(sp)
    5474:	d8c00304 	addi	r3,sp,12
    5478:	01c00084 	movi	r7,2
    547c:	8809883a 	mov	r4,r17
    5480:	d80d883a 	mov	r6,sp
    5484:	d8c00015 	stw	r3,0(sp)
    5488:	dcc00315 	stw	r19,12(sp)
    548c:	da000215 	stw	r8,8(sp)
    5490:	d9c00115 	stw	r7,4(sp)
    5494:	d8800415 	stw	r2,16(sp)
    5498:	00096c00 	call	96c0 <__sfvwrite_r>
    549c:	00ffffc4 	movi	r3,-1
    54a0:	10000626 	beq	r2,zero,54bc <_puts_r+0x84>
    54a4:	1805883a 	mov	r2,r3
    54a8:	dfc00917 	ldw	ra,36(sp)
    54ac:	dcc00817 	ldw	r19,32(sp)
    54b0:	dc400717 	ldw	r17,28(sp)
    54b4:	dec00a04 	addi	sp,sp,40
    54b8:	f800283a 	ret
    54bc:	00c00284 	movi	r3,10
    54c0:	1805883a 	mov	r2,r3
    54c4:	dfc00917 	ldw	ra,36(sp)
    54c8:	dcc00817 	ldw	r19,32(sp)
    54cc:	dc400717 	ldw	r17,28(sp)
    54d0:	dec00a04 	addi	sp,sp,40
    54d4:	f800283a 	ret

000054d8 <puts>:
    54d8:	00820034 	movhi	r2,2048
    54dc:	10892c04 	addi	r2,r2,9392
    54e0:	200b883a 	mov	r5,r4
    54e4:	11000017 	ldw	r4,0(r2)
    54e8:	00054381 	jmpi	5438 <_puts_r>

000054ec <strlen>:
    54ec:	208000cc 	andi	r2,r4,3
    54f0:	2011883a 	mov	r8,r4
    54f4:	1000161e 	bne	r2,zero,5550 <strlen+0x64>
    54f8:	20c00017 	ldw	r3,0(r4)
    54fc:	017fbff4 	movhi	r5,65279
    5500:	297fbfc4 	addi	r5,r5,-257
    5504:	01e02074 	movhi	r7,32897
    5508:	39e02004 	addi	r7,r7,-32640
    550c:	1945883a 	add	r2,r3,r5
    5510:	11c4703a 	and	r2,r2,r7
    5514:	00c6303a 	nor	r3,zero,r3
    5518:	1886703a 	and	r3,r3,r2
    551c:	18000c1e 	bne	r3,zero,5550 <strlen+0x64>
    5520:	280d883a 	mov	r6,r5
    5524:	380b883a 	mov	r5,r7
    5528:	21000104 	addi	r4,r4,4
    552c:	20800017 	ldw	r2,0(r4)
    5530:	1187883a 	add	r3,r2,r6
    5534:	1946703a 	and	r3,r3,r5
    5538:	0084303a 	nor	r2,zero,r2
    553c:	10c4703a 	and	r2,r2,r3
    5540:	103ff926 	beq	r2,zero,5528 <strlen+0x3c>
    5544:	20800007 	ldb	r2,0(r4)
    5548:	10000326 	beq	r2,zero,5558 <strlen+0x6c>
    554c:	21000044 	addi	r4,r4,1
    5550:	20800007 	ldb	r2,0(r4)
    5554:	103ffd1e 	bne	r2,zero,554c <strlen+0x60>
    5558:	2205c83a 	sub	r2,r4,r8
    555c:	f800283a 	ret

00005560 <__sprint_r>:
    5560:	30800217 	ldw	r2,8(r6)
    5564:	defffe04 	addi	sp,sp,-8
    5568:	dc000015 	stw	r16,0(sp)
    556c:	dfc00115 	stw	ra,4(sp)
    5570:	3021883a 	mov	r16,r6
    5574:	0007883a 	mov	r3,zero
    5578:	1000061e 	bne	r2,zero,5594 <__sprint_r+0x34>
    557c:	1805883a 	mov	r2,r3
    5580:	30000115 	stw	zero,4(r6)
    5584:	dfc00117 	ldw	ra,4(sp)
    5588:	dc000017 	ldw	r16,0(sp)
    558c:	dec00204 	addi	sp,sp,8
    5590:	f800283a 	ret
    5594:	00096c00 	call	96c0 <__sfvwrite_r>
    5598:	1007883a 	mov	r3,r2
    559c:	1805883a 	mov	r2,r3
    55a0:	80000115 	stw	zero,4(r16)
    55a4:	80000215 	stw	zero,8(r16)
    55a8:	dfc00117 	ldw	ra,4(sp)
    55ac:	dc000017 	ldw	r16,0(sp)
    55b0:	dec00204 	addi	sp,sp,8
    55b4:	f800283a 	ret

000055b8 <___vfprintf_internal_r>:
    55b8:	defea304 	addi	sp,sp,-1396
    55bc:	dd815915 	stw	r22,1380(sp)
    55c0:	dc015315 	stw	r16,1356(sp)
    55c4:	d9c15215 	stw	r7,1352(sp)
    55c8:	dfc15c15 	stw	ra,1392(sp)
    55cc:	df015b15 	stw	fp,1388(sp)
    55d0:	ddc15a15 	stw	r23,1384(sp)
    55d4:	dd415815 	stw	r21,1376(sp)
    55d8:	dd015715 	stw	r20,1372(sp)
    55dc:	dcc15615 	stw	r19,1368(sp)
    55e0:	dc815515 	stw	r18,1364(sp)
    55e4:	dc415415 	stw	r17,1360(sp)
    55e8:	282d883a 	mov	r22,r5
    55ec:	3021883a 	mov	r16,r6
    55f0:	d9015015 	stw	r4,1344(sp)
    55f4:	0009ce40 	call	9ce4 <_localeconv_r>
    55f8:	10800017 	ldw	r2,0(r2)
    55fc:	d9c15217 	ldw	r7,1352(sp)
    5600:	d8814a15 	stw	r2,1320(sp)
    5604:	d8815017 	ldw	r2,1344(sp)
    5608:	10000226 	beq	r2,zero,5614 <___vfprintf_internal_r+0x5c>
    560c:	10800e17 	ldw	r2,56(r2)
    5610:	10020d26 	beq	r2,zero,5e48 <___vfprintf_internal_r+0x890>
    5614:	b080030b 	ldhu	r2,12(r22)
    5618:	1080020c 	andi	r2,r2,8
    561c:	10020e26 	beq	r2,zero,5e58 <___vfprintf_internal_r+0x8a0>
    5620:	b0800417 	ldw	r2,16(r22)
    5624:	10020c26 	beq	r2,zero,5e58 <___vfprintf_internal_r+0x8a0>
    5628:	b200030b 	ldhu	r8,12(r22)
    562c:	00800284 	movi	r2,10
    5630:	40c0068c 	andi	r3,r8,26
    5634:	18802f1e 	bne	r3,r2,56f4 <___vfprintf_internal_r+0x13c>
    5638:	b080038f 	ldh	r2,14(r22)
    563c:	10002d16 	blt	r2,zero,56f4 <___vfprintf_internal_r+0x13c>
    5640:	b240038b 	ldhu	r9,14(r22)
    5644:	b2800717 	ldw	r10,28(r22)
    5648:	b2c00917 	ldw	r11,36(r22)
    564c:	d9015017 	ldw	r4,1344(sp)
    5650:	dc402a04 	addi	r17,sp,168
    5654:	d8804104 	addi	r2,sp,260
    5658:	00c10004 	movi	r3,1024
    565c:	423fff4c 	andi	r8,r8,65533
    5660:	800d883a 	mov	r6,r16
    5664:	880b883a 	mov	r5,r17
    5668:	da002d0d 	sth	r8,180(sp)
    566c:	da402d8d 	sth	r9,182(sp)
    5670:	da803115 	stw	r10,196(sp)
    5674:	dac03315 	stw	r11,204(sp)
    5678:	d8802e15 	stw	r2,184(sp)
    567c:	d8c02f15 	stw	r3,188(sp)
    5680:	d8802a15 	stw	r2,168(sp)
    5684:	d8c02c15 	stw	r3,176(sp)
    5688:	d8003015 	stw	zero,192(sp)
    568c:	00055b80 	call	55b8 <___vfprintf_internal_r>
    5690:	d8814c15 	stw	r2,1328(sp)
    5694:	10000416 	blt	r2,zero,56a8 <___vfprintf_internal_r+0xf0>
    5698:	d9015017 	ldw	r4,1344(sp)
    569c:	880b883a 	mov	r5,r17
    56a0:	0008d900 	call	8d90 <_fflush_r>
    56a4:	1002321e 	bne	r2,zero,5f70 <___vfprintf_internal_r+0x9b8>
    56a8:	d8802d0b 	ldhu	r2,180(sp)
    56ac:	1080100c 	andi	r2,r2,64
    56b0:	10000326 	beq	r2,zero,56c0 <___vfprintf_internal_r+0x108>
    56b4:	b080030b 	ldhu	r2,12(r22)
    56b8:	10801014 	ori	r2,r2,64
    56bc:	b080030d 	sth	r2,12(r22)
    56c0:	d8814c17 	ldw	r2,1328(sp)
    56c4:	dfc15c17 	ldw	ra,1392(sp)
    56c8:	df015b17 	ldw	fp,1388(sp)
    56cc:	ddc15a17 	ldw	r23,1384(sp)
    56d0:	dd815917 	ldw	r22,1380(sp)
    56d4:	dd415817 	ldw	r21,1376(sp)
    56d8:	dd015717 	ldw	r20,1372(sp)
    56dc:	dcc15617 	ldw	r19,1368(sp)
    56e0:	dc815517 	ldw	r18,1364(sp)
    56e4:	dc415417 	ldw	r17,1360(sp)
    56e8:	dc015317 	ldw	r16,1356(sp)
    56ec:	dec15d04 	addi	sp,sp,1396
    56f0:	f800283a 	ret
    56f4:	0005883a 	mov	r2,zero
    56f8:	0007883a 	mov	r3,zero
    56fc:	dd401a04 	addi	r21,sp,104
    5700:	d8814315 	stw	r2,1292(sp)
    5704:	802f883a 	mov	r23,r16
    5708:	d8c14415 	stw	r3,1296(sp)
    570c:	d8014c15 	stw	zero,1328(sp)
    5710:	d8014915 	stw	zero,1316(sp)
    5714:	d8014515 	stw	zero,1300(sp)
    5718:	d8014815 	stw	zero,1312(sp)
    571c:	dd400d15 	stw	r21,52(sp)
    5720:	d8000f15 	stw	zero,60(sp)
    5724:	d8000e15 	stw	zero,56(sp)
    5728:	b8800007 	ldb	r2,0(r23)
    572c:	10001926 	beq	r2,zero,5794 <___vfprintf_internal_r+0x1dc>
    5730:	00c00944 	movi	r3,37
    5734:	10c01726 	beq	r2,r3,5794 <___vfprintf_internal_r+0x1dc>
    5738:	b821883a 	mov	r16,r23
    573c:	00000106 	br	5744 <___vfprintf_internal_r+0x18c>
    5740:	10c00326 	beq	r2,r3,5750 <___vfprintf_internal_r+0x198>
    5744:	84000044 	addi	r16,r16,1
    5748:	80800007 	ldb	r2,0(r16)
    574c:	103ffc1e 	bne	r2,zero,5740 <___vfprintf_internal_r+0x188>
    5750:	85e7c83a 	sub	r19,r16,r23
    5754:	98000e26 	beq	r19,zero,5790 <___vfprintf_internal_r+0x1d8>
    5758:	dc800f17 	ldw	r18,60(sp)
    575c:	dc400e17 	ldw	r17,56(sp)
    5760:	008001c4 	movi	r2,7
    5764:	94e5883a 	add	r18,r18,r19
    5768:	8c400044 	addi	r17,r17,1
    576c:	adc00015 	stw	r23,0(r21)
    5770:	dc800f15 	stw	r18,60(sp)
    5774:	acc00115 	stw	r19,4(r21)
    5778:	dc400e15 	stw	r17,56(sp)
    577c:	14428b16 	blt	r2,r17,61ac <___vfprintf_internal_r+0xbf4>
    5780:	ad400204 	addi	r21,r21,8
    5784:	d9014c17 	ldw	r4,1328(sp)
    5788:	24c9883a 	add	r4,r4,r19
    578c:	d9014c15 	stw	r4,1328(sp)
    5790:	802f883a 	mov	r23,r16
    5794:	b8800007 	ldb	r2,0(r23)
    5798:	10013c26 	beq	r2,zero,5c8c <___vfprintf_internal_r+0x6d4>
    579c:	bdc00044 	addi	r23,r23,1
    57a0:	d8000405 	stb	zero,16(sp)
    57a4:	b8c00007 	ldb	r3,0(r23)
    57a8:	04ffffc4 	movi	r19,-1
    57ac:	d8014d15 	stw	zero,1332(sp)
    57b0:	d8014b15 	stw	zero,1324(sp)
    57b4:	d8c14e15 	stw	r3,1336(sp)
    57b8:	bdc00044 	addi	r23,r23,1
    57bc:	d9414e17 	ldw	r5,1336(sp)
    57c0:	00801604 	movi	r2,88
    57c4:	28fff804 	addi	r3,r5,-32
    57c8:	10c06036 	bltu	r2,r3,594c <___vfprintf_internal_r+0x394>
    57cc:	18c5883a 	add	r2,r3,r3
    57d0:	1085883a 	add	r2,r2,r2
    57d4:	00c00034 	movhi	r3,0
    57d8:	18d5fa04 	addi	r3,r3,22504
    57dc:	10c5883a 	add	r2,r2,r3
    57e0:	11000017 	ldw	r4,0(r2)
    57e4:	2000683a 	jmp	r4
    57e8:	0000675c 	xori	zero,zero,413
    57ec:	0000594c 	andi	zero,zero,357
    57f0:	0000594c 	andi	zero,zero,357
    57f4:	00006748 	cmpgei	zero,zero,413
    57f8:	0000594c 	andi	zero,zero,357
    57fc:	0000594c 	andi	zero,zero,357
    5800:	0000594c 	andi	zero,zero,357
    5804:	0000594c 	andi	zero,zero,357
    5808:	0000594c 	andi	zero,zero,357
    580c:	0000594c 	andi	zero,zero,357
    5810:	00006528 	cmpgeui	zero,zero,404
    5814:	00006738 	rdprs	zero,zero,412
    5818:	0000594c 	andi	zero,zero,357
    581c:	00006540 	call	654 <prvCheckDelayedList+0x110>
    5820:	000067d4 	movui	zero,415
    5824:	0000594c 	andi	zero,zero,357
    5828:	000067c0 	call	67c <prvCheckDelayedList+0x138>
    582c:	00006788 	cmpgei	zero,zero,414
    5830:	00006788 	cmpgei	zero,zero,414
    5834:	00006788 	cmpgei	zero,zero,414
    5838:	00006788 	cmpgei	zero,zero,414
    583c:	00006788 	cmpgei	zero,zero,414
    5840:	00006788 	cmpgei	zero,zero,414
    5844:	00006788 	cmpgei	zero,zero,414
    5848:	00006788 	cmpgei	zero,zero,414
    584c:	00006788 	cmpgei	zero,zero,414
    5850:	0000594c 	andi	zero,zero,357
    5854:	0000594c 	andi	zero,zero,357
    5858:	0000594c 	andi	zero,zero,357
    585c:	0000594c 	andi	zero,zero,357
    5860:	0000594c 	andi	zero,zero,357
    5864:	0000594c 	andi	zero,zero,357
    5868:	0000594c 	andi	zero,zero,357
    586c:	0000594c 	andi	zero,zero,357
    5870:	0000594c 	andi	zero,zero,357
    5874:	0000594c 	andi	zero,zero,357
    5878:	00005fa4 	muli	zero,zero,382
    587c:	00006610 	cmplti	zero,zero,408
    5880:	0000594c 	andi	zero,zero,357
    5884:	00006610 	cmplti	zero,zero,408
    5888:	0000594c 	andi	zero,zero,357
    588c:	0000594c 	andi	zero,zero,357
    5890:	0000594c 	andi	zero,zero,357
    5894:	0000594c 	andi	zero,zero,357
    5898:	00006774 	movhi	zero,413
    589c:	0000594c 	andi	zero,zero,357
    58a0:	0000594c 	andi	zero,zero,357
    58a4:	00006058 	cmpnei	zero,zero,385
    58a8:	0000594c 	andi	zero,zero,357
    58ac:	0000594c 	andi	zero,zero,357
    58b0:	0000594c 	andi	zero,zero,357
    58b4:	0000594c 	andi	zero,zero,357
    58b8:	0000594c 	andi	zero,zero,357
    58bc:	000060a4 	muli	zero,zero,386
    58c0:	0000594c 	andi	zero,zero,357
    58c4:	0000594c 	andi	zero,zero,357
    58c8:	000066c4 	movi	zero,411
    58cc:	0000594c 	andi	zero,zero,357
    58d0:	0000594c 	andi	zero,zero,357
    58d4:	0000594c 	andi	zero,zero,357
    58d8:	0000594c 	andi	zero,zero,357
    58dc:	0000594c 	andi	zero,zero,357
    58e0:	0000594c 	andi	zero,zero,357
    58e4:	0000594c 	andi	zero,zero,357
    58e8:	0000594c 	andi	zero,zero,357
    58ec:	0000594c 	andi	zero,zero,357
